GAS LISTING /var/folders/1s/lqjcb7x5323625d47g9gdgmr0000gp/T//ccQR4rtp.s 			page 1


   1               		.file	"HardwareSerial.cpp"
   2               	__SREG__ = 0x3f
   3               	__SP_H__ = 0x3e
   4               	__SP_L__ = 0x3d
   5               	__CCP__  = 0x34
   6               	__tmp_reg__ = 0
   7               	__zero_reg__ = 1
   8               		.global __do_copy_data
   9               		.global __do_clear_bss
  10               		.section	.debug_abbrev,"",@progbits
  11               	.Ldebug_abbrev0:
  12               		.section	.debug_info,"",@progbits
  13               	.Ldebug_info0:
  14               		.section	.debug_line,"",@progbits
  15               	.Ldebug_line0:
  16               		.text
  17               	.Ltext0:
  18               		.section	.text._Z11serialEventv,"ax",@progbits
  19               		.weak	_Z11serialEventv
  20               		.type	_Z11serialEventv, @function
  21               	_Z11serialEventv:
  22               	.LFB76:
  23               	.LSM0:
  24               	/* prologue: function */
  25               	/* frame size = 0 */
  26               	/* epilogue start */
  27               	.LSM1:
  28 0000 0895      		ret
  29               	.LFE76:
  30               		.size	_Z11serialEventv, .-_Z11serialEventv
  31               		.section	.text.__vector_25,"ax",@progbits
  32               	.global	__vector_25
  33               		.type	__vector_25, @function
  34               	__vector_25:
  35               	.LFB77:
  36               	.LSM2:
  37 0000 1F92      		push __zero_reg__
  38 0002 0F92      		push r0
  39 0004 0FB6      		in r0,__SREG__
  40 0006 0F92      		push r0
  41 0008 0BB6      		in r0,91-32
  42 000a 0F92      		push r0
  43 000c 1124      		clr __zero_reg__
  44 000e 2F93      		push r18
  45 0010 3F93      		push r19
  46 0012 4F93      		push r20
  47 0014 8F93      		push r24
  48 0016 9F93      		push r25
  49 0018 EF93      		push r30
  50 001a FF93      		push r31
  51               	/* prologue: Signal */
  52               	/* frame size = 0 */
  53               	.LBB126:
  54               	.LSM3:
  55 001c 8091 C000 		lds r24,192
  56 0020 82FD      		sbrc r24,2
  57 0022 00C0      		rjmp .L4
GAS LISTING /var/folders/1s/lqjcb7x5323625d47g9gdgmr0000gp/T//ccQR4rtp.s 			page 2


  58               	.LBB127:
  59               	.LSM4:
  60 0024 4091 C600 		lds r20,198
  61               	.LVL0:
  62               	.LBB128:
  63               	.LBB129:
  64               	.LBB130:
  65               	.LSM5:
  66 0028 2091 0000 		lds r18,rx_buffer+64
  67 002c 3091 0000 		lds r19,(rx_buffer+64)+1
  68               	.LSM6:
  69 0030 2F5F      		subi r18,lo8(-(1))
  70 0032 3F4F      		sbci r19,hi8(-(1))
  71 0034 2F73      		andi r18,lo8(63)
  72 0036 3070      		andi r19,hi8(63)
  73 0038 8091 0000 		lds r24,rx_buffer+66
  74 003c 9091 0000 		lds r25,(rx_buffer+66)+1
  75 0040 2817      		cp r18,r24
  76 0042 3907      		cpc r19,r25
  77 0044 01F0      		breq .L6
  78               	.LSM7:
  79 0046 E091 0000 		lds r30,rx_buffer+64
  80 004a F091 0000 		lds r31,(rx_buffer+64)+1
  81 004e E050      		subi r30,lo8(-(rx_buffer))
  82 0050 F040      		sbci r31,hi8(-(rx_buffer))
  83 0052 4083      		st Z,r20
  84               	.LSM8:
  85 0054 3093 0000 		sts (rx_buffer+64)+1,r19
  86 0058 2093 0000 		sts rx_buffer+64,r18
  87 005c 00C0      		rjmp .L6
  88               	.LVL1:
  89               	.L4:
  90               	.LBE130:
  91               	.LBE129:
  92               	.LBE128:
  93               	.LBE127:
  94               	.LBB131:
  95               	.LSM9:
  96 005e 8091 C600 		lds r24,198
  97               	.LVL2:
  98               	.L6:
  99               	/* epilogue start */
 100               	.LBE131:
 101               	.LBE126:
 102               	.LSM10:
 103 0062 FF91      		pop r31
 104 0064 EF91      		pop r30
 105 0066 9F91      		pop r25
 106 0068 8F91      		pop r24
 107               	.LVL3:
 108 006a 4F91      		pop r20
 109               	.LVL4:
 110 006c 3F91      		pop r19
 111 006e 2F91      		pop r18
 112 0070 0F90      		pop r0
 113 0072 0BBE      		out 91-32,r0
 114 0074 0F90      		pop r0
GAS LISTING /var/folders/1s/lqjcb7x5323625d47g9gdgmr0000gp/T//ccQR4rtp.s 			page 3


 115 0076 0FBE      		out __SREG__,r0
 116 0078 0F90      		pop r0
 117 007a 1F90      		pop __zero_reg__
 118 007c 1895      		reti
 119               	.LFE77:
 120               		.size	__vector_25, .-__vector_25
 121               		.section	.text._Z12serialEvent1v,"ax",@progbits
 122               		.weak	_Z12serialEvent1v
 123               		.type	_Z12serialEvent1v, @function
 124               	_Z12serialEvent1v:
 125               	.LFB78:
 126               	.LSM11:
 127               	/* prologue: function */
 128               	/* frame size = 0 */
 129               	/* epilogue start */
 130               	.LSM12:
 131 0000 0895      		ret
 132               	.LFE78:
 133               		.size	_Z12serialEvent1v, .-_Z12serialEvent1v
 134               		.section	.text.__vector_36,"ax",@progbits
 135               	.global	__vector_36
 136               		.type	__vector_36, @function
 137               	__vector_36:
 138               	.LFB79:
 139               	.LSM13:
 140 0000 1F92      		push __zero_reg__
 141 0002 0F92      		push r0
 142 0004 0FB6      		in r0,__SREG__
 143 0006 0F92      		push r0
 144 0008 0BB6      		in r0,91-32
 145 000a 0F92      		push r0
 146 000c 1124      		clr __zero_reg__
 147 000e 2F93      		push r18
 148 0010 3F93      		push r19
 149 0012 4F93      		push r20
 150 0014 8F93      		push r24
 151 0016 9F93      		push r25
 152 0018 EF93      		push r30
 153 001a FF93      		push r31
 154               	/* prologue: Signal */
 155               	/* frame size = 0 */
 156               	.LBB132:
 157               	.LSM14:
 158 001c 8091 C800 		lds r24,200
 159 0020 82FD      		sbrc r24,2
 160 0022 00C0      		rjmp .L10
 161               	.LBB133:
 162               	.LSM15:
 163 0024 4091 CE00 		lds r20,206
 164               	.LVL5:
 165               	.LBB134:
 166               	.LBB135:
 167               	.LBB136:
 168               	.LSM16:
 169 0028 2091 0000 		lds r18,rx_buffer1+64
 170 002c 3091 0000 		lds r19,(rx_buffer1+64)+1
 171               	.LSM17:
GAS LISTING /var/folders/1s/lqjcb7x5323625d47g9gdgmr0000gp/T//ccQR4rtp.s 			page 4


 172 0030 2F5F      		subi r18,lo8(-(1))
 173 0032 3F4F      		sbci r19,hi8(-(1))
 174 0034 2F73      		andi r18,lo8(63)
 175 0036 3070      		andi r19,hi8(63)
 176 0038 8091 0000 		lds r24,rx_buffer1+66
 177 003c 9091 0000 		lds r25,(rx_buffer1+66)+1
 178 0040 2817      		cp r18,r24
 179 0042 3907      		cpc r19,r25
 180 0044 01F0      		breq .L12
 181               	.LSM18:
 182 0046 E091 0000 		lds r30,rx_buffer1+64
 183 004a F091 0000 		lds r31,(rx_buffer1+64)+1
 184 004e E050      		subi r30,lo8(-(rx_buffer1))
 185 0050 F040      		sbci r31,hi8(-(rx_buffer1))
 186 0052 4083      		st Z,r20
 187               	.LSM19:
 188 0054 3093 0000 		sts (rx_buffer1+64)+1,r19
 189 0058 2093 0000 		sts rx_buffer1+64,r18
 190 005c 00C0      		rjmp .L12
 191               	.LVL6:
 192               	.L10:
 193               	.LBE136:
 194               	.LBE135:
 195               	.LBE134:
 196               	.LBE133:
 197               	.LBB137:
 198               	.LSM20:
 199 005e 8091 CE00 		lds r24,206
 200               	.LVL7:
 201               	.L12:
 202               	/* epilogue start */
 203               	.LBE137:
 204               	.LBE132:
 205               	.LSM21:
 206 0062 FF91      		pop r31
 207 0064 EF91      		pop r30
 208 0066 9F91      		pop r25
 209 0068 8F91      		pop r24
 210               	.LVL8:
 211 006a 4F91      		pop r20
 212               	.LVL9:
 213 006c 3F91      		pop r19
 214 006e 2F91      		pop r18
 215 0070 0F90      		pop r0
 216 0072 0BBE      		out 91-32,r0
 217 0074 0F90      		pop r0
 218 0076 0FBE      		out __SREG__,r0
 219 0078 0F90      		pop r0
 220 007a 1F90      		pop __zero_reg__
 221 007c 1895      		reti
 222               	.LFE79:
 223               		.size	__vector_36, .-__vector_36
 224               		.section	.text._Z12serialEvent2v,"ax",@progbits
 225               		.weak	_Z12serialEvent2v
 226               		.type	_Z12serialEvent2v, @function
 227               	_Z12serialEvent2v:
 228               	.LFB80:
GAS LISTING /var/folders/1s/lqjcb7x5323625d47g9gdgmr0000gp/T//ccQR4rtp.s 			page 5


 229               	.LSM22:
 230               	/* prologue: function */
 231               	/* frame size = 0 */
 232               	/* epilogue start */
 233               	.LSM23:
 234 0000 0895      		ret
 235               	.LFE80:
 236               		.size	_Z12serialEvent2v, .-_Z12serialEvent2v
 237               		.section	.text.__vector_51,"ax",@progbits
 238               	.global	__vector_51
 239               		.type	__vector_51, @function
 240               	__vector_51:
 241               	.LFB81:
 242               	.LSM24:
 243 0000 1F92      		push __zero_reg__
 244 0002 0F92      		push r0
 245 0004 0FB6      		in r0,__SREG__
 246 0006 0F92      		push r0
 247 0008 0BB6      		in r0,91-32
 248 000a 0F92      		push r0
 249 000c 1124      		clr __zero_reg__
 250 000e 2F93      		push r18
 251 0010 3F93      		push r19
 252 0012 4F93      		push r20
 253 0014 8F93      		push r24
 254 0016 9F93      		push r25
 255 0018 EF93      		push r30
 256 001a FF93      		push r31
 257               	/* prologue: Signal */
 258               	/* frame size = 0 */
 259               	.LBB138:
 260               	.LSM25:
 261 001c 8091 D000 		lds r24,208
 262 0020 82FD      		sbrc r24,2
 263 0022 00C0      		rjmp .L16
 264               	.LBB139:
 265               	.LSM26:
 266 0024 4091 D600 		lds r20,214
 267               	.LVL10:
 268               	.LBB140:
 269               	.LBB141:
 270               	.LBB142:
 271               	.LSM27:
 272 0028 2091 0000 		lds r18,rx_buffer2+64
 273 002c 3091 0000 		lds r19,(rx_buffer2+64)+1
 274               	.LSM28:
 275 0030 2F5F      		subi r18,lo8(-(1))
 276 0032 3F4F      		sbci r19,hi8(-(1))
 277 0034 2F73      		andi r18,lo8(63)
 278 0036 3070      		andi r19,hi8(63)
 279 0038 8091 0000 		lds r24,rx_buffer2+66
 280 003c 9091 0000 		lds r25,(rx_buffer2+66)+1
 281 0040 2817      		cp r18,r24
 282 0042 3907      		cpc r19,r25
 283 0044 01F0      		breq .L18
 284               	.LSM29:
 285 0046 E091 0000 		lds r30,rx_buffer2+64
GAS LISTING /var/folders/1s/lqjcb7x5323625d47g9gdgmr0000gp/T//ccQR4rtp.s 			page 6


 286 004a F091 0000 		lds r31,(rx_buffer2+64)+1
 287 004e E050      		subi r30,lo8(-(rx_buffer2))
 288 0050 F040      		sbci r31,hi8(-(rx_buffer2))
 289 0052 4083      		st Z,r20
 290               	.LSM30:
 291 0054 3093 0000 		sts (rx_buffer2+64)+1,r19
 292 0058 2093 0000 		sts rx_buffer2+64,r18
 293 005c 00C0      		rjmp .L18
 294               	.LVL11:
 295               	.L16:
 296               	.LBE142:
 297               	.LBE141:
 298               	.LBE140:
 299               	.LBE139:
 300               	.LBB143:
 301               	.LSM31:
 302 005e 8091 D600 		lds r24,214
 303               	.LVL12:
 304               	.L18:
 305               	/* epilogue start */
 306               	.LBE143:
 307               	.LBE138:
 308               	.LSM32:
 309 0062 FF91      		pop r31
 310 0064 EF91      		pop r30
 311 0066 9F91      		pop r25
 312 0068 8F91      		pop r24
 313               	.LVL13:
 314 006a 4F91      		pop r20
 315               	.LVL14:
 316 006c 3F91      		pop r19
 317 006e 2F91      		pop r18
 318 0070 0F90      		pop r0
 319 0072 0BBE      		out 91-32,r0
 320 0074 0F90      		pop r0
 321 0076 0FBE      		out __SREG__,r0
 322 0078 0F90      		pop r0
 323 007a 1F90      		pop __zero_reg__
 324 007c 1895      		reti
 325               	.LFE81:
 326               		.size	__vector_51, .-__vector_51
 327               		.section	.text._Z12serialEvent3v,"ax",@progbits
 328               		.weak	_Z12serialEvent3v
 329               		.type	_Z12serialEvent3v, @function
 330               	_Z12serialEvent3v:
 331               	.LFB82:
 332               	.LSM33:
 333               	/* prologue: function */
 334               	/* frame size = 0 */
 335               	/* epilogue start */
 336               	.LSM34:
 337 0000 0895      		ret
 338               	.LFE82:
 339               		.size	_Z12serialEvent3v, .-_Z12serialEvent3v
 340               		.section	.text.__vector_54,"ax",@progbits
 341               	.global	__vector_54
 342               		.type	__vector_54, @function
GAS LISTING /var/folders/1s/lqjcb7x5323625d47g9gdgmr0000gp/T//ccQR4rtp.s 			page 7


 343               	__vector_54:
 344               	.LFB83:
 345               	.LSM35:
 346 0000 1F92      		push __zero_reg__
 347 0002 0F92      		push r0
 348 0004 0FB6      		in r0,__SREG__
 349 0006 0F92      		push r0
 350 0008 0BB6      		in r0,91-32
 351 000a 0F92      		push r0
 352 000c 1124      		clr __zero_reg__
 353 000e 2F93      		push r18
 354 0010 3F93      		push r19
 355 0012 4F93      		push r20
 356 0014 8F93      		push r24
 357 0016 9F93      		push r25
 358 0018 EF93      		push r30
 359 001a FF93      		push r31
 360               	/* prologue: Signal */
 361               	/* frame size = 0 */
 362               	.LBB144:
 363               	.LSM36:
 364 001c 8091 3001 		lds r24,304
 365 0020 82FD      		sbrc r24,2
 366 0022 00C0      		rjmp .L22
 367               	.LBB145:
 368               	.LSM37:
 369 0024 4091 3601 		lds r20,310
 370               	.LVL15:
 371               	.LBB146:
 372               	.LBB147:
 373               	.LBB148:
 374               	.LSM38:
 375 0028 2091 0000 		lds r18,rx_buffer3+64
 376 002c 3091 0000 		lds r19,(rx_buffer3+64)+1
 377               	.LSM39:
 378 0030 2F5F      		subi r18,lo8(-(1))
 379 0032 3F4F      		sbci r19,hi8(-(1))
 380 0034 2F73      		andi r18,lo8(63)
 381 0036 3070      		andi r19,hi8(63)
 382 0038 8091 0000 		lds r24,rx_buffer3+66
 383 003c 9091 0000 		lds r25,(rx_buffer3+66)+1
 384 0040 2817      		cp r18,r24
 385 0042 3907      		cpc r19,r25
 386 0044 01F0      		breq .L24
 387               	.LSM40:
 388 0046 E091 0000 		lds r30,rx_buffer3+64
 389 004a F091 0000 		lds r31,(rx_buffer3+64)+1
 390 004e E050      		subi r30,lo8(-(rx_buffer3))
 391 0050 F040      		sbci r31,hi8(-(rx_buffer3))
 392 0052 4083      		st Z,r20
 393               	.LSM41:
 394 0054 3093 0000 		sts (rx_buffer3+64)+1,r19
 395 0058 2093 0000 		sts rx_buffer3+64,r18
 396 005c 00C0      		rjmp .L24
 397               	.LVL16:
 398               	.L22:
 399               	.LBE148:
GAS LISTING /var/folders/1s/lqjcb7x5323625d47g9gdgmr0000gp/T//ccQR4rtp.s 			page 8


 400               	.LBE147:
 401               	.LBE146:
 402               	.LBE145:
 403               	.LBB149:
 404               	.LSM42:
 405 005e 8091 3601 		lds r24,310
 406               	.LVL17:
 407               	.L24:
 408               	/* epilogue start */
 409               	.LBE149:
 410               	.LBE144:
 411               	.LSM43:
 412 0062 FF91      		pop r31
 413 0064 EF91      		pop r30
 414 0066 9F91      		pop r25
 415 0068 8F91      		pop r24
 416               	.LVL18:
 417 006a 4F91      		pop r20
 418               	.LVL19:
 419 006c 3F91      		pop r19
 420 006e 2F91      		pop r18
 421 0070 0F90      		pop r0
 422 0072 0BBE      		out 91-32,r0
 423 0074 0F90      		pop r0
 424 0076 0FBE      		out __SREG__,r0
 425 0078 0F90      		pop r0
 426 007a 1F90      		pop __zero_reg__
 427 007c 1895      		reti
 428               	.LFE83:
 429               		.size	__vector_54, .-__vector_54
 430               		.section	.text._Z14serialEventRunv,"ax",@progbits
 431               		.weak	_Z14serialEventRunv
 432               		.type	_Z14serialEventRunv, @function
 433               	_Z14serialEventRunv:
 434               	.LFB84:
 435               	.LSM44:
 436               	/* prologue: function */
 437               	/* frame size = 0 */
 438               	.LBB158:
 439               	.LBB159:
 440               	.LSM45:
 441 0000 E091 0000 		lds r30,Serial+12
 442 0004 F091 0000 		lds r31,(Serial+12)+1
 443 0008 E05C      		subi r30,lo8(-(64))
 444 000a FF4F      		sbci r31,hi8(-(64))
 445 000c 8191      		ld r24,Z+
 446 000e 9191      		ld r25,Z+
 447 0010 2081      		ld r18,Z
 448 0012 3181      		ldd r19,Z+1
 449               	.LBE159:
 450               	.LBE158:
 451               	.LSM46:
 452 0014 821B      		sub r24,r18
 453 0016 930B      		sbc r25,r19
 454 0018 8F73      		andi r24,lo8(63)
 455 001a 9070      		andi r25,hi8(63)
 456 001c 892B      		or r24,r25
GAS LISTING /var/folders/1s/lqjcb7x5323625d47g9gdgmr0000gp/T//ccQR4rtp.s 			page 9


 457 001e 01F0      		breq .L26
 458 0020 0E94 0000 		call _Z11serialEventv
 459               	.L26:
 460               	.LBB160:
 461               	.LBB161:
 462               	.LSM47:
 463 0024 E091 0000 		lds r30,Serial1+12
 464 0028 F091 0000 		lds r31,(Serial1+12)+1
 465 002c E05C      		subi r30,lo8(-(64))
 466 002e FF4F      		sbci r31,hi8(-(64))
 467 0030 8191      		ld r24,Z+
 468 0032 9191      		ld r25,Z+
 469 0034 2081      		ld r18,Z
 470 0036 3181      		ldd r19,Z+1
 471               	.LBE161:
 472               	.LBE160:
 473               	.LSM48:
 474 0038 821B      		sub r24,r18
 475 003a 930B      		sbc r25,r19
 476 003c 8F73      		andi r24,lo8(63)
 477 003e 9070      		andi r25,hi8(63)
 478 0040 892B      		or r24,r25
 479 0042 01F0      		breq .L27
 480 0044 0E94 0000 		call _Z12serialEvent1v
 481               	.L27:
 482               	.LBB162:
 483               	.LBB163:
 484               	.LSM49:
 485 0048 E091 0000 		lds r30,Serial2+12
 486 004c F091 0000 		lds r31,(Serial2+12)+1
 487 0050 E05C      		subi r30,lo8(-(64))
 488 0052 FF4F      		sbci r31,hi8(-(64))
 489 0054 8191      		ld r24,Z+
 490 0056 9191      		ld r25,Z+
 491 0058 2081      		ld r18,Z
 492 005a 3181      		ldd r19,Z+1
 493               	.LBE163:
 494               	.LBE162:
 495               	.LSM50:
 496 005c 821B      		sub r24,r18
 497 005e 930B      		sbc r25,r19
 498 0060 8F73      		andi r24,lo8(63)
 499 0062 9070      		andi r25,hi8(63)
 500 0064 892B      		or r24,r25
 501 0066 01F0      		breq .L28
 502 0068 0E94 0000 		call _Z12serialEvent2v
 503               	.L28:
 504               	.LBB164:
 505               	.LBB165:
 506               	.LSM51:
 507 006c E091 0000 		lds r30,Serial3+12
 508 0070 F091 0000 		lds r31,(Serial3+12)+1
 509 0074 E05C      		subi r30,lo8(-(64))
 510 0076 FF4F      		sbci r31,hi8(-(64))
 511 0078 8191      		ld r24,Z+
 512 007a 9191      		ld r25,Z+
 513 007c 2081      		ld r18,Z
GAS LISTING /var/folders/1s/lqjcb7x5323625d47g9gdgmr0000gp/T//ccQR4rtp.s 			page 10


 514 007e 3181      		ldd r19,Z+1
 515               	.LBE165:
 516               	.LBE164:
 517               	.LSM52:
 518 0080 821B      		sub r24,r18
 519 0082 930B      		sbc r25,r19
 520 0084 8F73      		andi r24,lo8(63)
 521 0086 9070      		andi r25,hi8(63)
 522 0088 892B      		or r24,r25
 523 008a 01F0      		breq .L30
 524 008c 0E94 0000 		call _Z12serialEvent3v
 525               	.L30:
 526 0090 0895      		ret
 527               	.LFE84:
 528               		.size	_Z14serialEventRunv, .-_Z14serialEventRunv
 529               		.section	.text.__vector_26,"ax",@progbits
 530               	.global	__vector_26
 531               		.type	__vector_26, @function
 532               	__vector_26:
 533               	.LFB85:
 534               	.LSM53:
 535 0000 1F92      		push __zero_reg__
 536 0002 0F92      		push r0
 537 0004 0FB6      		in r0,__SREG__
 538 0006 0F92      		push r0
 539 0008 0BB6      		in r0,91-32
 540 000a 0F92      		push r0
 541 000c 1124      		clr __zero_reg__
 542 000e 2F93      		push r18
 543 0010 3F93      		push r19
 544 0012 8F93      		push r24
 545 0014 9F93      		push r25
 546 0016 EF93      		push r30
 547 0018 FF93      		push r31
 548               	/* prologue: Signal */
 549               	/* frame size = 0 */
 550               	.LBB166:
 551               	.LSM54:
 552 001a 2091 0000 		lds r18,tx_buffer+64
 553 001e 3091 0000 		lds r19,(tx_buffer+64)+1
 554 0022 8091 0000 		lds r24,tx_buffer+66
 555 0026 9091 0000 		lds r25,(tx_buffer+66)+1
 556 002a 2817      		cp r18,r24
 557 002c 3907      		cpc r19,r25
 558 002e 01F4      		brne .L32
 559               	.LSM55:
 560 0030 8091 C100 		lds r24,193
 561 0034 8F7D      		andi r24,lo8(-33)
 562 0036 8093 C100 		sts 193,r24
 563 003a 00C0      		rjmp .L34
 564               	.L32:
 565               	.LBB167:
 566               	.LSM56:
 567 003c E091 0000 		lds r30,tx_buffer+66
 568 0040 F091 0000 		lds r31,(tx_buffer+66)+1
 569 0044 E050      		subi r30,lo8(-(tx_buffer))
 570 0046 F040      		sbci r31,hi8(-(tx_buffer))
GAS LISTING /var/folders/1s/lqjcb7x5323625d47g9gdgmr0000gp/T//ccQR4rtp.s 			page 11


 571 0048 2081      		ld r18,Z
 572               	.LVL20:
 573               	.LSM57:
 574 004a 8091 0000 		lds r24,tx_buffer+66
 575 004e 9091 0000 		lds r25,(tx_buffer+66)+1
 576 0052 0196      		adiw r24,1
 577 0054 8F73      		andi r24,lo8(63)
 578 0056 9070      		andi r25,hi8(63)
 579 0058 9093 0000 		sts (tx_buffer+66)+1,r25
 580 005c 8093 0000 		sts tx_buffer+66,r24
 581               	.LSM58:
 582 0060 2093 C600 		sts 198,r18
 583               	.L34:
 584               	/* epilogue start */
 585               	.LBE167:
 586               	.LBE166:
 587               	.LSM59:
 588 0064 FF91      		pop r31
 589 0066 EF91      		pop r30
 590 0068 9F91      		pop r25
 591 006a 8F91      		pop r24
 592 006c 3F91      		pop r19
 593 006e 2F91      		pop r18
 594               	.LVL21:
 595 0070 0F90      		pop r0
 596 0072 0BBE      		out 91-32,r0
 597 0074 0F90      		pop r0
 598 0076 0FBE      		out __SREG__,r0
 599 0078 0F90      		pop r0
 600 007a 1F90      		pop __zero_reg__
 601 007c 1895      		reti
 602               	.LFE85:
 603               		.size	__vector_26, .-__vector_26
 604               		.section	.text.__vector_37,"ax",@progbits
 605               	.global	__vector_37
 606               		.type	__vector_37, @function
 607               	__vector_37:
 608               	.LFB86:
 609               	.LSM60:
 610 0000 1F92      		push __zero_reg__
 611 0002 0F92      		push r0
 612 0004 0FB6      		in r0,__SREG__
 613 0006 0F92      		push r0
 614 0008 0BB6      		in r0,91-32
 615 000a 0F92      		push r0
 616 000c 1124      		clr __zero_reg__
 617 000e 2F93      		push r18
 618 0010 3F93      		push r19
 619 0012 8F93      		push r24
 620 0014 9F93      		push r25
 621 0016 EF93      		push r30
 622 0018 FF93      		push r31
 623               	/* prologue: Signal */
 624               	/* frame size = 0 */
 625               	.LBB168:
 626               	.LSM61:
 627 001a 2091 0000 		lds r18,tx_buffer1+64
GAS LISTING /var/folders/1s/lqjcb7x5323625d47g9gdgmr0000gp/T//ccQR4rtp.s 			page 12


 628 001e 3091 0000 		lds r19,(tx_buffer1+64)+1
 629 0022 8091 0000 		lds r24,tx_buffer1+66
 630 0026 9091 0000 		lds r25,(tx_buffer1+66)+1
 631 002a 2817      		cp r18,r24
 632 002c 3907      		cpc r19,r25
 633 002e 01F4      		brne .L36
 634               	.LSM62:
 635 0030 8091 C900 		lds r24,201
 636 0034 8F7D      		andi r24,lo8(-33)
 637 0036 8093 C900 		sts 201,r24
 638 003a 00C0      		rjmp .L38
 639               	.L36:
 640               	.LBB169:
 641               	.LSM63:
 642 003c E091 0000 		lds r30,tx_buffer1+66
 643 0040 F091 0000 		lds r31,(tx_buffer1+66)+1
 644 0044 E050      		subi r30,lo8(-(tx_buffer1))
 645 0046 F040      		sbci r31,hi8(-(tx_buffer1))
 646 0048 2081      		ld r18,Z
 647               	.LVL22:
 648               	.LSM64:
 649 004a 8091 0000 		lds r24,tx_buffer1+66
 650 004e 9091 0000 		lds r25,(tx_buffer1+66)+1
 651 0052 0196      		adiw r24,1
 652 0054 8F73      		andi r24,lo8(63)
 653 0056 9070      		andi r25,hi8(63)
 654 0058 9093 0000 		sts (tx_buffer1+66)+1,r25
 655 005c 8093 0000 		sts tx_buffer1+66,r24
 656               	.LSM65:
 657 0060 2093 CE00 		sts 206,r18
 658               	.L38:
 659               	/* epilogue start */
 660               	.LBE169:
 661               	.LBE168:
 662               	.LSM66:
 663 0064 FF91      		pop r31
 664 0066 EF91      		pop r30
 665 0068 9F91      		pop r25
 666 006a 8F91      		pop r24
 667 006c 3F91      		pop r19
 668 006e 2F91      		pop r18
 669               	.LVL23:
 670 0070 0F90      		pop r0
 671 0072 0BBE      		out 91-32,r0
 672 0074 0F90      		pop r0
 673 0076 0FBE      		out __SREG__,r0
 674 0078 0F90      		pop r0
 675 007a 1F90      		pop __zero_reg__
 676 007c 1895      		reti
 677               	.LFE86:
 678               		.size	__vector_37, .-__vector_37
 679               		.section	.text.__vector_52,"ax",@progbits
 680               	.global	__vector_52
 681               		.type	__vector_52, @function
 682               	__vector_52:
 683               	.LFB87:
 684               	.LSM67:
GAS LISTING /var/folders/1s/lqjcb7x5323625d47g9gdgmr0000gp/T//ccQR4rtp.s 			page 13


 685 0000 1F92      		push __zero_reg__
 686 0002 0F92      		push r0
 687 0004 0FB6      		in r0,__SREG__
 688 0006 0F92      		push r0
 689 0008 0BB6      		in r0,91-32
 690 000a 0F92      		push r0
 691 000c 1124      		clr __zero_reg__
 692 000e 2F93      		push r18
 693 0010 3F93      		push r19
 694 0012 8F93      		push r24
 695 0014 9F93      		push r25
 696 0016 EF93      		push r30
 697 0018 FF93      		push r31
 698               	/* prologue: Signal */
 699               	/* frame size = 0 */
 700               	.LBB170:
 701               	.LSM68:
 702 001a 2091 0000 		lds r18,tx_buffer2+64
 703 001e 3091 0000 		lds r19,(tx_buffer2+64)+1
 704 0022 8091 0000 		lds r24,tx_buffer2+66
 705 0026 9091 0000 		lds r25,(tx_buffer2+66)+1
 706 002a 2817      		cp r18,r24
 707 002c 3907      		cpc r19,r25
 708 002e 01F4      		brne .L40
 709               	.LSM69:
 710 0030 8091 D100 		lds r24,209
 711 0034 8F7D      		andi r24,lo8(-33)
 712 0036 8093 D100 		sts 209,r24
 713 003a 00C0      		rjmp .L42
 714               	.L40:
 715               	.LBB171:
 716               	.LSM70:
 717 003c E091 0000 		lds r30,tx_buffer2+66
 718 0040 F091 0000 		lds r31,(tx_buffer2+66)+1
 719 0044 E050      		subi r30,lo8(-(tx_buffer2))
 720 0046 F040      		sbci r31,hi8(-(tx_buffer2))
 721 0048 2081      		ld r18,Z
 722               	.LVL24:
 723               	.LSM71:
 724 004a 8091 0000 		lds r24,tx_buffer2+66
 725 004e 9091 0000 		lds r25,(tx_buffer2+66)+1
 726 0052 0196      		adiw r24,1
 727 0054 8F73      		andi r24,lo8(63)
 728 0056 9070      		andi r25,hi8(63)
 729 0058 9093 0000 		sts (tx_buffer2+66)+1,r25
 730 005c 8093 0000 		sts tx_buffer2+66,r24
 731               	.LSM72:
 732 0060 2093 D600 		sts 214,r18
 733               	.L42:
 734               	/* epilogue start */
 735               	.LBE171:
 736               	.LBE170:
 737               	.LSM73:
 738 0064 FF91      		pop r31
 739 0066 EF91      		pop r30
 740 0068 9F91      		pop r25
 741 006a 8F91      		pop r24
GAS LISTING /var/folders/1s/lqjcb7x5323625d47g9gdgmr0000gp/T//ccQR4rtp.s 			page 14


 742 006c 3F91      		pop r19
 743 006e 2F91      		pop r18
 744               	.LVL25:
 745 0070 0F90      		pop r0
 746 0072 0BBE      		out 91-32,r0
 747 0074 0F90      		pop r0
 748 0076 0FBE      		out __SREG__,r0
 749 0078 0F90      		pop r0
 750 007a 1F90      		pop __zero_reg__
 751 007c 1895      		reti
 752               	.LFE87:
 753               		.size	__vector_52, .-__vector_52
 754               		.section	.text.__vector_55,"ax",@progbits
 755               	.global	__vector_55
 756               		.type	__vector_55, @function
 757               	__vector_55:
 758               	.LFB88:
 759               	.LSM74:
 760 0000 1F92      		push __zero_reg__
 761 0002 0F92      		push r0
 762 0004 0FB6      		in r0,__SREG__
 763 0006 0F92      		push r0
 764 0008 0BB6      		in r0,91-32
 765 000a 0F92      		push r0
 766 000c 1124      		clr __zero_reg__
 767 000e 2F93      		push r18
 768 0010 3F93      		push r19
 769 0012 8F93      		push r24
 770 0014 9F93      		push r25
 771 0016 EF93      		push r30
 772 0018 FF93      		push r31
 773               	/* prologue: Signal */
 774               	/* frame size = 0 */
 775               	.LBB172:
 776               	.LSM75:
 777 001a 2091 0000 		lds r18,tx_buffer3+64
 778 001e 3091 0000 		lds r19,(tx_buffer3+64)+1
 779 0022 8091 0000 		lds r24,tx_buffer3+66
 780 0026 9091 0000 		lds r25,(tx_buffer3+66)+1
 781 002a 2817      		cp r18,r24
 782 002c 3907      		cpc r19,r25
 783 002e 01F4      		brne .L44
 784               	.LSM76:
 785 0030 8091 3101 		lds r24,305
 786 0034 8F7D      		andi r24,lo8(-33)
 787 0036 8093 3101 		sts 305,r24
 788 003a 00C0      		rjmp .L46
 789               	.L44:
 790               	.LBB173:
 791               	.LSM77:
 792 003c E091 0000 		lds r30,tx_buffer3+66
 793 0040 F091 0000 		lds r31,(tx_buffer3+66)+1
 794 0044 E050      		subi r30,lo8(-(tx_buffer3))
 795 0046 F040      		sbci r31,hi8(-(tx_buffer3))
 796 0048 2081      		ld r18,Z
 797               	.LVL26:
 798               	.LSM78:
GAS LISTING /var/folders/1s/lqjcb7x5323625d47g9gdgmr0000gp/T//ccQR4rtp.s 			page 15


 799 004a 8091 0000 		lds r24,tx_buffer3+66
 800 004e 9091 0000 		lds r25,(tx_buffer3+66)+1
 801 0052 0196      		adiw r24,1
 802 0054 8F73      		andi r24,lo8(63)
 803 0056 9070      		andi r25,hi8(63)
 804 0058 9093 0000 		sts (tx_buffer3+66)+1,r25
 805 005c 8093 0000 		sts tx_buffer3+66,r24
 806               	.LSM79:
 807 0060 2093 3601 		sts 310,r18
 808               	.L46:
 809               	/* epilogue start */
 810               	.LBE173:
 811               	.LBE172:
 812               	.LSM80:
 813 0064 FF91      		pop r31
 814 0066 EF91      		pop r30
 815 0068 9F91      		pop r25
 816 006a 8F91      		pop r24
 817 006c 3F91      		pop r19
 818 006e 2F91      		pop r18
 819               	.LVL27:
 820 0070 0F90      		pop r0
 821 0072 0BBE      		out 91-32,r0
 822 0074 0F90      		pop r0
 823 0076 0FBE      		out __SREG__,r0
 824 0078 0F90      		pop r0
 825 007a 1F90      		pop __zero_reg__
 826 007c 1895      		reti
 827               	.LFE88:
 828               		.size	__vector_55, .-__vector_55
 829               		.section	.text._ZN14HardwareSerialC2EP11ring_bufferS1_PVhS3_S3_S3_S3_S3_hhhhh,"ax",@progbits
 830               	.global	_ZN14HardwareSerialC2EP11ring_bufferS1_PVhS3_S3_S3_S3_S3_hhhhh
 831               		.type	_ZN14HardwareSerialC2EP11ring_bufferS1_PVhS3_S3_S3_S3_S3_hhhhh, @function
 832               	_ZN14HardwareSerialC2EP11ring_bufferS1_PVhS3_S3_S3_S3_S3_hhhhh:
 833               	.LFB90:
 834               	.LSM81:
 835               	.LVL28:
 836 0000 8F92      		push r8
 837               	.LVL29:
 838 0002 9F92      		push r9
 839 0004 AF92      		push r10
 840               	.LVL30:
 841 0006 BF92      		push r11
 842 0008 CF92      		push r12
 843               	.LVL31:
 844 000a DF92      		push r13
 845 000c EF92      		push r14
 846               	.LVL32:
 847 000e FF92      		push r15
 848 0010 0F93      		push r16
 849               	.LVL33:
 850 0012 1F93      		push r17
 851 0014 DF93      		push r29
 852 0016 CF93      		push r28
 853 0018 CDB7      		in r28,__SP_L__
 854 001a DEB7      		in r29,__SP_H__
 855               	/* prologue: function */
GAS LISTING /var/folders/1s/lqjcb7x5323625d47g9gdgmr0000gp/T//ccQR4rtp.s 			page 16


 856               	/* frame size = 0 */
 857 001c FC01      		movw r30,r24
 858               	.LBB174:
 859               	.LBB175:
 860               	.LBB176:
 861               	.LBB177:
 862               	.LBB178:
 863               	.LBB179:
 864               	.LBB180:
 865               	.LSM82:
 866 001e 1382      		std Z+3,__zero_reg__
 867 0020 1282      		std Z+2,__zero_reg__
 868               	.LBE180:
 869               	.LBE179:
 870               	.LBE178:
 871               	.LSM83:
 872 0022 88EE      		ldi r24,lo8(1000)
 873 0024 93E0      		ldi r25,hi8(1000)
 874 0026 A0E0      		ldi r26,hlo8(1000)
 875 0028 B0E0      		ldi r27,hhi8(1000)
 876               	.LVL34:
 877 002a 8483      		std Z+4,r24
 878 002c 9583      		std Z+5,r25
 879 002e A683      		std Z+6,r26
 880 0030 B783      		std Z+7,r27
 881               	.LBE177:
 882               	.LBE176:
 883               	.LBE175:
 884               	.LSM84:
 885 0032 80E0      		ldi r24,lo8(_ZTV14HardwareSerial+4)
 886 0034 90E0      		ldi r25,hi8(_ZTV14HardwareSerial+4)
 887 0036 9183      		std Z+1,r25
 888 0038 8083      		st Z,r24
 889               	.LSM85:
 890 003a 7587      		std Z+13,r23
 891 003c 6487      		std Z+12,r22
 892               	.LSM86:
 893 003e 5787      		std Z+15,r21
 894 0040 4687      		std Z+14,r20
 895               	.LSM87:
 896 0042 318B      		std Z+17,r19
 897 0044 208B      		std Z+16,r18
 898               	.LSM88:
 899 0046 138B      		std Z+19,r17
 900 0048 028B      		std Z+18,r16
 901               	.LVL35:
 902               	.LSM89:
 903 004a F58A      		std Z+21,r15
 904 004c E48A      		std Z+20,r14
 905               	.LVL36:
 906               	.LSM90:
 907 004e D78A      		std Z+23,r13
 908 0050 C68A      		std Z+22,r12
 909               	.LVL37:
 910               	.LSM91:
 911 0052 B18E      		std Z+25,r11
 912 0054 A08E      		std Z+24,r10
GAS LISTING /var/folders/1s/lqjcb7x5323625d47g9gdgmr0000gp/T//ccQR4rtp.s 			page 17


 913               	.LVL38:
 914               	.LSM92:
 915 0056 938E      		std Z+27,r9
 916 0058 828E      		std Z+26,r8
 917               	.LVL39:
 918               	.LSM93:
 919 005a 8889      		ldd r24,Y+16
 920 005c 848F      		std Z+28,r24
 921               	.LSM94:
 922 005e 8989      		ldd r24,Y+17
 923 0060 858F      		std Z+29,r24
 924               	.LSM95:
 925 0062 8A89      		ldd r24,Y+18
 926 0064 868F      		std Z+30,r24
 927               	.LSM96:
 928 0066 8B89      		ldd r24,Y+19
 929 0068 878F      		std Z+31,r24
 930               	.LSM97:
 931 006a 8C89      		ldd r24,Y+20
 932 006c 80A3      		std Z+32,r24
 933               	/* epilogue start */
 934               	.LBE174:
 935               	.LSM98:
 936 006e CF91      		pop r28
 937 0070 DF91      		pop r29
 938 0072 1F91      		pop r17
 939 0074 0F91      		pop r16
 940               	.LVL40:
 941 0076 FF90      		pop r15
 942 0078 EF90      		pop r14
 943               	.LVL41:
 944 007a DF90      		pop r13
 945 007c CF90      		pop r12
 946               	.LVL42:
 947 007e BF90      		pop r11
 948 0080 AF90      		pop r10
 949               	.LVL43:
 950 0082 9F90      		pop r9
 951 0084 8F90      		pop r8
 952               	.LVL44:
 953 0086 0895      		ret
 954               	.LFE90:
 955               		.size	_ZN14HardwareSerialC2EP11ring_bufferS1_PVhS3_S3_S3_S3_S3_hhhhh, .-_ZN14HardwareSerialC2EP11r
 956               		.section	.text._ZN14HardwareSerialC1EP11ring_bufferS1_PVhS3_S3_S3_S3_S3_hhhhh,"ax",@progbits
 957               	.global	_ZN14HardwareSerialC1EP11ring_bufferS1_PVhS3_S3_S3_S3_S3_hhhhh
 958               		.type	_ZN14HardwareSerialC1EP11ring_bufferS1_PVhS3_S3_S3_S3_S3_hhhhh, @function
 959               	_ZN14HardwareSerialC1EP11ring_bufferS1_PVhS3_S3_S3_S3_S3_hhhhh:
 960               	.LFB91:
 961               	.LSM99:
 962               	.LVL45:
 963 0000 8F92      		push r8
 964               	.LVL46:
 965 0002 9F92      		push r9
 966 0004 AF92      		push r10
 967               	.LVL47:
 968 0006 BF92      		push r11
 969 0008 CF92      		push r12
GAS LISTING /var/folders/1s/lqjcb7x5323625d47g9gdgmr0000gp/T//ccQR4rtp.s 			page 18


 970               	.LVL48:
 971 000a DF92      		push r13
 972 000c EF92      		push r14
 973               	.LVL49:
 974 000e FF92      		push r15
 975 0010 0F93      		push r16
 976               	.LVL50:
 977 0012 1F93      		push r17
 978 0014 DF93      		push r29
 979 0016 CF93      		push r28
 980 0018 CDB7      		in r28,__SP_L__
 981 001a DEB7      		in r29,__SP_H__
 982               	/* prologue: function */
 983               	/* frame size = 0 */
 984 001c FC01      		movw r30,r24
 985               	.LBB181:
 986               	.LBB182:
 987               	.LBB183:
 988               	.LBB184:
 989               	.LBB185:
 990               	.LBB186:
 991               	.LBB187:
 992               	.LSM100:
 993 001e 1382      		std Z+3,__zero_reg__
 994 0020 1282      		std Z+2,__zero_reg__
 995               	.LBE187:
 996               	.LBE186:
 997               	.LBE185:
 998               	.LSM101:
 999 0022 88EE      		ldi r24,lo8(1000)
 1000 0024 93E0      		ldi r25,hi8(1000)
 1001 0026 A0E0      		ldi r26,hlo8(1000)
 1002 0028 B0E0      		ldi r27,hhi8(1000)
 1003               	.LVL51:
 1004 002a 8483      		std Z+4,r24
 1005 002c 9583      		std Z+5,r25
 1006 002e A683      		std Z+6,r26
 1007 0030 B783      		std Z+7,r27
 1008               	.LBE184:
 1009               	.LBE183:
 1010               	.LBE182:
 1011               	.LSM102:
 1012 0032 80E0      		ldi r24,lo8(_ZTV14HardwareSerial+4)
 1013 0034 90E0      		ldi r25,hi8(_ZTV14HardwareSerial+4)
 1014 0036 9183      		std Z+1,r25
 1015 0038 8083      		st Z,r24
 1016               	.LSM103:
 1017 003a 7587      		std Z+13,r23
 1018 003c 6487      		std Z+12,r22
 1019               	.LSM104:
 1020 003e 5787      		std Z+15,r21
 1021 0040 4687      		std Z+14,r20
 1022               	.LSM105:
 1023 0042 318B      		std Z+17,r19
 1024 0044 208B      		std Z+16,r18
 1025               	.LSM106:
 1026 0046 138B      		std Z+19,r17
GAS LISTING /var/folders/1s/lqjcb7x5323625d47g9gdgmr0000gp/T//ccQR4rtp.s 			page 19


 1027 0048 028B      		std Z+18,r16
 1028               	.LVL52:
 1029               	.LSM107:
 1030 004a F58A      		std Z+21,r15
 1031 004c E48A      		std Z+20,r14
 1032               	.LVL53:
 1033               	.LSM108:
 1034 004e D78A      		std Z+23,r13
 1035 0050 C68A      		std Z+22,r12
 1036               	.LVL54:
 1037               	.LSM109:
 1038 0052 B18E      		std Z+25,r11
 1039 0054 A08E      		std Z+24,r10
 1040               	.LVL55:
 1041               	.LSM110:
 1042 0056 938E      		std Z+27,r9
 1043 0058 828E      		std Z+26,r8
 1044               	.LVL56:
 1045               	.LSM111:
 1046 005a 8889      		ldd r24,Y+16
 1047 005c 848F      		std Z+28,r24
 1048               	.LSM112:
 1049 005e 8989      		ldd r24,Y+17
 1050 0060 858F      		std Z+29,r24
 1051               	.LSM113:
 1052 0062 8A89      		ldd r24,Y+18
 1053 0064 868F      		std Z+30,r24
 1054               	.LSM114:
 1055 0066 8B89      		ldd r24,Y+19
 1056 0068 878F      		std Z+31,r24
 1057               	.LSM115:
 1058 006a 8C89      		ldd r24,Y+20
 1059 006c 80A3      		std Z+32,r24
 1060               	/* epilogue start */
 1061               	.LBE181:
 1062               	.LSM116:
 1063 006e CF91      		pop r28
 1064 0070 DF91      		pop r29
 1065 0072 1F91      		pop r17
 1066 0074 0F91      		pop r16
 1067               	.LVL57:
 1068 0076 FF90      		pop r15
 1069 0078 EF90      		pop r14
 1070               	.LVL58:
 1071 007a DF90      		pop r13
 1072 007c CF90      		pop r12
 1073               	.LVL59:
 1074 007e BF90      		pop r11
 1075 0080 AF90      		pop r10
 1076               	.LVL60:
 1077 0082 9F90      		pop r9
 1078 0084 8F90      		pop r8
 1079               	.LVL61:
 1080 0086 0895      		ret
 1081               	.LFE91:
 1082               		.size	_ZN14HardwareSerialC1EP11ring_bufferS1_PVhS3_S3_S3_S3_S3_hhhhh, .-_ZN14HardwareSerialC1EP11r
 1083               		.section	.text._ZN14HardwareSerial5beginEm,"ax",@progbits
GAS LISTING /var/folders/1s/lqjcb7x5323625d47g9gdgmr0000gp/T//ccQR4rtp.s 			page 20


 1084               	.global	_ZN14HardwareSerial5beginEm
 1085               		.type	_ZN14HardwareSerial5beginEm, @function
 1086               	_ZN14HardwareSerial5beginEm:
 1087               	.LFB92:
 1088               	.LSM117:
 1089               	.LVL62:
 1090 0000 AF92      		push r10
 1091 0002 BF92      		push r11
 1092 0004 DF92      		push r13
 1093 0006 EF92      		push r14
 1094 0008 FF92      		push r15
 1095 000a 0F93      		push r16
 1096 000c 1F93      		push r17
 1097 000e CF93      		push r28
 1098 0010 DF93      		push r29
 1099               	/* prologue: function */
 1100               	/* frame size = 0 */
 1101 0012 EC01      		movw r28,r24
 1102 0014 7A01      		movw r14,r20
 1103 0016 8B01      		movw r16,r22
 1104               	.LSM118:
 1105 0018 DD24      		clr r13
 1106               	.LVL63:
 1107 001a 4030      		cpi r20,lo8(57600)
 1108 001c 81EE      		ldi r24,hi8(57600)
 1109 001e 5807      		cpc r21,r24
 1110 0020 80E0      		ldi r24,hlo8(57600)
 1111 0022 6807      		cpc r22,r24
 1112 0024 80E0      		ldi r24,hhi8(57600)
 1113 0026 7807      		cpc r23,r24
 1114               	.LVL64:
 1115 0028 01F0      		breq .L56
 1116 002a DD24      		clr r13
 1117 002c D394      		inc r13
 1118               	.L56:
 1119               	.LBB188:
 1120               	.LSM119:
 1121 002e 91E0      		ldi r25,lo8(1)
 1122 0030 A92E      		mov r10,r25
 1123 0032 B12C      		mov r11,__zero_reg__
 1124               	.LVL65:
 1125               	.L58:
 1126 0034 EC89      		ldd r30,Y+20
 1127 0036 FD89      		ldd r31,Y+21
 1128               	.LSM120:
 1129 0038 DD20      		tst r13
 1130 003a 01F0      		breq .L53
 1131               	.LSM121:
 1132 003c C501      		movw r24,r10
 1133 003e 08A0      		ldd r0,Y+32
 1134 0040 00C0      		rjmp 2f
 1135 0042 880F      	1:	lsl r24
 1136 0044 991F      		rol r25
 1137 0046 0A94      	2:	dec r0
 1138 0048 02F4      		brpl 1b
 1139 004a 8083      		st Z,r24
 1140               	.LSM122:
GAS LISTING /var/folders/1s/lqjcb7x5323625d47g9gdgmr0000gp/T//ccQR4rtp.s 			page 21


 1141 004c 60E0      		ldi r22,lo8(4000000)
 1142 004e 79E0      		ldi r23,hi8(4000000)
 1143 0050 8DE3      		ldi r24,hlo8(4000000)
 1144 0052 90E0      		ldi r25,hhi8(4000000)
 1145 0054 00C0      		rjmp .L59
 1146               	.L53:
 1147               	.LSM123:
 1148 0056 1082      		st Z,__zero_reg__
 1149               	.LSM124:
 1150 0058 60E8      		ldi r22,lo8(2000000)
 1151 005a 74E8      		ldi r23,hi8(2000000)
 1152 005c 8EE1      		ldi r24,hlo8(2000000)
 1153 005e 90E0      		ldi r25,hhi8(2000000)
 1154               	.L59:
 1155 0060 A801      		movw r20,r16
 1156 0062 9701      		movw r18,r14
 1157               	.LVL66:
 1158 0064 0E94 0000 		call __udivmodsi4
 1159 0068 2150      		subi r18,lo8(-(-1))
 1160 006a 3040      		sbci r19,hi8(-(-1))
 1161 006c 4040      		sbci r20,hlo8(-(-1))
 1162 006e 5040      		sbci r21,hhi8(-(-1))
 1163 0070 5695      		lsr r21
 1164 0072 4795      		ror r20
 1165 0074 3795      		ror r19
 1166 0076 2795      		ror r18
 1167               	.LSM125:
 1168 0078 80E1      		ldi r24,hi8(4096)
 1169 007a 2030      		cpi r18,lo8(4096)
 1170 007c 3807      		cpc r19,r24
 1171               	.LVL67:
 1172 007e 00F0      		brlo .L55
 1173               	.LVL68:
 1174 0080 DD20      		tst r13
 1175 0082 01F0      		breq .L55
 1176 0084 DD24      		clr r13
 1177 0086 00C0      		rjmp .L58
 1178               	.L55:
 1179               	.LSM126:
 1180 0088 E889      		ldd r30,Y+16
 1181 008a F989      		ldd r31,Y+17
 1182 008c 3083      		st Z,r19
 1183               	.LVL69:
 1184               	.LSM127:
 1185 008e EA89      		ldd r30,Y+18
 1186 0090 FB89      		ldd r31,Y+19
 1187 0092 2083      		st Z,r18
 1188               	.LSM128:
 1189 0094 19A2      		std Y+33,__zero_reg__
 1190               	.LSM129:
 1191 0096 EE89      		ldd r30,Y+22
 1192 0098 FF89      		ldd r31,Y+23
 1193 009a 4081      		ld r20,Z
 1194 009c 21E0      		ldi r18,lo8(1)
 1195 009e 30E0      		ldi r19,hi8(1)
 1196               	.LVL70:
 1197 00a0 C901      		movw r24,r18
GAS LISTING /var/folders/1s/lqjcb7x5323625d47g9gdgmr0000gp/T//ccQR4rtp.s 			page 22


 1198 00a2 0C8C      		ldd r0,Y+28
 1199 00a4 00C0      		rjmp 2f
 1200 00a6 880F      	1:	lsl r24
 1201 00a8 991F      		rol r25
 1202 00aa 0A94      	2:	dec r0
 1203 00ac 02F4      		brpl 1b
 1204 00ae 482B      		or r20,r24
 1205 00b0 4083      		st Z,r20
 1206               	.LSM130:
 1207 00b2 EE89      		ldd r30,Y+22
 1208 00b4 FF89      		ldd r31,Y+23
 1209 00b6 4081      		ld r20,Z
 1210 00b8 C901      		movw r24,r18
 1211 00ba 0D8C      		ldd r0,Y+29
 1212 00bc 00C0      		rjmp 2f
 1213 00be 880F      	1:	lsl r24
 1214 00c0 991F      		rol r25
 1215 00c2 0A94      	2:	dec r0
 1216 00c4 02F4      		brpl 1b
 1217 00c6 482B      		or r20,r24
 1218 00c8 4083      		st Z,r20
 1219               	.LSM131:
 1220 00ca EE89      		ldd r30,Y+22
 1221 00cc FF89      		ldd r31,Y+23
 1222 00ce 4081      		ld r20,Z
 1223 00d0 C901      		movw r24,r18
 1224 00d2 0E8C      		ldd r0,Y+30
 1225 00d4 00C0      		rjmp 2f
 1226 00d6 880F      	1:	lsl r24
 1227 00d8 991F      		rol r25
 1228 00da 0A94      	2:	dec r0
 1229 00dc 02F4      		brpl 1b
 1230 00de 482B      		or r20,r24
 1231 00e0 4083      		st Z,r20
 1232               	.LSM132:
 1233 00e2 EE89      		ldd r30,Y+22
 1234 00e4 FF89      		ldd r31,Y+23
 1235 00e6 8081      		ld r24,Z
 1236 00e8 0F8C      		ldd r0,Y+31
 1237 00ea 00C0      		rjmp 2f
 1238 00ec 220F      	1:	lsl r18
 1239 00ee 331F      		rol r19
 1240 00f0 0A94      	2:	dec r0
 1241 00f2 02F4      		brpl 1b
 1242 00f4 2095      		com r18
 1243 00f6 2823      		and r18,r24
 1244 00f8 2083      		st Z,r18
 1245               	/* epilogue start */
 1246               	.LBE188:
 1247               	.LSM133:
 1248 00fa DF91      		pop r29
 1249 00fc CF91      		pop r28
 1250               	.LVL71:
 1251 00fe 1F91      		pop r17
 1252 0100 0F91      		pop r16
 1253 0102 FF90      		pop r15
 1254 0104 EF90      		pop r14
GAS LISTING /var/folders/1s/lqjcb7x5323625d47g9gdgmr0000gp/T//ccQR4rtp.s 			page 23


 1255               	.LVL72:
 1256 0106 DF90      		pop r13
 1257               	.LVL73:
 1258 0108 BF90      		pop r11
 1259 010a AF90      		pop r10
 1260 010c 0895      		ret
 1261               	.LFE92:
 1262               		.size	_ZN14HardwareSerial5beginEm, .-_ZN14HardwareSerial5beginEm
 1263               		.section	.text._ZN14HardwareSerial5beginEmh,"ax",@progbits
 1264               	.global	_ZN14HardwareSerial5beginEmh
 1265               		.type	_ZN14HardwareSerial5beginEmh, @function
 1266               	_ZN14HardwareSerial5beginEmh:
 1267               	.LFB93:
 1268               	.LSM134:
 1269               	.LVL74:
 1270 0000 AF92      		push r10
 1271 0002 BF92      		push r11
 1272 0004 CF92      		push r12
 1273 0006 DF92      		push r13
 1274 0008 EF92      		push r14
 1275 000a FF92      		push r15
 1276 000c 0F93      		push r16
 1277 000e 1F93      		push r17
 1278 0010 CF93      		push r28
 1279 0012 DF93      		push r29
 1280               	/* prologue: function */
 1281               	/* frame size = 0 */
 1282 0014 EC01      		movw r28,r24
 1283 0016 7A01      		movw r14,r20
 1284 0018 8B01      		movw r16,r22
 1285 001a C22E      		mov r12,r18
 1286               	.LSM135:
 1287 001c DD24      		clr r13
 1288               	.LVL75:
 1289 001e 4030      		cpi r20,lo8(57600)
 1290 0020 81EE      		ldi r24,hi8(57600)
 1291 0022 5807      		cpc r21,r24
 1292 0024 80E0      		ldi r24,hlo8(57600)
 1293 0026 6807      		cpc r22,r24
 1294 0028 80E0      		ldi r24,hhi8(57600)
 1295 002a 7807      		cpc r23,r24
 1296               	.LVL76:
 1297 002c 01F0      		breq .L65
 1298               	.LVL77:
 1299 002e DD24      		clr r13
 1300 0030 D394      		inc r13
 1301               	.L65:
 1302               	.LBB189:
 1303               	.LSM136:
 1304 0032 71E0      		ldi r23,lo8(1)
 1305 0034 A72E      		mov r10,r23
 1306 0036 B12C      		mov r11,__zero_reg__
 1307               	.LVL78:
 1308               	.L67:
 1309 0038 EC89      		ldd r30,Y+20
 1310 003a FD89      		ldd r31,Y+21
 1311               	.LSM137:
GAS LISTING /var/folders/1s/lqjcb7x5323625d47g9gdgmr0000gp/T//ccQR4rtp.s 			page 24


 1312 003c DD20      		tst r13
 1313 003e 01F0      		breq .L62
 1314               	.LSM138:
 1315 0040 C501      		movw r24,r10
 1316 0042 08A0      		ldd r0,Y+32
 1317 0044 00C0      		rjmp 2f
 1318 0046 880F      	1:	lsl r24
 1319 0048 991F      		rol r25
 1320 004a 0A94      	2:	dec r0
 1321 004c 02F4      		brpl 1b
 1322 004e 8083      		st Z,r24
 1323               	.LSM139:
 1324 0050 60E0      		ldi r22,lo8(4000000)
 1325 0052 79E0      		ldi r23,hi8(4000000)
 1326 0054 8DE3      		ldi r24,hlo8(4000000)
 1327 0056 90E0      		ldi r25,hhi8(4000000)
 1328 0058 00C0      		rjmp .L68
 1329               	.L62:
 1330               	.LSM140:
 1331 005a 1082      		st Z,__zero_reg__
 1332               	.LSM141:
 1333 005c 60E8      		ldi r22,lo8(2000000)
 1334 005e 74E8      		ldi r23,hi8(2000000)
 1335 0060 8EE1      		ldi r24,hlo8(2000000)
 1336 0062 90E0      		ldi r25,hhi8(2000000)
 1337               	.L68:
 1338 0064 A801      		movw r20,r16
 1339 0066 9701      		movw r18,r14
 1340               	.LVL79:
 1341 0068 0E94 0000 		call __udivmodsi4
 1342 006c 2150      		subi r18,lo8(-(-1))
 1343 006e 3040      		sbci r19,hi8(-(-1))
 1344 0070 4040      		sbci r20,hlo8(-(-1))
 1345 0072 5040      		sbci r21,hhi8(-(-1))
 1346 0074 5695      		lsr r21
 1347 0076 4795      		ror r20
 1348 0078 3795      		ror r19
 1349 007a 2795      		ror r18
 1350               	.LSM142:
 1351 007c 80E1      		ldi r24,hi8(4096)
 1352 007e 2030      		cpi r18,lo8(4096)
 1353 0080 3807      		cpc r19,r24
 1354               	.LVL80:
 1355 0082 00F0      		brlo .L64
 1356               	.LVL81:
 1357 0084 DD20      		tst r13
 1358 0086 01F0      		breq .L64
 1359 0088 DD24      		clr r13
 1360 008a 00C0      		rjmp .L67
 1361               	.L64:
 1362               	.LSM143:
 1363 008c E889      		ldd r30,Y+16
 1364 008e F989      		ldd r31,Y+17
 1365 0090 3083      		st Z,r19
 1366               	.LVL82:
 1367               	.LSM144:
 1368 0092 EA89      		ldd r30,Y+18
GAS LISTING /var/folders/1s/lqjcb7x5323625d47g9gdgmr0000gp/T//ccQR4rtp.s 			page 25


 1369 0094 FB89      		ldd r31,Y+19
 1370 0096 2083      		st Z,r18
 1371               	.LSM145:
 1372 0098 E88D      		ldd r30,Y+24
 1373 009a F98D      		ldd r31,Y+25
 1374 009c C082      		st Z,r12
 1375               	.LSM146:
 1376 009e EE89      		ldd r30,Y+22
 1377 00a0 FF89      		ldd r31,Y+23
 1378 00a2 4081      		ld r20,Z
 1379 00a4 21E0      		ldi r18,lo8(1)
 1380 00a6 30E0      		ldi r19,hi8(1)
 1381               	.LVL83:
 1382 00a8 C901      		movw r24,r18
 1383 00aa 0C8C      		ldd r0,Y+28
 1384 00ac 00C0      		rjmp 2f
 1385 00ae 880F      	1:	lsl r24
 1386 00b0 991F      		rol r25
 1387 00b2 0A94      	2:	dec r0
 1388 00b4 02F4      		brpl 1b
 1389 00b6 482B      		or r20,r24
 1390 00b8 4083      		st Z,r20
 1391               	.LSM147:
 1392 00ba EE89      		ldd r30,Y+22
 1393 00bc FF89      		ldd r31,Y+23
 1394 00be 4081      		ld r20,Z
 1395 00c0 C901      		movw r24,r18
 1396 00c2 0D8C      		ldd r0,Y+29
 1397 00c4 00C0      		rjmp 2f
 1398 00c6 880F      	1:	lsl r24
 1399 00c8 991F      		rol r25
 1400 00ca 0A94      	2:	dec r0
 1401 00cc 02F4      		brpl 1b
 1402 00ce 482B      		or r20,r24
 1403 00d0 4083      		st Z,r20
 1404               	.LSM148:
 1405 00d2 EE89      		ldd r30,Y+22
 1406 00d4 FF89      		ldd r31,Y+23
 1407 00d6 4081      		ld r20,Z
 1408 00d8 C901      		movw r24,r18
 1409 00da 0E8C      		ldd r0,Y+30
 1410 00dc 00C0      		rjmp 2f
 1411 00de 880F      	1:	lsl r24
 1412 00e0 991F      		rol r25
 1413 00e2 0A94      	2:	dec r0
 1414 00e4 02F4      		brpl 1b
 1415 00e6 482B      		or r20,r24
 1416 00e8 4083      		st Z,r20
 1417               	.LSM149:
 1418 00ea EE89      		ldd r30,Y+22
 1419 00ec FF89      		ldd r31,Y+23
 1420 00ee 8081      		ld r24,Z
 1421 00f0 0F8C      		ldd r0,Y+31
 1422 00f2 00C0      		rjmp 2f
 1423 00f4 220F      	1:	lsl r18
 1424 00f6 331F      		rol r19
 1425 00f8 0A94      	2:	dec r0
GAS LISTING /var/folders/1s/lqjcb7x5323625d47g9gdgmr0000gp/T//ccQR4rtp.s 			page 26


 1426 00fa 02F4      		brpl 1b
 1427 00fc 2095      		com r18
 1428 00fe 2823      		and r18,r24
 1429 0100 2083      		st Z,r18
 1430               	/* epilogue start */
 1431               	.LBE189:
 1432               	.LSM150:
 1433 0102 DF91      		pop r29
 1434 0104 CF91      		pop r28
 1435               	.LVL84:
 1436 0106 1F91      		pop r17
 1437 0108 0F91      		pop r16
 1438 010a FF90      		pop r15
 1439 010c EF90      		pop r14
 1440               	.LVL85:
 1441 010e DF90      		pop r13
 1442               	.LVL86:
 1443 0110 CF90      		pop r12
 1444               	.LVL87:
 1445 0112 BF90      		pop r11
 1446 0114 AF90      		pop r10
 1447 0116 0895      		ret
 1448               	.LFE93:
 1449               		.size	_ZN14HardwareSerial5beginEmh, .-_ZN14HardwareSerial5beginEmh
 1450               		.section	.text._ZN14HardwareSerial3endEv,"ax",@progbits
 1451               	.global	_ZN14HardwareSerial3endEv
 1452               		.type	_ZN14HardwareSerial3endEv, @function
 1453               	_ZN14HardwareSerial3endEv:
 1454               	.LFB94:
 1455               	.LSM151:
 1456               	.LVL88:
 1457 0000 CF93      		push r28
 1458 0002 DF93      		push r29
 1459               	/* prologue: function */
 1460               	/* frame size = 0 */
 1461 0004 DC01      		movw r26,r24
 1462               	.LSM152:
 1463 0006 1E96      		adiw r26,14
 1464 0008 8D91      		ld r24,X+
 1465 000a 9C91      		ld r25,X
 1466 000c 1F97      		sbiw r26,14+1
 1467               	.LVL89:
 1468 000e EC01      		movw r28,r24
 1469 0010 C05C      		subi r28,lo8(-(64))
 1470 0012 DF4F      		sbci r29,hi8(-(64))
 1471 0014 FC01      		movw r30,r24
 1472 0016 EE5B      		subi r30,lo8(-(66))
 1473 0018 FF4F      		sbci r31,hi8(-(66))
 1474               	.L70:
 1475 001a 2881      		ld r18,Y
 1476 001c 3981      		ldd r19,Y+1
 1477 001e 8081      		ld r24,Z
 1478 0020 9181      		ldd r25,Z+1
 1479 0022 2817      		cp r18,r24
 1480 0024 3907      		cpc r19,r25
 1481 0026 01F4      		brne .L70
 1482               	.LSM153:
GAS LISTING /var/folders/1s/lqjcb7x5323625d47g9gdgmr0000gp/T//ccQR4rtp.s 			page 27


 1483 0028 5696      		adiw r26,22
 1484 002a ED91      		ld r30,X+
 1485 002c FC91      		ld r31,X
 1486 002e 5797      		sbiw r26,22+1
 1487 0030 4081      		ld r20,Z
 1488 0032 21E0      		ldi r18,lo8(1)
 1489 0034 30E0      		ldi r19,hi8(1)
 1490 0036 C901      		movw r24,r18
 1491 0038 5C96      		adiw r26,28
 1492 003a 0C90      		ld r0,X
 1493 003c 5C97      		sbiw r26,28
 1494 003e 00C0      		rjmp 2f
 1495 0040 880F      	1:	lsl r24
 1496 0042 991F      		rol r25
 1497 0044 0A94      	2:	dec r0
 1498 0046 02F4      		brpl 1b
 1499 0048 8095      		com r24
 1500 004a 8423      		and r24,r20
 1501 004c 8083      		st Z,r24
 1502               	.LSM154:
 1503 004e 5696      		adiw r26,22
 1504 0050 ED91      		ld r30,X+
 1505 0052 FC91      		ld r31,X
 1506 0054 5797      		sbiw r26,22+1
 1507 0056 4081      		ld r20,Z
 1508 0058 C901      		movw r24,r18
 1509 005a 5D96      		adiw r26,29
 1510 005c 0C90      		ld r0,X
 1511 005e 5D97      		sbiw r26,29
 1512 0060 00C0      		rjmp 2f
 1513 0062 880F      	1:	lsl r24
 1514 0064 991F      		rol r25
 1515 0066 0A94      	2:	dec r0
 1516 0068 02F4      		brpl 1b
 1517 006a 8095      		com r24
 1518 006c 8423      		and r24,r20
 1519 006e 8083      		st Z,r24
 1520               	.LSM155:
 1521 0070 5696      		adiw r26,22
 1522 0072 ED91      		ld r30,X+
 1523 0074 FC91      		ld r31,X
 1524 0076 5797      		sbiw r26,22+1
 1525 0078 4081      		ld r20,Z
 1526 007a C901      		movw r24,r18
 1527 007c 5E96      		adiw r26,30
 1528 007e 0C90      		ld r0,X
 1529 0080 5E97      		sbiw r26,30
 1530 0082 00C0      		rjmp 2f
 1531 0084 880F      	1:	lsl r24
 1532 0086 991F      		rol r25
 1533 0088 0A94      	2:	dec r0
 1534 008a 02F4      		brpl 1b
 1535 008c 8095      		com r24
 1536 008e 8423      		and r24,r20
 1537 0090 8083      		st Z,r24
 1538               	.LSM156:
 1539 0092 5696      		adiw r26,22
GAS LISTING /var/folders/1s/lqjcb7x5323625d47g9gdgmr0000gp/T//ccQR4rtp.s 			page 28


 1540 0094 ED91      		ld r30,X+
 1541 0096 FC91      		ld r31,X
 1542 0098 5797      		sbiw r26,22+1
 1543 009a 8081      		ld r24,Z
 1544 009c 5F96      		adiw r26,31
 1545 009e 0C90      		ld r0,X
 1546 00a0 5F97      		sbiw r26,31
 1547 00a2 00C0      		rjmp 2f
 1548 00a4 220F      	1:	lsl r18
 1549 00a6 331F      		rol r19
 1550 00a8 0A94      	2:	dec r0
 1551 00aa 02F4      		brpl 1b
 1552 00ac 2095      		com r18
 1553 00ae 2823      		and r18,r24
 1554 00b0 2083      		st Z,r18
 1555               	.LSM157:
 1556 00b2 1C96      		adiw r26,12
 1557 00b4 ED91      		ld r30,X+
 1558 00b6 FC91      		ld r31,X
 1559 00b8 1D97      		sbiw r26,12+1
 1560 00ba EE5B      		subi r30,lo8(-(66))
 1561 00bc FF4F      		sbci r31,hi8(-(66))
 1562 00be 8081      		ld r24,Z
 1563 00c0 9181      		ldd r25,Z+1
 1564 00c2 9293      		st -Z,r25
 1565 00c4 8293      		st -Z,r24
 1566               	/* epilogue start */
 1567               	.LSM158:
 1568 00c6 DF91      		pop r29
 1569 00c8 CF91      		pop r28
 1570 00ca 0895      		ret
 1571               	.LFE94:
 1572               		.size	_ZN14HardwareSerial3endEv, .-_ZN14HardwareSerial3endEv
 1573               		.section	.text._ZN14HardwareSerial9availableEv,"ax",@progbits
 1574               	.global	_ZN14HardwareSerial9availableEv
 1575               		.type	_ZN14HardwareSerial9availableEv, @function
 1576               	_ZN14HardwareSerial9availableEv:
 1577               	.LFB95:
 1578               	.LSM159:
 1579               	.LVL90:
 1580               	/* prologue: function */
 1581               	/* frame size = 0 */
 1582               	.LSM160:
 1583 0000 DC01      		movw r26,r24
 1584 0002 1C96      		adiw r26,12
 1585 0004 ED91      		ld r30,X+
 1586 0006 FC91      		ld r31,X
 1587 0008 1D97      		sbiw r26,12+1
 1588 000a E05C      		subi r30,lo8(-(64))
 1589 000c FF4F      		sbci r31,hi8(-(64))
 1590 000e 2191      		ld r18,Z+
 1591 0010 3191      		ld r19,Z+
 1592 0012 8081      		ld r24,Z
 1593 0014 9181      		ldd r25,Z+1
 1594               	.LVL91:
 1595 0016 281B      		sub r18,r24
 1596 0018 390B      		sbc r19,r25
GAS LISTING /var/folders/1s/lqjcb7x5323625d47g9gdgmr0000gp/T//ccQR4rtp.s 			page 29


 1597 001a 2F73      		andi r18,lo8(63)
 1598 001c 3070      		andi r19,hi8(63)
 1599               	.LSM161:
 1600 001e C901      		movw r24,r18
 1601               	/* epilogue start */
 1602 0020 0895      		ret
 1603               	.LFE95:
 1604               		.size	_ZN14HardwareSerial9availableEv, .-_ZN14HardwareSerial9availableEv
 1605               		.section	.text._ZN14HardwareSerial4peekEv,"ax",@progbits
 1606               	.global	_ZN14HardwareSerial4peekEv
 1607               		.type	_ZN14HardwareSerial4peekEv, @function
 1608               	_ZN14HardwareSerial4peekEv:
 1609               	.LFB96:
 1610               	.LSM162:
 1611               	.LVL92:
 1612               	/* prologue: function */
 1613               	/* frame size = 0 */
 1614               	.LSM163:
 1615 0000 DC01      		movw r26,r24
 1616 0002 1C96      		adiw r26,12
 1617 0004 ED91      		ld r30,X+
 1618 0006 FC91      		ld r31,X
 1619 0008 1D97      		sbiw r26,12+1
 1620 000a E05C      		subi r30,lo8(-(64))
 1621 000c FF4F      		sbci r31,hi8(-(64))
 1622 000e 2081      		ld r18,Z
 1623 0010 3181      		ldd r19,Z+1
 1624 0012 E054      		subi r30,lo8(-(-64))
 1625 0014 F040      		sbci r31,hi8(-(-64))
 1626 0016 DF01      		movw r26,r30
 1627 0018 AE5B      		subi r26,lo8(-(66))
 1628 001a BF4F      		sbci r27,hi8(-(66))
 1629 001c 8D91      		ld r24,X+
 1630 001e 9C91      		ld r25,X
 1631 0020 1197      		sbiw r26,1
 1632               	.LVL93:
 1633 0022 2817      		cp r18,r24
 1634 0024 3907      		cpc r19,r25
 1635 0026 01F4      		brne .L76
 1636 0028 2FEF      		ldi r18,lo8(-1)
 1637 002a 3FEF      		ldi r19,hi8(-1)
 1638 002c 00C0      		rjmp .L77
 1639               	.L76:
 1640               	.LSM164:
 1641 002e 8D91      		ld r24,X+
 1642 0030 9C91      		ld r25,X
 1643 0032 E80F      		add r30,r24
 1644 0034 F91F      		adc r31,r25
 1645 0036 8081      		ld r24,Z
 1646 0038 282F      		mov r18,r24
 1647 003a 30E0      		ldi r19,lo8(0)
 1648               	.L77:
 1649               	.LSM165:
 1650 003c C901      		movw r24,r18
 1651               	/* epilogue start */
 1652 003e 0895      		ret
 1653               	.LFE96:
GAS LISTING /var/folders/1s/lqjcb7x5323625d47g9gdgmr0000gp/T//ccQR4rtp.s 			page 30


 1654               		.size	_ZN14HardwareSerial4peekEv, .-_ZN14HardwareSerial4peekEv
 1655               		.section	.text._ZN14HardwareSerial4readEv,"ax",@progbits
 1656               	.global	_ZN14HardwareSerial4readEv
 1657               		.type	_ZN14HardwareSerial4readEv, @function
 1658               	_ZN14HardwareSerial4readEv:
 1659               	.LFB97:
 1660               	.LSM166:
 1661               	.LVL94:
 1662               	/* prologue: function */
 1663               	/* frame size = 0 */
 1664               	.LBB190:
 1665               	.LSM167:
 1666 0000 DC01      		movw r26,r24
 1667 0002 1C96      		adiw r26,12
 1668 0004 ED91      		ld r30,X+
 1669 0006 FC91      		ld r31,X
 1670 0008 1D97      		sbiw r26,12+1
 1671 000a E05C      		subi r30,lo8(-(64))
 1672 000c FF4F      		sbci r31,hi8(-(64))
 1673 000e 2081      		ld r18,Z
 1674 0010 3181      		ldd r19,Z+1
 1675 0012 E054      		subi r30,lo8(-(-64))
 1676 0014 F040      		sbci r31,hi8(-(-64))
 1677 0016 DF01      		movw r26,r30
 1678 0018 AE5B      		subi r26,lo8(-(66))
 1679 001a BF4F      		sbci r27,hi8(-(66))
 1680 001c 8D91      		ld r24,X+
 1681 001e 9C91      		ld r25,X
 1682 0020 1197      		sbiw r26,1
 1683               	.LVL95:
 1684 0022 2817      		cp r18,r24
 1685 0024 3907      		cpc r19,r25
 1686 0026 01F4      		brne .L80
 1687 0028 2FEF      		ldi r18,lo8(-1)
 1688 002a 3FEF      		ldi r19,hi8(-1)
 1689 002c 00C0      		rjmp .L81
 1690               	.L80:
 1691               	.LBB191:
 1692               	.LSM168:
 1693 002e 8D91      		ld r24,X+
 1694 0030 9C91      		ld r25,X
 1695 0032 1197      		sbiw r26,1
 1696 0034 E80F      		add r30,r24
 1697 0036 F91F      		adc r31,r25
 1698 0038 2081      		ld r18,Z
 1699               	.LVL96:
 1700               	.LSM169:
 1701 003a 8D91      		ld r24,X+
 1702 003c 9C91      		ld r25,X
 1703 003e 1197      		sbiw r26,1
 1704 0040 0196      		adiw r24,1
 1705 0042 8F73      		andi r24,lo8(63)
 1706 0044 9070      		andi r25,hi8(63)
 1707 0046 1196      		adiw r26,1
 1708 0048 9C93      		st X,r25
 1709 004a 8E93      		st -X,r24
 1710               	.LSM170:
GAS LISTING /var/folders/1s/lqjcb7x5323625d47g9gdgmr0000gp/T//ccQR4rtp.s 			page 31


 1711 004c 30E0      		ldi r19,lo8(0)
 1712               	.L81:
 1713               	.LBE191:
 1714               	.LBE190:
 1715               	.LSM171:
 1716 004e C901      		movw r24,r18
 1717               	.LVL97:
 1718               	/* epilogue start */
 1719 0050 0895      		ret
 1720               	.LFE97:
 1721               		.size	_ZN14HardwareSerial4readEv, .-_ZN14HardwareSerial4readEv
 1722               		.section	.text._ZN14HardwareSerial5flushEv,"ax",@progbits
 1723               	.global	_ZN14HardwareSerial5flushEv
 1724               		.type	_ZN14HardwareSerial5flushEv, @function
 1725               	_ZN14HardwareSerial5flushEv:
 1726               	.LFB98:
 1727               	.LSM172:
 1728               	.LVL98:
 1729               	/* prologue: function */
 1730               	/* frame size = 0 */
 1731 0000 DC01      		movw r26,r24
 1732               	.LSM173:
 1733 0002 9196      		adiw r26,33
 1734 0004 8C91      		ld r24,X
 1735 0006 9197      		sbiw r26,33
 1736               	.LVL99:
 1737 0008 8823      		tst r24
 1738 000a 01F0      		breq .L84
 1739               	.L87:
 1740 000c 5496      		adiw r26,20
 1741 000e ED91      		ld r30,X+
 1742 0010 FC91      		ld r31,X
 1743 0012 5597      		sbiw r26,20+1
 1744 0014 8081      		ld r24,Z
 1745 0016 86FF      		sbrs r24,6
 1746 0018 00C0      		rjmp .L87
 1747               	.L84:
 1748               	.LSM174:
 1749 001a 9196      		adiw r26,33
 1750 001c 1C92      		st X,__zero_reg__
 1751               	/* epilogue start */
 1752               	.LSM175:
 1753 001e 0895      		ret
 1754               	.LFE98:
 1755               		.size	_ZN14HardwareSerial5flushEv, .-_ZN14HardwareSerial5flushEv
 1756               		.section	.text._ZN14HardwareSerial5writeEh,"ax",@progbits
 1757               	.global	_ZN14HardwareSerial5writeEh
 1758               		.type	_ZN14HardwareSerial5writeEh, @function
 1759               	_ZN14HardwareSerial5writeEh:
 1760               	.LFB99:
 1761               	.LSM176:
 1762               	.LVL100:
 1763 0000 CF93      		push r28
 1764 0002 DF93      		push r29
 1765               	/* prologue: function */
 1766               	/* frame size = 0 */
 1767 0004 EC01      		movw r28,r24
GAS LISTING /var/folders/1s/lqjcb7x5323625d47g9gdgmr0000gp/T//ccQR4rtp.s 			page 32


 1768               	.LBB192:
 1769               	.LSM177:
 1770 0006 EE85      		ldd r30,Y+14
 1771 0008 FF85      		ldd r31,Y+15
 1772 000a E05C      		subi r30,lo8(-(64))
 1773 000c FF4F      		sbci r31,hi8(-(64))
 1774 000e 2081      		ld r18,Z
 1775 0010 3181      		ldd r19,Z+1
 1776               	.LVL101:
 1777 0012 E054      		subi r30,lo8(-(-64))
 1778 0014 F040      		sbci r31,hi8(-(-64))
 1779 0016 2F5F      		subi r18,lo8(-(1))
 1780 0018 3F4F      		sbci r19,hi8(-(1))
 1781 001a 2F73      		andi r18,lo8(63)
 1782 001c 3070      		andi r19,hi8(63)
 1783               	.LSM178:
 1784 001e DF01      		movw r26,r30
 1785 0020 AE5B      		subi r26,lo8(-(66))
 1786 0022 BF4F      		sbci r27,hi8(-(66))
 1787               	.LVL102:
 1788               	.L90:
 1789 0024 8D91      		ld r24,X+
 1790 0026 9C91      		ld r25,X
 1791 0028 1197      		sbiw r26,1
 1792 002a 2817      		cp r18,r24
 1793 002c 3907      		cpc r19,r25
 1794 002e 01F0      		breq .L90
 1795               	.LSM179:
 1796 0030 E05C      		subi r30,lo8(-(64))
 1797 0032 FF4F      		sbci r31,hi8(-(64))
 1798 0034 8081      		ld r24,Z
 1799 0036 9181      		ldd r25,Z+1
 1800 0038 E054      		subi r30,lo8(-(-64))
 1801 003a F040      		sbci r31,hi8(-(-64))
 1802 003c E80F      		add r30,r24
 1803 003e F91F      		adc r31,r25
 1804 0040 6083      		st Z,r22
 1805               	.LSM180:
 1806 0042 EE85      		ldd r30,Y+14
 1807 0044 FF85      		ldd r31,Y+15
 1808 0046 E05C      		subi r30,lo8(-(64))
 1809 0048 FF4F      		sbci r31,hi8(-(64))
 1810 004a 3183      		std Z+1,r19
 1811 004c 2083      		st Z,r18
 1812               	.LSM181:
 1813 004e EE89      		ldd r30,Y+22
 1814 0050 FF89      		ldd r31,Y+23
 1815 0052 2081      		ld r18,Z
 1816               	.LVL103:
 1817 0054 81E0      		ldi r24,lo8(1)
 1818 0056 90E0      		ldi r25,hi8(1)
 1819 0058 0F8C      		ldd r0,Y+31
 1820 005a 00C0      		rjmp 2f
 1821 005c 880F      	1:	lsl r24
 1822 005e 991F      		rol r25
 1823 0060 0A94      	2:	dec r0
 1824 0062 02F4      		brpl 1b
GAS LISTING /var/folders/1s/lqjcb7x5323625d47g9gdgmr0000gp/T//ccQR4rtp.s 			page 33


 1825 0064 282B      		or r18,r24
 1826 0066 2083      		st Z,r18
 1827               	.LSM182:
 1828 0068 81E0      		ldi r24,lo8(1)
 1829 006a 89A3      		std Y+33,r24
 1830               	.LSM183:
 1831 006c EC89      		ldd r30,Y+20
 1832 006e FD89      		ldd r31,Y+21
 1833 0070 8081      		ld r24,Z
 1834 0072 8064      		ori r24,lo8(64)
 1835 0074 8083      		st Z,r24
 1836               	.LBE192:
 1837               	.LSM184:
 1838 0076 81E0      		ldi r24,lo8(1)
 1839 0078 90E0      		ldi r25,hi8(1)
 1840               	/* epilogue start */
 1841 007a DF91      		pop r29
 1842 007c CF91      		pop r28
 1843               	.LVL104:
 1844 007e 0895      		ret
 1845               	.LFE99:
 1846               		.size	_ZN14HardwareSerial5writeEh, .-_ZN14HardwareSerial5writeEh
 1847               		.section	.text._ZN14HardwareSerialcvbEv,"ax",@progbits
 1848               	.global	_ZN14HardwareSerialcvbEv
 1849               		.type	_ZN14HardwareSerialcvbEv, @function
 1850               	_ZN14HardwareSerialcvbEv:
 1851               	.LFB100:
 1852               	.LSM185:
 1853               	.LVL105:
 1854               	/* prologue: function */
 1855               	/* frame size = 0 */
 1856               	.LSM186:
 1857 0000 81E0      		ldi r24,lo8(1)
 1858               	.LVL106:
 1859               	/* epilogue start */
 1860 0002 0895      		ret
 1861               	.LFE100:
 1862               		.size	_ZN14HardwareSerialcvbEv, .-_ZN14HardwareSerialcvbEv
 1863               		.section	.text._GLOBAL__I_rx_buffer,"ax",@progbits
 1864               		.type	_GLOBAL__I_rx_buffer, @function
 1865               	_GLOBAL__I_rx_buffer:
 1866               	.LFB102:
 1867               	.LSM187:
 1868 0000 1F93      		push r17
 1869               	/* prologue: function */
 1870               	/* frame size = 0 */
 1871               	.LBB193:
 1872               	.LBB194:
 1873               	.LBB195:
 1874               	.LBB196:
 1875               	.LBB197:
 1876               	.LBB198:
 1877               	.LBB199:
 1878               	.LBB200:
 1879               	.LBB201:
 1880               	.LBB202:
 1881               	.LBB203:
GAS LISTING /var/folders/1s/lqjcb7x5323625d47g9gdgmr0000gp/T//ccQR4rtp.s 			page 34


 1882               	.LSM188:
 1883 0002 1092 0000 		sts (Serial+2)+1,__zero_reg__
 1884 0006 1092 0000 		sts Serial+2,__zero_reg__
 1885               	.LBE203:
 1886               	.LBE202:
 1887               	.LBE201:
 1888               	.LSM189:
 1889 000a 28EE      		ldi r18,lo8(1000)
 1890 000c 33E0      		ldi r19,hi8(1000)
 1891 000e 40E0      		ldi r20,hlo8(1000)
 1892 0010 50E0      		ldi r21,hhi8(1000)
 1893 0012 2093 0000 		sts Serial+4,r18
 1894 0016 3093 0000 		sts (Serial+4)+1,r19
 1895 001a 4093 0000 		sts (Serial+4)+2,r20
 1896 001e 5093 0000 		sts (Serial+4)+3,r21
 1897               	.LBE200:
 1898               	.LBE199:
 1899               	.LBE198:
 1900               	.LSM190:
 1901 0022 60E0      		ldi r22,lo8(_ZTV14HardwareSerial+4)
 1902 0024 70E0      		ldi r23,hi8(_ZTV14HardwareSerial+4)
 1903 0026 7093 0000 		sts (Serial)+1,r23
 1904 002a 6093 0000 		sts Serial,r22
 1905               	.LSM191:
 1906 002e 80E0      		ldi r24,lo8(rx_buffer)
 1907 0030 90E0      		ldi r25,hi8(rx_buffer)
 1908 0032 9093 0000 		sts (Serial+12)+1,r25
 1909 0036 8093 0000 		sts Serial+12,r24
 1910               	.LSM192:
 1911 003a 80E0      		ldi r24,lo8(tx_buffer)
 1912 003c 90E0      		ldi r25,hi8(tx_buffer)
 1913 003e 9093 0000 		sts (Serial+14)+1,r25
 1914 0042 8093 0000 		sts Serial+14,r24
 1915               	.LSM193:
 1916 0046 85EC      		ldi r24,lo8(197)
 1917 0048 90E0      		ldi r25,hi8(197)
 1918 004a 9093 0000 		sts (Serial+16)+1,r25
 1919 004e 8093 0000 		sts Serial+16,r24
 1920               	.LSM194:
 1921 0052 84EC      		ldi r24,lo8(196)
 1922 0054 90E0      		ldi r25,hi8(196)
 1923 0056 9093 0000 		sts (Serial+18)+1,r25
 1924 005a 8093 0000 		sts Serial+18,r24
 1925               	.LSM195:
 1926 005e 80EC      		ldi r24,lo8(192)
 1927 0060 90E0      		ldi r25,hi8(192)
 1928 0062 9093 0000 		sts (Serial+20)+1,r25
 1929 0066 8093 0000 		sts Serial+20,r24
 1930               	.LSM196:
 1931 006a 81EC      		ldi r24,lo8(193)
 1932 006c 90E0      		ldi r25,hi8(193)
 1933 006e 9093 0000 		sts (Serial+22)+1,r25
 1934 0072 8093 0000 		sts Serial+22,r24
 1935               	.LSM197:
 1936 0076 82EC      		ldi r24,lo8(194)
 1937 0078 90E0      		ldi r25,hi8(194)
 1938 007a 9093 0000 		sts (Serial+24)+1,r25
GAS LISTING /var/folders/1s/lqjcb7x5323625d47g9gdgmr0000gp/T//ccQR4rtp.s 			page 35


 1939 007e 8093 0000 		sts Serial+24,r24
 1940               	.LSM198:
 1941 0082 86EC      		ldi r24,lo8(198)
 1942 0084 90E0      		ldi r25,hi8(198)
 1943 0086 9093 0000 		sts (Serial+26)+1,r25
 1944 008a 8093 0000 		sts Serial+26,r24
 1945               	.LSM199:
 1946 008e 14E0      		ldi r17,lo8(4)
 1947 0090 1093 0000 		sts Serial+28,r17
 1948               	.LSM200:
 1949 0094 B3E0      		ldi r27,lo8(3)
 1950 0096 B093 0000 		sts Serial+29,r27
 1951               	.LSM201:
 1952 009a A7E0      		ldi r26,lo8(7)
 1953 009c A093 0000 		sts Serial+30,r26
 1954               	.LSM202:
 1955 00a0 F5E0      		ldi r31,lo8(5)
 1956 00a2 F093 0000 		sts Serial+31,r31
 1957               	.LSM203:
 1958 00a6 E1E0      		ldi r30,lo8(1)
 1959 00a8 E093 0000 		sts Serial+32,r30
 1960               	.LBE197:
 1961               	.LBE196:
 1962               	.LBE195:
 1963               	.LBB204:
 1964               	.LBB205:
 1965               	.LBB206:
 1966               	.LBB207:
 1967               	.LBB208:
 1968               	.LBB209:
 1969               	.LBB210:
 1970               	.LBB211:
 1971               	.LBB212:
 1972               	.LSM204:
 1973 00ac 1092 0000 		sts (Serial1+2)+1,__zero_reg__
 1974 00b0 1092 0000 		sts Serial1+2,__zero_reg__
 1975               	.LBE212:
 1976               	.LBE211:
 1977               	.LBE210:
 1978               	.LSM205:
 1979 00b4 2093 0000 		sts Serial1+4,r18
 1980 00b8 3093 0000 		sts (Serial1+4)+1,r19
 1981 00bc 4093 0000 		sts (Serial1+4)+2,r20
 1982 00c0 5093 0000 		sts (Serial1+4)+3,r21
 1983               	.LBE209:
 1984               	.LBE208:
 1985               	.LBE207:
 1986               	.LSM206:
 1987 00c4 7093 0000 		sts (Serial1)+1,r23
 1988 00c8 6093 0000 		sts Serial1,r22
 1989               	.LSM207:
 1990 00cc 80E0      		ldi r24,lo8(rx_buffer1)
 1991 00ce 90E0      		ldi r25,hi8(rx_buffer1)
 1992 00d0 9093 0000 		sts (Serial1+12)+1,r25
 1993 00d4 8093 0000 		sts Serial1+12,r24
 1994               	.LSM208:
 1995 00d8 80E0      		ldi r24,lo8(tx_buffer1)
GAS LISTING /var/folders/1s/lqjcb7x5323625d47g9gdgmr0000gp/T//ccQR4rtp.s 			page 36


 1996 00da 90E0      		ldi r25,hi8(tx_buffer1)
 1997 00dc 9093 0000 		sts (Serial1+14)+1,r25
 1998 00e0 8093 0000 		sts Serial1+14,r24
 1999               	.LSM209:
 2000 00e4 8DEC      		ldi r24,lo8(205)
 2001 00e6 90E0      		ldi r25,hi8(205)
 2002 00e8 9093 0000 		sts (Serial1+16)+1,r25
 2003 00ec 8093 0000 		sts Serial1+16,r24
 2004               	.LSM210:
 2005 00f0 8CEC      		ldi r24,lo8(204)
 2006 00f2 90E0      		ldi r25,hi8(204)
 2007 00f4 9093 0000 		sts (Serial1+18)+1,r25
 2008 00f8 8093 0000 		sts Serial1+18,r24
 2009               	.LSM211:
 2010 00fc 88EC      		ldi r24,lo8(200)
 2011 00fe 90E0      		ldi r25,hi8(200)
 2012 0100 9093 0000 		sts (Serial1+20)+1,r25
 2013 0104 8093 0000 		sts Serial1+20,r24
 2014               	.LSM212:
 2015 0108 89EC      		ldi r24,lo8(201)
 2016 010a 90E0      		ldi r25,hi8(201)
 2017 010c 9093 0000 		sts (Serial1+22)+1,r25
 2018 0110 8093 0000 		sts Serial1+22,r24
 2019               	.LSM213:
 2020 0114 8AEC      		ldi r24,lo8(202)
 2021 0116 90E0      		ldi r25,hi8(202)
 2022 0118 9093 0000 		sts (Serial1+24)+1,r25
 2023 011c 8093 0000 		sts Serial1+24,r24
 2024               	.LSM214:
 2025 0120 8EEC      		ldi r24,lo8(206)
 2026 0122 90E0      		ldi r25,hi8(206)
 2027 0124 9093 0000 		sts (Serial1+26)+1,r25
 2028 0128 8093 0000 		sts Serial1+26,r24
 2029               	.LSM215:
 2030 012c 1093 0000 		sts Serial1+28,r17
 2031               	.LSM216:
 2032 0130 B093 0000 		sts Serial1+29,r27
 2033               	.LSM217:
 2034 0134 A093 0000 		sts Serial1+30,r26
 2035               	.LSM218:
 2036 0138 F093 0000 		sts Serial1+31,r31
 2037               	.LSM219:
 2038 013c E093 0000 		sts Serial1+32,r30
 2039               	.LBE206:
 2040               	.LBE205:
 2041               	.LBE204:
 2042               	.LBB213:
 2043               	.LBB214:
 2044               	.LBB215:
 2045               	.LBB216:
 2046               	.LBB217:
 2047               	.LBB218:
 2048               	.LBB219:
 2049               	.LBB220:
 2050               	.LBB221:
 2051               	.LSM220:
 2052 0140 1092 0000 		sts (Serial2+2)+1,__zero_reg__
GAS LISTING /var/folders/1s/lqjcb7x5323625d47g9gdgmr0000gp/T//ccQR4rtp.s 			page 37


 2053 0144 1092 0000 		sts Serial2+2,__zero_reg__
 2054               	.LBE221:
 2055               	.LBE220:
 2056               	.LBE219:
 2057               	.LSM221:
 2058 0148 2093 0000 		sts Serial2+4,r18
 2059 014c 3093 0000 		sts (Serial2+4)+1,r19
 2060 0150 4093 0000 		sts (Serial2+4)+2,r20
 2061 0154 5093 0000 		sts (Serial2+4)+3,r21
 2062               	.LBE218:
 2063               	.LBE217:
 2064               	.LBE216:
 2065               	.LSM222:
 2066 0158 7093 0000 		sts (Serial2)+1,r23
 2067 015c 6093 0000 		sts Serial2,r22
 2068               	.LSM223:
 2069 0160 80E0      		ldi r24,lo8(rx_buffer2)
 2070 0162 90E0      		ldi r25,hi8(rx_buffer2)
 2071 0164 9093 0000 		sts (Serial2+12)+1,r25
 2072 0168 8093 0000 		sts Serial2+12,r24
 2073               	.LSM224:
 2074 016c 80E0      		ldi r24,lo8(tx_buffer2)
 2075 016e 90E0      		ldi r25,hi8(tx_buffer2)
 2076 0170 9093 0000 		sts (Serial2+14)+1,r25
 2077 0174 8093 0000 		sts Serial2+14,r24
 2078               	.LSM225:
 2079 0178 85ED      		ldi r24,lo8(213)
 2080 017a 90E0      		ldi r25,hi8(213)
 2081 017c 9093 0000 		sts (Serial2+16)+1,r25
 2082 0180 8093 0000 		sts Serial2+16,r24
 2083               	.LSM226:
 2084 0184 84ED      		ldi r24,lo8(212)
 2085 0186 90E0      		ldi r25,hi8(212)
 2086 0188 9093 0000 		sts (Serial2+18)+1,r25
 2087 018c 8093 0000 		sts Serial2+18,r24
 2088               	.LSM227:
 2089 0190 80ED      		ldi r24,lo8(208)
 2090 0192 90E0      		ldi r25,hi8(208)
 2091 0194 9093 0000 		sts (Serial2+20)+1,r25
 2092 0198 8093 0000 		sts Serial2+20,r24
 2093               	.LSM228:
 2094 019c 81ED      		ldi r24,lo8(209)
 2095 019e 90E0      		ldi r25,hi8(209)
 2096 01a0 9093 0000 		sts (Serial2+22)+1,r25
 2097 01a4 8093 0000 		sts Serial2+22,r24
 2098               	.LSM229:
 2099 01a8 82ED      		ldi r24,lo8(210)
 2100 01aa 90E0      		ldi r25,hi8(210)
 2101 01ac 9093 0000 		sts (Serial2+24)+1,r25
 2102 01b0 8093 0000 		sts Serial2+24,r24
 2103               	.LSM230:
 2104 01b4 86ED      		ldi r24,lo8(214)
 2105 01b6 90E0      		ldi r25,hi8(214)
 2106 01b8 9093 0000 		sts (Serial2+26)+1,r25
 2107 01bc 8093 0000 		sts Serial2+26,r24
 2108               	.LSM231:
 2109 01c0 1093 0000 		sts Serial2+28,r17
GAS LISTING /var/folders/1s/lqjcb7x5323625d47g9gdgmr0000gp/T//ccQR4rtp.s 			page 38


 2110               	.LSM232:
 2111 01c4 B093 0000 		sts Serial2+29,r27
 2112               	.LSM233:
 2113 01c8 A093 0000 		sts Serial2+30,r26
 2114               	.LSM234:
 2115 01cc F093 0000 		sts Serial2+31,r31
 2116               	.LSM235:
 2117 01d0 E093 0000 		sts Serial2+32,r30
 2118               	.LBE215:
 2119               	.LBE214:
 2120               	.LBE213:
 2121               	.LBB222:
 2122               	.LBB223:
 2123               	.LBB224:
 2124               	.LBB225:
 2125               	.LBB226:
 2126               	.LBB227:
 2127               	.LBB228:
 2128               	.LBB229:
 2129               	.LBB230:
 2130               	.LSM236:
 2131 01d4 1092 0000 		sts (Serial3+2)+1,__zero_reg__
 2132 01d8 1092 0000 		sts Serial3+2,__zero_reg__
 2133               	.LBE230:
 2134               	.LBE229:
 2135               	.LBE228:
 2136               	.LSM237:
 2137 01dc 2093 0000 		sts Serial3+4,r18
 2138 01e0 3093 0000 		sts (Serial3+4)+1,r19
 2139 01e4 4093 0000 		sts (Serial3+4)+2,r20
 2140 01e8 5093 0000 		sts (Serial3+4)+3,r21
 2141               	.LBE227:
 2142               	.LBE226:
 2143               	.LBE225:
 2144               	.LSM238:
 2145 01ec 7093 0000 		sts (Serial3)+1,r23
 2146 01f0 6093 0000 		sts Serial3,r22
 2147               	.LSM239:
 2148 01f4 80E0      		ldi r24,lo8(rx_buffer3)
 2149 01f6 90E0      		ldi r25,hi8(rx_buffer3)
 2150 01f8 9093 0000 		sts (Serial3+12)+1,r25
 2151 01fc 8093 0000 		sts Serial3+12,r24
 2152               	.LSM240:
 2153 0200 80E0      		ldi r24,lo8(tx_buffer3)
 2154 0202 90E0      		ldi r25,hi8(tx_buffer3)
 2155 0204 9093 0000 		sts (Serial3+14)+1,r25
 2156 0208 8093 0000 		sts Serial3+14,r24
 2157               	.LSM241:
 2158 020c 85E3      		ldi r24,lo8(309)
 2159 020e 91E0      		ldi r25,hi8(309)
 2160 0210 9093 0000 		sts (Serial3+16)+1,r25
 2161 0214 8093 0000 		sts Serial3+16,r24
 2162               	.LSM242:
 2163 0218 84E3      		ldi r24,lo8(308)
 2164 021a 91E0      		ldi r25,hi8(308)
 2165 021c 9093 0000 		sts (Serial3+18)+1,r25
 2166 0220 8093 0000 		sts Serial3+18,r24
GAS LISTING /var/folders/1s/lqjcb7x5323625d47g9gdgmr0000gp/T//ccQR4rtp.s 			page 39


 2167               	.LSM243:
 2168 0224 80E3      		ldi r24,lo8(304)
 2169 0226 91E0      		ldi r25,hi8(304)
 2170 0228 9093 0000 		sts (Serial3+20)+1,r25
 2171 022c 8093 0000 		sts Serial3+20,r24
 2172               	.LSM244:
 2173 0230 81E3      		ldi r24,lo8(305)
 2174 0232 91E0      		ldi r25,hi8(305)
 2175 0234 9093 0000 		sts (Serial3+22)+1,r25
 2176 0238 8093 0000 		sts Serial3+22,r24
 2177               	.LSM245:
 2178 023c 82E3      		ldi r24,lo8(306)
 2179 023e 91E0      		ldi r25,hi8(306)
 2180 0240 9093 0000 		sts (Serial3+24)+1,r25
 2181 0244 8093 0000 		sts Serial3+24,r24
 2182               	.LSM246:
 2183 0248 86E3      		ldi r24,lo8(310)
 2184 024a 91E0      		ldi r25,hi8(310)
 2185 024c 9093 0000 		sts (Serial3+26)+1,r25
 2186 0250 8093 0000 		sts Serial3+26,r24
 2187               	.LSM247:
 2188 0254 1093 0000 		sts Serial3+28,r17
 2189               	.LSM248:
 2190 0258 B093 0000 		sts Serial3+29,r27
 2191               	.LSM249:
 2192 025c A093 0000 		sts Serial3+30,r26
 2193               	.LSM250:
 2194 0260 F093 0000 		sts Serial3+31,r31
 2195               	.LSM251:
 2196 0264 E093 0000 		sts Serial3+32,r30
 2197               	/* epilogue start */
 2198               	.LBE224:
 2199               	.LBE223:
 2200               	.LBE222:
 2201               	.LBE194:
 2202               	.LBE193:
 2203               	.LSM252:
 2204 0268 1F91      		pop r17
 2205 026a 0895      		ret
 2206               	.LFE102:
 2207               		.size	_GLOBAL__I_rx_buffer, .-_GLOBAL__I_rx_buffer
 2208               		.global __do_global_ctors
 2209               		.section .ctors,"a",@progbits
 2210 0000 0000      		.word	gs(_GLOBAL__I_rx_buffer)
 2211               	.global	rx_buffer
 2212               		.section	.bss.rx_buffer,"aw",@nobits
 2213               		.type	rx_buffer, @object
 2214               		.size	rx_buffer, 68
 2215               	rx_buffer:
 2216 0000 0000 0000 		.skip 68,0
 2216      0000 0000 
 2216      0000 0000 
 2216      0000 0000 
 2216      0000 0000 
 2217               	.global	tx_buffer
 2218               		.section	.bss.tx_buffer,"aw",@nobits
 2219               		.type	tx_buffer, @object
GAS LISTING /var/folders/1s/lqjcb7x5323625d47g9gdgmr0000gp/T//ccQR4rtp.s 			page 40


 2220               		.size	tx_buffer, 68
 2221               	tx_buffer:
 2222 0000 0000 0000 		.skip 68,0
 2222      0000 0000 
 2222      0000 0000 
 2222      0000 0000 
 2222      0000 0000 
 2223               	.global	rx_buffer1
 2224               		.section	.bss.rx_buffer1,"aw",@nobits
 2225               		.type	rx_buffer1, @object
 2226               		.size	rx_buffer1, 68
 2227               	rx_buffer1:
 2228 0000 0000 0000 		.skip 68,0
 2228      0000 0000 
 2228      0000 0000 
 2228      0000 0000 
 2228      0000 0000 
 2229               	.global	tx_buffer1
 2230               		.section	.bss.tx_buffer1,"aw",@nobits
 2231               		.type	tx_buffer1, @object
 2232               		.size	tx_buffer1, 68
 2233               	tx_buffer1:
 2234 0000 0000 0000 		.skip 68,0
 2234      0000 0000 
 2234      0000 0000 
 2234      0000 0000 
 2234      0000 0000 
 2235               	.global	rx_buffer2
 2236               		.section	.bss.rx_buffer2,"aw",@nobits
 2237               		.type	rx_buffer2, @object
 2238               		.size	rx_buffer2, 68
 2239               	rx_buffer2:
 2240 0000 0000 0000 		.skip 68,0
 2240      0000 0000 
 2240      0000 0000 
 2240      0000 0000 
 2240      0000 0000 
 2241               	.global	tx_buffer2
 2242               		.section	.bss.tx_buffer2,"aw",@nobits
 2243               		.type	tx_buffer2, @object
 2244               		.size	tx_buffer2, 68
 2245               	tx_buffer2:
 2246 0000 0000 0000 		.skip 68,0
 2246      0000 0000 
 2246      0000 0000 
 2246      0000 0000 
 2246      0000 0000 
 2247               	.global	rx_buffer3
 2248               		.section	.bss.rx_buffer3,"aw",@nobits
 2249               		.type	rx_buffer3, @object
 2250               		.size	rx_buffer3, 68
 2251               	rx_buffer3:
 2252 0000 0000 0000 		.skip 68,0
 2252      0000 0000 
 2252      0000 0000 
 2252      0000 0000 
 2252      0000 0000 
GAS LISTING /var/folders/1s/lqjcb7x5323625d47g9gdgmr0000gp/T//ccQR4rtp.s 			page 41


 2253               	.global	tx_buffer3
 2254               		.section	.bss.tx_buffer3,"aw",@nobits
 2255               		.type	tx_buffer3, @object
 2256               		.size	tx_buffer3, 68
 2257               	tx_buffer3:
 2258 0000 0000 0000 		.skip 68,0
 2258      0000 0000 
 2258      0000 0000 
 2258      0000 0000 
 2258      0000 0000 
 2259               	.global	Serial
 2260               		.section	.bss.Serial,"aw",@nobits
 2261               		.type	Serial, @object
 2262               		.size	Serial, 34
 2263               	Serial:
 2264 0000 0000 0000 		.skip 34,0
 2264      0000 0000 
 2264      0000 0000 
 2264      0000 0000 
 2264      0000 0000 
 2265               	.global	Serial1
 2266               		.section	.bss.Serial1,"aw",@nobits
 2267               		.type	Serial1, @object
 2268               		.size	Serial1, 34
 2269               	Serial1:
 2270 0000 0000 0000 		.skip 34,0
 2270      0000 0000 
 2270      0000 0000 
 2270      0000 0000 
 2270      0000 0000 
 2271               	.global	Serial2
 2272               		.section	.bss.Serial2,"aw",@nobits
 2273               		.type	Serial2, @object
 2274               		.size	Serial2, 34
 2275               	Serial2:
 2276 0000 0000 0000 		.skip 34,0
 2276      0000 0000 
 2276      0000 0000 
 2276      0000 0000 
 2276      0000 0000 
 2277               	.global	Serial3
 2278               		.section	.bss.Serial3,"aw",@nobits
 2279               		.type	Serial3, @object
 2280               		.size	Serial3, 34
 2281               	Serial3:
 2282 0000 0000 0000 		.skip 34,0
 2282      0000 0000 
 2282      0000 0000 
 2282      0000 0000 
 2282      0000 0000 
 2283               		.weak	_ZTV14HardwareSerial
 2284               		.section	.rodata._ZTV14HardwareSerial,"a",@progbits
 2285               		.type	_ZTV14HardwareSerial, @object
 2286               		.size	_ZTV14HardwareSerial, 16
 2287               	_ZTV14HardwareSerial:
 2288 0000 0000      		.word	0
 2289 0002 0000      		.word	0
GAS LISTING /var/folders/1s/lqjcb7x5323625d47g9gdgmr0000gp/T//ccQR4rtp.s 			page 42


 2290 0004 0000      		.word	gs(_ZN14HardwareSerial5writeEh)
 2291 0006 0000      		.word	gs(_ZN5Print5writeEPKhj)
 2292 0008 0000      		.word	gs(_ZN14HardwareSerial9availableEv)
 2293 000a 0000      		.word	gs(_ZN14HardwareSerial4readEv)
 2294 000c 0000      		.word	gs(_ZN14HardwareSerial4peekEv)
 2295 000e 0000      		.word	gs(_ZN14HardwareSerial5flushEv)
 2296               		.weak	_ZTV6Stream
 2297               		.section	.rodata._ZTV6Stream,"a",@progbits
 2298               		.type	_ZTV6Stream, @object
 2299               		.size	_ZTV6Stream, 16
 2300               	_ZTV6Stream:
 2301 0000 0000      		.word	0
 2302 0002 0000      		.word	0
 2303 0004 0000      		.word	gs(__cxa_pure_virtual)
 2304 0006 0000      		.word	gs(_ZN5Print5writeEPKhj)
 2305 0008 0000      		.word	gs(__cxa_pure_virtual)
 2306 000a 0000      		.word	gs(__cxa_pure_virtual)
 2307 000c 0000      		.word	gs(__cxa_pure_virtual)
 2308 000e 0000      		.word	gs(__cxa_pure_virtual)
 2309               		.section	.debug_frame,"",@progbits
 2310               	.Lframe0:
 2311 0000 0C00 0000 		.long	.LECIE0-.LSCIE0
 2312               	.LSCIE0:
 2313 0004 FFFF FFFF 		.long	0xffffffff
 2314 0008 01        		.byte	0x1
 2315 0009 00        		.string	""
 2316 000a 01        		.uleb128 0x1
 2317 000b 7F        		.sleb128 -1
 2318 000c 24        		.byte	0x24
 2319 000d 0C        		.byte	0xc
 2320 000e 20        		.uleb128 0x20
 2321 000f 00        		.uleb128 0x0
 2322               		.p2align	2
 2323               	.LECIE0:
 2324               	.LSFDE0:
 2325 0010 0C00 0000 		.long	.LEFDE0-.LASFDE0
 2326               	.LASFDE0:
 2327 0014 0000 0000 		.long	.Lframe0
 2328 0018 0000 0000 		.long	.LFB76
 2329 001c 0200 0000 		.long	.LFE76-.LFB76
 2330               		.p2align	2
 2331               	.LEFDE0:
 2332               	.LSFDE2:
 2333 0020 0C00 0000 		.long	.LEFDE2-.LASFDE2
 2334               	.LASFDE2:
 2335 0024 0000 0000 		.long	.Lframe0
 2336 0028 0000 0000 		.long	.LFB77
 2337 002c 7E00 0000 		.long	.LFE77-.LFB77
 2338               		.p2align	2
 2339               	.LEFDE2:
 2340               	.LSFDE4:
 2341 0030 0C00 0000 		.long	.LEFDE4-.LASFDE4
 2342               	.LASFDE4:
 2343 0034 0000 0000 		.long	.Lframe0
 2344 0038 0000 0000 		.long	.LFB78
 2345 003c 0200 0000 		.long	.LFE78-.LFB78
 2346               		.p2align	2
GAS LISTING /var/folders/1s/lqjcb7x5323625d47g9gdgmr0000gp/T//ccQR4rtp.s 			page 43


 2347               	.LEFDE4:
 2348               	.LSFDE6:
 2349 0040 0C00 0000 		.long	.LEFDE6-.LASFDE6
 2350               	.LASFDE6:
 2351 0044 0000 0000 		.long	.Lframe0
 2352 0048 0000 0000 		.long	.LFB79
 2353 004c 7E00 0000 		.long	.LFE79-.LFB79
 2354               		.p2align	2
 2355               	.LEFDE6:
 2356               	.LSFDE8:
 2357 0050 0C00 0000 		.long	.LEFDE8-.LASFDE8
 2358               	.LASFDE8:
 2359 0054 0000 0000 		.long	.Lframe0
 2360 0058 0000 0000 		.long	.LFB80
 2361 005c 0200 0000 		.long	.LFE80-.LFB80
 2362               		.p2align	2
 2363               	.LEFDE8:
 2364               	.LSFDE10:
 2365 0060 0C00 0000 		.long	.LEFDE10-.LASFDE10
 2366               	.LASFDE10:
 2367 0064 0000 0000 		.long	.Lframe0
 2368 0068 0000 0000 		.long	.LFB81
 2369 006c 7E00 0000 		.long	.LFE81-.LFB81
 2370               		.p2align	2
 2371               	.LEFDE10:
 2372               	.LSFDE12:
 2373 0070 0C00 0000 		.long	.LEFDE12-.LASFDE12
 2374               	.LASFDE12:
 2375 0074 0000 0000 		.long	.Lframe0
 2376 0078 0000 0000 		.long	.LFB82
 2377 007c 0200 0000 		.long	.LFE82-.LFB82
 2378               		.p2align	2
 2379               	.LEFDE12:
 2380               	.LSFDE14:
 2381 0080 0C00 0000 		.long	.LEFDE14-.LASFDE14
 2382               	.LASFDE14:
 2383 0084 0000 0000 		.long	.Lframe0
 2384 0088 0000 0000 		.long	.LFB83
 2385 008c 7E00 0000 		.long	.LFE83-.LFB83
 2386               		.p2align	2
 2387               	.LEFDE14:
 2388               	.LSFDE16:
 2389 0090 0C00 0000 		.long	.LEFDE16-.LASFDE16
 2390               	.LASFDE16:
 2391 0094 0000 0000 		.long	.Lframe0
 2392 0098 0000 0000 		.long	.LFB84
 2393 009c 9200 0000 		.long	.LFE84-.LFB84
 2394               		.p2align	2
 2395               	.LEFDE16:
 2396               	.LSFDE18:
 2397 00a0 0C00 0000 		.long	.LEFDE18-.LASFDE18
 2398               	.LASFDE18:
 2399 00a4 0000 0000 		.long	.Lframe0
 2400 00a8 0000 0000 		.long	.LFB85
 2401 00ac 7E00 0000 		.long	.LFE85-.LFB85
 2402               		.p2align	2
 2403               	.LEFDE18:
GAS LISTING /var/folders/1s/lqjcb7x5323625d47g9gdgmr0000gp/T//ccQR4rtp.s 			page 44


 2404               	.LSFDE20:
 2405 00b0 0C00 0000 		.long	.LEFDE20-.LASFDE20
 2406               	.LASFDE20:
 2407 00b4 0000 0000 		.long	.Lframe0
 2408 00b8 0000 0000 		.long	.LFB86
 2409 00bc 7E00 0000 		.long	.LFE86-.LFB86
 2410               		.p2align	2
 2411               	.LEFDE20:
 2412               	.LSFDE22:
 2413 00c0 0C00 0000 		.long	.LEFDE22-.LASFDE22
 2414               	.LASFDE22:
 2415 00c4 0000 0000 		.long	.Lframe0
 2416 00c8 0000 0000 		.long	.LFB87
 2417 00cc 7E00 0000 		.long	.LFE87-.LFB87
 2418               		.p2align	2
 2419               	.LEFDE22:
 2420               	.LSFDE24:
 2421 00d0 0C00 0000 		.long	.LEFDE24-.LASFDE24
 2422               	.LASFDE24:
 2423 00d4 0000 0000 		.long	.Lframe0
 2424 00d8 0000 0000 		.long	.LFB88
 2425 00dc 7E00 0000 		.long	.LFE88-.LFB88
 2426               		.p2align	2
 2427               	.LEFDE24:
 2428               	.LSFDE26:
 2429 00e0 0C00 0000 		.long	.LEFDE26-.LASFDE26
 2430               	.LASFDE26:
 2431 00e4 0000 0000 		.long	.Lframe0
 2432 00e8 0000 0000 		.long	.LFB90
 2433 00ec 8800 0000 		.long	.LFE90-.LFB90
 2434               		.p2align	2
 2435               	.LEFDE26:
 2436               	.LSFDE28:
 2437 00f0 0C00 0000 		.long	.LEFDE28-.LASFDE28
 2438               	.LASFDE28:
 2439 00f4 0000 0000 		.long	.Lframe0
 2440 00f8 0000 0000 		.long	.LFB91
 2441 00fc 8800 0000 		.long	.LFE91-.LFB91
 2442               		.p2align	2
 2443               	.LEFDE28:
 2444               	.LSFDE30:
 2445 0100 0C00 0000 		.long	.LEFDE30-.LASFDE30
 2446               	.LASFDE30:
 2447 0104 0000 0000 		.long	.Lframe0
 2448 0108 0000 0000 		.long	.LFB92
 2449 010c 0E01 0000 		.long	.LFE92-.LFB92
 2450               		.p2align	2
 2451               	.LEFDE30:
 2452               	.LSFDE32:
 2453 0110 0C00 0000 		.long	.LEFDE32-.LASFDE32
 2454               	.LASFDE32:
 2455 0114 0000 0000 		.long	.Lframe0
 2456 0118 0000 0000 		.long	.LFB93
 2457 011c 1801 0000 		.long	.LFE93-.LFB93
 2458               		.p2align	2
 2459               	.LEFDE32:
 2460               	.LSFDE34:
GAS LISTING /var/folders/1s/lqjcb7x5323625d47g9gdgmr0000gp/T//ccQR4rtp.s 			page 45


 2461 0120 0C00 0000 		.long	.LEFDE34-.LASFDE34
 2462               	.LASFDE34:
 2463 0124 0000 0000 		.long	.Lframe0
 2464 0128 0000 0000 		.long	.LFB94
 2465 012c CC00 0000 		.long	.LFE94-.LFB94
 2466               		.p2align	2
 2467               	.LEFDE34:
 2468               	.LSFDE36:
 2469 0130 0C00 0000 		.long	.LEFDE36-.LASFDE36
 2470               	.LASFDE36:
 2471 0134 0000 0000 		.long	.Lframe0
 2472 0138 0000 0000 		.long	.LFB95
 2473 013c 2200 0000 		.long	.LFE95-.LFB95
 2474               		.p2align	2
 2475               	.LEFDE36:
 2476               	.LSFDE38:
 2477 0140 0C00 0000 		.long	.LEFDE38-.LASFDE38
 2478               	.LASFDE38:
 2479 0144 0000 0000 		.long	.Lframe0
 2480 0148 0000 0000 		.long	.LFB96
 2481 014c 4000 0000 		.long	.LFE96-.LFB96
 2482               		.p2align	2
 2483               	.LEFDE38:
 2484               	.LSFDE40:
 2485 0150 0C00 0000 		.long	.LEFDE40-.LASFDE40
 2486               	.LASFDE40:
 2487 0154 0000 0000 		.long	.Lframe0
 2488 0158 0000 0000 		.long	.LFB97
 2489 015c 5200 0000 		.long	.LFE97-.LFB97
 2490               		.p2align	2
 2491               	.LEFDE40:
 2492               	.LSFDE42:
 2493 0160 0C00 0000 		.long	.LEFDE42-.LASFDE42
 2494               	.LASFDE42:
 2495 0164 0000 0000 		.long	.Lframe0
 2496 0168 0000 0000 		.long	.LFB98
 2497 016c 2000 0000 		.long	.LFE98-.LFB98
 2498               		.p2align	2
 2499               	.LEFDE42:
 2500               	.LSFDE44:
 2501 0170 0C00 0000 		.long	.LEFDE44-.LASFDE44
 2502               	.LASFDE44:
 2503 0174 0000 0000 		.long	.Lframe0
 2504 0178 0000 0000 		.long	.LFB99
 2505 017c 8000 0000 		.long	.LFE99-.LFB99
 2506               		.p2align	2
 2507               	.LEFDE44:
 2508               	.LSFDE46:
 2509 0180 0C00 0000 		.long	.LEFDE46-.LASFDE46
 2510               	.LASFDE46:
 2511 0184 0000 0000 		.long	.Lframe0
 2512 0188 0000 0000 		.long	.LFB100
 2513 018c 0400 0000 		.long	.LFE100-.LFB100
 2514               		.p2align	2
 2515               	.LEFDE46:
 2516               	.LSFDE48:
 2517 0190 0C00 0000 		.long	.LEFDE48-.LASFDE48
GAS LISTING /var/folders/1s/lqjcb7x5323625d47g9gdgmr0000gp/T//ccQR4rtp.s 			page 46


 2518               	.LASFDE48:
 2519 0194 0000 0000 		.long	.Lframe0
 2520 0198 0000 0000 		.long	.LFB102
 2521 019c 6C02 0000 		.long	.LFE102-.LFB102
 2522               		.p2align	2
 2523               	.LEFDE48:
 2524               		.text
 2525               	.Letext0:
 2526               		.section	.debug_loc,"",@progbits
 2527               	.Ldebug_loc0:
 2528               	.LLST2:
 2529 0000 0000 0000 		.long	.LVL0
 2530 0004 0000 0000 		.long	.LVL1
 2531 0008 0100      		.word	0x1
 2532 000a 64        		.byte	0x64
 2533 000b 0000 0000 		.long	.LVL2
 2534 000f 0000 0000 		.long	.LVL4
 2535 0013 0100      		.word	0x1
 2536 0015 64        		.byte	0x64
 2537 0016 0000 0000 		.long	0x0
 2538 001a 0000 0000 		.long	0x0
 2539               	.LLST3:
 2540 001e 0000 0000 		.long	.LVL2
 2541 0022 0000 0000 		.long	.LVL3
 2542 0026 0100      		.word	0x1
 2543 0028 68        		.byte	0x68
 2544 0029 0000 0000 		.long	0x0
 2545 002d 0000 0000 		.long	0x0
 2546               	.LLST6:
 2547 0031 0000 0000 		.long	.LVL5
 2548 0035 0000 0000 		.long	.LVL6
 2549 0039 0100      		.word	0x1
 2550 003b 64        		.byte	0x64
 2551 003c 0000 0000 		.long	.LVL7
 2552 0040 0000 0000 		.long	.LVL9
 2553 0044 0100      		.word	0x1
 2554 0046 64        		.byte	0x64
 2555 0047 0000 0000 		.long	0x0
 2556 004b 0000 0000 		.long	0x0
 2557               	.LLST7:
 2558 004f 0000 0000 		.long	.LVL7
 2559 0053 0000 0000 		.long	.LVL8
 2560 0057 0100      		.word	0x1
 2561 0059 68        		.byte	0x68
 2562 005a 0000 0000 		.long	0x0
 2563 005e 0000 0000 		.long	0x0
 2564               	.LLST10:
 2565 0062 0000 0000 		.long	.LVL10
 2566 0066 0000 0000 		.long	.LVL11
 2567 006a 0100      		.word	0x1
 2568 006c 64        		.byte	0x64
 2569 006d 0000 0000 		.long	.LVL12
 2570 0071 0000 0000 		.long	.LVL14
 2571 0075 0100      		.word	0x1
 2572 0077 64        		.byte	0x64
 2573 0078 0000 0000 		.long	0x0
 2574 007c 0000 0000 		.long	0x0
GAS LISTING /var/folders/1s/lqjcb7x5323625d47g9gdgmr0000gp/T//ccQR4rtp.s 			page 47


 2575               	.LLST11:
 2576 0080 0000 0000 		.long	.LVL12
 2577 0084 0000 0000 		.long	.LVL13
 2578 0088 0100      		.word	0x1
 2579 008a 68        		.byte	0x68
 2580 008b 0000 0000 		.long	0x0
 2581 008f 0000 0000 		.long	0x0
 2582               	.LLST14:
 2583 0093 0000 0000 		.long	.LVL15
 2584 0097 0000 0000 		.long	.LVL16
 2585 009b 0100      		.word	0x1
 2586 009d 64        		.byte	0x64
 2587 009e 0000 0000 		.long	.LVL17
 2588 00a2 0000 0000 		.long	.LVL19
 2589 00a6 0100      		.word	0x1
 2590 00a8 64        		.byte	0x64
 2591 00a9 0000 0000 		.long	0x0
 2592 00ad 0000 0000 		.long	0x0
 2593               	.LLST15:
 2594 00b1 0000 0000 		.long	.LVL17
 2595 00b5 0000 0000 		.long	.LVL18
 2596 00b9 0100      		.word	0x1
 2597 00bb 68        		.byte	0x68
 2598 00bc 0000 0000 		.long	0x0
 2599 00c0 0000 0000 		.long	0x0
 2600               	.LLST18:
 2601 00c4 0000 0000 		.long	.LVL20
 2602 00c8 0000 0000 		.long	.LVL21
 2603 00cc 0100      		.word	0x1
 2604 00ce 62        		.byte	0x62
 2605 00cf 0000 0000 		.long	0x0
 2606 00d3 0000 0000 		.long	0x0
 2607               	.LLST20:
 2608 00d7 0000 0000 		.long	.LVL22
 2609 00db 0000 0000 		.long	.LVL23
 2610 00df 0100      		.word	0x1
 2611 00e1 62        		.byte	0x62
 2612 00e2 0000 0000 		.long	0x0
 2613 00e6 0000 0000 		.long	0x0
 2614               	.LLST22:
 2615 00ea 0000 0000 		.long	.LVL24
 2616 00ee 0000 0000 		.long	.LVL25
 2617 00f2 0100      		.word	0x1
 2618 00f4 62        		.byte	0x62
 2619 00f5 0000 0000 		.long	0x0
 2620 00f9 0000 0000 		.long	0x0
 2621               	.LLST24:
 2622 00fd 0000 0000 		.long	.LVL26
 2623 0101 0000 0000 		.long	.LVL27
 2624 0105 0100      		.word	0x1
 2625 0107 62        		.byte	0x62
 2626 0108 0000 0000 		.long	0x0
 2627 010c 0000 0000 		.long	0x0
 2628               	.LLST26:
 2629 0110 0000 0000 		.long	.LVL28
 2630 0114 0000 0000 		.long	.LVL34
 2631 0118 0600      		.word	0x6
GAS LISTING /var/folders/1s/lqjcb7x5323625d47g9gdgmr0000gp/T//ccQR4rtp.s 			page 48


 2632 011a 68        		.byte	0x68
 2633 011b 93        		.byte	0x93
 2634 011c 01        		.uleb128 0x1
 2635 011d 69        		.byte	0x69
 2636 011e 93        		.byte	0x93
 2637 011f 01        		.uleb128 0x1
 2638 0120 0000 0000 		.long	.LVL34
 2639 0124 0000 0000 		.long	.LFE90
 2640 0128 0600      		.word	0x6
 2641 012a 6E        		.byte	0x6e
 2642 012b 93        		.byte	0x93
 2643 012c 01        		.uleb128 0x1
 2644 012d 6F        		.byte	0x6f
 2645 012e 93        		.byte	0x93
 2646 012f 01        		.uleb128 0x1
 2647 0130 0000 0000 		.long	0x0
 2648 0134 0000 0000 		.long	0x0
 2649               	.LLST27:
 2650 0138 0000 0000 		.long	.LVL28
 2651 013c 0000 0000 		.long	.LVL33
 2652 0140 0600      		.word	0x6
 2653 0142 60        		.byte	0x60
 2654 0143 93        		.byte	0x93
 2655 0144 01        		.uleb128 0x1
 2656 0145 61        		.byte	0x61
 2657 0146 93        		.byte	0x93
 2658 0147 01        		.uleb128 0x1
 2659 0148 0000 0000 		.long	.LVL35
 2660 014c 0000 0000 		.long	.LVL40
 2661 0150 0600      		.word	0x6
 2662 0152 60        		.byte	0x60
 2663 0153 93        		.byte	0x93
 2664 0154 01        		.uleb128 0x1
 2665 0155 61        		.byte	0x61
 2666 0156 93        		.byte	0x93
 2667 0157 01        		.uleb128 0x1
 2668 0158 0000 0000 		.long	0x0
 2669 015c 0000 0000 		.long	0x0
 2670               	.LLST28:
 2671 0160 0000 0000 		.long	.LVL28
 2672 0164 0000 0000 		.long	.LVL32
 2673 0168 0600      		.word	0x6
 2674 016a 5E        		.byte	0x5e
 2675 016b 93        		.byte	0x93
 2676 016c 01        		.uleb128 0x1
 2677 016d 5F        		.byte	0x5f
 2678 016e 93        		.byte	0x93
 2679 016f 01        		.uleb128 0x1
 2680 0170 0000 0000 		.long	.LVL36
 2681 0174 0000 0000 		.long	.LVL41
 2682 0178 0600      		.word	0x6
 2683 017a 5E        		.byte	0x5e
 2684 017b 93        		.byte	0x93
 2685 017c 01        		.uleb128 0x1
 2686 017d 5F        		.byte	0x5f
 2687 017e 93        		.byte	0x93
 2688 017f 01        		.uleb128 0x1
GAS LISTING /var/folders/1s/lqjcb7x5323625d47g9gdgmr0000gp/T//ccQR4rtp.s 			page 49


 2689 0180 0000 0000 		.long	0x0
 2690 0184 0000 0000 		.long	0x0
 2691               	.LLST29:
 2692 0188 0000 0000 		.long	.LVL28
 2693 018c 0000 0000 		.long	.LVL31
 2694 0190 0600      		.word	0x6
 2695 0192 5C        		.byte	0x5c
 2696 0193 93        		.byte	0x93
 2697 0194 01        		.uleb128 0x1
 2698 0195 5D        		.byte	0x5d
 2699 0196 93        		.byte	0x93
 2700 0197 01        		.uleb128 0x1
 2701 0198 0000 0000 		.long	.LVL37
 2702 019c 0000 0000 		.long	.LVL42
 2703 01a0 0600      		.word	0x6
 2704 01a2 5C        		.byte	0x5c
 2705 01a3 93        		.byte	0x93
 2706 01a4 01        		.uleb128 0x1
 2707 01a5 5D        		.byte	0x5d
 2708 01a6 93        		.byte	0x93
 2709 01a7 01        		.uleb128 0x1
 2710 01a8 0000 0000 		.long	0x0
 2711 01ac 0000 0000 		.long	0x0
 2712               	.LLST30:
 2713 01b0 0000 0000 		.long	.LVL28
 2714 01b4 0000 0000 		.long	.LVL30
 2715 01b8 0600      		.word	0x6
 2716 01ba 5A        		.byte	0x5a
 2717 01bb 93        		.byte	0x93
 2718 01bc 01        		.uleb128 0x1
 2719 01bd 5B        		.byte	0x5b
 2720 01be 93        		.byte	0x93
 2721 01bf 01        		.uleb128 0x1
 2722 01c0 0000 0000 		.long	.LVL38
 2723 01c4 0000 0000 		.long	.LVL43
 2724 01c8 0600      		.word	0x6
 2725 01ca 5A        		.byte	0x5a
 2726 01cb 93        		.byte	0x93
 2727 01cc 01        		.uleb128 0x1
 2728 01cd 5B        		.byte	0x5b
 2729 01ce 93        		.byte	0x93
 2730 01cf 01        		.uleb128 0x1
 2731 01d0 0000 0000 		.long	0x0
 2732 01d4 0000 0000 		.long	0x0
 2733               	.LLST31:
 2734 01d8 0000 0000 		.long	.LVL28
 2735 01dc 0000 0000 		.long	.LVL29
 2736 01e0 0600      		.word	0x6
 2737 01e2 58        		.byte	0x58
 2738 01e3 93        		.byte	0x93
 2739 01e4 01        		.uleb128 0x1
 2740 01e5 59        		.byte	0x59
 2741 01e6 93        		.byte	0x93
 2742 01e7 01        		.uleb128 0x1
 2743 01e8 0000 0000 		.long	.LVL39
 2744 01ec 0000 0000 		.long	.LVL44
 2745 01f0 0600      		.word	0x6
GAS LISTING /var/folders/1s/lqjcb7x5323625d47g9gdgmr0000gp/T//ccQR4rtp.s 			page 50


 2746 01f2 58        		.byte	0x58
 2747 01f3 93        		.byte	0x93
 2748 01f4 01        		.uleb128 0x1
 2749 01f5 59        		.byte	0x59
 2750 01f6 93        		.byte	0x93
 2751 01f7 01        		.uleb128 0x1
 2752 01f8 0000 0000 		.long	0x0
 2753 01fc 0000 0000 		.long	0x0
 2754               	.LLST33:
 2755 0200 0000 0000 		.long	.LVL45
 2756 0204 0000 0000 		.long	.LVL51
 2757 0208 0600      		.word	0x6
 2758 020a 68        		.byte	0x68
 2759 020b 93        		.byte	0x93
 2760 020c 01        		.uleb128 0x1
 2761 020d 69        		.byte	0x69
 2762 020e 93        		.byte	0x93
 2763 020f 01        		.uleb128 0x1
 2764 0210 0000 0000 		.long	.LVL51
 2765 0214 0000 0000 		.long	.LFE91
 2766 0218 0600      		.word	0x6
 2767 021a 6E        		.byte	0x6e
 2768 021b 93        		.byte	0x93
 2769 021c 01        		.uleb128 0x1
 2770 021d 6F        		.byte	0x6f
 2771 021e 93        		.byte	0x93
 2772 021f 01        		.uleb128 0x1
 2773 0220 0000 0000 		.long	0x0
 2774 0224 0000 0000 		.long	0x0
 2775               	.LLST34:
 2776 0228 0000 0000 		.long	.LVL45
 2777 022c 0000 0000 		.long	.LVL50
 2778 0230 0600      		.word	0x6
 2779 0232 60        		.byte	0x60
 2780 0233 93        		.byte	0x93
 2781 0234 01        		.uleb128 0x1
 2782 0235 61        		.byte	0x61
 2783 0236 93        		.byte	0x93
 2784 0237 01        		.uleb128 0x1
 2785 0238 0000 0000 		.long	.LVL52
 2786 023c 0000 0000 		.long	.LVL57
 2787 0240 0600      		.word	0x6
 2788 0242 60        		.byte	0x60
 2789 0243 93        		.byte	0x93
 2790 0244 01        		.uleb128 0x1
 2791 0245 61        		.byte	0x61
 2792 0246 93        		.byte	0x93
 2793 0247 01        		.uleb128 0x1
 2794 0248 0000 0000 		.long	0x0
 2795 024c 0000 0000 		.long	0x0
 2796               	.LLST35:
 2797 0250 0000 0000 		.long	.LVL45
 2798 0254 0000 0000 		.long	.LVL49
 2799 0258 0600      		.word	0x6
 2800 025a 5E        		.byte	0x5e
 2801 025b 93        		.byte	0x93
 2802 025c 01        		.uleb128 0x1
GAS LISTING /var/folders/1s/lqjcb7x5323625d47g9gdgmr0000gp/T//ccQR4rtp.s 			page 51


 2803 025d 5F        		.byte	0x5f
 2804 025e 93        		.byte	0x93
 2805 025f 01        		.uleb128 0x1
 2806 0260 0000 0000 		.long	.LVL53
 2807 0264 0000 0000 		.long	.LVL58
 2808 0268 0600      		.word	0x6
 2809 026a 5E        		.byte	0x5e
 2810 026b 93        		.byte	0x93
 2811 026c 01        		.uleb128 0x1
 2812 026d 5F        		.byte	0x5f
 2813 026e 93        		.byte	0x93
 2814 026f 01        		.uleb128 0x1
 2815 0270 0000 0000 		.long	0x0
 2816 0274 0000 0000 		.long	0x0
 2817               	.LLST36:
 2818 0278 0000 0000 		.long	.LVL45
 2819 027c 0000 0000 		.long	.LVL48
 2820 0280 0600      		.word	0x6
 2821 0282 5C        		.byte	0x5c
 2822 0283 93        		.byte	0x93
 2823 0284 01        		.uleb128 0x1
 2824 0285 5D        		.byte	0x5d
 2825 0286 93        		.byte	0x93
 2826 0287 01        		.uleb128 0x1
 2827 0288 0000 0000 		.long	.LVL54
 2828 028c 0000 0000 		.long	.LVL59
 2829 0290 0600      		.word	0x6
 2830 0292 5C        		.byte	0x5c
 2831 0293 93        		.byte	0x93
 2832 0294 01        		.uleb128 0x1
 2833 0295 5D        		.byte	0x5d
 2834 0296 93        		.byte	0x93
 2835 0297 01        		.uleb128 0x1
 2836 0298 0000 0000 		.long	0x0
 2837 029c 0000 0000 		.long	0x0
 2838               	.LLST37:
 2839 02a0 0000 0000 		.long	.LVL45
 2840 02a4 0000 0000 		.long	.LVL47
 2841 02a8 0600      		.word	0x6
 2842 02aa 5A        		.byte	0x5a
 2843 02ab 93        		.byte	0x93
 2844 02ac 01        		.uleb128 0x1
 2845 02ad 5B        		.byte	0x5b
 2846 02ae 93        		.byte	0x93
 2847 02af 01        		.uleb128 0x1
 2848 02b0 0000 0000 		.long	.LVL55
 2849 02b4 0000 0000 		.long	.LVL60
 2850 02b8 0600      		.word	0x6
 2851 02ba 5A        		.byte	0x5a
 2852 02bb 93        		.byte	0x93
 2853 02bc 01        		.uleb128 0x1
 2854 02bd 5B        		.byte	0x5b
 2855 02be 93        		.byte	0x93
 2856 02bf 01        		.uleb128 0x1
 2857 02c0 0000 0000 		.long	0x0
 2858 02c4 0000 0000 		.long	0x0
 2859               	.LLST38:
GAS LISTING /var/folders/1s/lqjcb7x5323625d47g9gdgmr0000gp/T//ccQR4rtp.s 			page 52


 2860 02c8 0000 0000 		.long	.LVL45
 2861 02cc 0000 0000 		.long	.LVL46
 2862 02d0 0600      		.word	0x6
 2863 02d2 58        		.byte	0x58
 2864 02d3 93        		.byte	0x93
 2865 02d4 01        		.uleb128 0x1
 2866 02d5 59        		.byte	0x59
 2867 02d6 93        		.byte	0x93
 2868 02d7 01        		.uleb128 0x1
 2869 02d8 0000 0000 		.long	.LVL56
 2870 02dc 0000 0000 		.long	.LVL61
 2871 02e0 0600      		.word	0x6
 2872 02e2 58        		.byte	0x58
 2873 02e3 93        		.byte	0x93
 2874 02e4 01        		.uleb128 0x1
 2875 02e5 59        		.byte	0x59
 2876 02e6 93        		.byte	0x93
 2877 02e7 01        		.uleb128 0x1
 2878 02e8 0000 0000 		.long	0x0
 2879 02ec 0000 0000 		.long	0x0
 2880               	.LLST40:
 2881 02f0 0000 0000 		.long	.LVL62
 2882 02f4 0000 0000 		.long	.LVL64
 2883 02f8 0600      		.word	0x6
 2884 02fa 68        		.byte	0x68
 2885 02fb 93        		.byte	0x93
 2886 02fc 01        		.uleb128 0x1
 2887 02fd 69        		.byte	0x69
 2888 02fe 93        		.byte	0x93
 2889 02ff 01        		.uleb128 0x1
 2890 0300 0000 0000 		.long	.LVL64
 2891 0304 0000 0000 		.long	.LVL71
 2892 0308 0600      		.word	0x6
 2893 030a 6C        		.byte	0x6c
 2894 030b 93        		.byte	0x93
 2895 030c 01        		.uleb128 0x1
 2896 030d 6D        		.byte	0x6d
 2897 030e 93        		.byte	0x93
 2898 030f 01        		.uleb128 0x1
 2899 0310 0000 0000 		.long	0x0
 2900 0314 0000 0000 		.long	0x0
 2901               	.LLST41:
 2902 0318 0000 0000 		.long	.LVL62
 2903 031c 0000 0000 		.long	.LVL68
 2904 0320 0C00      		.word	0xc
 2905 0322 64        		.byte	0x64
 2906 0323 93        		.byte	0x93
 2907 0324 01        		.uleb128 0x1
 2908 0325 65        		.byte	0x65
 2909 0326 93        		.byte	0x93
 2910 0327 01        		.uleb128 0x1
 2911 0328 66        		.byte	0x66
 2912 0329 93        		.byte	0x93
 2913 032a 01        		.uleb128 0x1
 2914 032b 67        		.byte	0x67
 2915 032c 93        		.byte	0x93
 2916 032d 01        		.uleb128 0x1
GAS LISTING /var/folders/1s/lqjcb7x5323625d47g9gdgmr0000gp/T//ccQR4rtp.s 			page 53


 2917 032e 0000 0000 		.long	.LVL68
 2918 0332 0000 0000 		.long	.LVL72
 2919 0336 0C00      		.word	0xc
 2920 0338 5E        		.byte	0x5e
 2921 0339 93        		.byte	0x93
 2922 033a 01        		.uleb128 0x1
 2923 033b 5F        		.byte	0x5f
 2924 033c 93        		.byte	0x93
 2925 033d 01        		.uleb128 0x1
 2926 033e 60        		.byte	0x60
 2927 033f 93        		.byte	0x93
 2928 0340 01        		.uleb128 0x1
 2929 0341 61        		.byte	0x61
 2930 0342 93        		.byte	0x93
 2931 0343 01        		.uleb128 0x1
 2932 0344 0000 0000 		.long	0x0
 2933 0348 0000 0000 		.long	0x0
 2934               	.LLST42:
 2935 034c 0000 0000 		.long	.LVL65
 2936 0350 0000 0000 		.long	.LVL66
 2937 0354 0600      		.word	0x6
 2938 0356 62        		.byte	0x62
 2939 0357 93        		.byte	0x93
 2940 0358 01        		.uleb128 0x1
 2941 0359 63        		.byte	0x63
 2942 035a 93        		.byte	0x93
 2943 035b 01        		.uleb128 0x1
 2944 035c 0000 0000 		.long	.LVL67
 2945 0360 0000 0000 		.long	.LVL70
 2946 0364 0600      		.word	0x6
 2947 0366 62        		.byte	0x62
 2948 0367 93        		.byte	0x93
 2949 0368 01        		.uleb128 0x1
 2950 0369 63        		.byte	0x63
 2951 036a 93        		.byte	0x93
 2952 036b 01        		.uleb128 0x1
 2953 036c 0000 0000 		.long	0x0
 2954 0370 0000 0000 		.long	0x0
 2955               	.LLST43:
 2956 0374 0000 0000 		.long	.LVL63
 2957 0378 0000 0000 		.long	.LVL73
 2958 037c 0100      		.word	0x1
 2959 037e 5D        		.byte	0x5d
 2960 037f 0000 0000 		.long	0x0
 2961 0383 0000 0000 		.long	0x0
 2962               	.LLST45:
 2963 0387 0000 0000 		.long	.LVL74
 2964 038b 0000 0000 		.long	.LVL76
 2965 038f 0600      		.word	0x6
 2966 0391 68        		.byte	0x68
 2967 0392 93        		.byte	0x93
 2968 0393 01        		.uleb128 0x1
 2969 0394 69        		.byte	0x69
 2970 0395 93        		.byte	0x93
 2971 0396 01        		.uleb128 0x1
 2972 0397 0000 0000 		.long	.LVL76
 2973 039b 0000 0000 		.long	.LVL84
GAS LISTING /var/folders/1s/lqjcb7x5323625d47g9gdgmr0000gp/T//ccQR4rtp.s 			page 54


 2974 039f 0600      		.word	0x6
 2975 03a1 6C        		.byte	0x6c
 2976 03a2 93        		.byte	0x93
 2977 03a3 01        		.uleb128 0x1
 2978 03a4 6D        		.byte	0x6d
 2979 03a5 93        		.byte	0x93
 2980 03a6 01        		.uleb128 0x1
 2981 03a7 0000 0000 		.long	0x0
 2982 03ab 0000 0000 		.long	0x0
 2983               	.LLST46:
 2984 03af 0000 0000 		.long	.LVL74
 2985 03b3 0000 0000 		.long	.LVL81
 2986 03b7 0C00      		.word	0xc
 2987 03b9 64        		.byte	0x64
 2988 03ba 93        		.byte	0x93
 2989 03bb 01        		.uleb128 0x1
 2990 03bc 65        		.byte	0x65
 2991 03bd 93        		.byte	0x93
 2992 03be 01        		.uleb128 0x1
 2993 03bf 66        		.byte	0x66
 2994 03c0 93        		.byte	0x93
 2995 03c1 01        		.uleb128 0x1
 2996 03c2 67        		.byte	0x67
 2997 03c3 93        		.byte	0x93
 2998 03c4 01        		.uleb128 0x1
 2999 03c5 0000 0000 		.long	.LVL81
 3000 03c9 0000 0000 		.long	.LVL85
 3001 03cd 0C00      		.word	0xc
 3002 03cf 5E        		.byte	0x5e
 3003 03d0 93        		.byte	0x93
 3004 03d1 01        		.uleb128 0x1
 3005 03d2 5F        		.byte	0x5f
 3006 03d3 93        		.byte	0x93
 3007 03d4 01        		.uleb128 0x1
 3008 03d5 60        		.byte	0x60
 3009 03d6 93        		.byte	0x93
 3010 03d7 01        		.uleb128 0x1
 3011 03d8 61        		.byte	0x61
 3012 03d9 93        		.byte	0x93
 3013 03da 01        		.uleb128 0x1
 3014 03db 0000 0000 		.long	0x0
 3015 03df 0000 0000 		.long	0x0
 3016               	.LLST47:
 3017 03e3 0000 0000 		.long	.LVL74
 3018 03e7 0000 0000 		.long	.LVL77
 3019 03eb 0100      		.word	0x1
 3020 03ed 62        		.byte	0x62
 3021 03ee 0000 0000 		.long	.LVL77
 3022 03f2 0000 0000 		.long	.LVL87
 3023 03f6 0100      		.word	0x1
 3024 03f8 5C        		.byte	0x5c
 3025 03f9 0000 0000 		.long	0x0
 3026 03fd 0000 0000 		.long	0x0
 3027               	.LLST48:
 3028 0401 0000 0000 		.long	.LVL78
 3029 0405 0000 0000 		.long	.LVL79
 3030 0409 0600      		.word	0x6
GAS LISTING /var/folders/1s/lqjcb7x5323625d47g9gdgmr0000gp/T//ccQR4rtp.s 			page 55


 3031 040b 62        		.byte	0x62
 3032 040c 93        		.byte	0x93
 3033 040d 01        		.uleb128 0x1
 3034 040e 63        		.byte	0x63
 3035 040f 93        		.byte	0x93
 3036 0410 01        		.uleb128 0x1
 3037 0411 0000 0000 		.long	.LVL80
 3038 0415 0000 0000 		.long	.LVL83
 3039 0419 0600      		.word	0x6
 3040 041b 62        		.byte	0x62
 3041 041c 93        		.byte	0x93
 3042 041d 01        		.uleb128 0x1
 3043 041e 63        		.byte	0x63
 3044 041f 93        		.byte	0x93
 3045 0420 01        		.uleb128 0x1
 3046 0421 0000 0000 		.long	0x0
 3047 0425 0000 0000 		.long	0x0
 3048               	.LLST49:
 3049 0429 0000 0000 		.long	.LVL75
 3050 042d 0000 0000 		.long	.LVL86
 3051 0431 0100      		.word	0x1
 3052 0433 5D        		.byte	0x5d
 3053 0434 0000 0000 		.long	0x0
 3054 0438 0000 0000 		.long	0x0
 3055               	.LLST51:
 3056 043c 0000 0000 		.long	.LVL88
 3057 0440 0000 0000 		.long	.LVL89
 3058 0444 0600      		.word	0x6
 3059 0446 68        		.byte	0x68
 3060 0447 93        		.byte	0x93
 3061 0448 01        		.uleb128 0x1
 3062 0449 69        		.byte	0x69
 3063 044a 93        		.byte	0x93
 3064 044b 01        		.uleb128 0x1
 3065 044c 0000 0000 		.long	.LVL89
 3066 0450 0000 0000 		.long	.LFE94
 3067 0454 0600      		.word	0x6
 3068 0456 6A        		.byte	0x6a
 3069 0457 93        		.byte	0x93
 3070 0458 01        		.uleb128 0x1
 3071 0459 6B        		.byte	0x6b
 3072 045a 93        		.byte	0x93
 3073 045b 01        		.uleb128 0x1
 3074 045c 0000 0000 		.long	0x0
 3075 0460 0000 0000 		.long	0x0
 3076               	.LLST53:
 3077 0464 0000 0000 		.long	.LVL90
 3078 0468 0000 0000 		.long	.LVL91
 3079 046c 0600      		.word	0x6
 3080 046e 68        		.byte	0x68
 3081 046f 93        		.byte	0x93
 3082 0470 01        		.uleb128 0x1
 3083 0471 69        		.byte	0x69
 3084 0472 93        		.byte	0x93
 3085 0473 01        		.uleb128 0x1
 3086 0474 0000 0000 		.long	0x0
 3087 0478 0000 0000 		.long	0x0
GAS LISTING /var/folders/1s/lqjcb7x5323625d47g9gdgmr0000gp/T//ccQR4rtp.s 			page 56


 3088               	.LLST55:
 3089 047c 0000 0000 		.long	.LVL92
 3090 0480 0000 0000 		.long	.LVL93
 3091 0484 0600      		.word	0x6
 3092 0486 68        		.byte	0x68
 3093 0487 93        		.byte	0x93
 3094 0488 01        		.uleb128 0x1
 3095 0489 69        		.byte	0x69
 3096 048a 93        		.byte	0x93
 3097 048b 01        		.uleb128 0x1
 3098 048c 0000 0000 		.long	0x0
 3099 0490 0000 0000 		.long	0x0
 3100               	.LLST57:
 3101 0494 0000 0000 		.long	.LVL94
 3102 0498 0000 0000 		.long	.LVL95
 3103 049c 0600      		.word	0x6
 3104 049e 68        		.byte	0x68
 3105 049f 93        		.byte	0x93
 3106 04a0 01        		.uleb128 0x1
 3107 04a1 69        		.byte	0x69
 3108 04a2 93        		.byte	0x93
 3109 04a3 01        		.uleb128 0x1
 3110 04a4 0000 0000 		.long	0x0
 3111 04a8 0000 0000 		.long	0x0
 3112               	.LLST58:
 3113 04ac 0000 0000 		.long	.LVL96
 3114 04b0 0000 0000 		.long	.LVL97
 3115 04b4 0100      		.word	0x1
 3116 04b6 62        		.byte	0x62
 3117 04b7 0000 0000 		.long	0x0
 3118 04bb 0000 0000 		.long	0x0
 3119               	.LLST60:
 3120 04bf 0000 0000 		.long	.LVL98
 3121 04c3 0000 0000 		.long	.LVL99
 3122 04c7 0600      		.word	0x6
 3123 04c9 68        		.byte	0x68
 3124 04ca 93        		.byte	0x93
 3125 04cb 01        		.uleb128 0x1
 3126 04cc 69        		.byte	0x69
 3127 04cd 93        		.byte	0x93
 3128 04ce 01        		.uleb128 0x1
 3129 04cf 0000 0000 		.long	.LVL99
 3130 04d3 0000 0000 		.long	.LFE98
 3131 04d7 0600      		.word	0x6
 3132 04d9 6A        		.byte	0x6a
 3133 04da 93        		.byte	0x93
 3134 04db 01        		.uleb128 0x1
 3135 04dc 6B        		.byte	0x6b
 3136 04dd 93        		.byte	0x93
 3137 04de 01        		.uleb128 0x1
 3138 04df 0000 0000 		.long	0x0
 3139 04e3 0000 0000 		.long	0x0
 3140               	.LLST62:
 3141 04e7 0000 0000 		.long	.LVL100
 3142 04eb 0000 0000 		.long	.LVL102
 3143 04ef 0600      		.word	0x6
 3144 04f1 68        		.byte	0x68
GAS LISTING /var/folders/1s/lqjcb7x5323625d47g9gdgmr0000gp/T//ccQR4rtp.s 			page 57


 3145 04f2 93        		.byte	0x93
 3146 04f3 01        		.uleb128 0x1
 3147 04f4 69        		.byte	0x69
 3148 04f5 93        		.byte	0x93
 3149 04f6 01        		.uleb128 0x1
 3150 04f7 0000 0000 		.long	.LVL102
 3151 04fb 0000 0000 		.long	.LVL104
 3152 04ff 0600      		.word	0x6
 3153 0501 6C        		.byte	0x6c
 3154 0502 93        		.byte	0x93
 3155 0503 01        		.uleb128 0x1
 3156 0504 6D        		.byte	0x6d
 3157 0505 93        		.byte	0x93
 3158 0506 01        		.uleb128 0x1
 3159 0507 0000 0000 		.long	0x0
 3160 050b 0000 0000 		.long	0x0
 3161               	.LLST63:
 3162 050f 0000 0000 		.long	.LVL101
 3163 0513 0000 0000 		.long	.LVL103
 3164 0517 0600      		.word	0x6
 3165 0519 62        		.byte	0x62
 3166 051a 93        		.byte	0x93
 3167 051b 01        		.uleb128 0x1
 3168 051c 63        		.byte	0x63
 3169 051d 93        		.byte	0x93
 3170 051e 01        		.uleb128 0x1
 3171 051f 0000 0000 		.long	0x0
 3172 0523 0000 0000 		.long	0x0
 3173               	.LLST65:
 3174 0527 0000 0000 		.long	.LVL105
 3175 052b 0000 0000 		.long	.LVL106
 3176 052f 0600      		.word	0x6
 3177 0531 68        		.byte	0x68
 3178 0532 93        		.byte	0x93
 3179 0533 01        		.uleb128 0x1
 3180 0534 69        		.byte	0x69
 3181 0535 93        		.byte	0x93
 3182 0536 01        		.uleb128 0x1
 3183 0537 0000 0000 		.long	0x0
 3184 053b 0000 0000 		.long	0x0
 3185               		.section	.debug_info
 3186 0000 011F 0000 		.long	0x1f01
 3187 0004 0200      		.word	0x2
 3188 0006 0000 0000 		.long	.Ldebug_abbrev0
 3189 000a 04        		.byte	0x4
 3190 000b 01        		.uleb128 0x1
 3191 000c 0000 0000 		.long	.LASF242
 3192 0010 04        		.byte	0x4
 3193 0011 0000 0000 		.long	.LASF243
 3194 0015 0000 0000 		.long	0x0
 3195 0019 0000 0000 		.long	0x0
 3196 001d 0000 0000 		.long	.Ldebug_ranges0+0x0
 3197 0021 0000 0000 		.long	.Ldebug_line0
 3198 0025 02        		.uleb128 0x2
 3199 0026 0000 0000 		.long	.LASF3
 3200 002a 04        		.byte	0x4
 3201 002b D6        		.byte	0xd6
GAS LISTING /var/folders/1s/lqjcb7x5323625d47g9gdgmr0000gp/T//ccQR4rtp.s 			page 58


 3202 002c 3000 0000 		.long	0x30
 3203 0030 03        		.uleb128 0x3
 3204 0031 02        		.byte	0x2
 3205 0032 07        		.byte	0x7
 3206 0033 0000 0000 		.long	.LASF0
 3207 0037 04        		.uleb128 0x4
 3208 0038 02        		.byte	0x2
 3209 0039 05        		.byte	0x5
 3210 003a 696E 7400 		.string	"int"
 3211 003e 03        		.uleb128 0x3
 3212 003f 04        		.byte	0x4
 3213 0040 05        		.byte	0x5
 3214 0041 0000 0000 		.long	.LASF1
 3215 0045 03        		.uleb128 0x3
 3216 0046 01        		.byte	0x1
 3217 0047 06        		.byte	0x6
 3218 0048 0000 0000 		.long	.LASF2
 3219 004c 02        		.uleb128 0x2
 3220 004d 0000 0000 		.long	.LASF4
 3221 0051 05        		.byte	0x5
 3222 0052 7A        		.byte	0x7a
 3223 0053 5700 0000 		.long	0x57
 3224 0057 03        		.uleb128 0x3
 3225 0058 01        		.byte	0x1
 3226 0059 08        		.byte	0x8
 3227 005a 0000 0000 		.long	.LASF5
 3228 005e 02        		.uleb128 0x2
 3229 005f 0000 0000 		.long	.LASF6
 3230 0063 05        		.byte	0x5
 3231 0064 7C        		.byte	0x7c
 3232 0065 3000 0000 		.long	0x30
 3233 0069 03        		.uleb128 0x3
 3234 006a 04        		.byte	0x4
 3235 006b 07        		.byte	0x7
 3236 006c 0000 0000 		.long	.LASF7
 3237 0070 03        		.uleb128 0x3
 3238 0071 08        		.byte	0x8
 3239 0072 05        		.byte	0x5
 3240 0073 0000 0000 		.long	.LASF8
 3241 0077 03        		.uleb128 0x3
 3242 0078 08        		.byte	0x8
 3243 0079 07        		.byte	0x7
 3244 007a 0000 0000 		.long	.LASF9
 3245 007e 05        		.uleb128 0x5
 3246 007f 02        		.byte	0x2
 3247 0080 8400 0000 		.long	0x84
 3248 0084 03        		.uleb128 0x3
 3249 0085 01        		.byte	0x1
 3250 0086 06        		.byte	0x6
 3251 0087 0000 0000 		.long	.LASF10
 3252 008b 06        		.uleb128 0x6
 3253 008c 01        		.byte	0x1
 3254 008d 06        		.byte	0x6
 3255 008e 06        		.uleb128 0x6
 3256 008f 01        		.byte	0x1
 3257 0090 08        		.byte	0x8
 3258 0091 02        		.uleb128 0x2
GAS LISTING /var/folders/1s/lqjcb7x5323625d47g9gdgmr0000gp/T//ccQR4rtp.s 			page 59


 3259 0092 0000 0000 		.long	.LASF11
 3260 0096 06        		.byte	0x6
 3261 0097 60        		.byte	0x60
 3262 0098 4C00 0000 		.long	0x4c
 3263 009c 07        		.uleb128 0x7
 3264 009d 0000 0000 		.long	.LASF15
 3265 00a1 07        		.byte	0x7
 3266 00a2 07        		.byte	0x7
 3267 00a3 2E        		.byte	0x2e
 3268 00a4 140A 0000 		.long	0xa14
 3269 00a8 08        		.uleb128 0x8
 3270 00a9 0000 0000 		.long	.LASF12
 3271 00ad 07        		.byte	0x7
 3272 00ae AE        		.byte	0xae
 3273 00af 7E00 0000 		.long	0x7e
 3274 00b3 02        		.byte	0x2
 3275 00b4 23        		.byte	0x23
 3276 00b5 00        		.uleb128 0x0
 3277 00b6 02        		.byte	0x2
 3278 00b7 08        		.uleb128 0x8
 3279 00b8 0000 0000 		.long	.LASF13
 3280 00bc 07        		.byte	0x7
 3281 00bd AF        		.byte	0xaf
 3282 00be 3000 0000 		.long	0x30
 3283 00c2 02        		.byte	0x2
 3284 00c3 23        		.byte	0x23
 3285 00c4 02        		.uleb128 0x2
 3286 00c5 02        		.byte	0x2
 3287 00c6 09        		.uleb128 0x9
 3288 00c7 6C65 6E00 		.string	"len"
 3289 00cb 07        		.byte	0x7
 3290 00cc B0        		.byte	0xb0
 3291 00cd 3000 0000 		.long	0x30
 3292 00d1 02        		.byte	0x2
 3293 00d2 23        		.byte	0x23
 3294 00d3 04        		.uleb128 0x4
 3295 00d4 02        		.byte	0x2
 3296 00d5 08        		.uleb128 0x8
 3297 00d6 0000 0000 		.long	.LASF14
 3298 00da 07        		.byte	0x7
 3299 00db B1        		.byte	0xb1
 3300 00dc 5700 0000 		.long	0x57
 3301 00e0 02        		.byte	0x2
 3302 00e1 23        		.byte	0x23
 3303 00e2 06        		.uleb128 0x6
 3304 00e3 02        		.byte	0x2
 3305 00e4 0A        		.uleb128 0xa
 3306 00e5 01        		.byte	0x1
 3307 00e6 0000 0000 		.long	.LASF17
 3308 00ea 07        		.byte	0x7
 3309 00eb 33        		.byte	0x33
 3310 00ec 0000 0000 		.long	.LASF19
 3311 00f0 03        		.byte	0x3
 3312 00f1 01        		.byte	0x1
 3313 00f2 FD00 0000 		.long	0xfd
 3314 00f6 0B        		.uleb128 0xb
 3315 00f7 450A 0000 		.long	0xa45
GAS LISTING /var/folders/1s/lqjcb7x5323625d47g9gdgmr0000gp/T//ccQR4rtp.s 			page 60


 3316 00fb 01        		.byte	0x1
 3317 00fc 00        		.byte	0x0
 3318 00fd 0C        		.uleb128 0xc
 3319 00fe 01        		.byte	0x1
 3320 00ff 0000 0000 		.long	.LASF15
 3321 0103 07        		.byte	0x7
 3322 0104 3B        		.byte	0x3b
 3323 0105 01        		.byte	0x1
 3324 0106 1601 0000 		.long	0x116
 3325 010a 0B        		.uleb128 0xb
 3326 010b 560A 0000 		.long	0xa56
 3327 010f 01        		.byte	0x1
 3328 0110 0D        		.uleb128 0xd
 3329 0111 5C0A 0000 		.long	0xa5c
 3330 0115 00        		.byte	0x0
 3331 0116 0C        		.uleb128 0xc
 3332 0117 01        		.byte	0x1
 3333 0118 0000 0000 		.long	.LASF15
 3334 011c 07        		.byte	0x7
 3335 011d 3C        		.byte	0x3c
 3336 011e 01        		.byte	0x1
 3337 011f 2F01 0000 		.long	0x12f
 3338 0123 0B        		.uleb128 0xb
 3339 0124 560A 0000 		.long	0xa56
 3340 0128 01        		.byte	0x1
 3341 0129 0D        		.uleb128 0xd
 3342 012a 670A 0000 		.long	0xa67
 3343 012e 00        		.byte	0x0
 3344 012f 0C        		.uleb128 0xc
 3345 0130 01        		.byte	0x1
 3346 0131 0000 0000 		.long	.LASF15
 3347 0135 07        		.byte	0x7
 3348 0136 41        		.byte	0x41
 3349 0137 01        		.byte	0x1
 3350 0138 4801 0000 		.long	0x148
 3351 013c 0B        		.uleb128 0xb
 3352 013d 560A 0000 		.long	0xa56
 3353 0141 01        		.byte	0x1
 3354 0142 0D        		.uleb128 0xd
 3355 0143 8400 0000 		.long	0x84
 3356 0147 00        		.byte	0x0
 3357 0148 0C        		.uleb128 0xc
 3358 0149 01        		.byte	0x1
 3359 014a 0000 0000 		.long	.LASF15
 3360 014e 07        		.byte	0x7
 3361 014f 42        		.byte	0x42
 3362 0150 01        		.byte	0x1
 3363 0151 6601 0000 		.long	0x166
 3364 0155 0B        		.uleb128 0xb
 3365 0156 560A 0000 		.long	0xa56
 3366 015a 01        		.byte	0x1
 3367 015b 0D        		.uleb128 0xd
 3368 015c 5700 0000 		.long	0x57
 3369 0160 0D        		.uleb128 0xd
 3370 0161 5700 0000 		.long	0x57
 3371 0165 00        		.byte	0x0
 3372 0166 0C        		.uleb128 0xc
GAS LISTING /var/folders/1s/lqjcb7x5323625d47g9gdgmr0000gp/T//ccQR4rtp.s 			page 61


 3373 0167 01        		.byte	0x1
 3374 0168 0000 0000 		.long	.LASF15
 3375 016c 07        		.byte	0x7
 3376 016d 43        		.byte	0x43
 3377 016e 01        		.byte	0x1
 3378 016f 8401 0000 		.long	0x184
 3379 0173 0B        		.uleb128 0xb
 3380 0174 560A 0000 		.long	0xa56
 3381 0178 01        		.byte	0x1
 3382 0179 0D        		.uleb128 0xd
 3383 017a 3700 0000 		.long	0x37
 3384 017e 0D        		.uleb128 0xd
 3385 017f 5700 0000 		.long	0x57
 3386 0183 00        		.byte	0x0
 3387 0184 0C        		.uleb128 0xc
 3388 0185 01        		.byte	0x1
 3389 0186 0000 0000 		.long	.LASF15
 3390 018a 07        		.byte	0x7
 3391 018b 44        		.byte	0x44
 3392 018c 01        		.byte	0x1
 3393 018d A201 0000 		.long	0x1a2
 3394 0191 0B        		.uleb128 0xb
 3395 0192 560A 0000 		.long	0xa56
 3396 0196 01        		.byte	0x1
 3397 0197 0D        		.uleb128 0xd
 3398 0198 3000 0000 		.long	0x30
 3399 019c 0D        		.uleb128 0xd
 3400 019d 5700 0000 		.long	0x57
 3401 01a1 00        		.byte	0x0
 3402 01a2 0C        		.uleb128 0xc
 3403 01a3 01        		.byte	0x1
 3404 01a4 0000 0000 		.long	.LASF15
 3405 01a8 07        		.byte	0x7
 3406 01a9 45        		.byte	0x45
 3407 01aa 01        		.byte	0x1
 3408 01ab C001 0000 		.long	0x1c0
 3409 01af 0B        		.uleb128 0xb
 3410 01b0 560A 0000 		.long	0xa56
 3411 01b4 01        		.byte	0x1
 3412 01b5 0D        		.uleb128 0xd
 3413 01b6 3E00 0000 		.long	0x3e
 3414 01ba 0D        		.uleb128 0xd
 3415 01bb 5700 0000 		.long	0x57
 3416 01bf 00        		.byte	0x0
 3417 01c0 0C        		.uleb128 0xc
 3418 01c1 01        		.byte	0x1
 3419 01c2 0000 0000 		.long	.LASF15
 3420 01c6 07        		.byte	0x7
 3421 01c7 46        		.byte	0x46
 3422 01c8 01        		.byte	0x1
 3423 01c9 DE01 0000 		.long	0x1de
 3424 01cd 0B        		.uleb128 0xb
 3425 01ce 560A 0000 		.long	0xa56
 3426 01d2 01        		.byte	0x1
 3427 01d3 0D        		.uleb128 0xd
 3428 01d4 6900 0000 		.long	0x69
 3429 01d8 0D        		.uleb128 0xd
GAS LISTING /var/folders/1s/lqjcb7x5323625d47g9gdgmr0000gp/T//ccQR4rtp.s 			page 62


 3430 01d9 5700 0000 		.long	0x57
 3431 01dd 00        		.byte	0x0
 3432 01de 0C        		.uleb128 0xc
 3433 01df 01        		.byte	0x1
 3434 01e0 0000 0000 		.long	.LASF16
 3435 01e4 07        		.byte	0x7
 3436 01e5 47        		.byte	0x47
 3437 01e6 01        		.byte	0x1
 3438 01e7 F801 0000 		.long	0x1f8
 3439 01eb 0B        		.uleb128 0xb
 3440 01ec 560A 0000 		.long	0xa56
 3441 01f0 01        		.byte	0x1
 3442 01f1 0B        		.uleb128 0xb
 3443 01f2 3700 0000 		.long	0x37
 3444 01f6 01        		.byte	0x1
 3445 01f7 00        		.byte	0x0
 3446 01f8 0E        		.uleb128 0xe
 3447 01f9 01        		.byte	0x1
 3448 01fa 0000 0000 		.long	.LASF18
 3449 01fe 07        		.byte	0x7
 3450 01ff 4D        		.byte	0x4d
 3451 0200 0000 0000 		.long	.LASF20
 3452 0204 5700 0000 		.long	0x57
 3453 0208 01        		.byte	0x1
 3454 0209 1902 0000 		.long	0x219
 3455 020d 0B        		.uleb128 0xb
 3456 020e 560A 0000 		.long	0xa56
 3457 0212 01        		.byte	0x1
 3458 0213 0D        		.uleb128 0xd
 3459 0214 3000 0000 		.long	0x30
 3460 0218 00        		.byte	0x0
 3461 0219 0E        		.uleb128 0xe
 3462 021a 01        		.byte	0x1
 3463 021b 0000 0000 		.long	.LASF21
 3464 021f 07        		.byte	0x7
 3465 0220 4E        		.byte	0x4e
 3466 0221 0000 0000 		.long	.LASF22
 3467 0225 3000 0000 		.long	0x30
 3468 0229 01        		.byte	0x1
 3469 022a 3502 0000 		.long	0x235
 3470 022e 0B        		.uleb128 0xb
 3471 022f 450A 0000 		.long	0xa45
 3472 0233 01        		.byte	0x1
 3473 0234 00        		.byte	0x0
 3474 0235 0E        		.uleb128 0xe
 3475 0236 01        		.byte	0x1
 3476 0237 0000 0000 		.long	.LASF23
 3477 023b 07        		.byte	0x7
 3478 023c 53        		.byte	0x53
 3479 023d 0000 0000 		.long	.LASF24
 3480 0241 6D0A 0000 		.long	0xa6d
 3481 0245 01        		.byte	0x1
 3482 0246 5602 0000 		.long	0x256
 3483 024a 0B        		.uleb128 0xb
 3484 024b 560A 0000 		.long	0xa56
 3485 024f 01        		.byte	0x1
 3486 0250 0D        		.uleb128 0xd
GAS LISTING /var/folders/1s/lqjcb7x5323625d47g9gdgmr0000gp/T//ccQR4rtp.s 			page 63


 3487 0251 670A 0000 		.long	0xa67
 3488 0255 00        		.byte	0x0
 3489 0256 0E        		.uleb128 0xe
 3490 0257 01        		.byte	0x1
 3491 0258 0000 0000 		.long	.LASF23
 3492 025c 07        		.byte	0x7
 3493 025d 54        		.byte	0x54
 3494 025e 0000 0000 		.long	.LASF25
 3495 0262 6D0A 0000 		.long	0xa6d
 3496 0266 01        		.byte	0x1
 3497 0267 7702 0000 		.long	0x277
 3498 026b 0B        		.uleb128 0xb
 3499 026c 560A 0000 		.long	0xa56
 3500 0270 01        		.byte	0x1
 3501 0271 0D        		.uleb128 0xd
 3502 0272 5C0A 0000 		.long	0xa5c
 3503 0276 00        		.byte	0x0
 3504 0277 0E        		.uleb128 0xe
 3505 0278 01        		.byte	0x1
 3506 0279 0000 0000 		.long	.LASF26
 3507 027d 07        		.byte	0x7
 3508 027e 5F        		.byte	0x5f
 3509 027f 0000 0000 		.long	.LASF27
 3510 0283 5700 0000 		.long	0x57
 3511 0287 01        		.byte	0x1
 3512 0288 9802 0000 		.long	0x298
 3513 028c 0B        		.uleb128 0xb
 3514 028d 560A 0000 		.long	0xa56
 3515 0291 01        		.byte	0x1
 3516 0292 0D        		.uleb128 0xd
 3517 0293 670A 0000 		.long	0xa67
 3518 0297 00        		.byte	0x0
 3519 0298 0E        		.uleb128 0xe
 3520 0299 01        		.byte	0x1
 3521 029a 0000 0000 		.long	.LASF26
 3522 029e 07        		.byte	0x7
 3523 029f 60        		.byte	0x60
 3524 02a0 0000 0000 		.long	.LASF28
 3525 02a4 5700 0000 		.long	0x57
 3526 02a8 01        		.byte	0x1
 3527 02a9 B902 0000 		.long	0x2b9
 3528 02ad 0B        		.uleb128 0xb
 3529 02ae 560A 0000 		.long	0xa56
 3530 02b2 01        		.byte	0x1
 3531 02b3 0D        		.uleb128 0xd
 3532 02b4 5C0A 0000 		.long	0xa5c
 3533 02b8 00        		.byte	0x0
 3534 02b9 0E        		.uleb128 0xe
 3535 02ba 01        		.byte	0x1
 3536 02bb 0000 0000 		.long	.LASF26
 3537 02bf 07        		.byte	0x7
 3538 02c0 61        		.byte	0x61
 3539 02c1 0000 0000 		.long	.LASF29
 3540 02c5 5700 0000 		.long	0x57
 3541 02c9 01        		.byte	0x1
 3542 02ca DA02 0000 		.long	0x2da
 3543 02ce 0B        		.uleb128 0xb
GAS LISTING /var/folders/1s/lqjcb7x5323625d47g9gdgmr0000gp/T//ccQR4rtp.s 			page 64


 3544 02cf 560A 0000 		.long	0xa56
 3545 02d3 01        		.byte	0x1
 3546 02d4 0D        		.uleb128 0xd
 3547 02d5 8400 0000 		.long	0x84
 3548 02d9 00        		.byte	0x0
 3549 02da 0E        		.uleb128 0xe
 3550 02db 01        		.byte	0x1
 3551 02dc 0000 0000 		.long	.LASF26
 3552 02e0 07        		.byte	0x7
 3553 02e1 62        		.byte	0x62
 3554 02e2 0000 0000 		.long	.LASF30
 3555 02e6 5700 0000 		.long	0x57
 3556 02ea 01        		.byte	0x1
 3557 02eb FB02 0000 		.long	0x2fb
 3558 02ef 0B        		.uleb128 0xb
 3559 02f0 560A 0000 		.long	0xa56
 3560 02f4 01        		.byte	0x1
 3561 02f5 0D        		.uleb128 0xd
 3562 02f6 5700 0000 		.long	0x57
 3563 02fa 00        		.byte	0x0
 3564 02fb 0E        		.uleb128 0xe
 3565 02fc 01        		.byte	0x1
 3566 02fd 0000 0000 		.long	.LASF26
 3567 0301 07        		.byte	0x7
 3568 0302 63        		.byte	0x63
 3569 0303 0000 0000 		.long	.LASF31
 3570 0307 5700 0000 		.long	0x57
 3571 030b 01        		.byte	0x1
 3572 030c 1C03 0000 		.long	0x31c
 3573 0310 0B        		.uleb128 0xb
 3574 0311 560A 0000 		.long	0xa56
 3575 0315 01        		.byte	0x1
 3576 0316 0D        		.uleb128 0xd
 3577 0317 3700 0000 		.long	0x37
 3578 031b 00        		.byte	0x0
 3579 031c 0E        		.uleb128 0xe
 3580 031d 01        		.byte	0x1
 3581 031e 0000 0000 		.long	.LASF26
 3582 0322 07        		.byte	0x7
 3583 0323 64        		.byte	0x64
 3584 0324 0000 0000 		.long	.LASF32
 3585 0328 5700 0000 		.long	0x57
 3586 032c 01        		.byte	0x1
 3587 032d 3D03 0000 		.long	0x33d
 3588 0331 0B        		.uleb128 0xb
 3589 0332 560A 0000 		.long	0xa56
 3590 0336 01        		.byte	0x1
 3591 0337 0D        		.uleb128 0xd
 3592 0338 3000 0000 		.long	0x30
 3593 033c 00        		.byte	0x0
 3594 033d 0E        		.uleb128 0xe
 3595 033e 01        		.byte	0x1
 3596 033f 0000 0000 		.long	.LASF26
 3597 0343 07        		.byte	0x7
 3598 0344 65        		.byte	0x65
 3599 0345 0000 0000 		.long	.LASF33
 3600 0349 5700 0000 		.long	0x57
GAS LISTING /var/folders/1s/lqjcb7x5323625d47g9gdgmr0000gp/T//ccQR4rtp.s 			page 65


 3601 034d 01        		.byte	0x1
 3602 034e 5E03 0000 		.long	0x35e
 3603 0352 0B        		.uleb128 0xb
 3604 0353 560A 0000 		.long	0xa56
 3605 0357 01        		.byte	0x1
 3606 0358 0D        		.uleb128 0xd
 3607 0359 3E00 0000 		.long	0x3e
 3608 035d 00        		.byte	0x0
 3609 035e 0E        		.uleb128 0xe
 3610 035f 01        		.byte	0x1
 3611 0360 0000 0000 		.long	.LASF26
 3612 0364 07        		.byte	0x7
 3613 0365 66        		.byte	0x66
 3614 0366 0000 0000 		.long	.LASF34
 3615 036a 5700 0000 		.long	0x57
 3616 036e 01        		.byte	0x1
 3617 036f 7F03 0000 		.long	0x37f
 3618 0373 0B        		.uleb128 0xb
 3619 0374 560A 0000 		.long	0xa56
 3620 0378 01        		.byte	0x1
 3621 0379 0D        		.uleb128 0xd
 3622 037a 6900 0000 		.long	0x69
 3623 037e 00        		.byte	0x0
 3624 037f 0E        		.uleb128 0xe
 3625 0380 01        		.byte	0x1
 3626 0381 0000 0000 		.long	.LASF35
 3627 0385 07        		.byte	0x7
 3628 0386 6A        		.byte	0x6a
 3629 0387 0000 0000 		.long	.LASF36
 3630 038b 6D0A 0000 		.long	0xa6d
 3631 038f 01        		.byte	0x1
 3632 0390 A003 0000 		.long	0x3a0
 3633 0394 0B        		.uleb128 0xb
 3634 0395 560A 0000 		.long	0xa56
 3635 0399 01        		.byte	0x1
 3636 039a 0D        		.uleb128 0xd
 3637 039b 670A 0000 		.long	0xa67
 3638 039f 00        		.byte	0x0
 3639 03a0 0E        		.uleb128 0xe
 3640 03a1 01        		.byte	0x1
 3641 03a2 0000 0000 		.long	.LASF35
 3642 03a6 07        		.byte	0x7
 3643 03a7 6B        		.byte	0x6b
 3644 03a8 0000 0000 		.long	.LASF37
 3645 03ac 6D0A 0000 		.long	0xa6d
 3646 03b0 01        		.byte	0x1
 3647 03b1 C103 0000 		.long	0x3c1
 3648 03b5 0B        		.uleb128 0xb
 3649 03b6 560A 0000 		.long	0xa56
 3650 03ba 01        		.byte	0x1
 3651 03bb 0D        		.uleb128 0xd
 3652 03bc 5C0A 0000 		.long	0xa5c
 3653 03c0 00        		.byte	0x0
 3654 03c1 0E        		.uleb128 0xe
 3655 03c2 01        		.byte	0x1
 3656 03c3 0000 0000 		.long	.LASF35
 3657 03c7 07        		.byte	0x7
GAS LISTING /var/folders/1s/lqjcb7x5323625d47g9gdgmr0000gp/T//ccQR4rtp.s 			page 66


 3658 03c8 6C        		.byte	0x6c
 3659 03c9 0000 0000 		.long	.LASF38
 3660 03cd 6D0A 0000 		.long	0xa6d
 3661 03d1 01        		.byte	0x1
 3662 03d2 E203 0000 		.long	0x3e2
 3663 03d6 0B        		.uleb128 0xb
 3664 03d7 560A 0000 		.long	0xa56
 3665 03db 01        		.byte	0x1
 3666 03dc 0D        		.uleb128 0xd
 3667 03dd 8400 0000 		.long	0x84
 3668 03e1 00        		.byte	0x0
 3669 03e2 0E        		.uleb128 0xe
 3670 03e3 01        		.byte	0x1
 3671 03e4 0000 0000 		.long	.LASF35
 3672 03e8 07        		.byte	0x7
 3673 03e9 6D        		.byte	0x6d
 3674 03ea 0000 0000 		.long	.LASF39
 3675 03ee 6D0A 0000 		.long	0xa6d
 3676 03f2 01        		.byte	0x1
 3677 03f3 0304 0000 		.long	0x403
 3678 03f7 0B        		.uleb128 0xb
 3679 03f8 560A 0000 		.long	0xa56
 3680 03fc 01        		.byte	0x1
 3681 03fd 0D        		.uleb128 0xd
 3682 03fe 5700 0000 		.long	0x57
 3683 0402 00        		.byte	0x0
 3684 0403 0E        		.uleb128 0xe
 3685 0404 01        		.byte	0x1
 3686 0405 0000 0000 		.long	.LASF35
 3687 0409 07        		.byte	0x7
 3688 040a 6E        		.byte	0x6e
 3689 040b 0000 0000 		.long	.LASF40
 3690 040f 6D0A 0000 		.long	0xa6d
 3691 0413 01        		.byte	0x1
 3692 0414 2404 0000 		.long	0x424
 3693 0418 0B        		.uleb128 0xb
 3694 0419 560A 0000 		.long	0xa56
 3695 041d 01        		.byte	0x1
 3696 041e 0D        		.uleb128 0xd
 3697 041f 3700 0000 		.long	0x37
 3698 0423 00        		.byte	0x0
 3699 0424 0E        		.uleb128 0xe
 3700 0425 01        		.byte	0x1
 3701 0426 0000 0000 		.long	.LASF35
 3702 042a 07        		.byte	0x7
 3703 042b 6F        		.byte	0x6f
 3704 042c 0000 0000 		.long	.LASF41
 3705 0430 6D0A 0000 		.long	0xa6d
 3706 0434 01        		.byte	0x1
 3707 0435 4504 0000 		.long	0x445
 3708 0439 0B        		.uleb128 0xb
 3709 043a 560A 0000 		.long	0xa56
 3710 043e 01        		.byte	0x1
 3711 043f 0D        		.uleb128 0xd
 3712 0440 3000 0000 		.long	0x30
 3713 0444 00        		.byte	0x0
 3714 0445 0E        		.uleb128 0xe
GAS LISTING /var/folders/1s/lqjcb7x5323625d47g9gdgmr0000gp/T//ccQR4rtp.s 			page 67


 3715 0446 01        		.byte	0x1
 3716 0447 0000 0000 		.long	.LASF35
 3717 044b 07        		.byte	0x7
 3718 044c 70        		.byte	0x70
 3719 044d 0000 0000 		.long	.LASF42
 3720 0451 6D0A 0000 		.long	0xa6d
 3721 0455 01        		.byte	0x1
 3722 0456 6604 0000 		.long	0x466
 3723 045a 0B        		.uleb128 0xb
 3724 045b 560A 0000 		.long	0xa56
 3725 045f 01        		.byte	0x1
 3726 0460 0D        		.uleb128 0xd
 3727 0461 3E00 0000 		.long	0x3e
 3728 0465 00        		.byte	0x0
 3729 0466 0E        		.uleb128 0xe
 3730 0467 01        		.byte	0x1
 3731 0468 0000 0000 		.long	.LASF35
 3732 046c 07        		.byte	0x7
 3733 046d 71        		.byte	0x71
 3734 046e 0000 0000 		.long	.LASF43
 3735 0472 6D0A 0000 		.long	0xa6d
 3736 0476 01        		.byte	0x1
 3737 0477 8704 0000 		.long	0x487
 3738 047b 0B        		.uleb128 0xb
 3739 047c 560A 0000 		.long	0xa56
 3740 0480 01        		.byte	0x1
 3741 0481 0D        		.uleb128 0xd
 3742 0482 6900 0000 		.long	0x69
 3743 0486 00        		.byte	0x0
 3744 0487 0E        		.uleb128 0xe
 3745 0488 01        		.byte	0x1
 3746 0489 0000 0000 		.long	.LASF44
 3747 048d 07        		.byte	0x7
 3748 048e 7D        		.byte	0x7d
 3749 048f 0000 0000 		.long	.LASF45
 3750 0493 140A 0000 		.long	0xa14
 3751 0497 01        		.byte	0x1
 3752 0498 A304 0000 		.long	0x4a3
 3753 049c 0B        		.uleb128 0xb
 3754 049d 450A 0000 		.long	0xa45
 3755 04a1 01        		.byte	0x1
 3756 04a2 00        		.byte	0x0
 3757 04a3 0E        		.uleb128 0xe
 3758 04a4 01        		.byte	0x1
 3759 04a5 0000 0000 		.long	.LASF46
 3760 04a9 07        		.byte	0x7
 3761 04aa 7E        		.byte	0x7e
 3762 04ab 0000 0000 		.long	.LASF47
 3763 04af 3700 0000 		.long	0x37
 3764 04b3 01        		.byte	0x1
 3765 04b4 C404 0000 		.long	0x4c4
 3766 04b8 0B        		.uleb128 0xb
 3767 04b9 450A 0000 		.long	0xa45
 3768 04bd 01        		.byte	0x1
 3769 04be 0D        		.uleb128 0xd
 3770 04bf 670A 0000 		.long	0xa67
 3771 04c3 00        		.byte	0x0
GAS LISTING /var/folders/1s/lqjcb7x5323625d47g9gdgmr0000gp/T//ccQR4rtp.s 			page 68


 3772 04c4 0E        		.uleb128 0xe
 3773 04c5 01        		.byte	0x1
 3774 04c6 0000 0000 		.long	.LASF48
 3775 04ca 07        		.byte	0x7
 3776 04cb 7F        		.byte	0x7f
 3777 04cc 0000 0000 		.long	.LASF49
 3778 04d0 5700 0000 		.long	0x57
 3779 04d4 01        		.byte	0x1
 3780 04d5 E504 0000 		.long	0x4e5
 3781 04d9 0B        		.uleb128 0xb
 3782 04da 450A 0000 		.long	0xa45
 3783 04de 01        		.byte	0x1
 3784 04df 0D        		.uleb128 0xd
 3785 04e0 670A 0000 		.long	0xa67
 3786 04e4 00        		.byte	0x0
 3787 04e5 0E        		.uleb128 0xe
 3788 04e6 01        		.byte	0x1
 3789 04e7 0000 0000 		.long	.LASF48
 3790 04eb 07        		.byte	0x7
 3791 04ec 80        		.byte	0x80
 3792 04ed 0000 0000 		.long	.LASF50
 3793 04f1 5700 0000 		.long	0x57
 3794 04f5 01        		.byte	0x1
 3795 04f6 0605 0000 		.long	0x506
 3796 04fa 0B        		.uleb128 0xb
 3797 04fb 450A 0000 		.long	0xa45
 3798 04ff 01        		.byte	0x1
 3799 0500 0D        		.uleb128 0xd
 3800 0501 5C0A 0000 		.long	0xa5c
 3801 0505 00        		.byte	0x0
 3802 0506 0E        		.uleb128 0xe
 3803 0507 01        		.byte	0x1
 3804 0508 0000 0000 		.long	.LASF51
 3805 050c 07        		.byte	0x7
 3806 050d 81        		.byte	0x81
 3807 050e 0000 0000 		.long	.LASF52
 3808 0512 5700 0000 		.long	0x57
 3809 0516 01        		.byte	0x1
 3810 0517 2705 0000 		.long	0x527
 3811 051b 0B        		.uleb128 0xb
 3812 051c 450A 0000 		.long	0xa45
 3813 0520 01        		.byte	0x1
 3814 0521 0D        		.uleb128 0xd
 3815 0522 670A 0000 		.long	0xa67
 3816 0526 00        		.byte	0x0
 3817 0527 0E        		.uleb128 0xe
 3818 0528 01        		.byte	0x1
 3819 0529 0000 0000 		.long	.LASF51
 3820 052d 07        		.byte	0x7
 3821 052e 82        		.byte	0x82
 3822 052f 0000 0000 		.long	.LASF53
 3823 0533 5700 0000 		.long	0x57
 3824 0537 01        		.byte	0x1
 3825 0538 4805 0000 		.long	0x548
 3826 053c 0B        		.uleb128 0xb
 3827 053d 450A 0000 		.long	0xa45
 3828 0541 01        		.byte	0x1
GAS LISTING /var/folders/1s/lqjcb7x5323625d47g9gdgmr0000gp/T//ccQR4rtp.s 			page 69


 3829 0542 0D        		.uleb128 0xd
 3830 0543 5C0A 0000 		.long	0xa5c
 3831 0547 00        		.byte	0x0
 3832 0548 0E        		.uleb128 0xe
 3833 0549 01        		.byte	0x1
 3834 054a 0000 0000 		.long	.LASF54
 3835 054e 07        		.byte	0x7
 3836 054f 83        		.byte	0x83
 3837 0550 0000 0000 		.long	.LASF55
 3838 0554 5700 0000 		.long	0x57
 3839 0558 01        		.byte	0x1
 3840 0559 6905 0000 		.long	0x569
 3841 055d 0B        		.uleb128 0xb
 3842 055e 450A 0000 		.long	0xa45
 3843 0562 01        		.byte	0x1
 3844 0563 0D        		.uleb128 0xd
 3845 0564 670A 0000 		.long	0xa67
 3846 0568 00        		.byte	0x0
 3847 0569 0E        		.uleb128 0xe
 3848 056a 01        		.byte	0x1
 3849 056b 0000 0000 		.long	.LASF54
 3850 056f 07        		.byte	0x7
 3851 0570 84        		.byte	0x84
 3852 0571 0000 0000 		.long	.LASF56
 3853 0575 5700 0000 		.long	0x57
 3854 0579 01        		.byte	0x1
 3855 057a 8A05 0000 		.long	0x58a
 3856 057e 0B        		.uleb128 0xb
 3857 057f 450A 0000 		.long	0xa45
 3858 0583 01        		.byte	0x1
 3859 0584 0D        		.uleb128 0xd
 3860 0585 5C0A 0000 		.long	0xa5c
 3861 0589 00        		.byte	0x0
 3862 058a 0E        		.uleb128 0xe
 3863 058b 01        		.byte	0x1
 3864 058c 0000 0000 		.long	.LASF57
 3865 0590 07        		.byte	0x7
 3866 0591 85        		.byte	0x85
 3867 0592 0000 0000 		.long	.LASF58
 3868 0596 5700 0000 		.long	0x57
 3869 059a 01        		.byte	0x1
 3870 059b AB05 0000 		.long	0x5ab
 3871 059f 0B        		.uleb128 0xb
 3872 05a0 450A 0000 		.long	0xa45
 3873 05a4 01        		.byte	0x1
 3874 05a5 0D        		.uleb128 0xd
 3875 05a6 670A 0000 		.long	0xa67
 3876 05aa 00        		.byte	0x0
 3877 05ab 0E        		.uleb128 0xe
 3878 05ac 01        		.byte	0x1
 3879 05ad 0000 0000 		.long	.LASF59
 3880 05b1 07        		.byte	0x7
 3881 05b2 86        		.byte	0x86
 3882 05b3 0000 0000 		.long	.LASF60
 3883 05b7 5700 0000 		.long	0x57
 3884 05bb 01        		.byte	0x1
 3885 05bc CC05 0000 		.long	0x5cc
GAS LISTING /var/folders/1s/lqjcb7x5323625d47g9gdgmr0000gp/T//ccQR4rtp.s 			page 70


 3886 05c0 0B        		.uleb128 0xb
 3887 05c1 450A 0000 		.long	0xa45
 3888 05c5 01        		.byte	0x1
 3889 05c6 0D        		.uleb128 0xd
 3890 05c7 670A 0000 		.long	0xa67
 3891 05cb 00        		.byte	0x0
 3892 05cc 0E        		.uleb128 0xe
 3893 05cd 01        		.byte	0x1
 3894 05ce 0000 0000 		.long	.LASF61
 3895 05d2 07        		.byte	0x7
 3896 05d3 87        		.byte	0x87
 3897 05d4 0000 0000 		.long	.LASF62
 3898 05d8 5700 0000 		.long	0x57
 3899 05dc 01        		.byte	0x1
 3900 05dd ED05 0000 		.long	0x5ed
 3901 05e1 0B        		.uleb128 0xb
 3902 05e2 450A 0000 		.long	0xa45
 3903 05e6 01        		.byte	0x1
 3904 05e7 0D        		.uleb128 0xd
 3905 05e8 670A 0000 		.long	0xa67
 3906 05ec 00        		.byte	0x0
 3907 05ed 0E        		.uleb128 0xe
 3908 05ee 01        		.byte	0x1
 3909 05ef 0000 0000 		.long	.LASF63
 3910 05f3 07        		.byte	0x7
 3911 05f4 88        		.byte	0x88
 3912 05f5 0000 0000 		.long	.LASF64
 3913 05f9 5700 0000 		.long	0x57
 3914 05fd 01        		.byte	0x1
 3915 05fe 0E06 0000 		.long	0x60e
 3916 0602 0B        		.uleb128 0xb
 3917 0603 450A 0000 		.long	0xa45
 3918 0607 01        		.byte	0x1
 3919 0608 0D        		.uleb128 0xd
 3920 0609 670A 0000 		.long	0xa67
 3921 060d 00        		.byte	0x0
 3922 060e 0E        		.uleb128 0xe
 3923 060f 01        		.byte	0x1
 3924 0610 0000 0000 		.long	.LASF65
 3925 0614 07        		.byte	0x7
 3926 0615 89        		.byte	0x89
 3927 0616 0000 0000 		.long	.LASF66
 3928 061a 5700 0000 		.long	0x57
 3929 061e 01        		.byte	0x1
 3930 061f 2F06 0000 		.long	0x62f
 3931 0623 0B        		.uleb128 0xb
 3932 0624 450A 0000 		.long	0xa45
 3933 0628 01        		.byte	0x1
 3934 0629 0D        		.uleb128 0xd
 3935 062a 670A 0000 		.long	0xa67
 3936 062e 00        		.byte	0x0
 3937 062f 0E        		.uleb128 0xe
 3938 0630 01        		.byte	0x1
 3939 0631 0000 0000 		.long	.LASF67
 3940 0635 07        		.byte	0x7
 3941 0636 8A        		.byte	0x8a
 3942 0637 0000 0000 		.long	.LASF68
GAS LISTING /var/folders/1s/lqjcb7x5323625d47g9gdgmr0000gp/T//ccQR4rtp.s 			page 71


 3943 063b 5700 0000 		.long	0x57
 3944 063f 01        		.byte	0x1
 3945 0640 5006 0000 		.long	0x650
 3946 0644 0B        		.uleb128 0xb
 3947 0645 450A 0000 		.long	0xa45
 3948 0649 01        		.byte	0x1
 3949 064a 0D        		.uleb128 0xd
 3950 064b 670A 0000 		.long	0xa67
 3951 064f 00        		.byte	0x0
 3952 0650 0E        		.uleb128 0xe
 3953 0651 01        		.byte	0x1
 3954 0652 0000 0000 		.long	.LASF67
 3955 0656 07        		.byte	0x7
 3956 0657 8B        		.byte	0x8b
 3957 0658 0000 0000 		.long	.LASF69
 3958 065c 5700 0000 		.long	0x57
 3959 0660 01        		.byte	0x1
 3960 0661 7606 0000 		.long	0x676
 3961 0665 0B        		.uleb128 0xb
 3962 0666 450A 0000 		.long	0xa45
 3963 066a 01        		.byte	0x1
 3964 066b 0D        		.uleb128 0xd
 3965 066c 670A 0000 		.long	0xa67
 3966 0670 0D        		.uleb128 0xd
 3967 0671 3000 0000 		.long	0x30
 3968 0675 00        		.byte	0x0
 3969 0676 0E        		.uleb128 0xe
 3970 0677 01        		.byte	0x1
 3971 0678 0000 0000 		.long	.LASF70
 3972 067c 07        		.byte	0x7
 3973 067d 8C        		.byte	0x8c
 3974 067e 0000 0000 		.long	.LASF71
 3975 0682 5700 0000 		.long	0x57
 3976 0686 01        		.byte	0x1
 3977 0687 9706 0000 		.long	0x697
 3978 068b 0B        		.uleb128 0xb
 3979 068c 450A 0000 		.long	0xa45
 3980 0690 01        		.byte	0x1
 3981 0691 0D        		.uleb128 0xd
 3982 0692 670A 0000 		.long	0xa67
 3983 0696 00        		.byte	0x0
 3984 0697 0E        		.uleb128 0xe
 3985 0698 01        		.byte	0x1
 3986 0699 0000 0000 		.long	.LASF72
 3987 069d 07        		.byte	0x7
 3988 069e 8F        		.byte	0x8f
 3989 069f 0000 0000 		.long	.LASF73
 3990 06a3 8400 0000 		.long	0x84
 3991 06a7 01        		.byte	0x1
 3992 06a8 B806 0000 		.long	0x6b8
 3993 06ac 0B        		.uleb128 0xb
 3994 06ad 450A 0000 		.long	0xa45
 3995 06b1 01        		.byte	0x1
 3996 06b2 0D        		.uleb128 0xd
 3997 06b3 3000 0000 		.long	0x30
 3998 06b7 00        		.byte	0x0
 3999 06b8 0F        		.uleb128 0xf
GAS LISTING /var/folders/1s/lqjcb7x5323625d47g9gdgmr0000gp/T//ccQR4rtp.s 			page 72


 4000 06b9 01        		.byte	0x1
 4001 06ba 0000 0000 		.long	.LASF77
 4002 06be 07        		.byte	0x7
 4003 06bf 90        		.byte	0x90
 4004 06c0 0000 0000 		.long	.LASF79
 4005 06c4 01        		.byte	0x1
 4006 06c5 DA06 0000 		.long	0x6da
 4007 06c9 0B        		.uleb128 0xb
 4008 06ca 560A 0000 		.long	0xa56
 4009 06ce 01        		.byte	0x1
 4010 06cf 0D        		.uleb128 0xd
 4011 06d0 3000 0000 		.long	0x30
 4012 06d4 0D        		.uleb128 0xd
 4013 06d5 8400 0000 		.long	0x84
 4014 06d9 00        		.byte	0x0
 4015 06da 0E        		.uleb128 0xe
 4016 06db 01        		.byte	0x1
 4017 06dc 0000 0000 		.long	.LASF74
 4018 06e0 07        		.byte	0x7
 4019 06e1 91        		.byte	0x91
 4020 06e2 0000 0000 		.long	.LASF75
 4021 06e6 8400 0000 		.long	0x84
 4022 06ea 01        		.byte	0x1
 4023 06eb FB06 0000 		.long	0x6fb
 4024 06ef 0B        		.uleb128 0xb
 4025 06f0 450A 0000 		.long	0xa45
 4026 06f4 01        		.byte	0x1
 4027 06f5 0D        		.uleb128 0xd
 4028 06f6 3000 0000 		.long	0x30
 4029 06fa 00        		.byte	0x0
 4030 06fb 0E        		.uleb128 0xe
 4031 06fc 01        		.byte	0x1
 4032 06fd 0000 0000 		.long	.LASF74
 4033 0701 07        		.byte	0x7
 4034 0702 92        		.byte	0x92
 4035 0703 0000 0000 		.long	.LASF76
 4036 0707 730A 0000 		.long	0xa73
 4037 070b 01        		.byte	0x1
 4038 070c 1C07 0000 		.long	0x71c
 4039 0710 0B        		.uleb128 0xb
 4040 0711 560A 0000 		.long	0xa56
 4041 0715 01        		.byte	0x1
 4042 0716 0D        		.uleb128 0xd
 4043 0717 3000 0000 		.long	0x30
 4044 071b 00        		.byte	0x0
 4045 071c 0F        		.uleb128 0xf
 4046 071d 01        		.byte	0x1
 4047 071e 0000 0000 		.long	.LASF78
 4048 0722 07        		.byte	0x7
 4049 0723 93        		.byte	0x93
 4050 0724 0000 0000 		.long	.LASF80
 4051 0728 01        		.byte	0x1
 4052 0729 4307 0000 		.long	0x743
 4053 072d 0B        		.uleb128 0xb
 4054 072e 450A 0000 		.long	0xa45
 4055 0732 01        		.byte	0x1
 4056 0733 0D        		.uleb128 0xd
GAS LISTING /var/folders/1s/lqjcb7x5323625d47g9gdgmr0000gp/T//ccQR4rtp.s 			page 73


 4057 0734 790A 0000 		.long	0xa79
 4058 0738 0D        		.uleb128 0xd
 4059 0739 3000 0000 		.long	0x30
 4060 073d 0D        		.uleb128 0xd
 4061 073e 3000 0000 		.long	0x30
 4062 0742 00        		.byte	0x0
 4063 0743 0F        		.uleb128 0xf
 4064 0744 01        		.byte	0x1
 4065 0745 0000 0000 		.long	.LASF81
 4066 0749 07        		.byte	0x7
 4067 074a 94        		.byte	0x94
 4068 074b 0000 0000 		.long	.LASF82
 4069 074f 01        		.byte	0x1
 4070 0750 6A07 0000 		.long	0x76a
 4071 0754 0B        		.uleb128 0xb
 4072 0755 450A 0000 		.long	0xa45
 4073 0759 01        		.byte	0x1
 4074 075a 0D        		.uleb128 0xd
 4075 075b 7E00 0000 		.long	0x7e
 4076 075f 0D        		.uleb128 0xd
 4077 0760 3000 0000 		.long	0x30
 4078 0764 0D        		.uleb128 0xd
 4079 0765 3000 0000 		.long	0x30
 4080 0769 00        		.byte	0x0
 4081 076a 0E        		.uleb128 0xe
 4082 076b 01        		.byte	0x1
 4083 076c 0000 0000 		.long	.LASF83
 4084 0770 07        		.byte	0x7
 4085 0771 98        		.byte	0x98
 4086 0772 0000 0000 		.long	.LASF84
 4087 0776 3700 0000 		.long	0x37
 4088 077a 01        		.byte	0x1
 4089 077b 8B07 0000 		.long	0x78b
 4090 077f 0B        		.uleb128 0xb
 4091 0780 450A 0000 		.long	0xa45
 4092 0784 01        		.byte	0x1
 4093 0785 0D        		.uleb128 0xd
 4094 0786 8400 0000 		.long	0x84
 4095 078a 00        		.byte	0x0
 4096 078b 0E        		.uleb128 0xe
 4097 078c 01        		.byte	0x1
 4098 078d 0000 0000 		.long	.LASF83
 4099 0791 07        		.byte	0x7
 4100 0792 99        		.byte	0x99
 4101 0793 0000 0000 		.long	.LASF85
 4102 0797 3700 0000 		.long	0x37
 4103 079b 01        		.byte	0x1
 4104 079c B107 0000 		.long	0x7b1
 4105 07a0 0B        		.uleb128 0xb
 4106 07a1 450A 0000 		.long	0xa45
 4107 07a5 01        		.byte	0x1
 4108 07a6 0D        		.uleb128 0xd
 4109 07a7 8400 0000 		.long	0x84
 4110 07ab 0D        		.uleb128 0xd
 4111 07ac 3000 0000 		.long	0x30
 4112 07b0 00        		.byte	0x0
 4113 07b1 0E        		.uleb128 0xe
GAS LISTING /var/folders/1s/lqjcb7x5323625d47g9gdgmr0000gp/T//ccQR4rtp.s 			page 74


 4114 07b2 01        		.byte	0x1
 4115 07b3 0000 0000 		.long	.LASF83
 4116 07b7 07        		.byte	0x7
 4117 07b8 9A        		.byte	0x9a
 4118 07b9 0000 0000 		.long	.LASF86
 4119 07bd 3700 0000 		.long	0x37
 4120 07c1 01        		.byte	0x1
 4121 07c2 D207 0000 		.long	0x7d2
 4122 07c6 0B        		.uleb128 0xb
 4123 07c7 450A 0000 		.long	0xa45
 4124 07cb 01        		.byte	0x1
 4125 07cc 0D        		.uleb128 0xd
 4126 07cd 670A 0000 		.long	0xa67
 4127 07d1 00        		.byte	0x0
 4128 07d2 0E        		.uleb128 0xe
 4129 07d3 01        		.byte	0x1
 4130 07d4 0000 0000 		.long	.LASF83
 4131 07d8 07        		.byte	0x7
 4132 07d9 9B        		.byte	0x9b
 4133 07da 0000 0000 		.long	.LASF87
 4134 07de 3700 0000 		.long	0x37
 4135 07e2 01        		.byte	0x1
 4136 07e3 F807 0000 		.long	0x7f8
 4137 07e7 0B        		.uleb128 0xb
 4138 07e8 450A 0000 		.long	0xa45
 4139 07ec 01        		.byte	0x1
 4140 07ed 0D        		.uleb128 0xd
 4141 07ee 670A 0000 		.long	0xa67
 4142 07f2 0D        		.uleb128 0xd
 4143 07f3 3000 0000 		.long	0x30
 4144 07f7 00        		.byte	0x0
 4145 07f8 0E        		.uleb128 0xe
 4146 07f9 01        		.byte	0x1
 4147 07fa 0000 0000 		.long	.LASF88
 4148 07fe 07        		.byte	0x7
 4149 07ff 9C        		.byte	0x9c
 4150 0800 0000 0000 		.long	.LASF89
 4151 0804 3700 0000 		.long	0x37
 4152 0808 01        		.byte	0x1
 4153 0809 1908 0000 		.long	0x819
 4154 080d 0B        		.uleb128 0xb
 4155 080e 450A 0000 		.long	0xa45
 4156 0812 01        		.byte	0x1
 4157 0813 0D        		.uleb128 0xd
 4158 0814 8400 0000 		.long	0x84
 4159 0818 00        		.byte	0x0
 4160 0819 0E        		.uleb128 0xe
 4161 081a 01        		.byte	0x1
 4162 081b 0000 0000 		.long	.LASF88
 4163 081f 07        		.byte	0x7
 4164 0820 9D        		.byte	0x9d
 4165 0821 0000 0000 		.long	.LASF90
 4166 0825 3700 0000 		.long	0x37
 4167 0829 01        		.byte	0x1
 4168 082a 3F08 0000 		.long	0x83f
 4169 082e 0B        		.uleb128 0xb
 4170 082f 450A 0000 		.long	0xa45
GAS LISTING /var/folders/1s/lqjcb7x5323625d47g9gdgmr0000gp/T//ccQR4rtp.s 			page 75


 4171 0833 01        		.byte	0x1
 4172 0834 0D        		.uleb128 0xd
 4173 0835 8400 0000 		.long	0x84
 4174 0839 0D        		.uleb128 0xd
 4175 083a 3000 0000 		.long	0x30
 4176 083e 00        		.byte	0x0
 4177 083f 0E        		.uleb128 0xe
 4178 0840 01        		.byte	0x1
 4179 0841 0000 0000 		.long	.LASF88
 4180 0845 07        		.byte	0x7
 4181 0846 9E        		.byte	0x9e
 4182 0847 0000 0000 		.long	.LASF91
 4183 084b 3700 0000 		.long	0x37
 4184 084f 01        		.byte	0x1
 4185 0850 6008 0000 		.long	0x860
 4186 0854 0B        		.uleb128 0xb
 4187 0855 450A 0000 		.long	0xa45
 4188 0859 01        		.byte	0x1
 4189 085a 0D        		.uleb128 0xd
 4190 085b 670A 0000 		.long	0xa67
 4191 085f 00        		.byte	0x0
 4192 0860 0E        		.uleb128 0xe
 4193 0861 01        		.byte	0x1
 4194 0862 0000 0000 		.long	.LASF88
 4195 0866 07        		.byte	0x7
 4196 0867 9F        		.byte	0x9f
 4197 0868 0000 0000 		.long	.LASF92
 4198 086c 3700 0000 		.long	0x37
 4199 0870 01        		.byte	0x1
 4200 0871 8608 0000 		.long	0x886
 4201 0875 0B        		.uleb128 0xb
 4202 0876 450A 0000 		.long	0xa45
 4203 087a 01        		.byte	0x1
 4204 087b 0D        		.uleb128 0xd
 4205 087c 670A 0000 		.long	0xa67
 4206 0880 0D        		.uleb128 0xd
 4207 0881 3000 0000 		.long	0x30
 4208 0885 00        		.byte	0x0
 4209 0886 0E        		.uleb128 0xe
 4210 0887 01        		.byte	0x1
 4211 0888 0000 0000 		.long	.LASF93
 4212 088c 07        		.byte	0x7
 4213 088d A0        		.byte	0xa0
 4214 088e 0000 0000 		.long	.LASF94
 4215 0892 9C00 0000 		.long	0x9c
 4216 0896 01        		.byte	0x1
 4217 0897 A708 0000 		.long	0x8a7
 4218 089b 0B        		.uleb128 0xb
 4219 089c 450A 0000 		.long	0xa45
 4220 08a0 01        		.byte	0x1
 4221 08a1 0D        		.uleb128 0xd
 4222 08a2 3000 0000 		.long	0x30
 4223 08a6 00        		.byte	0x0
 4224 08a7 0E        		.uleb128 0xe
 4225 08a8 01        		.byte	0x1
 4226 08a9 0000 0000 		.long	.LASF93
 4227 08ad 07        		.byte	0x7
GAS LISTING /var/folders/1s/lqjcb7x5323625d47g9gdgmr0000gp/T//ccQR4rtp.s 			page 76


 4228 08ae A1        		.byte	0xa1
 4229 08af 0000 0000 		.long	.LASF95
 4230 08b3 9C00 0000 		.long	0x9c
 4231 08b7 01        		.byte	0x1
 4232 08b8 CD08 0000 		.long	0x8cd
 4233 08bc 0B        		.uleb128 0xb
 4234 08bd 450A 0000 		.long	0xa45
 4235 08c1 01        		.byte	0x1
 4236 08c2 0D        		.uleb128 0xd
 4237 08c3 3000 0000 		.long	0x30
 4238 08c7 0D        		.uleb128 0xd
 4239 08c8 3000 0000 		.long	0x30
 4240 08cc 00        		.byte	0x0
 4241 08cd 0F        		.uleb128 0xf
 4242 08ce 01        		.byte	0x1
 4243 08cf 0000 0000 		.long	.LASF96
 4244 08d3 07        		.byte	0x7
 4245 08d4 A4        		.byte	0xa4
 4246 08d5 0000 0000 		.long	.LASF97
 4247 08d9 01        		.byte	0x1
 4248 08da EF08 0000 		.long	0x8ef
 4249 08de 0B        		.uleb128 0xb
 4250 08df 560A 0000 		.long	0xa56
 4251 08e3 01        		.byte	0x1
 4252 08e4 0D        		.uleb128 0xd
 4253 08e5 8400 0000 		.long	0x84
 4254 08e9 0D        		.uleb128 0xd
 4255 08ea 8400 0000 		.long	0x84
 4256 08ee 00        		.byte	0x0
 4257 08ef 0F        		.uleb128 0xf
 4258 08f0 01        		.byte	0x1
 4259 08f1 0000 0000 		.long	.LASF96
 4260 08f5 07        		.byte	0x7
 4261 08f6 A5        		.byte	0xa5
 4262 08f7 0000 0000 		.long	.LASF98
 4263 08fb 01        		.byte	0x1
 4264 08fc 1109 0000 		.long	0x911
 4265 0900 0B        		.uleb128 0xb
 4266 0901 560A 0000 		.long	0xa56
 4267 0905 01        		.byte	0x1
 4268 0906 0D        		.uleb128 0xd
 4269 0907 670A 0000 		.long	0xa67
 4270 090b 0D        		.uleb128 0xd
 4271 090c 670A 0000 		.long	0xa67
 4272 0910 00        		.byte	0x0
 4273 0911 0F        		.uleb128 0xf
 4274 0912 01        		.byte	0x1
 4275 0913 0000 0000 		.long	.LASF99
 4276 0917 07        		.byte	0x7
 4277 0918 A6        		.byte	0xa6
 4278 0919 0000 0000 		.long	.LASF100
 4279 091d 01        		.byte	0x1
 4280 091e 2909 0000 		.long	0x929
 4281 0922 0B        		.uleb128 0xb
 4282 0923 560A 0000 		.long	0xa56
 4283 0927 01        		.byte	0x1
 4284 0928 00        		.byte	0x0
GAS LISTING /var/folders/1s/lqjcb7x5323625d47g9gdgmr0000gp/T//ccQR4rtp.s 			page 77


 4285 0929 0F        		.uleb128 0xf
 4286 092a 01        		.byte	0x1
 4287 092b 0000 0000 		.long	.LASF101
 4288 092f 07        		.byte	0x7
 4289 0930 A7        		.byte	0xa7
 4290 0931 0000 0000 		.long	.LASF102
 4291 0935 01        		.byte	0x1
 4292 0936 4109 0000 		.long	0x941
 4293 093a 0B        		.uleb128 0xb
 4294 093b 560A 0000 		.long	0xa56
 4295 093f 01        		.byte	0x1
 4296 0940 00        		.byte	0x0
 4297 0941 0F        		.uleb128 0xf
 4298 0942 01        		.byte	0x1
 4299 0943 0000 0000 		.long	.LASF103
 4300 0947 07        		.byte	0x7
 4301 0948 A8        		.byte	0xa8
 4302 0949 0000 0000 		.long	.LASF104
 4303 094d 01        		.byte	0x1
 4304 094e 5909 0000 		.long	0x959
 4305 0952 0B        		.uleb128 0xb
 4306 0953 560A 0000 		.long	0xa56
 4307 0957 01        		.byte	0x1
 4308 0958 00        		.byte	0x0
 4309 0959 0E        		.uleb128 0xe
 4310 095a 01        		.byte	0x1
 4311 095b 0000 0000 		.long	.LASF105
 4312 095f 07        		.byte	0x7
 4313 0960 AB        		.byte	0xab
 4314 0961 0000 0000 		.long	.LASF106
 4315 0965 3E00 0000 		.long	0x3e
 4316 0969 01        		.byte	0x1
 4317 096a 7509 0000 		.long	0x975
 4318 096e 0B        		.uleb128 0xb
 4319 096f 450A 0000 		.long	0xa45
 4320 0973 01        		.byte	0x1
 4321 0974 00        		.byte	0x0
 4322 0975 0A        		.uleb128 0xa
 4323 0976 01        		.byte	0x1
 4324 0977 0000 0000 		.long	.LASF107
 4325 097b 07        		.byte	0x7
 4326 097c B3        		.byte	0xb3
 4327 097d 0000 0000 		.long	.LASF108
 4328 0981 02        		.byte	0x2
 4329 0982 01        		.byte	0x1
 4330 0983 8E09 0000 		.long	0x98e
 4331 0987 0B        		.uleb128 0xb
 4332 0988 560A 0000 		.long	0xa56
 4333 098c 01        		.byte	0x1
 4334 098d 00        		.byte	0x0
 4335 098e 0A        		.uleb128 0xa
 4336 098f 01        		.byte	0x1
 4337 0990 0000 0000 		.long	.LASF109
 4338 0994 07        		.byte	0x7
 4339 0995 B4        		.byte	0xb4
 4340 0996 0000 0000 		.long	.LASF110
 4341 099a 02        		.byte	0x2
GAS LISTING /var/folders/1s/lqjcb7x5323625d47g9gdgmr0000gp/T//ccQR4rtp.s 			page 78


 4342 099b 01        		.byte	0x1
 4343 099c A709 0000 		.long	0x9a7
 4344 09a0 0B        		.uleb128 0xb
 4345 09a1 560A 0000 		.long	0xa56
 4346 09a5 01        		.byte	0x1
 4347 09a6 00        		.byte	0x0
 4348 09a7 10        		.uleb128 0x10
 4349 09a8 01        		.byte	0x1
 4350 09a9 0000 0000 		.long	.LASF111
 4351 09ad 07        		.byte	0x7
 4352 09ae B5        		.byte	0xb5
 4353 09af 0000 0000 		.long	.LASF112
 4354 09b3 5700 0000 		.long	0x57
 4355 09b7 02        		.byte	0x2
 4356 09b8 01        		.byte	0x1
 4357 09b9 C909 0000 		.long	0x9c9
 4358 09bd 0B        		.uleb128 0xb
 4359 09be 560A 0000 		.long	0xa56
 4360 09c2 01        		.byte	0x1
 4361 09c3 0D        		.uleb128 0xd
 4362 09c4 3000 0000 		.long	0x30
 4363 09c8 00        		.byte	0x0
 4364 09c9 10        		.uleb128 0x10
 4365 09ca 01        		.byte	0x1
 4366 09cb 0000 0000 		.long	.LASF26
 4367 09cf 07        		.byte	0x7
 4368 09d0 B6        		.byte	0xb6
 4369 09d1 0000 0000 		.long	.LASF113
 4370 09d5 5700 0000 		.long	0x57
 4371 09d9 02        		.byte	0x2
 4372 09da 01        		.byte	0x1
 4373 09db F009 0000 		.long	0x9f0
 4374 09df 0B        		.uleb128 0xb
 4375 09e0 560A 0000 		.long	0xa56
 4376 09e4 01        		.byte	0x1
 4377 09e5 0D        		.uleb128 0xd
 4378 09e6 5C0A 0000 		.long	0xa5c
 4379 09ea 0D        		.uleb128 0xd
 4380 09eb 3000 0000 		.long	0x30
 4381 09ef 00        		.byte	0x0
 4382 09f0 11        		.uleb128 0x11
 4383 09f1 01        		.byte	0x1
 4384 09f2 0000 0000 		.long	.LASF114
 4385 09f6 07        		.byte	0x7
 4386 09f7 B9        		.byte	0xb9
 4387 09f8 0000 0000 		.long	.LASF115
 4388 09fc 6D0A 0000 		.long	0xa6d
 4389 0a00 02        		.byte	0x2
 4390 0a01 01        		.byte	0x1
 4391 0a02 0B        		.uleb128 0xb
 4392 0a03 560A 0000 		.long	0xa56
 4393 0a07 01        		.byte	0x1
 4394 0a08 0D        		.uleb128 0xd
 4395 0a09 5C0A 0000 		.long	0xa5c
 4396 0a0d 0D        		.uleb128 0xd
 4397 0a0e 3000 0000 		.long	0x30
 4398 0a12 00        		.byte	0x0
GAS LISTING /var/folders/1s/lqjcb7x5323625d47g9gdgmr0000gp/T//ccQR4rtp.s 			page 79


 4399 0a13 00        		.byte	0x0
 4400 0a14 12        		.uleb128 0x12
 4401 0a15 04        		.byte	0x4
 4402 0a16 07        		.byte	0x7
 4403 0a17 32        		.byte	0x32
 4404 0a18 390A 0000 		.long	0xa39
 4405 0a1c 13        		.uleb128 0x13
 4406 0a1d 0000 0000 		.long	.LASF116
 4407 0a21 07        		.byte	0x7
 4408 0a22 32        		.byte	0x32
 4409 0a23 500A 0000 		.long	0xa50
 4410 0a27 02        		.byte	0x2
 4411 0a28 23        		.byte	0x23
 4412 0a29 00        		.uleb128 0x0
 4413 0a2a 13        		.uleb128 0x13
 4414 0a2b 0000 0000 		.long	.LASF117
 4415 0a2f 07        		.byte	0x7
 4416 0a30 32        		.byte	0x32
 4417 0a31 3700 0000 		.long	0x37
 4418 0a35 02        		.byte	0x2
 4419 0a36 23        		.byte	0x23
 4420 0a37 02        		.uleb128 0x2
 4421 0a38 00        		.byte	0x0
 4422 0a39 14        		.uleb128 0x14
 4423 0a3a 450A 0000 		.long	0xa45
 4424 0a3e 0B        		.uleb128 0xb
 4425 0a3f 450A 0000 		.long	0xa45
 4426 0a43 01        		.byte	0x1
 4427 0a44 00        		.byte	0x0
 4428 0a45 05        		.uleb128 0x5
 4429 0a46 02        		.byte	0x2
 4430 0a47 4B0A 0000 		.long	0xa4b
 4431 0a4b 15        		.uleb128 0x15
 4432 0a4c 9C00 0000 		.long	0x9c
 4433 0a50 05        		.uleb128 0x5
 4434 0a51 02        		.byte	0x2
 4435 0a52 390A 0000 		.long	0xa39
 4436 0a56 05        		.uleb128 0x5
 4437 0a57 02        		.byte	0x2
 4438 0a58 9C00 0000 		.long	0x9c
 4439 0a5c 05        		.uleb128 0x5
 4440 0a5d 02        		.byte	0x2
 4441 0a5e 620A 0000 		.long	0xa62
 4442 0a62 15        		.uleb128 0x15
 4443 0a63 8400 0000 		.long	0x84
 4444 0a67 16        		.uleb128 0x16
 4445 0a68 02        		.byte	0x2
 4446 0a69 4B0A 0000 		.long	0xa4b
 4447 0a6d 16        		.uleb128 0x16
 4448 0a6e 02        		.byte	0x2
 4449 0a6f 9C00 0000 		.long	0x9c
 4450 0a73 16        		.uleb128 0x16
 4451 0a74 02        		.byte	0x2
 4452 0a75 8400 0000 		.long	0x84
 4453 0a79 05        		.uleb128 0x5
 4454 0a7a 02        		.byte	0x2
 4455 0a7b 5700 0000 		.long	0x57
GAS LISTING /var/folders/1s/lqjcb7x5323625d47g9gdgmr0000gp/T//ccQR4rtp.s 			page 80


 4456 0a7f 17        		.uleb128 0x17
 4457 0a80 0000 0000 		.long	.LASF134
 4458 0a84 01        		.byte	0x1
 4459 0a85 CF0A 0000 		.long	0xacf
 4460 0a89 18        		.uleb128 0x18
 4461 0a8a 01        		.byte	0x1
 4462 0a8b 0000 0000 		.long	.LASF139
 4463 0a8f 02        		.byte	0x2
 4464 0a90 35        		.byte	0x35
 4465 0a91 0000 0000 		.long	.LASF162
 4466 0a95 2500 0000 		.long	0x25
 4467 0a99 01        		.byte	0x1
 4468 0a9a 02        		.byte	0x2
 4469 0a9b 10        		.byte	0x10
 4470 0a9c 01        		.uleb128 0x1
 4471 0a9d 7F0A 0000 		.long	0xa7f
 4472 0aa1 01        		.byte	0x1
 4473 0aa2 B70A 0000 		.long	0xab7
 4474 0aa6 0B        		.uleb128 0xb
 4475 0aa7 CF0A 0000 		.long	0xacf
 4476 0aab 01        		.byte	0x1
 4477 0aac 0D        		.uleb128 0xd
 4478 0aad D50A 0000 		.long	0xad5
 4479 0ab1 0D        		.uleb128 0xd
 4480 0ab2 2500 0000 		.long	0x25
 4481 0ab6 00        		.byte	0x0
 4482 0ab7 19        		.uleb128 0x19
 4483 0ab8 08        		.byte	0x8
 4484 0ab9 21        		.byte	0x21
 4485 0aba 890A 0000 		.long	0xa89
 4486 0abe 1A        		.uleb128 0x1a
 4487 0abf 01        		.byte	0x1
 4488 0ac0 0000 0000 		.long	.LASF134
 4489 0ac4 02        		.byte	0x2
 4490 0ac5 2B        		.byte	0x2b
 4491 0ac6 01        		.byte	0x1
 4492 0ac7 0B        		.uleb128 0xb
 4493 0ac8 CF0A 0000 		.long	0xacf
 4494 0acc 01        		.byte	0x1
 4495 0acd 00        		.byte	0x0
 4496 0ace 00        		.byte	0x0
 4497 0acf 05        		.uleb128 0x5
 4498 0ad0 02        		.byte	0x2
 4499 0ad1 7F0A 0000 		.long	0xa7f
 4500 0ad5 05        		.uleb128 0x5
 4501 0ad6 02        		.byte	0x2
 4502 0ad7 DB0A 0000 		.long	0xadb
 4503 0adb 15        		.uleb128 0x15
 4504 0adc 4C00 0000 		.long	0x4c
 4505 0ae0 1B        		.uleb128 0x1b
 4506 0ae1 0000 0000 		.long	.LASF244
 4507 0ae5 44        		.byte	0x44
 4508 0ae6 01        		.byte	0x1
 4509 0ae7 3F        		.byte	0x3f
 4510 0ae8 170B 0000 		.long	0xb17
 4511 0aec 13        		.uleb128 0x13
 4512 0aed 0000 0000 		.long	.LASF12
GAS LISTING /var/folders/1s/lqjcb7x5323625d47g9gdgmr0000gp/T//ccQR4rtp.s 			page 81


 4513 0af1 01        		.byte	0x1
 4514 0af2 40        		.byte	0x40
 4515 0af3 170B 0000 		.long	0xb17
 4516 0af7 02        		.byte	0x2
 4517 0af8 23        		.byte	0x23
 4518 0af9 00        		.uleb128 0x0
 4519 0afa 13        		.uleb128 0x13
 4520 0afb 0000 0000 		.long	.LASF118
 4521 0aff 01        		.byte	0x1
 4522 0b00 41        		.byte	0x41
 4523 0b01 2A0B 0000 		.long	0xb2a
 4524 0b05 02        		.byte	0x2
 4525 0b06 23        		.byte	0x23
 4526 0b07 40        		.uleb128 0x40
 4527 0b08 13        		.uleb128 0x13
 4528 0b09 0000 0000 		.long	.LASF119
 4529 0b0d 01        		.byte	0x1
 4530 0b0e 42        		.byte	0x42
 4531 0b0f 2A0B 0000 		.long	0xb2a
 4532 0b13 02        		.byte	0x2
 4533 0b14 23        		.byte	0x23
 4534 0b15 42        		.uleb128 0x42
 4535 0b16 00        		.byte	0x0
 4536 0b17 1C        		.uleb128 0x1c
 4537 0b18 5700 0000 		.long	0x57
 4538 0b1c 270B 0000 		.long	0xb27
 4539 0b20 1D        		.uleb128 0x1d
 4540 0b21 270B 0000 		.long	0xb27
 4541 0b25 3F        		.byte	0x3f
 4542 0b26 00        		.byte	0x0
 4543 0b27 06        		.uleb128 0x6
 4544 0b28 02        		.byte	0x2
 4545 0b29 07        		.byte	0x7
 4546 0b2a 1E        		.uleb128 0x1e
 4547 0b2b 3000 0000 		.long	0x30
 4548 0b2f 1F        		.uleb128 0x1f
 4549 0b30 0000 0000 		.long	.LASF135
 4550 0b34 22        		.byte	0x22
 4551 0b35 08        		.byte	0x8
 4552 0b36 21        		.byte	0x21
 4553 0b37 7F0A 0000 		.long	0xa7f
 4554 0b3b 3A0E 0000 		.long	0xe3a
 4555 0b3f 20        		.uleb128 0x20
 4556 0b40 3A0E 0000 		.long	0xe3a
 4557 0b44 02        		.byte	0x2
 4558 0b45 23        		.byte	0x23
 4559 0b46 00        		.uleb128 0x0
 4560 0b47 01        		.byte	0x1
 4561 0b48 08        		.uleb128 0x8
 4562 0b49 0000 0000 		.long	.LASF120
 4563 0b4d 08        		.byte	0x8
 4564 0b4e 23        		.byte	0x23
 4565 0b4f 4111 0000 		.long	0x1141
 4566 0b53 02        		.byte	0x2
 4567 0b54 23        		.byte	0x23
 4568 0b55 0C        		.uleb128 0xc
 4569 0b56 03        		.byte	0x3
GAS LISTING /var/folders/1s/lqjcb7x5323625d47g9gdgmr0000gp/T//ccQR4rtp.s 			page 82


 4570 0b57 08        		.uleb128 0x8
 4571 0b58 0000 0000 		.long	.LASF121
 4572 0b5c 08        		.byte	0x8
 4573 0b5d 24        		.byte	0x24
 4574 0b5e 4111 0000 		.long	0x1141
 4575 0b62 02        		.byte	0x2
 4576 0b63 23        		.byte	0x23
 4577 0b64 0E        		.uleb128 0xe
 4578 0b65 03        		.byte	0x3
 4579 0b66 08        		.uleb128 0x8
 4580 0b67 0000 0000 		.long	.LASF122
 4581 0b6b 08        		.byte	0x8
 4582 0b6c 25        		.byte	0x25
 4583 0b6d 4711 0000 		.long	0x1147
 4584 0b71 02        		.byte	0x2
 4585 0b72 23        		.byte	0x23
 4586 0b73 10        		.uleb128 0x10
 4587 0b74 03        		.byte	0x3
 4588 0b75 08        		.uleb128 0x8
 4589 0b76 0000 0000 		.long	.LASF123
 4590 0b7a 08        		.byte	0x8
 4591 0b7b 26        		.byte	0x26
 4592 0b7c 4711 0000 		.long	0x1147
 4593 0b80 02        		.byte	0x2
 4594 0b81 23        		.byte	0x23
 4595 0b82 12        		.uleb128 0x12
 4596 0b83 03        		.byte	0x3
 4597 0b84 08        		.uleb128 0x8
 4598 0b85 0000 0000 		.long	.LASF124
 4599 0b89 08        		.byte	0x8
 4600 0b8a 27        		.byte	0x27
 4601 0b8b 4711 0000 		.long	0x1147
 4602 0b8f 02        		.byte	0x2
 4603 0b90 23        		.byte	0x23
 4604 0b91 14        		.uleb128 0x14
 4605 0b92 03        		.byte	0x3
 4606 0b93 08        		.uleb128 0x8
 4607 0b94 0000 0000 		.long	.LASF125
 4608 0b98 08        		.byte	0x8
 4609 0b99 28        		.byte	0x28
 4610 0b9a 4711 0000 		.long	0x1147
 4611 0b9e 02        		.byte	0x2
 4612 0b9f 23        		.byte	0x23
 4613 0ba0 16        		.uleb128 0x16
 4614 0ba1 03        		.byte	0x3
 4615 0ba2 08        		.uleb128 0x8
 4616 0ba3 0000 0000 		.long	.LASF126
 4617 0ba7 08        		.byte	0x8
 4618 0ba8 29        		.byte	0x29
 4619 0ba9 4711 0000 		.long	0x1147
 4620 0bad 02        		.byte	0x2
 4621 0bae 23        		.byte	0x23
 4622 0baf 18        		.uleb128 0x18
 4623 0bb0 03        		.byte	0x3
 4624 0bb1 08        		.uleb128 0x8
 4625 0bb2 0000 0000 		.long	.LASF127
 4626 0bb6 08        		.byte	0x8
GAS LISTING /var/folders/1s/lqjcb7x5323625d47g9gdgmr0000gp/T//ccQR4rtp.s 			page 83


 4627 0bb7 2A        		.byte	0x2a
 4628 0bb8 4711 0000 		.long	0x1147
 4629 0bbc 02        		.byte	0x2
 4630 0bbd 23        		.byte	0x23
 4631 0bbe 1A        		.uleb128 0x1a
 4632 0bbf 03        		.byte	0x3
 4633 0bc0 08        		.uleb128 0x8
 4634 0bc1 0000 0000 		.long	.LASF128
 4635 0bc5 08        		.byte	0x8
 4636 0bc6 2B        		.byte	0x2b
 4637 0bc7 4C00 0000 		.long	0x4c
 4638 0bcb 02        		.byte	0x2
 4639 0bcc 23        		.byte	0x23
 4640 0bcd 1C        		.uleb128 0x1c
 4641 0bce 03        		.byte	0x3
 4642 0bcf 08        		.uleb128 0x8
 4643 0bd0 0000 0000 		.long	.LASF129
 4644 0bd4 08        		.byte	0x8
 4645 0bd5 2C        		.byte	0x2c
 4646 0bd6 4C00 0000 		.long	0x4c
 4647 0bda 02        		.byte	0x2
 4648 0bdb 23        		.byte	0x23
 4649 0bdc 1D        		.uleb128 0x1d
 4650 0bdd 03        		.byte	0x3
 4651 0bde 08        		.uleb128 0x8
 4652 0bdf 0000 0000 		.long	.LASF130
 4653 0be3 08        		.byte	0x8
 4654 0be4 2D        		.byte	0x2d
 4655 0be5 4C00 0000 		.long	0x4c
 4656 0be9 02        		.byte	0x2
 4657 0bea 23        		.byte	0x23
 4658 0beb 1E        		.uleb128 0x1e
 4659 0bec 03        		.byte	0x3
 4660 0bed 08        		.uleb128 0x8
 4661 0bee 0000 0000 		.long	.LASF131
 4662 0bf2 08        		.byte	0x8
 4663 0bf3 2E        		.byte	0x2e
 4664 0bf4 4C00 0000 		.long	0x4c
 4665 0bf8 02        		.byte	0x2
 4666 0bf9 23        		.byte	0x23
 4667 0bfa 1F        		.uleb128 0x1f
 4668 0bfb 03        		.byte	0x3
 4669 0bfc 08        		.uleb128 0x8
 4670 0bfd 0000 0000 		.long	.LASF132
 4671 0c01 08        		.byte	0x8
 4672 0c02 2F        		.byte	0x2f
 4673 0c03 4C00 0000 		.long	0x4c
 4674 0c07 02        		.byte	0x2
 4675 0c08 23        		.byte	0x23
 4676 0c09 20        		.uleb128 0x20
 4677 0c0a 03        		.byte	0x3
 4678 0c0b 08        		.uleb128 0x8
 4679 0c0c 0000 0000 		.long	.LASF133
 4680 0c10 08        		.byte	0x8
 4681 0c11 30        		.byte	0x30
 4682 0c12 5211 0000 		.long	0x1152
 4683 0c16 02        		.byte	0x2
GAS LISTING /var/folders/1s/lqjcb7x5323625d47g9gdgmr0000gp/T//ccQR4rtp.s 			page 84


 4684 0c17 23        		.byte	0x23
 4685 0c18 21        		.uleb128 0x21
 4686 0c19 03        		.byte	0x3
 4687 0c1a 21        		.uleb128 0x21
 4688 0c1b 01        		.byte	0x1
 4689 0c1c 0000 0000 		.long	.LASF135
 4690 0c20 01        		.byte	0x1
 4691 0c21 01        		.byte	0x1
 4692 0c22 320C 0000 		.long	0xc32
 4693 0c26 0B        		.uleb128 0xb
 4694 0c27 5911 0000 		.long	0x1159
 4695 0c2b 01        		.byte	0x1
 4696 0c2c 0D        		.uleb128 0xd
 4697 0c2d 5F11 0000 		.long	0x115f
 4698 0c31 00        		.byte	0x0
 4699 0c32 22        		.uleb128 0x22
 4700 0c33 01        		.byte	0x1
 4701 0c34 0000 0000 		.long	.LASF135
 4702 0c38 01        		.byte	0x1
 4703 0c39 3B01      		.word	0x13b
 4704 0c3b 01        		.byte	0x1
 4705 0c3c 880C 0000 		.long	0xc88
 4706 0c40 0B        		.uleb128 0xb
 4707 0c41 5911 0000 		.long	0x1159
 4708 0c45 01        		.byte	0x1
 4709 0c46 0D        		.uleb128 0xd
 4710 0c47 4111 0000 		.long	0x1141
 4711 0c4b 0D        		.uleb128 0xd
 4712 0c4c 4111 0000 		.long	0x1141
 4713 0c50 0D        		.uleb128 0xd
 4714 0c51 4711 0000 		.long	0x1147
 4715 0c55 0D        		.uleb128 0xd
 4716 0c56 4711 0000 		.long	0x1147
 4717 0c5a 0D        		.uleb128 0xd
 4718 0c5b 4711 0000 		.long	0x1147
 4719 0c5f 0D        		.uleb128 0xd
 4720 0c60 4711 0000 		.long	0x1147
 4721 0c64 0D        		.uleb128 0xd
 4722 0c65 4711 0000 		.long	0x1147
 4723 0c69 0D        		.uleb128 0xd
 4724 0c6a 4711 0000 		.long	0x1147
 4725 0c6e 0D        		.uleb128 0xd
 4726 0c6f 4C00 0000 		.long	0x4c
 4727 0c73 0D        		.uleb128 0xd
 4728 0c74 4C00 0000 		.long	0x4c
 4729 0c78 0D        		.uleb128 0xd
 4730 0c79 4C00 0000 		.long	0x4c
 4731 0c7d 0D        		.uleb128 0xd
 4732 0c7e 4C00 0000 		.long	0x4c
 4733 0c82 0D        		.uleb128 0xd
 4734 0c83 4C00 0000 		.long	0x4c
 4735 0c87 00        		.byte	0x0
 4736 0c88 23        		.uleb128 0x23
 4737 0c89 01        		.byte	0x1
 4738 0c8a 0000 0000 		.long	.LASF136
 4739 0c8e 01        		.byte	0x1
 4740 0c8f 4E01      		.word	0x14e
GAS LISTING /var/folders/1s/lqjcb7x5323625d47g9gdgmr0000gp/T//ccQR4rtp.s 			page 85


 4741 0c91 0000 0000 		.long	.LASF137
 4742 0c95 01        		.byte	0x1
 4743 0c96 A60C 0000 		.long	0xca6
 4744 0c9a 0B        		.uleb128 0xb
 4745 0c9b 5911 0000 		.long	0x1159
 4746 0c9f 01        		.byte	0x1
 4747 0ca0 0D        		.uleb128 0xd
 4748 0ca1 6900 0000 		.long	0x69
 4749 0ca5 00        		.byte	0x0
 4750 0ca6 23        		.uleb128 0x23
 4751 0ca7 01        		.byte	0x1
 4752 0ca8 0000 0000 		.long	.LASF136
 4753 0cac 01        		.byte	0x1
 4754 0cad 7801      		.word	0x178
 4755 0caf 0000 0000 		.long	.LASF138
 4756 0cb3 01        		.byte	0x1
 4757 0cb4 C90C 0000 		.long	0xcc9
 4758 0cb8 0B        		.uleb128 0xb
 4759 0cb9 5911 0000 		.long	0x1159
 4760 0cbd 01        		.byte	0x1
 4761 0cbe 0D        		.uleb128 0xd
 4762 0cbf 6900 0000 		.long	0x69
 4763 0cc3 0D        		.uleb128 0xd
 4764 0cc4 9100 0000 		.long	0x91
 4765 0cc8 00        		.byte	0x0
 4766 0cc9 24        		.uleb128 0x24
 4767 0cca 01        		.byte	0x1
 4768 0ccb 656E 6400 		.string	"end"
 4769 0ccf 01        		.byte	0x1
 4770 0cd0 A701      		.word	0x1a7
 4771 0cd2 0000 0000 		.long	.LASF245
 4772 0cd6 01        		.byte	0x1
 4773 0cd7 E20C 0000 		.long	0xce2
 4774 0cdb 0B        		.uleb128 0xb
 4775 0cdc 5911 0000 		.long	0x1159
 4776 0ce0 01        		.byte	0x1
 4777 0ce1 00        		.byte	0x0
 4778 0ce2 25        		.uleb128 0x25
 4779 0ce3 01        		.byte	0x1
 4780 0ce4 0000 0000 		.long	.LASF140
 4781 0ce8 01        		.byte	0x1
 4782 0ce9 B601      		.word	0x1b6
 4783 0ceb 0000 0000 		.long	.LASF142
 4784 0cef 3700 0000 		.long	0x37
 4785 0cf3 01        		.byte	0x1
 4786 0cf4 02        		.byte	0x2
 4787 0cf5 10        		.byte	0x10
 4788 0cf6 02        		.uleb128 0x2
 4789 0cf7 2F0B 0000 		.long	0xb2f
 4790 0cfb 01        		.byte	0x1
 4791 0cfc 070D 0000 		.long	0xd07
 4792 0d00 0B        		.uleb128 0xb
 4793 0d01 5911 0000 		.long	0x1159
 4794 0d05 01        		.byte	0x1
 4795 0d06 00        		.byte	0x0
 4796 0d07 25        		.uleb128 0x25
 4797 0d08 01        		.byte	0x1
GAS LISTING /var/folders/1s/lqjcb7x5323625d47g9gdgmr0000gp/T//ccQR4rtp.s 			page 86


 4798 0d09 0000 0000 		.long	.LASF141
 4799 0d0d 01        		.byte	0x1
 4800 0d0e BB01      		.word	0x1bb
 4801 0d10 0000 0000 		.long	.LASF143
 4802 0d14 3700 0000 		.long	0x37
 4803 0d18 01        		.byte	0x1
 4804 0d19 02        		.byte	0x2
 4805 0d1a 10        		.byte	0x10
 4806 0d1b 04        		.uleb128 0x4
 4807 0d1c 2F0B 0000 		.long	0xb2f
 4808 0d20 01        		.byte	0x1
 4809 0d21 2C0D 0000 		.long	0xd2c
 4810 0d25 0B        		.uleb128 0xb
 4811 0d26 5911 0000 		.long	0x1159
 4812 0d2a 01        		.byte	0x1
 4813 0d2b 00        		.byte	0x0
 4814 0d2c 25        		.uleb128 0x25
 4815 0d2d 01        		.byte	0x1
 4816 0d2e 0000 0000 		.long	.LASF144
 4817 0d32 01        		.byte	0x1
 4818 0d33 C401      		.word	0x1c4
 4819 0d35 0000 0000 		.long	.LASF145
 4820 0d39 3700 0000 		.long	0x37
 4821 0d3d 01        		.byte	0x1
 4822 0d3e 02        		.byte	0x2
 4823 0d3f 10        		.byte	0x10
 4824 0d40 03        		.uleb128 0x3
 4825 0d41 2F0B 0000 		.long	0xb2f
 4826 0d45 01        		.byte	0x1
 4827 0d46 510D 0000 		.long	0xd51
 4828 0d4a 0B        		.uleb128 0xb
 4829 0d4b 5911 0000 		.long	0x1159
 4830 0d4f 01        		.byte	0x1
 4831 0d50 00        		.byte	0x0
 4832 0d51 26        		.uleb128 0x26
 4833 0d52 01        		.byte	0x1
 4834 0d53 0000 0000 		.long	.LASF166
 4835 0d57 01        		.byte	0x1
 4836 0d58 D001      		.word	0x1d0
 4837 0d5a 0000 0000 		.long	.LASF246
 4838 0d5e 01        		.byte	0x1
 4839 0d5f 02        		.byte	0x2
 4840 0d60 10        		.byte	0x10
 4841 0d61 05        		.uleb128 0x5
 4842 0d62 2F0B 0000 		.long	0xb2f
 4843 0d66 01        		.byte	0x1
 4844 0d67 720D 0000 		.long	0xd72
 4845 0d6b 0B        		.uleb128 0xb
 4846 0d6c 5911 0000 		.long	0x1159
 4847 0d70 01        		.byte	0x1
 4848 0d71 00        		.byte	0x0
 4849 0d72 25        		.uleb128 0x25
 4850 0d73 01        		.byte	0x1
 4851 0d74 0000 0000 		.long	.LASF139
 4852 0d78 01        		.byte	0x1
 4853 0d79 D701      		.word	0x1d7
 4854 0d7b 0000 0000 		.long	.LASF146
GAS LISTING /var/folders/1s/lqjcb7x5323625d47g9gdgmr0000gp/T//ccQR4rtp.s 			page 87


 4855 0d7f 2500 0000 		.long	0x25
 4856 0d83 01        		.byte	0x1
 4857 0d84 02        		.byte	0x2
 4858 0d85 10        		.byte	0x10
 4859 0d86 00        		.uleb128 0x0
 4860 0d87 2F0B 0000 		.long	0xb2f
 4861 0d8b 01        		.byte	0x1
 4862 0d8c 9C0D 0000 		.long	0xd9c
 4863 0d90 0B        		.uleb128 0xb
 4864 0d91 5911 0000 		.long	0x1159
 4865 0d95 01        		.byte	0x1
 4866 0d96 0D        		.uleb128 0xd
 4867 0d97 4C00 0000 		.long	0x4c
 4868 0d9b 00        		.byte	0x0
 4869 0d9c 0E        		.uleb128 0xe
 4870 0d9d 01        		.byte	0x1
 4871 0d9e 0000 0000 		.long	.LASF139
 4872 0da2 08        		.byte	0x8
 4873 0da3 3F        		.byte	0x3f
 4874 0da4 0000 0000 		.long	.LASF147
 4875 0da8 2500 0000 		.long	0x25
 4876 0dac 01        		.byte	0x1
 4877 0dad BD0D 0000 		.long	0xdbd
 4878 0db1 0B        		.uleb128 0xb
 4879 0db2 5911 0000 		.long	0x1159
 4880 0db6 01        		.byte	0x1
 4881 0db7 0D        		.uleb128 0xd
 4882 0db8 6900 0000 		.long	0x69
 4883 0dbc 00        		.byte	0x0
 4884 0dbd 0E        		.uleb128 0xe
 4885 0dbe 01        		.byte	0x1
 4886 0dbf 0000 0000 		.long	.LASF139
 4887 0dc3 08        		.byte	0x8
 4888 0dc4 40        		.byte	0x40
 4889 0dc5 0000 0000 		.long	.LASF148
 4890 0dc9 2500 0000 		.long	0x25
 4891 0dcd 01        		.byte	0x1
 4892 0dce DE0D 0000 		.long	0xdde
 4893 0dd2 0B        		.uleb128 0xb
 4894 0dd3 5911 0000 		.long	0x1159
 4895 0dd7 01        		.byte	0x1
 4896 0dd8 0D        		.uleb128 0xd
 4897 0dd9 3E00 0000 		.long	0x3e
 4898 0ddd 00        		.byte	0x0
 4899 0dde 0E        		.uleb128 0xe
 4900 0ddf 01        		.byte	0x1
 4901 0de0 0000 0000 		.long	.LASF139
 4902 0de4 08        		.byte	0x8
 4903 0de5 41        		.byte	0x41
 4904 0de6 0000 0000 		.long	.LASF149
 4905 0dea 2500 0000 		.long	0x25
 4906 0dee 01        		.byte	0x1
 4907 0def FF0D 0000 		.long	0xdff
 4908 0df3 0B        		.uleb128 0xb
 4909 0df4 5911 0000 		.long	0x1159
 4910 0df8 01        		.byte	0x1
 4911 0df9 0D        		.uleb128 0xd
GAS LISTING /var/folders/1s/lqjcb7x5323625d47g9gdgmr0000gp/T//ccQR4rtp.s 			page 88


 4912 0dfa 3000 0000 		.long	0x30
 4913 0dfe 00        		.byte	0x0
 4914 0dff 0E        		.uleb128 0xe
 4915 0e00 01        		.byte	0x1
 4916 0e01 0000 0000 		.long	.LASF139
 4917 0e05 08        		.byte	0x8
 4918 0e06 42        		.byte	0x42
 4919 0e07 0000 0000 		.long	.LASF150
 4920 0e0b 2500 0000 		.long	0x25
 4921 0e0f 01        		.byte	0x1
 4922 0e10 200E 0000 		.long	0xe20
 4923 0e14 0B        		.uleb128 0xb
 4924 0e15 5911 0000 		.long	0x1159
 4925 0e19 01        		.byte	0x1
 4926 0e1a 0D        		.uleb128 0xd
 4927 0e1b 3700 0000 		.long	0x37
 4928 0e1f 00        		.byte	0x0
 4929 0e20 27        		.uleb128 0x27
 4930 0e21 01        		.byte	0x1
 4931 0e22 0000 0000 		.long	.LASF151
 4932 0e26 01        		.byte	0x1
 4933 0e27 EC01      		.word	0x1ec
 4934 0e29 0000 0000 		.long	.LASF152
 4935 0e2d 5211 0000 		.long	0x1152
 4936 0e31 01        		.byte	0x1
 4937 0e32 0B        		.uleb128 0xb
 4938 0e33 5911 0000 		.long	0x1159
 4939 0e37 01        		.byte	0x1
 4940 0e38 00        		.byte	0x0
 4941 0e39 00        		.byte	0x0
 4942 0e3a 1F        		.uleb128 0x1f
 4943 0e3b 0000 0000 		.long	.LASF153
 4944 0e3f 0C        		.byte	0xc
 4945 0e40 03        		.byte	0x3
 4946 0e41 27        		.byte	0x27
 4947 0e42 7F0A 0000 		.long	0xa7f
 4948 0e46 4111 0000 		.long	0x1141
 4949 0e4a 20        		.uleb128 0x20
 4950 0e4b 7F0A 0000 		.long	0xa7f
 4951 0e4f 02        		.byte	0x2
 4952 0e50 23        		.byte	0x23
 4953 0e51 00        		.uleb128 0x0
 4954 0e52 01        		.byte	0x1
 4955 0e53 08        		.uleb128 0x8
 4956 0e54 0000 0000 		.long	.LASF154
 4957 0e58 03        		.byte	0x3
 4958 0e59 29        		.byte	0x29
 4959 0e5a 6900 0000 		.long	0x69
 4960 0e5e 02        		.byte	0x2
 4961 0e5f 23        		.byte	0x23
 4962 0e60 04        		.uleb128 0x4
 4963 0e61 03        		.byte	0x3
 4964 0e62 08        		.uleb128 0x8
 4965 0e63 0000 0000 		.long	.LASF155
 4966 0e67 03        		.byte	0x3
 4967 0e68 2A        		.byte	0x2a
 4968 0e69 6900 0000 		.long	0x69
GAS LISTING /var/folders/1s/lqjcb7x5323625d47g9gdgmr0000gp/T//ccQR4rtp.s 			page 89


 4969 0e6d 02        		.byte	0x2
 4970 0e6e 23        		.byte	0x23
 4971 0e6f 08        		.uleb128 0x8
 4972 0e70 03        		.byte	0x3
 4973 0e71 21        		.uleb128 0x21
 4974 0e72 01        		.byte	0x1
 4975 0e73 0000 0000 		.long	.LASF153
 4976 0e77 01        		.byte	0x1
 4977 0e78 01        		.byte	0x1
 4978 0e79 890E 0000 		.long	0xe89
 4979 0e7d 0B        		.uleb128 0xb
 4980 0e7e 6A11 0000 		.long	0x116a
 4981 0e82 01        		.byte	0x1
 4982 0e83 0D        		.uleb128 0xd
 4983 0e84 7011 0000 		.long	0x1170
 4984 0e88 00        		.byte	0x0
 4985 0e89 10        		.uleb128 0x10
 4986 0e8a 01        		.byte	0x1
 4987 0e8b 0000 0000 		.long	.LASF156
 4988 0e8f 03        		.byte	0x3
 4989 0e90 2B        		.byte	0x2b
 4990 0e91 0000 0000 		.long	.LASF157
 4991 0e95 3700 0000 		.long	0x37
 4992 0e99 03        		.byte	0x3
 4993 0e9a 01        		.byte	0x1
 4994 0e9b A60E 0000 		.long	0xea6
 4995 0e9f 0B        		.uleb128 0xb
 4996 0ea0 6A11 0000 		.long	0x116a
 4997 0ea4 01        		.byte	0x1
 4998 0ea5 00        		.byte	0x0
 4999 0ea6 10        		.uleb128 0x10
 5000 0ea7 01        		.byte	0x1
 5001 0ea8 0000 0000 		.long	.LASF158
 5002 0eac 03        		.byte	0x3
 5003 0ead 2C        		.byte	0x2c
 5004 0eae 0000 0000 		.long	.LASF159
 5005 0eb2 3700 0000 		.long	0x37
 5006 0eb6 03        		.byte	0x3
 5007 0eb7 01        		.byte	0x1
 5008 0eb8 C30E 0000 		.long	0xec3
 5009 0ebc 0B        		.uleb128 0xb
 5010 0ebd 6A11 0000 		.long	0x116a
 5011 0ec1 01        		.byte	0x1
 5012 0ec2 00        		.byte	0x0
 5013 0ec3 10        		.uleb128 0x10
 5014 0ec4 01        		.byte	0x1
 5015 0ec5 0000 0000 		.long	.LASF160
 5016 0ec9 03        		.byte	0x3
 5017 0eca 2D        		.byte	0x2d
 5018 0ecb 0000 0000 		.long	.LASF161
 5019 0ecf 3700 0000 		.long	0x37
 5020 0ed3 03        		.byte	0x3
 5021 0ed4 01        		.byte	0x1
 5022 0ed5 E00E 0000 		.long	0xee0
 5023 0ed9 0B        		.uleb128 0xb
 5024 0eda 6A11 0000 		.long	0x116a
 5025 0ede 01        		.byte	0x1
GAS LISTING /var/folders/1s/lqjcb7x5323625d47g9gdgmr0000gp/T//ccQR4rtp.s 			page 90


 5026 0edf 00        		.byte	0x0
 5027 0ee0 18        		.uleb128 0x18
 5028 0ee1 01        		.byte	0x1
 5029 0ee2 0000 0000 		.long	.LASF140
 5030 0ee6 03        		.byte	0x3
 5031 0ee7 30        		.byte	0x30
 5032 0ee8 0000 0000 		.long	.LASF163
 5033 0eec 3700 0000 		.long	0x37
 5034 0ef0 01        		.byte	0x1
 5035 0ef1 02        		.byte	0x2
 5036 0ef2 10        		.byte	0x10
 5037 0ef3 02        		.uleb128 0x2
 5038 0ef4 3A0E 0000 		.long	0xe3a
 5039 0ef8 01        		.byte	0x1
 5040 0ef9 040F 0000 		.long	0xf04
 5041 0efd 0B        		.uleb128 0xb
 5042 0efe 6A11 0000 		.long	0x116a
 5043 0f02 01        		.byte	0x1
 5044 0f03 00        		.byte	0x0
 5045 0f04 18        		.uleb128 0x18
 5046 0f05 01        		.byte	0x1
 5047 0f06 0000 0000 		.long	.LASF144
 5048 0f0a 03        		.byte	0x3
 5049 0f0b 31        		.byte	0x31
 5050 0f0c 0000 0000 		.long	.LASF164
 5051 0f10 3700 0000 		.long	0x37
 5052 0f14 01        		.byte	0x1
 5053 0f15 02        		.byte	0x2
 5054 0f16 10        		.byte	0x10
 5055 0f17 03        		.uleb128 0x3
 5056 0f18 3A0E 0000 		.long	0xe3a
 5057 0f1c 01        		.byte	0x1
 5058 0f1d 280F 0000 		.long	0xf28
 5059 0f21 0B        		.uleb128 0xb
 5060 0f22 6A11 0000 		.long	0x116a
 5061 0f26 01        		.byte	0x1
 5062 0f27 00        		.byte	0x0
 5063 0f28 18        		.uleb128 0x18
 5064 0f29 01        		.byte	0x1
 5065 0f2a 0000 0000 		.long	.LASF141
 5066 0f2e 03        		.byte	0x3
 5067 0f2f 32        		.byte	0x32
 5068 0f30 0000 0000 		.long	.LASF165
 5069 0f34 3700 0000 		.long	0x37
 5070 0f38 01        		.byte	0x1
 5071 0f39 02        		.byte	0x2
 5072 0f3a 10        		.byte	0x10
 5073 0f3b 04        		.uleb128 0x4
 5074 0f3c 3A0E 0000 		.long	0xe3a
 5075 0f40 01        		.byte	0x1
 5076 0f41 4C0F 0000 		.long	0xf4c
 5077 0f45 0B        		.uleb128 0xb
 5078 0f46 6A11 0000 		.long	0x116a
 5079 0f4a 01        		.byte	0x1
 5080 0f4b 00        		.byte	0x0
 5081 0f4c 28        		.uleb128 0x28
 5082 0f4d 01        		.byte	0x1
GAS LISTING /var/folders/1s/lqjcb7x5323625d47g9gdgmr0000gp/T//ccQR4rtp.s 			page 91


 5083 0f4e 0000 0000 		.long	.LASF166
 5084 0f52 03        		.byte	0x3
 5085 0f53 33        		.byte	0x33
 5086 0f54 0000 0000 		.long	.LASF247
 5087 0f58 01        		.byte	0x1
 5088 0f59 02        		.byte	0x2
 5089 0f5a 10        		.byte	0x10
 5090 0f5b 05        		.uleb128 0x5
 5091 0f5c 3A0E 0000 		.long	0xe3a
 5092 0f60 01        		.byte	0x1
 5093 0f61 6C0F 0000 		.long	0xf6c
 5094 0f65 0B        		.uleb128 0xb
 5095 0f66 6A11 0000 		.long	0x116a
 5096 0f6a 01        		.byte	0x1
 5097 0f6b 00        		.byte	0x0
 5098 0f6c 0C        		.uleb128 0xc
 5099 0f6d 01        		.byte	0x1
 5100 0f6e 0000 0000 		.long	.LASF153
 5101 0f72 03        		.byte	0x3
 5102 0f73 35        		.byte	0x35
 5103 0f74 01        		.byte	0x1
 5104 0f75 800F 0000 		.long	0xf80
 5105 0f79 0B        		.uleb128 0xb
 5106 0f7a 6A11 0000 		.long	0x116a
 5107 0f7e 01        		.byte	0x1
 5108 0f7f 00        		.byte	0x0
 5109 0f80 0F        		.uleb128 0xf
 5110 0f81 01        		.byte	0x1
 5111 0f82 0000 0000 		.long	.LASF167
 5112 0f86 03        		.byte	0x3
 5113 0f87 39        		.byte	0x39
 5114 0f88 0000 0000 		.long	.LASF168
 5115 0f8c 01        		.byte	0x1
 5116 0f8d 9D0F 0000 		.long	0xf9d
 5117 0f91 0B        		.uleb128 0xb
 5118 0f92 6A11 0000 		.long	0x116a
 5119 0f96 01        		.byte	0x1
 5120 0f97 0D        		.uleb128 0xd
 5121 0f98 6900 0000 		.long	0x69
 5122 0f9c 00        		.byte	0x0
 5123 0f9d 0E        		.uleb128 0xe
 5124 0f9e 01        		.byte	0x1
 5125 0f9f 0000 0000 		.long	.LASF169
 5126 0fa3 03        		.byte	0x3
 5127 0fa4 3B        		.byte	0x3b
 5128 0fa5 0000 0000 		.long	.LASF170
 5129 0fa9 5211 0000 		.long	0x1152
 5130 0fad 01        		.byte	0x1
 5131 0fae BE0F 0000 		.long	0xfbe
 5132 0fb2 0B        		.uleb128 0xb
 5133 0fb3 6A11 0000 		.long	0x116a
 5134 0fb7 01        		.byte	0x1
 5135 0fb8 0D        		.uleb128 0xd
 5136 0fb9 7E00 0000 		.long	0x7e
 5137 0fbd 00        		.byte	0x0
 5138 0fbe 0E        		.uleb128 0xe
 5139 0fbf 01        		.byte	0x1
GAS LISTING /var/folders/1s/lqjcb7x5323625d47g9gdgmr0000gp/T//ccQR4rtp.s 			page 92


 5140 0fc0 0000 0000 		.long	.LASF169
 5141 0fc4 03        		.byte	0x3
 5142 0fc5 3E        		.byte	0x3e
 5143 0fc6 0000 0000 		.long	.LASF171
 5144 0fca 5211 0000 		.long	0x1152
 5145 0fce 01        		.byte	0x1
 5146 0fcf E40F 0000 		.long	0xfe4
 5147 0fd3 0B        		.uleb128 0xb
 5148 0fd4 6A11 0000 		.long	0x116a
 5149 0fd8 01        		.byte	0x1
 5150 0fd9 0D        		.uleb128 0xd
 5151 0fda 7E00 0000 		.long	0x7e
 5152 0fde 0D        		.uleb128 0xd
 5153 0fdf 2500 0000 		.long	0x25
 5154 0fe3 00        		.byte	0x0
 5155 0fe4 0E        		.uleb128 0xe
 5156 0fe5 01        		.byte	0x1
 5157 0fe6 0000 0000 		.long	.LASF172
 5158 0fea 03        		.byte	0x3
 5159 0feb 41        		.byte	0x41
 5160 0fec 0000 0000 		.long	.LASF173
 5161 0ff0 5211 0000 		.long	0x1152
 5162 0ff4 01        		.byte	0x1
 5163 0ff5 0A10 0000 		.long	0x100a
 5164 0ff9 0B        		.uleb128 0xb
 5165 0ffa 6A11 0000 		.long	0x116a
 5166 0ffe 01        		.byte	0x1
 5167 0fff 0D        		.uleb128 0xd
 5168 1000 7E00 0000 		.long	0x7e
 5169 1004 0D        		.uleb128 0xd
 5170 1005 7E00 0000 		.long	0x7e
 5171 1009 00        		.byte	0x0
 5172 100a 0E        		.uleb128 0xe
 5173 100b 01        		.byte	0x1
 5174 100c 0000 0000 		.long	.LASF172
 5175 1010 03        		.byte	0x3
 5176 1011 43        		.byte	0x43
 5177 1012 0000 0000 		.long	.LASF174
 5178 1016 5211 0000 		.long	0x1152
 5179 101a 01        		.byte	0x1
 5180 101b 3A10 0000 		.long	0x103a
 5181 101f 0B        		.uleb128 0xb
 5182 1020 6A11 0000 		.long	0x116a
 5183 1024 01        		.byte	0x1
 5184 1025 0D        		.uleb128 0xd
 5185 1026 7E00 0000 		.long	0x7e
 5186 102a 0D        		.uleb128 0xd
 5187 102b 2500 0000 		.long	0x25
 5188 102f 0D        		.uleb128 0xd
 5189 1030 7E00 0000 		.long	0x7e
 5190 1034 0D        		.uleb128 0xd
 5191 1035 2500 0000 		.long	0x25
 5192 1039 00        		.byte	0x0
 5193 103a 0E        		.uleb128 0xe
 5194 103b 01        		.byte	0x1
 5195 103c 0000 0000 		.long	.LASF175
 5196 1040 03        		.byte	0x3
GAS LISTING /var/folders/1s/lqjcb7x5323625d47g9gdgmr0000gp/T//ccQR4rtp.s 			page 93


 5197 1041 46        		.byte	0x46
 5198 1042 0000 0000 		.long	.LASF176
 5199 1046 3E00 0000 		.long	0x3e
 5200 104a 01        		.byte	0x1
 5201 104b 5610 0000 		.long	0x1056
 5202 104f 0B        		.uleb128 0xb
 5203 1050 6A11 0000 		.long	0x116a
 5204 1054 01        		.byte	0x1
 5205 1055 00        		.byte	0x0
 5206 1056 0E        		.uleb128 0xe
 5207 1057 01        		.byte	0x1
 5208 1058 0000 0000 		.long	.LASF177
 5209 105c 03        		.byte	0x3
 5210 105d 4A        		.byte	0x4a
 5211 105e 0000 0000 		.long	.LASF178
 5212 1062 7B11 0000 		.long	0x117b
 5213 1066 01        		.byte	0x1
 5214 1067 7210 0000 		.long	0x1072
 5215 106b 0B        		.uleb128 0xb
 5216 106c 6A11 0000 		.long	0x116a
 5217 1070 01        		.byte	0x1
 5218 1071 00        		.byte	0x0
 5219 1072 0E        		.uleb128 0xe
 5220 1073 01        		.byte	0x1
 5221 1074 0000 0000 		.long	.LASF179
 5222 1078 03        		.byte	0x3
 5223 1079 4C        		.byte	0x4c
 5224 107a 0000 0000 		.long	.LASF180
 5225 107e 2500 0000 		.long	0x25
 5226 1082 01        		.byte	0x1
 5227 1083 9810 0000 		.long	0x1098
 5228 1087 0B        		.uleb128 0xb
 5229 1088 6A11 0000 		.long	0x116a
 5230 108c 01        		.byte	0x1
 5231 108d 0D        		.uleb128 0xd
 5232 108e 7E00 0000 		.long	0x7e
 5233 1092 0D        		.uleb128 0xd
 5234 1093 2500 0000 		.long	0x25
 5235 1097 00        		.byte	0x0
 5236 1098 0E        		.uleb128 0xe
 5237 1099 01        		.byte	0x1
 5238 109a 0000 0000 		.long	.LASF181
 5239 109e 03        		.byte	0x3
 5240 109f 50        		.byte	0x50
 5241 10a0 0000 0000 		.long	.LASF182
 5242 10a4 2500 0000 		.long	0x25
 5243 10a8 01        		.byte	0x1
 5244 10a9 C310 0000 		.long	0x10c3
 5245 10ad 0B        		.uleb128 0xb
 5246 10ae 6A11 0000 		.long	0x116a
 5247 10b2 01        		.byte	0x1
 5248 10b3 0D        		.uleb128 0xd
 5249 10b4 8400 0000 		.long	0x84
 5250 10b8 0D        		.uleb128 0xd
 5251 10b9 7E00 0000 		.long	0x7e
 5252 10bd 0D        		.uleb128 0xd
 5253 10be 2500 0000 		.long	0x25
GAS LISTING /var/folders/1s/lqjcb7x5323625d47g9gdgmr0000gp/T//ccQR4rtp.s 			page 94


 5254 10c2 00        		.byte	0x0
 5255 10c3 0E        		.uleb128 0xe
 5256 10c4 01        		.byte	0x1
 5257 10c5 0000 0000 		.long	.LASF183
 5258 10c9 03        		.byte	0x3
 5259 10ca 55        		.byte	0x55
 5260 10cb 0000 0000 		.long	.LASF184
 5261 10cf 9C00 0000 		.long	0x9c
 5262 10d3 01        		.byte	0x1
 5263 10d4 DF10 0000 		.long	0x10df
 5264 10d8 0B        		.uleb128 0xb
 5265 10d9 6A11 0000 		.long	0x116a
 5266 10dd 01        		.byte	0x1
 5267 10de 00        		.byte	0x0
 5268 10df 0E        		.uleb128 0xe
 5269 10e0 01        		.byte	0x1
 5270 10e1 0000 0000 		.long	.LASF185
 5271 10e5 03        		.byte	0x3
 5272 10e6 56        		.byte	0x56
 5273 10e7 0000 0000 		.long	.LASF186
 5274 10eb 9C00 0000 		.long	0x9c
 5275 10ef 01        		.byte	0x1
 5276 10f0 0011 0000 		.long	0x1100
 5277 10f4 0B        		.uleb128 0xb
 5278 10f5 6A11 0000 		.long	0x116a
 5279 10f9 01        		.byte	0x1
 5280 10fa 0D        		.uleb128 0xd
 5281 10fb 8400 0000 		.long	0x84
 5282 10ff 00        		.byte	0x0
 5283 1100 10        		.uleb128 0x10
 5284 1101 01        		.byte	0x1
 5285 1102 0000 0000 		.long	.LASF175
 5286 1106 03        		.byte	0x3
 5287 1107 59        		.byte	0x59
 5288 1108 0000 0000 		.long	.LASF187
 5289 110c 3E00 0000 		.long	0x3e
 5290 1110 02        		.byte	0x2
 5291 1111 01        		.byte	0x1
 5292 1112 2211 0000 		.long	0x1122
 5293 1116 0B        		.uleb128 0xb
 5294 1117 6A11 0000 		.long	0x116a
 5295 111b 01        		.byte	0x1
 5296 111c 0D        		.uleb128 0xd
 5297 111d 8400 0000 		.long	0x84
 5298 1121 00        		.byte	0x0
 5299 1122 11        		.uleb128 0x11
 5300 1123 01        		.byte	0x1
 5301 1124 0000 0000 		.long	.LASF177
 5302 1128 03        		.byte	0x3
 5303 1129 5D        		.byte	0x5d
 5304 112a 0000 0000 		.long	.LASF188
 5305 112e 7B11 0000 		.long	0x117b
 5306 1132 02        		.byte	0x2
 5307 1133 01        		.byte	0x1
 5308 1134 0B        		.uleb128 0xb
 5309 1135 6A11 0000 		.long	0x116a
 5310 1139 01        		.byte	0x1
GAS LISTING /var/folders/1s/lqjcb7x5323625d47g9gdgmr0000gp/T//ccQR4rtp.s 			page 95


 5311 113a 0D        		.uleb128 0xd
 5312 113b 8400 0000 		.long	0x84
 5313 113f 00        		.byte	0x0
 5314 1140 00        		.byte	0x0
 5315 1141 05        		.uleb128 0x5
 5316 1142 02        		.byte	0x2
 5317 1143 E00A 0000 		.long	0xae0
 5318 1147 05        		.uleb128 0x5
 5319 1148 02        		.byte	0x2
 5320 1149 4D11 0000 		.long	0x114d
 5321 114d 1E        		.uleb128 0x1e
 5322 114e 4C00 0000 		.long	0x4c
 5323 1152 03        		.uleb128 0x3
 5324 1153 01        		.byte	0x1
 5325 1154 02        		.byte	0x2
 5326 1155 0000 0000 		.long	.LASF189
 5327 1159 05        		.uleb128 0x5
 5328 115a 02        		.byte	0x2
 5329 115b 2F0B 0000 		.long	0xb2f
 5330 115f 16        		.uleb128 0x16
 5331 1160 02        		.byte	0x2
 5332 1161 6511 0000 		.long	0x1165
 5333 1165 15        		.uleb128 0x15
 5334 1166 2F0B 0000 		.long	0xb2f
 5335 116a 05        		.uleb128 0x5
 5336 116b 02        		.byte	0x2
 5337 116c 3A0E 0000 		.long	0xe3a
 5338 1170 16        		.uleb128 0x16
 5339 1171 02        		.byte	0x2
 5340 1172 7611 0000 		.long	0x1176
 5341 1176 15        		.uleb128 0x15
 5342 1177 3A0E 0000 		.long	0xe3a
 5343 117b 03        		.uleb128 0x3
 5344 117c 04        		.byte	0x4
 5345 117d 04        		.byte	0x4
 5346 117e 0000 0000 		.long	.LASF190
 5347 1182 29        		.uleb128 0x29
 5348 1183 BE0A 0000 		.long	0xabe
 5349 1187 03        		.byte	0x3
 5350 1188 9711 0000 		.long	0x1197
 5351 118c 2A        		.uleb128 0x2a
 5352 118d 0000 0000 		.long	.LASF192
 5353 1191 9711 0000 		.long	0x1197
 5354 1195 01        		.byte	0x1
 5355 1196 00        		.byte	0x0
 5356 1197 15        		.uleb128 0x15
 5357 1198 CF0A 0000 		.long	0xacf
 5358 119c 2B        		.uleb128 0x2b
 5359 119d 01        		.byte	0x1
 5360 119e 0000 0000 		.long	.LASF191
 5361 11a2 01        		.byte	0x1
 5362 11a3 5A        		.byte	0x5a
 5363 11a4 03        		.byte	0x3
 5364 11a5 C711 0000 		.long	0x11c7
 5365 11a9 2C        		.uleb128 0x2c
 5366 11aa 6300      		.string	"c"
 5367 11ac 01        		.byte	0x1
GAS LISTING /var/folders/1s/lqjcb7x5323625d47g9gdgmr0000gp/T//ccQR4rtp.s 			page 96


 5368 11ad 5A        		.byte	0x5a
 5369 11ae 5700 0000 		.long	0x57
 5370 11b2 2D        		.uleb128 0x2d
 5371 11b3 0000 0000 		.long	.LASF12
 5372 11b7 01        		.byte	0x1
 5373 11b8 5A        		.byte	0x5a
 5374 11b9 4111 0000 		.long	0x1141
 5375 11bd 2E        		.uleb128 0x2e
 5376 11be 6900      		.string	"i"
 5377 11c0 01        		.byte	0x1
 5378 11c1 5C        		.byte	0x5c
 5379 11c2 3700 0000 		.long	0x37
 5380 11c6 00        		.byte	0x0
 5381 11c7 29        		.uleb128 0x29
 5382 11c8 6C0F 0000 		.long	0xf6c
 5383 11cc 03        		.byte	0x3
 5384 11cd DC11 0000 		.long	0x11dc
 5385 11d1 2A        		.uleb128 0x2a
 5386 11d2 0000 0000 		.long	.LASF192
 5387 11d6 DC11 0000 		.long	0x11dc
 5388 11da 01        		.byte	0x1
 5389 11db 00        		.byte	0x0
 5390 11dc 15        		.uleb128 0x15
 5391 11dd 6A11 0000 		.long	0x116a
 5392 11e1 29        		.uleb128 0x29
 5393 11e2 E20C 0000 		.long	0xce2
 5394 11e6 01        		.byte	0x1
 5395 11e7 F611 0000 		.long	0x11f6
 5396 11eb 2A        		.uleb128 0x2a
 5397 11ec 0000 0000 		.long	.LASF192
 5398 11f0 F611 0000 		.long	0x11f6
 5399 11f4 01        		.byte	0x1
 5400 11f5 00        		.byte	0x0
 5401 11f6 15        		.uleb128 0x15
 5402 11f7 5911 0000 		.long	0x1159
 5403 11fb 29        		.uleb128 0x29
 5404 11fc 320C 0000 		.long	0xc32
 5405 1200 01        		.byte	0x1
 5406 1201 AC12 0000 		.long	0x12ac
 5407 1205 2A        		.uleb128 0x2a
 5408 1206 0000 0000 		.long	.LASF192
 5409 120a F611 0000 		.long	0x11f6
 5410 120e 01        		.byte	0x1
 5411 120f 2F        		.uleb128 0x2f
 5412 1210 0000 0000 		.long	.LASF193
 5413 1214 01        		.byte	0x1
 5414 1215 3B01      		.word	0x13b
 5415 1217 4111 0000 		.long	0x1141
 5416 121b 2F        		.uleb128 0x2f
 5417 121c 0000 0000 		.long	.LASF194
 5418 1220 01        		.byte	0x1
 5419 1221 3B01      		.word	0x13b
 5420 1223 4111 0000 		.long	0x1141
 5421 1227 2F        		.uleb128 0x2f
 5422 1228 0000 0000 		.long	.LASF195
 5423 122c 01        		.byte	0x1
 5424 122d 3B01      		.word	0x13b
GAS LISTING /var/folders/1s/lqjcb7x5323625d47g9gdgmr0000gp/T//ccQR4rtp.s 			page 97


 5425 122f 4711 0000 		.long	0x1147
 5426 1233 2F        		.uleb128 0x2f
 5427 1234 0000 0000 		.long	.LASF196
 5428 1238 01        		.byte	0x1
 5429 1239 3B01      		.word	0x13b
 5430 123b 4711 0000 		.long	0x1147
 5431 123f 2F        		.uleb128 0x2f
 5432 1240 0000 0000 		.long	.LASF197
 5433 1244 01        		.byte	0x1
 5434 1245 3B01      		.word	0x13b
 5435 1247 4711 0000 		.long	0x1147
 5436 124b 2F        		.uleb128 0x2f
 5437 124c 0000 0000 		.long	.LASF198
 5438 1250 01        		.byte	0x1
 5439 1251 3B01      		.word	0x13b
 5440 1253 4711 0000 		.long	0x1147
 5441 1257 2F        		.uleb128 0x2f
 5442 1258 0000 0000 		.long	.LASF199
 5443 125c 01        		.byte	0x1
 5444 125d 3B01      		.word	0x13b
 5445 125f 4711 0000 		.long	0x1147
 5446 1263 30        		.uleb128 0x30
 5447 1264 7564 7200 		.string	"udr"
 5448 1268 01        		.byte	0x1
 5449 1269 3B01      		.word	0x13b
 5450 126b 4711 0000 		.long	0x1147
 5451 126f 2F        		.uleb128 0x2f
 5452 1270 0000 0000 		.long	.LASF200
 5453 1274 01        		.byte	0x1
 5454 1275 3B01      		.word	0x13b
 5455 1277 4C00 0000 		.long	0x4c
 5456 127b 2F        		.uleb128 0x2f
 5457 127c 0000 0000 		.long	.LASF201
 5458 1280 01        		.byte	0x1
 5459 1281 3B01      		.word	0x13b
 5460 1283 4C00 0000 		.long	0x4c
 5461 1287 2F        		.uleb128 0x2f
 5462 1288 0000 0000 		.long	.LASF202
 5463 128c 01        		.byte	0x1
 5464 128d 3B01      		.word	0x13b
 5465 128f 4C00 0000 		.long	0x4c
 5466 1293 2F        		.uleb128 0x2f
 5467 1294 0000 0000 		.long	.LASF203
 5468 1298 01        		.byte	0x1
 5469 1299 3B01      		.word	0x13b
 5470 129b 4C00 0000 		.long	0x4c
 5471 129f 30        		.uleb128 0x30
 5472 12a0 7532 7800 		.string	"u2x"
 5473 12a4 01        		.byte	0x1
 5474 12a5 3B01      		.word	0x13b
 5475 12a7 4C00 0000 		.long	0x4c
 5476 12ab 00        		.byte	0x0
 5477 12ac 31        		.uleb128 0x31
 5478 12ad 0000 0000 		.long	.LASF248
 5479 12b1 01        		.byte	0x1
 5480 12b2 01        		.byte	0x1
 5481 12b3 3414 0000 		.long	0x1434
GAS LISTING /var/folders/1s/lqjcb7x5323625d47g9gdgmr0000gp/T//ccQR4rtp.s 			page 98


 5482 12b7 2F        		.uleb128 0x2f
 5483 12b8 0000 0000 		.long	.LASF204
 5484 12bc 01        		.byte	0x1
 5485 12bd 0302      		.word	0x203
 5486 12bf 3700 0000 		.long	0x37
 5487 12c3 2F        		.uleb128 0x2f
 5488 12c4 0000 0000 		.long	.LASF205
 5489 12c8 01        		.byte	0x1
 5490 12c9 0302      		.word	0x203
 5491 12cb 3700 0000 		.long	0x37
 5492 12cf 32        		.uleb128 0x32
 5493 12d0 2913 0000 		.long	0x1329
 5494 12d4 33        		.uleb128 0x33
 5495 12d5 9F12 0000 		.long	0x129f
 5496 12d9 33        		.uleb128 0x33
 5497 12da 9312 0000 		.long	0x1293
 5498 12de 33        		.uleb128 0x33
 5499 12df 8712 0000 		.long	0x1287
 5500 12e3 33        		.uleb128 0x33
 5501 12e4 7B12 0000 		.long	0x127b
 5502 12e8 33        		.uleb128 0x33
 5503 12e9 6F12 0000 		.long	0x126f
 5504 12ed 33        		.uleb128 0x33
 5505 12ee 6312 0000 		.long	0x1263
 5506 12f2 33        		.uleb128 0x33
 5507 12f3 5712 0000 		.long	0x1257
 5508 12f7 33        		.uleb128 0x33
 5509 12f8 4B12 0000 		.long	0x124b
 5510 12fc 33        		.uleb128 0x33
 5511 12fd 3F12 0000 		.long	0x123f
 5512 1301 33        		.uleb128 0x33
 5513 1302 3312 0000 		.long	0x1233
 5514 1306 33        		.uleb128 0x33
 5515 1307 2712 0000 		.long	0x1227
 5516 130b 33        		.uleb128 0x33
 5517 130c 1B12 0000 		.long	0x121b
 5518 1310 33        		.uleb128 0x33
 5519 1311 0F12 0000 		.long	0x120f
 5520 1315 33        		.uleb128 0x33
 5521 1316 0512 0000 		.long	0x1205
 5522 131a 34        		.uleb128 0x34
 5523 131b 33        		.uleb128 0x33
 5524 131c D111 0000 		.long	0x11d1
 5525 1320 34        		.uleb128 0x34
 5526 1321 33        		.uleb128 0x33
 5527 1322 8C11 0000 		.long	0x118c
 5528 1326 00        		.byte	0x0
 5529 1327 00        		.byte	0x0
 5530 1328 00        		.byte	0x0
 5531 1329 32        		.uleb128 0x32
 5532 132a 8313 0000 		.long	0x1383
 5533 132e 33        		.uleb128 0x33
 5534 132f 9F12 0000 		.long	0x129f
 5535 1333 33        		.uleb128 0x33
 5536 1334 9312 0000 		.long	0x1293
 5537 1338 33        		.uleb128 0x33
 5538 1339 8712 0000 		.long	0x1287
GAS LISTING /var/folders/1s/lqjcb7x5323625d47g9gdgmr0000gp/T//ccQR4rtp.s 			page 99


 5539 133d 33        		.uleb128 0x33
 5540 133e 7B12 0000 		.long	0x127b
 5541 1342 33        		.uleb128 0x33
 5542 1343 6F12 0000 		.long	0x126f
 5543 1347 33        		.uleb128 0x33
 5544 1348 6312 0000 		.long	0x1263
 5545 134c 33        		.uleb128 0x33
 5546 134d 5712 0000 		.long	0x1257
 5547 1351 33        		.uleb128 0x33
 5548 1352 4B12 0000 		.long	0x124b
 5549 1356 33        		.uleb128 0x33
 5550 1357 3F12 0000 		.long	0x123f
 5551 135b 33        		.uleb128 0x33
 5552 135c 3312 0000 		.long	0x1233
 5553 1360 33        		.uleb128 0x33
 5554 1361 2712 0000 		.long	0x1227
 5555 1365 33        		.uleb128 0x33
 5556 1366 1B12 0000 		.long	0x121b
 5557 136a 33        		.uleb128 0x33
 5558 136b 0F12 0000 		.long	0x120f
 5559 136f 33        		.uleb128 0x33
 5560 1370 0512 0000 		.long	0x1205
 5561 1374 34        		.uleb128 0x34
 5562 1375 33        		.uleb128 0x33
 5563 1376 D111 0000 		.long	0x11d1
 5564 137a 34        		.uleb128 0x34
 5565 137b 33        		.uleb128 0x33
 5566 137c 8C11 0000 		.long	0x118c
 5567 1380 00        		.byte	0x0
 5568 1381 00        		.byte	0x0
 5569 1382 00        		.byte	0x0
 5570 1383 32        		.uleb128 0x32
 5571 1384 DD13 0000 		.long	0x13dd
 5572 1388 33        		.uleb128 0x33
 5573 1389 9F12 0000 		.long	0x129f
 5574 138d 33        		.uleb128 0x33
 5575 138e 9312 0000 		.long	0x1293
 5576 1392 33        		.uleb128 0x33
 5577 1393 8712 0000 		.long	0x1287
 5578 1397 33        		.uleb128 0x33
 5579 1398 7B12 0000 		.long	0x127b
 5580 139c 33        		.uleb128 0x33
 5581 139d 6F12 0000 		.long	0x126f
 5582 13a1 33        		.uleb128 0x33
 5583 13a2 6312 0000 		.long	0x1263
 5584 13a6 33        		.uleb128 0x33
 5585 13a7 5712 0000 		.long	0x1257
 5586 13ab 33        		.uleb128 0x33
 5587 13ac 4B12 0000 		.long	0x124b
 5588 13b0 33        		.uleb128 0x33
 5589 13b1 3F12 0000 		.long	0x123f
 5590 13b5 33        		.uleb128 0x33
 5591 13b6 3312 0000 		.long	0x1233
 5592 13ba 33        		.uleb128 0x33
 5593 13bb 2712 0000 		.long	0x1227
 5594 13bf 33        		.uleb128 0x33
 5595 13c0 1B12 0000 		.long	0x121b
GAS LISTING /var/folders/1s/lqjcb7x5323625d47g9gdgmr0000gp/T//ccQR4rtp.s 			page 100


 5596 13c4 33        		.uleb128 0x33
 5597 13c5 0F12 0000 		.long	0x120f
 5598 13c9 33        		.uleb128 0x33
 5599 13ca 0512 0000 		.long	0x1205
 5600 13ce 34        		.uleb128 0x34
 5601 13cf 33        		.uleb128 0x33
 5602 13d0 D111 0000 		.long	0x11d1
 5603 13d4 34        		.uleb128 0x34
 5604 13d5 33        		.uleb128 0x33
 5605 13d6 8C11 0000 		.long	0x118c
 5606 13da 00        		.byte	0x0
 5607 13db 00        		.byte	0x0
 5608 13dc 00        		.byte	0x0
 5609 13dd 34        		.uleb128 0x34
 5610 13de 33        		.uleb128 0x33
 5611 13df 9F12 0000 		.long	0x129f
 5612 13e3 33        		.uleb128 0x33
 5613 13e4 9312 0000 		.long	0x1293
 5614 13e8 33        		.uleb128 0x33
 5615 13e9 8712 0000 		.long	0x1287
 5616 13ed 33        		.uleb128 0x33
 5617 13ee 7B12 0000 		.long	0x127b
 5618 13f2 33        		.uleb128 0x33
 5619 13f3 6F12 0000 		.long	0x126f
 5620 13f7 33        		.uleb128 0x33
 5621 13f8 6312 0000 		.long	0x1263
 5622 13fc 33        		.uleb128 0x33
 5623 13fd 5712 0000 		.long	0x1257
 5624 1401 33        		.uleb128 0x33
 5625 1402 4B12 0000 		.long	0x124b
 5626 1406 33        		.uleb128 0x33
 5627 1407 3F12 0000 		.long	0x123f
 5628 140b 33        		.uleb128 0x33
 5629 140c 3312 0000 		.long	0x1233
 5630 1410 33        		.uleb128 0x33
 5631 1411 2712 0000 		.long	0x1227
 5632 1415 33        		.uleb128 0x33
 5633 1416 1B12 0000 		.long	0x121b
 5634 141a 33        		.uleb128 0x33
 5635 141b 0F12 0000 		.long	0x120f
 5636 141f 33        		.uleb128 0x33
 5637 1420 0512 0000 		.long	0x1205
 5638 1424 34        		.uleb128 0x34
 5639 1425 33        		.uleb128 0x33
 5640 1426 D111 0000 		.long	0x11d1
 5641 142a 34        		.uleb128 0x34
 5642 142b 33        		.uleb128 0x33
 5643 142c 8C11 0000 		.long	0x118c
 5644 1430 00        		.byte	0x0
 5645 1431 00        		.byte	0x0
 5646 1432 00        		.byte	0x0
 5647 1433 00        		.byte	0x0
 5648 1434 35        		.uleb128 0x35
 5649 1435 01        		.byte	0x1
 5650 1436 0000 0000 		.long	.LASF207
 5651 143a 01        		.byte	0x1
 5652 143b 71        		.byte	0x71
GAS LISTING /var/folders/1s/lqjcb7x5323625d47g9gdgmr0000gp/T//ccQR4rtp.s 			page 101


 5653 143c 0000 0000 		.long	.LASF209
 5654 1440 0000 0000 		.long	.LFB76
 5655 1444 0000 0000 		.long	.LFE76
 5656 1448 02        		.byte	0x2
 5657 1449 90        		.byte	0x90
 5658 144a 20        		.uleb128 0x20
 5659 144b 36        		.uleb128 0x36
 5660 144c 01        		.byte	0x1
 5661 144d 0000 0000 		.long	.LASF206
 5662 1451 01        		.byte	0x1
 5663 1452 76        		.byte	0x76
 5664 1453 0000 0000 		.long	.LFB77
 5665 1457 0000 0000 		.long	.LFE77
 5666 145b 02        		.byte	0x2
 5667 145c 90        		.byte	0x90
 5668 145d 20        		.uleb128 0x20
 5669 145e B414 0000 		.long	0x14b4
 5670 1462 37        		.uleb128 0x37
 5671 1463 0000 0000 		.long	.LBB127
 5672 1467 0000 0000 		.long	.LBE127
 5673 146b 9C14 0000 		.long	0x149c
 5674 146f 38        		.uleb128 0x38
 5675 1470 6300      		.string	"c"
 5676 1472 01        		.byte	0x1
 5677 1473 81        		.byte	0x81
 5678 1474 5700 0000 		.long	0x57
 5679 1478 0000 0000 		.long	.LLST2
 5680 147c 39        		.uleb128 0x39
 5681 147d 9C11 0000 		.long	0x119c
 5682 1481 0000 0000 		.long	.LBB128
 5683 1485 0000 0000 		.long	.LBE128
 5684 1489 01        		.byte	0x1
 5685 148a 82        		.byte	0x82
 5686 148b 33        		.uleb128 0x33
 5687 148c B211 0000 		.long	0x11b2
 5688 1490 33        		.uleb128 0x33
 5689 1491 A911 0000 		.long	0x11a9
 5690 1495 3A        		.uleb128 0x3a
 5691 1496 BD11 0000 		.long	0x11bd
 5692 149a 00        		.byte	0x0
 5693 149b 00        		.byte	0x0
 5694 149c 3B        		.uleb128 0x3b
 5695 149d 0000 0000 		.long	.LBB131
 5696 14a1 0000 0000 		.long	.LBE131
 5697 14a5 38        		.uleb128 0x38
 5698 14a6 6300      		.string	"c"
 5699 14a8 01        		.byte	0x1
 5700 14a9 84        		.byte	0x84
 5701 14aa 5700 0000 		.long	0x57
 5702 14ae 0000 0000 		.long	.LLST3
 5703 14b2 00        		.byte	0x0
 5704 14b3 00        		.byte	0x0
 5705 14b4 35        		.uleb128 0x35
 5706 14b5 01        		.byte	0x1
 5707 14b6 0000 0000 		.long	.LASF208
 5708 14ba 01        		.byte	0x1
 5709 14bb 96        		.byte	0x96
GAS LISTING /var/folders/1s/lqjcb7x5323625d47g9gdgmr0000gp/T//ccQR4rtp.s 			page 102


 5710 14bc 0000 0000 		.long	.LASF210
 5711 14c0 0000 0000 		.long	.LFB78
 5712 14c4 0000 0000 		.long	.LFE78
 5713 14c8 02        		.byte	0x2
 5714 14c9 90        		.byte	0x90
 5715 14ca 20        		.uleb128 0x20
 5716 14cb 36        		.uleb128 0x36
 5717 14cc 01        		.byte	0x1
 5718 14cd 0000 0000 		.long	.LASF211
 5719 14d1 01        		.byte	0x1
 5720 14d2 98        		.byte	0x98
 5721 14d3 0000 0000 		.long	.LFB79
 5722 14d7 0000 0000 		.long	.LFE79
 5723 14db 02        		.byte	0x2
 5724 14dc 90        		.byte	0x90
 5725 14dd 20        		.uleb128 0x20
 5726 14de 3415 0000 		.long	0x1534
 5727 14e2 37        		.uleb128 0x37
 5728 14e3 0000 0000 		.long	.LBB133
 5729 14e7 0000 0000 		.long	.LBE133
 5730 14eb 1C15 0000 		.long	0x151c
 5731 14ef 38        		.uleb128 0x38
 5732 14f0 6300      		.string	"c"
 5733 14f2 01        		.byte	0x1
 5734 14f3 9B        		.byte	0x9b
 5735 14f4 5700 0000 		.long	0x57
 5736 14f8 0000 0000 		.long	.LLST6
 5737 14fc 39        		.uleb128 0x39
 5738 14fd 9C11 0000 		.long	0x119c
 5739 1501 0000 0000 		.long	.LBB134
 5740 1505 0000 0000 		.long	.LBE134
 5741 1509 01        		.byte	0x1
 5742 150a 9C        		.byte	0x9c
 5743 150b 33        		.uleb128 0x33
 5744 150c B211 0000 		.long	0x11b2
 5745 1510 33        		.uleb128 0x33
 5746 1511 A911 0000 		.long	0x11a9
 5747 1515 3A        		.uleb128 0x3a
 5748 1516 BD11 0000 		.long	0x11bd
 5749 151a 00        		.byte	0x0
 5750 151b 00        		.byte	0x0
 5751 151c 3B        		.uleb128 0x3b
 5752 151d 0000 0000 		.long	.LBB137
 5753 1521 0000 0000 		.long	.LBE137
 5754 1525 38        		.uleb128 0x38
 5755 1526 6300      		.string	"c"
 5756 1528 01        		.byte	0x1
 5757 1529 9E        		.byte	0x9e
 5758 152a 5700 0000 		.long	0x57
 5759 152e 0000 0000 		.long	.LLST7
 5760 1532 00        		.byte	0x0
 5761 1533 00        		.byte	0x0
 5762 1534 35        		.uleb128 0x35
 5763 1535 01        		.byte	0x1
 5764 1536 0000 0000 		.long	.LASF212
 5765 153a 01        		.byte	0x1
 5766 153b A7        		.byte	0xa7
GAS LISTING /var/folders/1s/lqjcb7x5323625d47g9gdgmr0000gp/T//ccQR4rtp.s 			page 103


 5767 153c 0000 0000 		.long	.LASF213
 5768 1540 0000 0000 		.long	.LFB80
 5769 1544 0000 0000 		.long	.LFE80
 5770 1548 02        		.byte	0x2
 5771 1549 90        		.byte	0x90
 5772 154a 20        		.uleb128 0x20
 5773 154b 36        		.uleb128 0x36
 5774 154c 01        		.byte	0x1
 5775 154d 0000 0000 		.long	.LASF214
 5776 1551 01        		.byte	0x1
 5777 1552 A9        		.byte	0xa9
 5778 1553 0000 0000 		.long	.LFB81
 5779 1557 0000 0000 		.long	.LFE81
 5780 155b 02        		.byte	0x2
 5781 155c 90        		.byte	0x90
 5782 155d 20        		.uleb128 0x20
 5783 155e B415 0000 		.long	0x15b4
 5784 1562 37        		.uleb128 0x37
 5785 1563 0000 0000 		.long	.LBB139
 5786 1567 0000 0000 		.long	.LBE139
 5787 156b 9C15 0000 		.long	0x159c
 5788 156f 38        		.uleb128 0x38
 5789 1570 6300      		.string	"c"
 5790 1572 01        		.byte	0x1
 5791 1573 AC        		.byte	0xac
 5792 1574 5700 0000 		.long	0x57
 5793 1578 0000 0000 		.long	.LLST10
 5794 157c 39        		.uleb128 0x39
 5795 157d 9C11 0000 		.long	0x119c
 5796 1581 0000 0000 		.long	.LBB140
 5797 1585 0000 0000 		.long	.LBE140
 5798 1589 01        		.byte	0x1
 5799 158a AD        		.byte	0xad
 5800 158b 33        		.uleb128 0x33
 5801 158c B211 0000 		.long	0x11b2
 5802 1590 33        		.uleb128 0x33
 5803 1591 A911 0000 		.long	0x11a9
 5804 1595 3A        		.uleb128 0x3a
 5805 1596 BD11 0000 		.long	0x11bd
 5806 159a 00        		.byte	0x0
 5807 159b 00        		.byte	0x0
 5808 159c 3B        		.uleb128 0x3b
 5809 159d 0000 0000 		.long	.LBB143
 5810 15a1 0000 0000 		.long	.LBE143
 5811 15a5 38        		.uleb128 0x38
 5812 15a6 6300      		.string	"c"
 5813 15a8 01        		.byte	0x1
 5814 15a9 AF        		.byte	0xaf
 5815 15aa 5700 0000 		.long	0x57
 5816 15ae 0000 0000 		.long	.LLST11
 5817 15b2 00        		.byte	0x0
 5818 15b3 00        		.byte	0x0
 5819 15b4 35        		.uleb128 0x35
 5820 15b5 01        		.byte	0x1
 5821 15b6 0000 0000 		.long	.LASF215
 5822 15ba 01        		.byte	0x1
 5823 15bb B8        		.byte	0xb8
GAS LISTING /var/folders/1s/lqjcb7x5323625d47g9gdgmr0000gp/T//ccQR4rtp.s 			page 104


 5824 15bc 0000 0000 		.long	.LASF216
 5825 15c0 0000 0000 		.long	.LFB82
 5826 15c4 0000 0000 		.long	.LFE82
 5827 15c8 02        		.byte	0x2
 5828 15c9 90        		.byte	0x90
 5829 15ca 20        		.uleb128 0x20
 5830 15cb 36        		.uleb128 0x36
 5831 15cc 01        		.byte	0x1
 5832 15cd 0000 0000 		.long	.LASF217
 5833 15d1 01        		.byte	0x1
 5834 15d2 BA        		.byte	0xba
 5835 15d3 0000 0000 		.long	.LFB83
 5836 15d7 0000 0000 		.long	.LFE83
 5837 15db 02        		.byte	0x2
 5838 15dc 90        		.byte	0x90
 5839 15dd 20        		.uleb128 0x20
 5840 15de 3416 0000 		.long	0x1634
 5841 15e2 37        		.uleb128 0x37
 5842 15e3 0000 0000 		.long	.LBB145
 5843 15e7 0000 0000 		.long	.LBE145
 5844 15eb 1C16 0000 		.long	0x161c
 5845 15ef 38        		.uleb128 0x38
 5846 15f0 6300      		.string	"c"
 5847 15f2 01        		.byte	0x1
 5848 15f3 BD        		.byte	0xbd
 5849 15f4 5700 0000 		.long	0x57
 5850 15f8 0000 0000 		.long	.LLST14
 5851 15fc 39        		.uleb128 0x39
 5852 15fd 9C11 0000 		.long	0x119c
 5853 1601 0000 0000 		.long	.LBB146
 5854 1605 0000 0000 		.long	.LBE146
 5855 1609 01        		.byte	0x1
 5856 160a BE        		.byte	0xbe
 5857 160b 33        		.uleb128 0x33
 5858 160c B211 0000 		.long	0x11b2
 5859 1610 33        		.uleb128 0x33
 5860 1611 A911 0000 		.long	0x11a9
 5861 1615 3A        		.uleb128 0x3a
 5862 1616 BD11 0000 		.long	0x11bd
 5863 161a 00        		.byte	0x0
 5864 161b 00        		.byte	0x0
 5865 161c 3B        		.uleb128 0x3b
 5866 161d 0000 0000 		.long	.LBB149
 5867 1621 0000 0000 		.long	.LBE149
 5868 1625 38        		.uleb128 0x38
 5869 1626 6300      		.string	"c"
 5870 1628 01        		.byte	0x1
 5871 1629 C0        		.byte	0xc0
 5872 162a 5700 0000 		.long	0x57
 5873 162e 0000 0000 		.long	.LLST15
 5874 1632 00        		.byte	0x0
 5875 1633 00        		.byte	0x0
 5876 1634 3C        		.uleb128 0x3c
 5877 1635 01        		.byte	0x1
 5878 1636 0000 0000 		.long	.LASF218
 5879 163a 01        		.byte	0x1
 5880 163b C7        		.byte	0xc7
GAS LISTING /var/folders/1s/lqjcb7x5323625d47g9gdgmr0000gp/T//ccQR4rtp.s 			page 105


 5881 163c 0000 0000 		.long	.LASF219
 5882 1640 0000 0000 		.long	.LFB84
 5883 1644 0000 0000 		.long	.LFE84
 5884 1648 02        		.byte	0x2
 5885 1649 90        		.byte	0x90
 5886 164a 20        		.uleb128 0x20
 5887 164b B016 0000 		.long	0x16b0
 5888 164f 3D        		.uleb128 0x3d
 5889 1650 E111 0000 		.long	0x11e1
 5890 1654 0000 0000 		.long	.LBB158
 5891 1658 0000 0000 		.long	.LBE158
 5892 165c 01        		.byte	0x1
 5893 165d CA        		.byte	0xca
 5894 165e 6816 0000 		.long	0x1668
 5895 1662 33        		.uleb128 0x33
 5896 1663 EB11 0000 		.long	0x11eb
 5897 1667 00        		.byte	0x0
 5898 1668 3D        		.uleb128 0x3d
 5899 1669 E111 0000 		.long	0x11e1
 5900 166d 0000 0000 		.long	.LBB160
 5901 1671 0000 0000 		.long	.LBE160
 5902 1675 01        		.byte	0x1
 5903 1676 CD        		.byte	0xcd
 5904 1677 8116 0000 		.long	0x1681
 5905 167b 33        		.uleb128 0x33
 5906 167c EB11 0000 		.long	0x11eb
 5907 1680 00        		.byte	0x0
 5908 1681 3D        		.uleb128 0x3d
 5909 1682 E111 0000 		.long	0x11e1
 5910 1686 0000 0000 		.long	.LBB162
 5911 168a 0000 0000 		.long	.LBE162
 5912 168e 01        		.byte	0x1
 5913 168f D0        		.byte	0xd0
 5914 1690 9A16 0000 		.long	0x169a
 5915 1694 33        		.uleb128 0x33
 5916 1695 EB11 0000 		.long	0x11eb
 5917 1699 00        		.byte	0x0
 5918 169a 39        		.uleb128 0x39
 5919 169b E111 0000 		.long	0x11e1
 5920 169f 0000 0000 		.long	.LBB164
 5921 16a3 0000 0000 		.long	.LBE164
 5922 16a7 01        		.byte	0x1
 5923 16a8 D3        		.byte	0xd3
 5924 16a9 33        		.uleb128 0x33
 5925 16aa EB11 0000 		.long	0x11eb
 5926 16ae 00        		.byte	0x0
 5927 16af 00        		.byte	0x0
 5928 16b0 36        		.uleb128 0x36
 5929 16b1 01        		.byte	0x1
 5930 16b2 0000 0000 		.long	.LASF220
 5931 16b6 01        		.byte	0x1
 5932 16b7 E3        		.byte	0xe3
 5933 16b8 0000 0000 		.long	.LFB85
 5934 16bc 0000 0000 		.long	.LFE85
 5935 16c0 02        		.byte	0x2
 5936 16c1 90        		.byte	0x90
 5937 16c2 20        		.uleb128 0x20
GAS LISTING /var/folders/1s/lqjcb7x5323625d47g9gdgmr0000gp/T//ccQR4rtp.s 			page 106


 5938 16c3 DF16 0000 		.long	0x16df
 5939 16c7 3B        		.uleb128 0x3b
 5940 16c8 0000 0000 		.long	.LBB167
 5941 16cc 0000 0000 		.long	.LBE167
 5942 16d0 38        		.uleb128 0x38
 5943 16d1 6300      		.string	"c"
 5944 16d3 01        		.byte	0x1
 5945 16d4 F2        		.byte	0xf2
 5946 16d5 5700 0000 		.long	0x57
 5947 16d9 0000 0000 		.long	.LLST18
 5948 16dd 00        		.byte	0x0
 5949 16de 00        		.byte	0x0
 5950 16df 3E        		.uleb128 0x3e
 5951 16e0 01        		.byte	0x1
 5952 16e1 0000 0000 		.long	.LASF221
 5953 16e5 01        		.byte	0x1
 5954 16e6 0201      		.word	0x102
 5955 16e8 0000 0000 		.long	.LFB86
 5956 16ec 0000 0000 		.long	.LFE86
 5957 16f0 02        		.byte	0x2
 5958 16f1 90        		.byte	0x90
 5959 16f2 20        		.uleb128 0x20
 5960 16f3 1017 0000 		.long	0x1710
 5961 16f7 3B        		.uleb128 0x3b
 5962 16f8 0000 0000 		.long	.LBB169
 5963 16fc 0000 0000 		.long	.LBE169
 5964 1700 3F        		.uleb128 0x3f
 5965 1701 6300      		.string	"c"
 5966 1703 01        		.byte	0x1
 5967 1704 0A01      		.word	0x10a
 5968 1706 5700 0000 		.long	0x57
 5969 170a 0000 0000 		.long	.LLST20
 5970 170e 00        		.byte	0x0
 5971 170f 00        		.byte	0x0
 5972 1710 3E        		.uleb128 0x3e
 5973 1711 01        		.byte	0x1
 5974 1712 0000 0000 		.long	.LASF222
 5975 1716 01        		.byte	0x1
 5976 1717 1301      		.word	0x113
 5977 1719 0000 0000 		.long	.LFB87
 5978 171d 0000 0000 		.long	.LFE87
 5979 1721 02        		.byte	0x2
 5980 1722 90        		.byte	0x90
 5981 1723 20        		.uleb128 0x20
 5982 1724 4117 0000 		.long	0x1741
 5983 1728 3B        		.uleb128 0x3b
 5984 1729 0000 0000 		.long	.LBB171
 5985 172d 0000 0000 		.long	.LBE171
 5986 1731 3F        		.uleb128 0x3f
 5987 1732 6300      		.string	"c"
 5988 1734 01        		.byte	0x1
 5989 1735 1B01      		.word	0x11b
 5990 1737 5700 0000 		.long	0x57
 5991 173b 0000 0000 		.long	.LLST22
 5992 173f 00        		.byte	0x0
 5993 1740 00        		.byte	0x0
 5994 1741 3E        		.uleb128 0x3e
GAS LISTING /var/folders/1s/lqjcb7x5323625d47g9gdgmr0000gp/T//ccQR4rtp.s 			page 107


 5995 1742 01        		.byte	0x1
 5996 1743 0000 0000 		.long	.LASF223
 5997 1747 01        		.byte	0x1
 5998 1748 2401      		.word	0x124
 5999 174a 0000 0000 		.long	.LFB88
 6000 174e 0000 0000 		.long	.LFE88
 6001 1752 02        		.byte	0x2
 6002 1753 90        		.byte	0x90
 6003 1754 20        		.uleb128 0x20
 6004 1755 7217 0000 		.long	0x1772
 6005 1759 3B        		.uleb128 0x3b
 6006 175a 0000 0000 		.long	.LBB173
 6007 175e 0000 0000 		.long	.LBE173
 6008 1762 3F        		.uleb128 0x3f
 6009 1763 6300      		.string	"c"
 6010 1765 01        		.byte	0x1
 6011 1766 2C01      		.word	0x12c
 6012 1768 5700 0000 		.long	0x57
 6013 176c 0000 0000 		.long	.LLST24
 6014 1770 00        		.byte	0x0
 6015 1771 00        		.byte	0x0
 6016 1772 40        		.uleb128 0x40
 6017 1773 FB11 0000 		.long	0x11fb
 6018 1777 0000 0000 		.long	.LFB90
 6019 177b 0000 0000 		.long	.LFE90
 6020 177f 02        		.byte	0x2
 6021 1780 90        		.byte	0x90
 6022 1781 20        		.uleb128 0x20
 6023 1782 3418 0000 		.long	0x1834
 6024 1786 41        		.uleb128 0x41
 6025 1787 0512 0000 		.long	0x1205
 6026 178b 0000 0000 		.long	.LLST26
 6027 178f 42        		.uleb128 0x42
 6028 1790 0F12 0000 		.long	0x120f
 6029 1794 06        		.byte	0x6
 6030 1795 66        		.byte	0x66
 6031 1796 93        		.byte	0x93
 6032 1797 01        		.uleb128 0x1
 6033 1798 67        		.byte	0x67
 6034 1799 93        		.byte	0x93
 6035 179a 01        		.uleb128 0x1
 6036 179b 42        		.uleb128 0x42
 6037 179c 1B12 0000 		.long	0x121b
 6038 17a0 06        		.byte	0x6
 6039 17a1 64        		.byte	0x64
 6040 17a2 93        		.byte	0x93
 6041 17a3 01        		.uleb128 0x1
 6042 17a4 65        		.byte	0x65
 6043 17a5 93        		.byte	0x93
 6044 17a6 01        		.uleb128 0x1
 6045 17a7 42        		.uleb128 0x42
 6046 17a8 2712 0000 		.long	0x1227
 6047 17ac 06        		.byte	0x6
 6048 17ad 62        		.byte	0x62
 6049 17ae 93        		.byte	0x93
 6050 17af 01        		.uleb128 0x1
 6051 17b0 63        		.byte	0x63
GAS LISTING /var/folders/1s/lqjcb7x5323625d47g9gdgmr0000gp/T//ccQR4rtp.s 			page 108


 6052 17b1 93        		.byte	0x93
 6053 17b2 01        		.uleb128 0x1
 6054 17b3 41        		.uleb128 0x41
 6055 17b4 3312 0000 		.long	0x1233
 6056 17b8 0000 0000 		.long	.LLST27
 6057 17bc 41        		.uleb128 0x41
 6058 17bd 3F12 0000 		.long	0x123f
 6059 17c1 0000 0000 		.long	.LLST28
 6060 17c5 41        		.uleb128 0x41
 6061 17c6 4B12 0000 		.long	0x124b
 6062 17ca 0000 0000 		.long	.LLST29
 6063 17ce 41        		.uleb128 0x41
 6064 17cf 5712 0000 		.long	0x1257
 6065 17d3 0000 0000 		.long	.LLST30
 6066 17d7 41        		.uleb128 0x41
 6067 17d8 6312 0000 		.long	0x1263
 6068 17dc 0000 0000 		.long	.LLST31
 6069 17e0 42        		.uleb128 0x42
 6070 17e1 6F12 0000 		.long	0x126f
 6071 17e5 02        		.byte	0x2
 6072 17e6 91        		.byte	0x91
 6073 17e7 10        		.sleb128 16
 6074 17e8 42        		.uleb128 0x42
 6075 17e9 7B12 0000 		.long	0x127b
 6076 17ed 02        		.byte	0x2
 6077 17ee 91        		.byte	0x91
 6078 17ef 11        		.sleb128 17
 6079 17f0 42        		.uleb128 0x42
 6080 17f1 8712 0000 		.long	0x1287
 6081 17f5 02        		.byte	0x2
 6082 17f6 91        		.byte	0x91
 6083 17f7 12        		.sleb128 18
 6084 17f8 42        		.uleb128 0x42
 6085 17f9 9312 0000 		.long	0x1293
 6086 17fd 02        		.byte	0x2
 6087 17fe 91        		.byte	0x91
 6088 17ff 13        		.sleb128 19
 6089 1800 42        		.uleb128 0x42
 6090 1801 9F12 0000 		.long	0x129f
 6091 1805 02        		.byte	0x2
 6092 1806 91        		.byte	0x91
 6093 1807 14        		.sleb128 20
 6094 1808 43        		.uleb128 0x43
 6095 1809 C711 0000 		.long	0x11c7
 6096 180d 0000 0000 		.long	.LBB175
 6097 1811 0000 0000 		.long	.LBE175
 6098 1815 01        		.byte	0x1
 6099 1816 3B01      		.word	0x13b
 6100 1818 33        		.uleb128 0x33
 6101 1819 D111 0000 		.long	0x11d1
 6102 181d 39        		.uleb128 0x39
 6103 181e 8211 0000 		.long	0x1182
 6104 1822 0000 0000 		.long	.LBB178
 6105 1826 0000 0000 		.long	.LBE178
 6106 182a 03        		.byte	0x3
 6107 182b 35        		.byte	0x35
 6108 182c 33        		.uleb128 0x33
GAS LISTING /var/folders/1s/lqjcb7x5323625d47g9gdgmr0000gp/T//ccQR4rtp.s 			page 109


 6109 182d 8C11 0000 		.long	0x118c
 6110 1831 00        		.byte	0x0
 6111 1832 00        		.byte	0x0
 6112 1833 00        		.byte	0x0
 6113 1834 40        		.uleb128 0x40
 6114 1835 FB11 0000 		.long	0x11fb
 6115 1839 0000 0000 		.long	.LFB91
 6116 183d 0000 0000 		.long	.LFE91
 6117 1841 02        		.byte	0x2
 6118 1842 90        		.byte	0x90
 6119 1843 20        		.uleb128 0x20
 6120 1844 F618 0000 		.long	0x18f6
 6121 1848 41        		.uleb128 0x41
 6122 1849 0512 0000 		.long	0x1205
 6123 184d 0000 0000 		.long	.LLST33
 6124 1851 42        		.uleb128 0x42
 6125 1852 0F12 0000 		.long	0x120f
 6126 1856 06        		.byte	0x6
 6127 1857 66        		.byte	0x66
 6128 1858 93        		.byte	0x93
 6129 1859 01        		.uleb128 0x1
 6130 185a 67        		.byte	0x67
 6131 185b 93        		.byte	0x93
 6132 185c 01        		.uleb128 0x1
 6133 185d 42        		.uleb128 0x42
 6134 185e 1B12 0000 		.long	0x121b
 6135 1862 06        		.byte	0x6
 6136 1863 64        		.byte	0x64
 6137 1864 93        		.byte	0x93
 6138 1865 01        		.uleb128 0x1
 6139 1866 65        		.byte	0x65
 6140 1867 93        		.byte	0x93
 6141 1868 01        		.uleb128 0x1
 6142 1869 42        		.uleb128 0x42
 6143 186a 2712 0000 		.long	0x1227
 6144 186e 06        		.byte	0x6
 6145 186f 62        		.byte	0x62
 6146 1870 93        		.byte	0x93
 6147 1871 01        		.uleb128 0x1
 6148 1872 63        		.byte	0x63
 6149 1873 93        		.byte	0x93
 6150 1874 01        		.uleb128 0x1
 6151 1875 41        		.uleb128 0x41
 6152 1876 3312 0000 		.long	0x1233
 6153 187a 0000 0000 		.long	.LLST34
 6154 187e 41        		.uleb128 0x41
 6155 187f 3F12 0000 		.long	0x123f
 6156 1883 0000 0000 		.long	.LLST35
 6157 1887 41        		.uleb128 0x41
 6158 1888 4B12 0000 		.long	0x124b
 6159 188c 0000 0000 		.long	.LLST36
 6160 1890 41        		.uleb128 0x41
 6161 1891 5712 0000 		.long	0x1257
 6162 1895 0000 0000 		.long	.LLST37
 6163 1899 41        		.uleb128 0x41
 6164 189a 6312 0000 		.long	0x1263
 6165 189e 0000 0000 		.long	.LLST38
GAS LISTING /var/folders/1s/lqjcb7x5323625d47g9gdgmr0000gp/T//ccQR4rtp.s 			page 110


 6166 18a2 42        		.uleb128 0x42
 6167 18a3 6F12 0000 		.long	0x126f
 6168 18a7 02        		.byte	0x2
 6169 18a8 91        		.byte	0x91
 6170 18a9 10        		.sleb128 16
 6171 18aa 42        		.uleb128 0x42
 6172 18ab 7B12 0000 		.long	0x127b
 6173 18af 02        		.byte	0x2
 6174 18b0 91        		.byte	0x91
 6175 18b1 11        		.sleb128 17
 6176 18b2 42        		.uleb128 0x42
 6177 18b3 8712 0000 		.long	0x1287
 6178 18b7 02        		.byte	0x2
 6179 18b8 91        		.byte	0x91
 6180 18b9 12        		.sleb128 18
 6181 18ba 42        		.uleb128 0x42
 6182 18bb 9312 0000 		.long	0x1293
 6183 18bf 02        		.byte	0x2
 6184 18c0 91        		.byte	0x91
 6185 18c1 13        		.sleb128 19
 6186 18c2 42        		.uleb128 0x42
 6187 18c3 9F12 0000 		.long	0x129f
 6188 18c7 02        		.byte	0x2
 6189 18c8 91        		.byte	0x91
 6190 18c9 14        		.sleb128 20
 6191 18ca 43        		.uleb128 0x43
 6192 18cb C711 0000 		.long	0x11c7
 6193 18cf 0000 0000 		.long	.LBB182
 6194 18d3 0000 0000 		.long	.LBE182
 6195 18d7 01        		.byte	0x1
 6196 18d8 3B01      		.word	0x13b
 6197 18da 33        		.uleb128 0x33
 6198 18db D111 0000 		.long	0x11d1
 6199 18df 39        		.uleb128 0x39
 6200 18e0 8211 0000 		.long	0x1182
 6201 18e4 0000 0000 		.long	.LBB185
 6202 18e8 0000 0000 		.long	.LBE185
 6203 18ec 03        		.byte	0x3
 6204 18ed 35        		.byte	0x35
 6205 18ee 33        		.uleb128 0x33
 6206 18ef 8C11 0000 		.long	0x118c
 6207 18f3 00        		.byte	0x0
 6208 18f4 00        		.byte	0x0
 6209 18f5 00        		.byte	0x0
 6210 18f6 44        		.uleb128 0x44
 6211 18f7 880C 0000 		.long	0xc88
 6212 18fb 0000 0000 		.long	.LFB92
 6213 18ff 0000 0000 		.long	.LFE92
 6214 1903 02        		.byte	0x2
 6215 1904 90        		.byte	0x90
 6216 1905 20        		.uleb128 0x20
 6217 1906 4919 0000 		.long	0x1949
 6218 190a 45        		.uleb128 0x45
 6219 190b 0000 0000 		.long	.LASF192
 6220 190f F611 0000 		.long	0x11f6
 6221 1913 01        		.byte	0x1
 6222 1914 0000 0000 		.long	.LLST40
GAS LISTING /var/folders/1s/lqjcb7x5323625d47g9gdgmr0000gp/T//ccQR4rtp.s 			page 111


 6223 1918 46        		.uleb128 0x46
 6224 1919 0000 0000 		.long	.LASF226
 6225 191d 01        		.byte	0x1
 6226 191e 4E01      		.word	0x14e
 6227 1920 6900 0000 		.long	0x69
 6228 1924 0000 0000 		.long	.LLST41
 6229 1928 47        		.uleb128 0x47
 6230 1929 0000 0000 		.long	.LASF224
 6231 192d 01        		.byte	0x1
 6232 192e 5001      		.word	0x150
 6233 1930 5E00 0000 		.long	0x5e
 6234 1934 0000 0000 		.long	.LLST42
 6235 1938 47        		.uleb128 0x47
 6236 1939 0000 0000 		.long	.LASF225
 6237 193d 01        		.byte	0x1
 6238 193e 5101      		.word	0x151
 6239 1940 5211 0000 		.long	0x1152
 6240 1944 0000 0000 		.long	.LLST43
 6241 1948 00        		.byte	0x0
 6242 1949 44        		.uleb128 0x44
 6243 194a A60C 0000 		.long	0xca6
 6244 194e 0000 0000 		.long	.LFB93
 6245 1952 0000 0000 		.long	.LFE93
 6246 1956 02        		.byte	0x2
 6247 1957 90        		.byte	0x90
 6248 1958 20        		.uleb128 0x20
 6249 1959 B819 0000 		.long	0x19b8
 6250 195d 45        		.uleb128 0x45
 6251 195e 0000 0000 		.long	.LASF192
 6252 1962 F611 0000 		.long	0x11f6
 6253 1966 01        		.byte	0x1
 6254 1967 0000 0000 		.long	.LLST45
 6255 196b 46        		.uleb128 0x46
 6256 196c 0000 0000 		.long	.LASF226
 6257 1970 01        		.byte	0x1
 6258 1971 7801      		.word	0x178
 6259 1973 6900 0000 		.long	0x69
 6260 1977 0000 0000 		.long	.LLST46
 6261 197b 46        		.uleb128 0x46
 6262 197c 0000 0000 		.long	.LASF227
 6263 1980 01        		.byte	0x1
 6264 1981 7801      		.word	0x178
 6265 1983 9100 0000 		.long	0x91
 6266 1987 0000 0000 		.long	.LLST47
 6267 198b 47        		.uleb128 0x47
 6268 198c 0000 0000 		.long	.LASF224
 6269 1990 01        		.byte	0x1
 6270 1991 7A01      		.word	0x17a
 6271 1993 5E00 0000 		.long	0x5e
 6272 1997 0000 0000 		.long	.LLST48
 6273 199b 48        		.uleb128 0x48
 6274 199c 0000 0000 		.long	.LASF228
 6275 19a0 01        		.byte	0x1
 6276 19a1 7B01      		.word	0x17b
 6277 19a3 4C00 0000 		.long	0x4c
 6278 19a7 47        		.uleb128 0x47
 6279 19a8 0000 0000 		.long	.LASF225
GAS LISTING /var/folders/1s/lqjcb7x5323625d47g9gdgmr0000gp/T//ccQR4rtp.s 			page 112


 6280 19ac 01        		.byte	0x1
 6281 19ad 7C01      		.word	0x17c
 6282 19af 5211 0000 		.long	0x1152
 6283 19b3 0000 0000 		.long	.LLST49
 6284 19b7 00        		.byte	0x0
 6285 19b8 44        		.uleb128 0x44
 6286 19b9 C90C 0000 		.long	0xcc9
 6287 19bd 0000 0000 		.long	.LFB94
 6288 19c1 0000 0000 		.long	.LFE94
 6289 19c5 02        		.byte	0x2
 6290 19c6 90        		.byte	0x90
 6291 19c7 20        		.uleb128 0x20
 6292 19c8 DB19 0000 		.long	0x19db
 6293 19cc 45        		.uleb128 0x45
 6294 19cd 0000 0000 		.long	.LASF192
 6295 19d1 F611 0000 		.long	0x11f6
 6296 19d5 01        		.byte	0x1
 6297 19d6 0000 0000 		.long	.LLST51
 6298 19da 00        		.byte	0x0
 6299 19db 40        		.uleb128 0x40
 6300 19dc E111 0000 		.long	0x11e1
 6301 19e0 0000 0000 		.long	.LFB95
 6302 19e4 0000 0000 		.long	.LFE95
 6303 19e8 02        		.byte	0x2
 6304 19e9 90        		.byte	0x90
 6305 19ea 20        		.uleb128 0x20
 6306 19eb F919 0000 		.long	0x19f9
 6307 19ef 41        		.uleb128 0x41
 6308 19f0 EB11 0000 		.long	0x11eb
 6309 19f4 0000 0000 		.long	.LLST53
 6310 19f8 00        		.byte	0x0
 6311 19f9 44        		.uleb128 0x44
 6312 19fa 070D 0000 		.long	0xd07
 6313 19fe 0000 0000 		.long	.LFB96
 6314 1a02 0000 0000 		.long	.LFE96
 6315 1a06 02        		.byte	0x2
 6316 1a07 90        		.byte	0x90
 6317 1a08 20        		.uleb128 0x20
 6318 1a09 1C1A 0000 		.long	0x1a1c
 6319 1a0d 45        		.uleb128 0x45
 6320 1a0e 0000 0000 		.long	.LASF192
 6321 1a12 F611 0000 		.long	0x11f6
 6322 1a16 01        		.byte	0x1
 6323 1a17 0000 0000 		.long	.LLST55
 6324 1a1b 00        		.byte	0x0
 6325 1a1c 44        		.uleb128 0x44
 6326 1a1d 2C0D 0000 		.long	0xd2c
 6327 1a21 0000 0000 		.long	.LFB97
 6328 1a25 0000 0000 		.long	.LFE97
 6329 1a29 02        		.byte	0x2
 6330 1a2a 90        		.byte	0x90
 6331 1a2b 20        		.uleb128 0x20
 6332 1a2c 571A 0000 		.long	0x1a57
 6333 1a30 45        		.uleb128 0x45
 6334 1a31 0000 0000 		.long	.LASF192
 6335 1a35 F611 0000 		.long	0x11f6
 6336 1a39 01        		.byte	0x1
GAS LISTING /var/folders/1s/lqjcb7x5323625d47g9gdgmr0000gp/T//ccQR4rtp.s 			page 113


 6337 1a3a 0000 0000 		.long	.LLST57
 6338 1a3e 3B        		.uleb128 0x3b
 6339 1a3f 0000 0000 		.long	.LBB191
 6340 1a43 0000 0000 		.long	.LBE191
 6341 1a47 3F        		.uleb128 0x3f
 6342 1a48 6300      		.string	"c"
 6343 1a4a 01        		.byte	0x1
 6344 1a4b CA01      		.word	0x1ca
 6345 1a4d 5700 0000 		.long	0x57
 6346 1a51 0000 0000 		.long	.LLST58
 6347 1a55 00        		.byte	0x0
 6348 1a56 00        		.byte	0x0
 6349 1a57 44        		.uleb128 0x44
 6350 1a58 510D 0000 		.long	0xd51
 6351 1a5c 0000 0000 		.long	.LFB98
 6352 1a60 0000 0000 		.long	.LFE98
 6353 1a64 02        		.byte	0x2
 6354 1a65 90        		.byte	0x90
 6355 1a66 20        		.uleb128 0x20
 6356 1a67 7A1A 0000 		.long	0x1a7a
 6357 1a6b 45        		.uleb128 0x45
 6358 1a6c 0000 0000 		.long	.LASF192
 6359 1a70 F611 0000 		.long	0x11f6
 6360 1a74 01        		.byte	0x1
 6361 1a75 0000 0000 		.long	.LLST60
 6362 1a79 00        		.byte	0x0
 6363 1a7a 44        		.uleb128 0x44
 6364 1a7b 720D 0000 		.long	0xd72
 6365 1a7f 0000 0000 		.long	.LFB99
 6366 1a83 0000 0000 		.long	.LFE99
 6367 1a87 02        		.byte	0x2
 6368 1a88 90        		.byte	0x90
 6369 1a89 20        		.uleb128 0x20
 6370 1a8a B71A 0000 		.long	0x1ab7
 6371 1a8e 45        		.uleb128 0x45
 6372 1a8f 0000 0000 		.long	.LASF192
 6373 1a93 F611 0000 		.long	0x11f6
 6374 1a97 01        		.byte	0x1
 6375 1a98 0000 0000 		.long	.LLST62
 6376 1a9c 49        		.uleb128 0x49
 6377 1a9d 6300      		.string	"c"
 6378 1a9f 01        		.byte	0x1
 6379 1aa0 D701      		.word	0x1d7
 6380 1aa2 4C00 0000 		.long	0x4c
 6381 1aa6 01        		.byte	0x1
 6382 1aa7 66        		.byte	0x66
 6383 1aa8 3F        		.uleb128 0x3f
 6384 1aa9 6900      		.string	"i"
 6385 1aab 01        		.byte	0x1
 6386 1aac D901      		.word	0x1d9
 6387 1aae 3700 0000 		.long	0x37
 6388 1ab2 0000 0000 		.long	.LLST63
 6389 1ab6 00        		.byte	0x0
 6390 1ab7 44        		.uleb128 0x44
 6391 1ab8 200E 0000 		.long	0xe20
 6392 1abc 0000 0000 		.long	.LFB100
 6393 1ac0 0000 0000 		.long	.LFE100
GAS LISTING /var/folders/1s/lqjcb7x5323625d47g9gdgmr0000gp/T//ccQR4rtp.s 			page 114


 6394 1ac4 02        		.byte	0x2
 6395 1ac5 90        		.byte	0x90
 6396 1ac6 20        		.uleb128 0x20
 6397 1ac7 DA1A 0000 		.long	0x1ada
 6398 1acb 45        		.uleb128 0x45
 6399 1acc 0000 0000 		.long	.LASF192
 6400 1ad0 F611 0000 		.long	0x11f6
 6401 1ad4 01        		.byte	0x1
 6402 1ad5 0000 0000 		.long	.LLST65
 6403 1ad9 00        		.byte	0x0
 6404 1ada 4A        		.uleb128 0x4a
 6405 1adb 0000 0000 		.long	.LASF249
 6406 1adf 01        		.byte	0x1
 6407 1ae0 0000 0000 		.long	.LFB102
 6408 1ae4 0000 0000 		.long	.LFE102
 6409 1ae8 02        		.byte	0x2
 6410 1ae9 90        		.byte	0x90
 6411 1aea 20        		.uleb128 0x20
 6412 1aeb 1F1D 0000 		.long	0x1d1f
 6413 1aef 43        		.uleb128 0x43
 6414 1af0 AC12 0000 		.long	0x12ac
 6415 1af4 0000 0000 		.long	.LBB193
 6416 1af8 0000 0000 		.long	.LBE193
 6417 1afc 01        		.byte	0x1
 6418 1afd 0302      		.word	0x203
 6419 1aff 33        		.uleb128 0x33
 6420 1b00 C312 0000 		.long	0x12c3
 6421 1b04 33        		.uleb128 0x33
 6422 1b05 B712 0000 		.long	0x12b7
 6423 1b09 4B        		.uleb128 0x4b
 6424 1b0a FB11 0000 		.long	0x11fb
 6425 1b0e 0000 0000 		.long	.LBB195
 6426 1b12 0000 0000 		.long	.LBE195
 6427 1b16 01        		.byte	0x1
 6428 1b17 F501      		.word	0x1f5
 6429 1b19 8F1B 0000 		.long	0x1b8f
 6430 1b1d 33        		.uleb128 0x33
 6431 1b1e 9F12 0000 		.long	0x129f
 6432 1b22 33        		.uleb128 0x33
 6433 1b23 9312 0000 		.long	0x1293
 6434 1b27 33        		.uleb128 0x33
 6435 1b28 8712 0000 		.long	0x1287
 6436 1b2c 33        		.uleb128 0x33
 6437 1b2d 7B12 0000 		.long	0x127b
 6438 1b31 33        		.uleb128 0x33
 6439 1b32 6F12 0000 		.long	0x126f
 6440 1b36 33        		.uleb128 0x33
 6441 1b37 6312 0000 		.long	0x1263
 6442 1b3b 33        		.uleb128 0x33
 6443 1b3c 5712 0000 		.long	0x1257
 6444 1b40 33        		.uleb128 0x33
 6445 1b41 4B12 0000 		.long	0x124b
 6446 1b45 33        		.uleb128 0x33
 6447 1b46 3F12 0000 		.long	0x123f
 6448 1b4a 33        		.uleb128 0x33
 6449 1b4b 3312 0000 		.long	0x1233
 6450 1b4f 33        		.uleb128 0x33
GAS LISTING /var/folders/1s/lqjcb7x5323625d47g9gdgmr0000gp/T//ccQR4rtp.s 			page 115


 6451 1b50 2712 0000 		.long	0x1227
 6452 1b54 33        		.uleb128 0x33
 6453 1b55 1B12 0000 		.long	0x121b
 6454 1b59 33        		.uleb128 0x33
 6455 1b5a 0F12 0000 		.long	0x120f
 6456 1b5e 33        		.uleb128 0x33
 6457 1b5f 0512 0000 		.long	0x1205
 6458 1b63 43        		.uleb128 0x43
 6459 1b64 C711 0000 		.long	0x11c7
 6460 1b68 0000 0000 		.long	.LBB198
 6461 1b6c 0000 0000 		.long	.LBE198
 6462 1b70 01        		.byte	0x1
 6463 1b71 3B01      		.word	0x13b
 6464 1b73 33        		.uleb128 0x33
 6465 1b74 D111 0000 		.long	0x11d1
 6466 1b78 39        		.uleb128 0x39
 6467 1b79 8211 0000 		.long	0x1182
 6468 1b7d 0000 0000 		.long	.LBB201
 6469 1b81 0000 0000 		.long	.LBE201
 6470 1b85 03        		.byte	0x3
 6471 1b86 35        		.byte	0x35
 6472 1b87 33        		.uleb128 0x33
 6473 1b88 8C11 0000 		.long	0x118c
 6474 1b8c 00        		.byte	0x0
 6475 1b8d 00        		.byte	0x0
 6476 1b8e 00        		.byte	0x0
 6477 1b8f 4B        		.uleb128 0x4b
 6478 1b90 FB11 0000 		.long	0x11fb
 6479 1b94 0000 0000 		.long	.LBB204
 6480 1b98 0000 0000 		.long	.LBE204
 6481 1b9c 01        		.byte	0x1
 6482 1b9d FD01      		.word	0x1fd
 6483 1b9f 151C 0000 		.long	0x1c15
 6484 1ba3 33        		.uleb128 0x33
 6485 1ba4 9F12 0000 		.long	0x129f
 6486 1ba8 33        		.uleb128 0x33
 6487 1ba9 9312 0000 		.long	0x1293
 6488 1bad 33        		.uleb128 0x33
 6489 1bae 8712 0000 		.long	0x1287
 6490 1bb2 33        		.uleb128 0x33
 6491 1bb3 7B12 0000 		.long	0x127b
 6492 1bb7 33        		.uleb128 0x33
 6493 1bb8 6F12 0000 		.long	0x126f
 6494 1bbc 33        		.uleb128 0x33
 6495 1bbd 6312 0000 		.long	0x1263
 6496 1bc1 33        		.uleb128 0x33
 6497 1bc2 5712 0000 		.long	0x1257
 6498 1bc6 33        		.uleb128 0x33
 6499 1bc7 4B12 0000 		.long	0x124b
 6500 1bcb 33        		.uleb128 0x33
 6501 1bcc 3F12 0000 		.long	0x123f
 6502 1bd0 33        		.uleb128 0x33
 6503 1bd1 3312 0000 		.long	0x1233
 6504 1bd5 33        		.uleb128 0x33
 6505 1bd6 2712 0000 		.long	0x1227
 6506 1bda 33        		.uleb128 0x33
 6507 1bdb 1B12 0000 		.long	0x121b
GAS LISTING /var/folders/1s/lqjcb7x5323625d47g9gdgmr0000gp/T//ccQR4rtp.s 			page 116


 6508 1bdf 33        		.uleb128 0x33
 6509 1be0 0F12 0000 		.long	0x120f
 6510 1be4 33        		.uleb128 0x33
 6511 1be5 0512 0000 		.long	0x1205
 6512 1be9 43        		.uleb128 0x43
 6513 1bea C711 0000 		.long	0x11c7
 6514 1bee 0000 0000 		.long	.LBB207
 6515 1bf2 0000 0000 		.long	.LBE207
 6516 1bf6 01        		.byte	0x1
 6517 1bf7 3B01      		.word	0x13b
 6518 1bf9 33        		.uleb128 0x33
 6519 1bfa D111 0000 		.long	0x11d1
 6520 1bfe 39        		.uleb128 0x39
 6521 1bff 8211 0000 		.long	0x1182
 6522 1c03 0000 0000 		.long	.LBB210
 6523 1c07 0000 0000 		.long	.LBE210
 6524 1c0b 03        		.byte	0x3
 6525 1c0c 35        		.byte	0x35
 6526 1c0d 33        		.uleb128 0x33
 6527 1c0e 8C11 0000 		.long	0x118c
 6528 1c12 00        		.byte	0x0
 6529 1c13 00        		.byte	0x0
 6530 1c14 00        		.byte	0x0
 6531 1c15 4B        		.uleb128 0x4b
 6532 1c16 FB11 0000 		.long	0x11fb
 6533 1c1a 0000 0000 		.long	.LBB213
 6534 1c1e 0000 0000 		.long	.LBE213
 6535 1c22 01        		.byte	0x1
 6536 1c23 0002      		.word	0x200
 6537 1c25 9B1C 0000 		.long	0x1c9b
 6538 1c29 33        		.uleb128 0x33
 6539 1c2a 9F12 0000 		.long	0x129f
 6540 1c2e 33        		.uleb128 0x33
 6541 1c2f 9312 0000 		.long	0x1293
 6542 1c33 33        		.uleb128 0x33
 6543 1c34 8712 0000 		.long	0x1287
 6544 1c38 33        		.uleb128 0x33
 6545 1c39 7B12 0000 		.long	0x127b
 6546 1c3d 33        		.uleb128 0x33
 6547 1c3e 6F12 0000 		.long	0x126f
 6548 1c42 33        		.uleb128 0x33
 6549 1c43 6312 0000 		.long	0x1263
 6550 1c47 33        		.uleb128 0x33
 6551 1c48 5712 0000 		.long	0x1257
 6552 1c4c 33        		.uleb128 0x33
 6553 1c4d 4B12 0000 		.long	0x124b
 6554 1c51 33        		.uleb128 0x33
 6555 1c52 3F12 0000 		.long	0x123f
 6556 1c56 33        		.uleb128 0x33
 6557 1c57 3312 0000 		.long	0x1233
 6558 1c5b 33        		.uleb128 0x33
 6559 1c5c 2712 0000 		.long	0x1227
 6560 1c60 33        		.uleb128 0x33
 6561 1c61 1B12 0000 		.long	0x121b
 6562 1c65 33        		.uleb128 0x33
 6563 1c66 0F12 0000 		.long	0x120f
 6564 1c6a 33        		.uleb128 0x33
GAS LISTING /var/folders/1s/lqjcb7x5323625d47g9gdgmr0000gp/T//ccQR4rtp.s 			page 117


 6565 1c6b 0512 0000 		.long	0x1205
 6566 1c6f 43        		.uleb128 0x43
 6567 1c70 C711 0000 		.long	0x11c7
 6568 1c74 0000 0000 		.long	.LBB216
 6569 1c78 0000 0000 		.long	.LBE216
 6570 1c7c 01        		.byte	0x1
 6571 1c7d 3B01      		.word	0x13b
 6572 1c7f 33        		.uleb128 0x33
 6573 1c80 D111 0000 		.long	0x11d1
 6574 1c84 39        		.uleb128 0x39
 6575 1c85 8211 0000 		.long	0x1182
 6576 1c89 0000 0000 		.long	.LBB219
 6577 1c8d 0000 0000 		.long	.LBE219
 6578 1c91 03        		.byte	0x3
 6579 1c92 35        		.byte	0x35
 6580 1c93 33        		.uleb128 0x33
 6581 1c94 8C11 0000 		.long	0x118c
 6582 1c98 00        		.byte	0x0
 6583 1c99 00        		.byte	0x0
 6584 1c9a 00        		.byte	0x0
 6585 1c9b 43        		.uleb128 0x43
 6586 1c9c FB11 0000 		.long	0x11fb
 6587 1ca0 0000 0000 		.long	.LBB222
 6588 1ca4 0000 0000 		.long	.LBE222
 6589 1ca8 01        		.byte	0x1
 6590 1ca9 0302      		.word	0x203
 6591 1cab 33        		.uleb128 0x33
 6592 1cac 9F12 0000 		.long	0x129f
 6593 1cb0 33        		.uleb128 0x33
 6594 1cb1 9312 0000 		.long	0x1293
 6595 1cb5 33        		.uleb128 0x33
 6596 1cb6 8712 0000 		.long	0x1287
 6597 1cba 33        		.uleb128 0x33
 6598 1cbb 7B12 0000 		.long	0x127b
 6599 1cbf 33        		.uleb128 0x33
 6600 1cc0 6F12 0000 		.long	0x126f
 6601 1cc4 33        		.uleb128 0x33
 6602 1cc5 6312 0000 		.long	0x1263
 6603 1cc9 33        		.uleb128 0x33
 6604 1cca 5712 0000 		.long	0x1257
 6605 1cce 33        		.uleb128 0x33
 6606 1ccf 4B12 0000 		.long	0x124b
 6607 1cd3 33        		.uleb128 0x33
 6608 1cd4 3F12 0000 		.long	0x123f
 6609 1cd8 33        		.uleb128 0x33
 6610 1cd9 3312 0000 		.long	0x1233
 6611 1cdd 33        		.uleb128 0x33
 6612 1cde 2712 0000 		.long	0x1227
 6613 1ce2 33        		.uleb128 0x33
 6614 1ce3 1B12 0000 		.long	0x121b
 6615 1ce7 33        		.uleb128 0x33
 6616 1ce8 0F12 0000 		.long	0x120f
 6617 1cec 33        		.uleb128 0x33
 6618 1ced 0512 0000 		.long	0x1205
 6619 1cf1 43        		.uleb128 0x43
 6620 1cf2 C711 0000 		.long	0x11c7
 6621 1cf6 0000 0000 		.long	.LBB225
GAS LISTING /var/folders/1s/lqjcb7x5323625d47g9gdgmr0000gp/T//ccQR4rtp.s 			page 118


 6622 1cfa 0000 0000 		.long	.LBE225
 6623 1cfe 01        		.byte	0x1
 6624 1cff 3B01      		.word	0x13b
 6625 1d01 33        		.uleb128 0x33
 6626 1d02 D111 0000 		.long	0x11d1
 6627 1d06 39        		.uleb128 0x39
 6628 1d07 8211 0000 		.long	0x1182
 6629 1d0b 0000 0000 		.long	.LBB228
 6630 1d0f 0000 0000 		.long	.LBE228
 6631 1d13 03        		.byte	0x3
 6632 1d14 35        		.byte	0x35
 6633 1d15 33        		.uleb128 0x33
 6634 1d16 8C11 0000 		.long	0x118c
 6635 1d1a 00        		.byte	0x0
 6636 1d1b 00        		.byte	0x0
 6637 1d1c 00        		.byte	0x0
 6638 1d1d 00        		.byte	0x0
 6639 1d1e 00        		.byte	0x0
 6640 1d1f 4C        		.uleb128 0x4c
 6641 1d20 0000 0000 		.long	.LASF229
 6642 1d24 01        		.byte	0x1
 6643 1d25 F501      		.word	0x1f5
 6644 1d27 2F0B 0000 		.long	0xb2f
 6645 1d2b 01        		.byte	0x1
 6646 1d2c 05        		.byte	0x5
 6647 1d2d 03        		.byte	0x3
 6648 1d2e 0000 0000 		.long	Serial
 6649 1d32 4C        		.uleb128 0x4c
 6650 1d33 0000 0000 		.long	.LASF230
 6651 1d37 01        		.byte	0x1
 6652 1d38 FD01      		.word	0x1fd
 6653 1d3a 2F0B 0000 		.long	0xb2f
 6654 1d3e 01        		.byte	0x1
 6655 1d3f 05        		.byte	0x5
 6656 1d40 03        		.byte	0x3
 6657 1d41 0000 0000 		.long	Serial1
 6658 1d45 4C        		.uleb128 0x4c
 6659 1d46 0000 0000 		.long	.LASF231
 6660 1d4a 01        		.byte	0x1
 6661 1d4b 0002      		.word	0x200
 6662 1d4d 2F0B 0000 		.long	0xb2f
 6663 1d51 01        		.byte	0x1
 6664 1d52 05        		.byte	0x5
 6665 1d53 03        		.byte	0x3
 6666 1d54 0000 0000 		.long	Serial2
 6667 1d58 4C        		.uleb128 0x4c
 6668 1d59 0000 0000 		.long	.LASF232
 6669 1d5d 01        		.byte	0x1
 6670 1d5e 0302      		.word	0x203
 6671 1d60 2F0B 0000 		.long	0xb2f
 6672 1d64 01        		.byte	0x1
 6673 1d65 05        		.byte	0x5
 6674 1d66 03        		.byte	0x3
 6675 1d67 0000 0000 		.long	Serial3
 6676 1d6b 4D        		.uleb128 0x4d
 6677 1d6c 5353 00   		.string	"SS"
 6678 1d6f 09        		.byte	0x9
GAS LISTING /var/folders/1s/lqjcb7x5323625d47g9gdgmr0000gp/T//ccQR4rtp.s 			page 119


 6679 1d70 23        		.byte	0x23
 6680 1d71 DB0A 0000 		.long	0xadb
 6681 1d75 35        		.byte	0x35
 6682 1d76 4E        		.uleb128 0x4e
 6683 1d77 0000 0000 		.long	.LASF233
 6684 1d7b 09        		.byte	0x9
 6685 1d7c 24        		.byte	0x24
 6686 1d7d DB0A 0000 		.long	0xadb
 6687 1d81 33        		.byte	0x33
 6688 1d82 4E        		.uleb128 0x4e
 6689 1d83 0000 0000 		.long	.LASF234
 6690 1d87 09        		.byte	0x9
 6691 1d88 25        		.byte	0x25
 6692 1d89 DB0A 0000 		.long	0xadb
 6693 1d8d 32        		.byte	0x32
 6694 1d8e 4D        		.uleb128 0x4d
 6695 1d8f 5343 4B00 		.string	"SCK"
 6696 1d93 09        		.byte	0x9
 6697 1d94 26        		.byte	0x26
 6698 1d95 DB0A 0000 		.long	0xadb
 6699 1d99 34        		.byte	0x34
 6700 1d9a 4D        		.uleb128 0x4d
 6701 1d9b 5344 4100 		.string	"SDA"
 6702 1d9f 09        		.byte	0x9
 6703 1da0 28        		.byte	0x28
 6704 1da1 DB0A 0000 		.long	0xadb
 6705 1da5 14        		.byte	0x14
 6706 1da6 4D        		.uleb128 0x4d
 6707 1da7 5343 4C00 		.string	"SCL"
 6708 1dab 09        		.byte	0x9
 6709 1dac 29        		.byte	0x29
 6710 1dad DB0A 0000 		.long	0xadb
 6711 1db1 15        		.byte	0x15
 6712 1db2 4E        		.uleb128 0x4e
 6713 1db3 0000 0000 		.long	.LASF235
 6714 1db7 09        		.byte	0x9
 6715 1db8 2A        		.byte	0x2a
 6716 1db9 DB0A 0000 		.long	0xadb
 6717 1dbd 0D        		.byte	0xd
 6718 1dbe 4D        		.uleb128 0x4d
 6719 1dbf 4130 00   		.string	"A0"
 6720 1dc2 09        		.byte	0x9
 6721 1dc3 2C        		.byte	0x2c
 6722 1dc4 DB0A 0000 		.long	0xadb
 6723 1dc8 36        		.byte	0x36
 6724 1dc9 4D        		.uleb128 0x4d
 6725 1dca 4131 00   		.string	"A1"
 6726 1dcd 09        		.byte	0x9
 6727 1dce 2D        		.byte	0x2d
 6728 1dcf DB0A 0000 		.long	0xadb
 6729 1dd3 37        		.byte	0x37
 6730 1dd4 4D        		.uleb128 0x4d
 6731 1dd5 4132 00   		.string	"A2"
 6732 1dd8 09        		.byte	0x9
 6733 1dd9 2E        		.byte	0x2e
 6734 1dda DB0A 0000 		.long	0xadb
 6735 1dde 38        		.byte	0x38
GAS LISTING /var/folders/1s/lqjcb7x5323625d47g9gdgmr0000gp/T//ccQR4rtp.s 			page 120


 6736 1ddf 4D        		.uleb128 0x4d
 6737 1de0 4133 00   		.string	"A3"
 6738 1de3 09        		.byte	0x9
 6739 1de4 2F        		.byte	0x2f
 6740 1de5 DB0A 0000 		.long	0xadb
 6741 1de9 39        		.byte	0x39
 6742 1dea 4D        		.uleb128 0x4d
 6743 1deb 4134 00   		.string	"A4"
 6744 1dee 09        		.byte	0x9
 6745 1def 30        		.byte	0x30
 6746 1df0 DB0A 0000 		.long	0xadb
 6747 1df4 3A        		.byte	0x3a
 6748 1df5 4D        		.uleb128 0x4d
 6749 1df6 4135 00   		.string	"A5"
 6750 1df9 09        		.byte	0x9
 6751 1dfa 31        		.byte	0x31
 6752 1dfb DB0A 0000 		.long	0xadb
 6753 1dff 3B        		.byte	0x3b
 6754 1e00 4D        		.uleb128 0x4d
 6755 1e01 4136 00   		.string	"A6"
 6756 1e04 09        		.byte	0x9
 6757 1e05 32        		.byte	0x32
 6758 1e06 DB0A 0000 		.long	0xadb
 6759 1e0a 3C        		.byte	0x3c
 6760 1e0b 4D        		.uleb128 0x4d
 6761 1e0c 4137 00   		.string	"A7"
 6762 1e0f 09        		.byte	0x9
 6763 1e10 33        		.byte	0x33
 6764 1e11 DB0A 0000 		.long	0xadb
 6765 1e15 3D        		.byte	0x3d
 6766 1e16 4D        		.uleb128 0x4d
 6767 1e17 4138 00   		.string	"A8"
 6768 1e1a 09        		.byte	0x9
 6769 1e1b 34        		.byte	0x34
 6770 1e1c DB0A 0000 		.long	0xadb
 6771 1e20 3E        		.byte	0x3e
 6772 1e21 4D        		.uleb128 0x4d
 6773 1e22 4139 00   		.string	"A9"
 6774 1e25 09        		.byte	0x9
 6775 1e26 35        		.byte	0x35
 6776 1e27 DB0A 0000 		.long	0xadb
 6777 1e2b 3F        		.byte	0x3f
 6778 1e2c 4D        		.uleb128 0x4d
 6779 1e2d 4131 3000 		.string	"A10"
 6780 1e31 09        		.byte	0x9
 6781 1e32 36        		.byte	0x36
 6782 1e33 DB0A 0000 		.long	0xadb
 6783 1e37 40        		.byte	0x40
 6784 1e38 4D        		.uleb128 0x4d
 6785 1e39 4131 3100 		.string	"A11"
 6786 1e3d 09        		.byte	0x9
 6787 1e3e 37        		.byte	0x37
 6788 1e3f DB0A 0000 		.long	0xadb
 6789 1e43 41        		.byte	0x41
 6790 1e44 4D        		.uleb128 0x4d
 6791 1e45 4131 3200 		.string	"A12"
 6792 1e49 09        		.byte	0x9
GAS LISTING /var/folders/1s/lqjcb7x5323625d47g9gdgmr0000gp/T//ccQR4rtp.s 			page 121


 6793 1e4a 38        		.byte	0x38
 6794 1e4b DB0A 0000 		.long	0xadb
 6795 1e4f 42        		.byte	0x42
 6796 1e50 4D        		.uleb128 0x4d
 6797 1e51 4131 3300 		.string	"A13"
 6798 1e55 09        		.byte	0x9
 6799 1e56 39        		.byte	0x39
 6800 1e57 DB0A 0000 		.long	0xadb
 6801 1e5b 43        		.byte	0x43
 6802 1e5c 4D        		.uleb128 0x4d
 6803 1e5d 4131 3400 		.string	"A14"
 6804 1e61 09        		.byte	0x9
 6805 1e62 3A        		.byte	0x3a
 6806 1e63 DB0A 0000 		.long	0xadb
 6807 1e67 44        		.byte	0x44
 6808 1e68 4D        		.uleb128 0x4d
 6809 1e69 4131 3500 		.string	"A15"
 6810 1e6d 09        		.byte	0x9
 6811 1e6e 3B        		.byte	0x3b
 6812 1e6f DB0A 0000 		.long	0xadb
 6813 1e73 45        		.byte	0x45
 6814 1e74 4F        		.uleb128 0x4f
 6815 1e75 0000 0000 		.long	.LASF193
 6816 1e79 01        		.byte	0x1
 6817 1e7a 4A        		.byte	0x4a
 6818 1e7b E00A 0000 		.long	0xae0
 6819 1e7f 01        		.byte	0x1
 6820 1e80 05        		.byte	0x5
 6821 1e81 03        		.byte	0x3
 6822 1e82 0000 0000 		.long	rx_buffer
 6823 1e86 4F        		.uleb128 0x4f
 6824 1e87 0000 0000 		.long	.LASF194
 6825 1e8b 01        		.byte	0x1
 6826 1e8c 4B        		.byte	0x4b
 6827 1e8d E00A 0000 		.long	0xae0
 6828 1e91 01        		.byte	0x1
 6829 1e92 05        		.byte	0x5
 6830 1e93 03        		.byte	0x3
 6831 1e94 0000 0000 		.long	tx_buffer
 6832 1e98 4F        		.uleb128 0x4f
 6833 1e99 0000 0000 		.long	.LASF236
 6834 1e9d 01        		.byte	0x1
 6835 1e9e 4E        		.byte	0x4e
 6836 1e9f E00A 0000 		.long	0xae0
 6837 1ea3 01        		.byte	0x1
 6838 1ea4 05        		.byte	0x5
 6839 1ea5 03        		.byte	0x3
 6840 1ea6 0000 0000 		.long	rx_buffer1
 6841 1eaa 4F        		.uleb128 0x4f
 6842 1eab 0000 0000 		.long	.LASF237
 6843 1eaf 01        		.byte	0x1
 6844 1eb0 4F        		.byte	0x4f
 6845 1eb1 E00A 0000 		.long	0xae0
 6846 1eb5 01        		.byte	0x1
 6847 1eb6 05        		.byte	0x5
 6848 1eb7 03        		.byte	0x3
 6849 1eb8 0000 0000 		.long	tx_buffer1
GAS LISTING /var/folders/1s/lqjcb7x5323625d47g9gdgmr0000gp/T//ccQR4rtp.s 			page 122


 6850 1ebc 4F        		.uleb128 0x4f
 6851 1ebd 0000 0000 		.long	.LASF238
 6852 1ec1 01        		.byte	0x1
 6853 1ec2 52        		.byte	0x52
 6854 1ec3 E00A 0000 		.long	0xae0
 6855 1ec7 01        		.byte	0x1
 6856 1ec8 05        		.byte	0x5
 6857 1ec9 03        		.byte	0x3
 6858 1eca 0000 0000 		.long	rx_buffer2
 6859 1ece 4F        		.uleb128 0x4f
 6860 1ecf 0000 0000 		.long	.LASF239
 6861 1ed3 01        		.byte	0x1
 6862 1ed4 53        		.byte	0x53
 6863 1ed5 E00A 0000 		.long	0xae0
 6864 1ed9 01        		.byte	0x1
 6865 1eda 05        		.byte	0x5
 6866 1edb 03        		.byte	0x3
 6867 1edc 0000 0000 		.long	tx_buffer2
 6868 1ee0 4F        		.uleb128 0x4f
 6869 1ee1 0000 0000 		.long	.LASF240
 6870 1ee5 01        		.byte	0x1
 6871 1ee6 56        		.byte	0x56
 6872 1ee7 E00A 0000 		.long	0xae0
 6873 1eeb 01        		.byte	0x1
 6874 1eec 05        		.byte	0x5
 6875 1eed 03        		.byte	0x3
 6876 1eee 0000 0000 		.long	rx_buffer3
 6877 1ef2 4F        		.uleb128 0x4f
 6878 1ef3 0000 0000 		.long	.LASF241
 6879 1ef7 01        		.byte	0x1
 6880 1ef8 57        		.byte	0x57
 6881 1ef9 E00A 0000 		.long	0xae0
 6882 1efd 01        		.byte	0x1
 6883 1efe 05        		.byte	0x5
 6884 1eff 03        		.byte	0x3
 6885 1f00 0000 0000 		.long	tx_buffer3
 6886 1f04 00        		.byte	0x0
 6887               		.section	.debug_abbrev
 6888 0000 01        		.uleb128 0x1
 6889 0001 11        		.uleb128 0x11
 6890 0002 01        		.byte	0x1
 6891 0003 25        		.uleb128 0x25
 6892 0004 0E        		.uleb128 0xe
 6893 0005 13        		.uleb128 0x13
 6894 0006 0B        		.uleb128 0xb
 6895 0007 03        		.uleb128 0x3
 6896 0008 0E        		.uleb128 0xe
 6897 0009 11        		.uleb128 0x11
 6898 000a 01        		.uleb128 0x1
 6899 000b 52        		.uleb128 0x52
 6900 000c 01        		.uleb128 0x1
 6901 000d 55        		.uleb128 0x55
 6902 000e 06        		.uleb128 0x6
 6903 000f 10        		.uleb128 0x10
 6904 0010 06        		.uleb128 0x6
 6905 0011 00        		.byte	0x0
 6906 0012 00        		.byte	0x0
GAS LISTING /var/folders/1s/lqjcb7x5323625d47g9gdgmr0000gp/T//ccQR4rtp.s 			page 123


 6907 0013 02        		.uleb128 0x2
 6908 0014 16        		.uleb128 0x16
 6909 0015 00        		.byte	0x0
 6910 0016 03        		.uleb128 0x3
 6911 0017 0E        		.uleb128 0xe
 6912 0018 3A        		.uleb128 0x3a
 6913 0019 0B        		.uleb128 0xb
 6914 001a 3B        		.uleb128 0x3b
 6915 001b 0B        		.uleb128 0xb
 6916 001c 49        		.uleb128 0x49
 6917 001d 13        		.uleb128 0x13
 6918 001e 00        		.byte	0x0
 6919 001f 00        		.byte	0x0
 6920 0020 03        		.uleb128 0x3
 6921 0021 24        		.uleb128 0x24
 6922 0022 00        		.byte	0x0
 6923 0023 0B        		.uleb128 0xb
 6924 0024 0B        		.uleb128 0xb
 6925 0025 3E        		.uleb128 0x3e
 6926 0026 0B        		.uleb128 0xb
 6927 0027 03        		.uleb128 0x3
 6928 0028 0E        		.uleb128 0xe
 6929 0029 00        		.byte	0x0
 6930 002a 00        		.byte	0x0
 6931 002b 04        		.uleb128 0x4
 6932 002c 24        		.uleb128 0x24
 6933 002d 00        		.byte	0x0
 6934 002e 0B        		.uleb128 0xb
 6935 002f 0B        		.uleb128 0xb
 6936 0030 3E        		.uleb128 0x3e
 6937 0031 0B        		.uleb128 0xb
 6938 0032 03        		.uleb128 0x3
 6939 0033 08        		.uleb128 0x8
 6940 0034 00        		.byte	0x0
 6941 0035 00        		.byte	0x0
 6942 0036 05        		.uleb128 0x5
 6943 0037 0F        		.uleb128 0xf
 6944 0038 00        		.byte	0x0
 6945 0039 0B        		.uleb128 0xb
 6946 003a 0B        		.uleb128 0xb
 6947 003b 49        		.uleb128 0x49
 6948 003c 13        		.uleb128 0x13
 6949 003d 00        		.byte	0x0
 6950 003e 00        		.byte	0x0
 6951 003f 06        		.uleb128 0x6
 6952 0040 24        		.uleb128 0x24
 6953 0041 00        		.byte	0x0
 6954 0042 0B        		.uleb128 0xb
 6955 0043 0B        		.uleb128 0xb
 6956 0044 3E        		.uleb128 0x3e
 6957 0045 0B        		.uleb128 0xb
 6958 0046 00        		.byte	0x0
 6959 0047 00        		.byte	0x0
 6960 0048 07        		.uleb128 0x7
 6961 0049 02        		.uleb128 0x2
 6962 004a 01        		.byte	0x1
 6963 004b 03        		.uleb128 0x3
GAS LISTING /var/folders/1s/lqjcb7x5323625d47g9gdgmr0000gp/T//ccQR4rtp.s 			page 124


 6964 004c 0E        		.uleb128 0xe
 6965 004d 0B        		.uleb128 0xb
 6966 004e 0B        		.uleb128 0xb
 6967 004f 3A        		.uleb128 0x3a
 6968 0050 0B        		.uleb128 0xb
 6969 0051 3B        		.uleb128 0x3b
 6970 0052 0B        		.uleb128 0xb
 6971 0053 01        		.uleb128 0x1
 6972 0054 13        		.uleb128 0x13
 6973 0055 00        		.byte	0x0
 6974 0056 00        		.byte	0x0
 6975 0057 08        		.uleb128 0x8
 6976 0058 0D        		.uleb128 0xd
 6977 0059 00        		.byte	0x0
 6978 005a 03        		.uleb128 0x3
 6979 005b 0E        		.uleb128 0xe
 6980 005c 3A        		.uleb128 0x3a
 6981 005d 0B        		.uleb128 0xb
 6982 005e 3B        		.uleb128 0x3b
 6983 005f 0B        		.uleb128 0xb
 6984 0060 49        		.uleb128 0x49
 6985 0061 13        		.uleb128 0x13
 6986 0062 38        		.uleb128 0x38
 6987 0063 0A        		.uleb128 0xa
 6988 0064 32        		.uleb128 0x32
 6989 0065 0B        		.uleb128 0xb
 6990 0066 00        		.byte	0x0
 6991 0067 00        		.byte	0x0
 6992 0068 09        		.uleb128 0x9
 6993 0069 0D        		.uleb128 0xd
 6994 006a 00        		.byte	0x0
 6995 006b 03        		.uleb128 0x3
 6996 006c 08        		.uleb128 0x8
 6997 006d 3A        		.uleb128 0x3a
 6998 006e 0B        		.uleb128 0xb
 6999 006f 3B        		.uleb128 0x3b
 7000 0070 0B        		.uleb128 0xb
 7001 0071 49        		.uleb128 0x49
 7002 0072 13        		.uleb128 0x13
 7003 0073 38        		.uleb128 0x38
 7004 0074 0A        		.uleb128 0xa
 7005 0075 32        		.uleb128 0x32
 7006 0076 0B        		.uleb128 0xb
 7007 0077 00        		.byte	0x0
 7008 0078 00        		.byte	0x0
 7009 0079 0A        		.uleb128 0xa
 7010 007a 2E        		.uleb128 0x2e
 7011 007b 01        		.byte	0x1
 7012 007c 3F        		.uleb128 0x3f
 7013 007d 0C        		.uleb128 0xc
 7014 007e 03        		.uleb128 0x3
 7015 007f 0E        		.uleb128 0xe
 7016 0080 3A        		.uleb128 0x3a
 7017 0081 0B        		.uleb128 0xb
 7018 0082 3B        		.uleb128 0x3b
 7019 0083 0B        		.uleb128 0xb
 7020 0084 8740      		.uleb128 0x2007
GAS LISTING /var/folders/1s/lqjcb7x5323625d47g9gdgmr0000gp/T//ccQR4rtp.s 			page 125


 7021 0086 0E        		.uleb128 0xe
 7022 0087 32        		.uleb128 0x32
 7023 0088 0B        		.uleb128 0xb
 7024 0089 3C        		.uleb128 0x3c
 7025 008a 0C        		.uleb128 0xc
 7026 008b 01        		.uleb128 0x1
 7027 008c 13        		.uleb128 0x13
 7028 008d 00        		.byte	0x0
 7029 008e 00        		.byte	0x0
 7030 008f 0B        		.uleb128 0xb
 7031 0090 05        		.uleb128 0x5
 7032 0091 00        		.byte	0x0
 7033 0092 49        		.uleb128 0x49
 7034 0093 13        		.uleb128 0x13
 7035 0094 34        		.uleb128 0x34
 7036 0095 0C        		.uleb128 0xc
 7037 0096 00        		.byte	0x0
 7038 0097 00        		.byte	0x0
 7039 0098 0C        		.uleb128 0xc
 7040 0099 2E        		.uleb128 0x2e
 7041 009a 01        		.byte	0x1
 7042 009b 3F        		.uleb128 0x3f
 7043 009c 0C        		.uleb128 0xc
 7044 009d 03        		.uleb128 0x3
 7045 009e 0E        		.uleb128 0xe
 7046 009f 3A        		.uleb128 0x3a
 7047 00a0 0B        		.uleb128 0xb
 7048 00a1 3B        		.uleb128 0x3b
 7049 00a2 0B        		.uleb128 0xb
 7050 00a3 3C        		.uleb128 0x3c
 7051 00a4 0C        		.uleb128 0xc
 7052 00a5 01        		.uleb128 0x1
 7053 00a6 13        		.uleb128 0x13
 7054 00a7 00        		.byte	0x0
 7055 00a8 00        		.byte	0x0
 7056 00a9 0D        		.uleb128 0xd
 7057 00aa 05        		.uleb128 0x5
 7058 00ab 00        		.byte	0x0
 7059 00ac 49        		.uleb128 0x49
 7060 00ad 13        		.uleb128 0x13
 7061 00ae 00        		.byte	0x0
 7062 00af 00        		.byte	0x0
 7063 00b0 0E        		.uleb128 0xe
 7064 00b1 2E        		.uleb128 0x2e
 7065 00b2 01        		.byte	0x1
 7066 00b3 3F        		.uleb128 0x3f
 7067 00b4 0C        		.uleb128 0xc
 7068 00b5 03        		.uleb128 0x3
 7069 00b6 0E        		.uleb128 0xe
 7070 00b7 3A        		.uleb128 0x3a
 7071 00b8 0B        		.uleb128 0xb
 7072 00b9 3B        		.uleb128 0x3b
 7073 00ba 0B        		.uleb128 0xb
 7074 00bb 8740      		.uleb128 0x2007
 7075 00bd 0E        		.uleb128 0xe
 7076 00be 49        		.uleb128 0x49
 7077 00bf 13        		.uleb128 0x13
GAS LISTING /var/folders/1s/lqjcb7x5323625d47g9gdgmr0000gp/T//ccQR4rtp.s 			page 126


 7078 00c0 3C        		.uleb128 0x3c
 7079 00c1 0C        		.uleb128 0xc
 7080 00c2 01        		.uleb128 0x1
 7081 00c3 13        		.uleb128 0x13
 7082 00c4 00        		.byte	0x0
 7083 00c5 00        		.byte	0x0
 7084 00c6 0F        		.uleb128 0xf
 7085 00c7 2E        		.uleb128 0x2e
 7086 00c8 01        		.byte	0x1
 7087 00c9 3F        		.uleb128 0x3f
 7088 00ca 0C        		.uleb128 0xc
 7089 00cb 03        		.uleb128 0x3
 7090 00cc 0E        		.uleb128 0xe
 7091 00cd 3A        		.uleb128 0x3a
 7092 00ce 0B        		.uleb128 0xb
 7093 00cf 3B        		.uleb128 0x3b
 7094 00d0 0B        		.uleb128 0xb
 7095 00d1 8740      		.uleb128 0x2007
 7096 00d3 0E        		.uleb128 0xe
 7097 00d4 3C        		.uleb128 0x3c
 7098 00d5 0C        		.uleb128 0xc
 7099 00d6 01        		.uleb128 0x1
 7100 00d7 13        		.uleb128 0x13
 7101 00d8 00        		.byte	0x0
 7102 00d9 00        		.byte	0x0
 7103 00da 10        		.uleb128 0x10
 7104 00db 2E        		.uleb128 0x2e
 7105 00dc 01        		.byte	0x1
 7106 00dd 3F        		.uleb128 0x3f
 7107 00de 0C        		.uleb128 0xc
 7108 00df 03        		.uleb128 0x3
 7109 00e0 0E        		.uleb128 0xe
 7110 00e1 3A        		.uleb128 0x3a
 7111 00e2 0B        		.uleb128 0xb
 7112 00e3 3B        		.uleb128 0x3b
 7113 00e4 0B        		.uleb128 0xb
 7114 00e5 8740      		.uleb128 0x2007
 7115 00e7 0E        		.uleb128 0xe
 7116 00e8 49        		.uleb128 0x49
 7117 00e9 13        		.uleb128 0x13
 7118 00ea 32        		.uleb128 0x32
 7119 00eb 0B        		.uleb128 0xb
 7120 00ec 3C        		.uleb128 0x3c
 7121 00ed 0C        		.uleb128 0xc
 7122 00ee 01        		.uleb128 0x1
 7123 00ef 13        		.uleb128 0x13
 7124 00f0 00        		.byte	0x0
 7125 00f1 00        		.byte	0x0
 7126 00f2 11        		.uleb128 0x11
 7127 00f3 2E        		.uleb128 0x2e
 7128 00f4 01        		.byte	0x1
 7129 00f5 3F        		.uleb128 0x3f
 7130 00f6 0C        		.uleb128 0xc
 7131 00f7 03        		.uleb128 0x3
 7132 00f8 0E        		.uleb128 0xe
 7133 00f9 3A        		.uleb128 0x3a
 7134 00fa 0B        		.uleb128 0xb
GAS LISTING /var/folders/1s/lqjcb7x5323625d47g9gdgmr0000gp/T//ccQR4rtp.s 			page 127


 7135 00fb 3B        		.uleb128 0x3b
 7136 00fc 0B        		.uleb128 0xb
 7137 00fd 8740      		.uleb128 0x2007
 7138 00ff 0E        		.uleb128 0xe
 7139 0100 49        		.uleb128 0x49
 7140 0101 13        		.uleb128 0x13
 7141 0102 32        		.uleb128 0x32
 7142 0103 0B        		.uleb128 0xb
 7143 0104 3C        		.uleb128 0x3c
 7144 0105 0C        		.uleb128 0xc
 7145 0106 00        		.byte	0x0
 7146 0107 00        		.byte	0x0
 7147 0108 12        		.uleb128 0x12
 7148 0109 13        		.uleb128 0x13
 7149 010a 01        		.byte	0x1
 7150 010b 0B        		.uleb128 0xb
 7151 010c 0B        		.uleb128 0xb
 7152 010d 3A        		.uleb128 0x3a
 7153 010e 0B        		.uleb128 0xb
 7154 010f 3B        		.uleb128 0x3b
 7155 0110 0B        		.uleb128 0xb
 7156 0111 01        		.uleb128 0x1
 7157 0112 13        		.uleb128 0x13
 7158 0113 00        		.byte	0x0
 7159 0114 00        		.byte	0x0
 7160 0115 13        		.uleb128 0x13
 7161 0116 0D        		.uleb128 0xd
 7162 0117 00        		.byte	0x0
 7163 0118 03        		.uleb128 0x3
 7164 0119 0E        		.uleb128 0xe
 7165 011a 3A        		.uleb128 0x3a
 7166 011b 0B        		.uleb128 0xb
 7167 011c 3B        		.uleb128 0x3b
 7168 011d 0B        		.uleb128 0xb
 7169 011e 49        		.uleb128 0x49
 7170 011f 13        		.uleb128 0x13
 7171 0120 38        		.uleb128 0x38
 7172 0121 0A        		.uleb128 0xa
 7173 0122 00        		.byte	0x0
 7174 0123 00        		.byte	0x0
 7175 0124 14        		.uleb128 0x14
 7176 0125 15        		.uleb128 0x15
 7177 0126 01        		.byte	0x1
 7178 0127 01        		.uleb128 0x1
 7179 0128 13        		.uleb128 0x13
 7180 0129 00        		.byte	0x0
 7181 012a 00        		.byte	0x0
 7182 012b 15        		.uleb128 0x15
 7183 012c 26        		.uleb128 0x26
 7184 012d 00        		.byte	0x0
 7185 012e 49        		.uleb128 0x49
 7186 012f 13        		.uleb128 0x13
 7187 0130 00        		.byte	0x0
 7188 0131 00        		.byte	0x0
 7189 0132 16        		.uleb128 0x16
 7190 0133 10        		.uleb128 0x10
 7191 0134 00        		.byte	0x0
GAS LISTING /var/folders/1s/lqjcb7x5323625d47g9gdgmr0000gp/T//ccQR4rtp.s 			page 128


 7192 0135 0B        		.uleb128 0xb
 7193 0136 0B        		.uleb128 0xb
 7194 0137 49        		.uleb128 0x49
 7195 0138 13        		.uleb128 0x13
 7196 0139 00        		.byte	0x0
 7197 013a 00        		.byte	0x0
 7198 013b 17        		.uleb128 0x17
 7199 013c 02        		.uleb128 0x2
 7200 013d 01        		.byte	0x1
 7201 013e 03        		.uleb128 0x3
 7202 013f 0E        		.uleb128 0xe
 7203 0140 3C        		.uleb128 0x3c
 7204 0141 0C        		.uleb128 0xc
 7205 0142 01        		.uleb128 0x1
 7206 0143 13        		.uleb128 0x13
 7207 0144 00        		.byte	0x0
 7208 0145 00        		.byte	0x0
 7209 0146 18        		.uleb128 0x18
 7210 0147 2E        		.uleb128 0x2e
 7211 0148 01        		.byte	0x1
 7212 0149 3F        		.uleb128 0x3f
 7213 014a 0C        		.uleb128 0xc
 7214 014b 03        		.uleb128 0x3
 7215 014c 0E        		.uleb128 0xe
 7216 014d 3A        		.uleb128 0x3a
 7217 014e 0B        		.uleb128 0xb
 7218 014f 3B        		.uleb128 0x3b
 7219 0150 0B        		.uleb128 0xb
 7220 0151 8740      		.uleb128 0x2007
 7221 0153 0E        		.uleb128 0xe
 7222 0154 49        		.uleb128 0x49
 7223 0155 13        		.uleb128 0x13
 7224 0156 4C        		.uleb128 0x4c
 7225 0157 0B        		.uleb128 0xb
 7226 0158 4D        		.uleb128 0x4d
 7227 0159 0A        		.uleb128 0xa
 7228 015a 1D        		.uleb128 0x1d
 7229 015b 13        		.uleb128 0x13
 7230 015c 3C        		.uleb128 0x3c
 7231 015d 0C        		.uleb128 0xc
 7232 015e 01        		.uleb128 0x1
 7233 015f 13        		.uleb128 0x13
 7234 0160 00        		.byte	0x0
 7235 0161 00        		.byte	0x0
 7236 0162 19        		.uleb128 0x19
 7237 0163 08        		.uleb128 0x8
 7238 0164 00        		.byte	0x0
 7239 0165 3A        		.uleb128 0x3a
 7240 0166 0B        		.uleb128 0xb
 7241 0167 3B        		.uleb128 0x3b
 7242 0168 0B        		.uleb128 0xb
 7243 0169 18        		.uleb128 0x18
 7244 016a 13        		.uleb128 0x13
 7245 016b 00        		.byte	0x0
 7246 016c 00        		.byte	0x0
 7247 016d 1A        		.uleb128 0x1a
 7248 016e 2E        		.uleb128 0x2e
GAS LISTING /var/folders/1s/lqjcb7x5323625d47g9gdgmr0000gp/T//ccQR4rtp.s 			page 129


 7249 016f 01        		.byte	0x1
 7250 0170 3F        		.uleb128 0x3f
 7251 0171 0C        		.uleb128 0xc
 7252 0172 03        		.uleb128 0x3
 7253 0173 0E        		.uleb128 0xe
 7254 0174 3A        		.uleb128 0x3a
 7255 0175 0B        		.uleb128 0xb
 7256 0176 3B        		.uleb128 0x3b
 7257 0177 0B        		.uleb128 0xb
 7258 0178 3C        		.uleb128 0x3c
 7259 0179 0C        		.uleb128 0xc
 7260 017a 00        		.byte	0x0
 7261 017b 00        		.byte	0x0
 7262 017c 1B        		.uleb128 0x1b
 7263 017d 13        		.uleb128 0x13
 7264 017e 01        		.byte	0x1
 7265 017f 03        		.uleb128 0x3
 7266 0180 0E        		.uleb128 0xe
 7267 0181 0B        		.uleb128 0xb
 7268 0182 0B        		.uleb128 0xb
 7269 0183 3A        		.uleb128 0x3a
 7270 0184 0B        		.uleb128 0xb
 7271 0185 3B        		.uleb128 0x3b
 7272 0186 0B        		.uleb128 0xb
 7273 0187 01        		.uleb128 0x1
 7274 0188 13        		.uleb128 0x13
 7275 0189 00        		.byte	0x0
 7276 018a 00        		.byte	0x0
 7277 018b 1C        		.uleb128 0x1c
 7278 018c 01        		.uleb128 0x1
 7279 018d 01        		.byte	0x1
 7280 018e 49        		.uleb128 0x49
 7281 018f 13        		.uleb128 0x13
 7282 0190 01        		.uleb128 0x1
 7283 0191 13        		.uleb128 0x13
 7284 0192 00        		.byte	0x0
 7285 0193 00        		.byte	0x0
 7286 0194 1D        		.uleb128 0x1d
 7287 0195 21        		.uleb128 0x21
 7288 0196 00        		.byte	0x0
 7289 0197 49        		.uleb128 0x49
 7290 0198 13        		.uleb128 0x13
 7291 0199 2F        		.uleb128 0x2f
 7292 019a 0B        		.uleb128 0xb
 7293 019b 00        		.byte	0x0
 7294 019c 00        		.byte	0x0
 7295 019d 1E        		.uleb128 0x1e
 7296 019e 35        		.uleb128 0x35
 7297 019f 00        		.byte	0x0
 7298 01a0 49        		.uleb128 0x49
 7299 01a1 13        		.uleb128 0x13
 7300 01a2 00        		.byte	0x0
 7301 01a3 00        		.byte	0x0
 7302 01a4 1F        		.uleb128 0x1f
 7303 01a5 02        		.uleb128 0x2
 7304 01a6 01        		.byte	0x1
 7305 01a7 03        		.uleb128 0x3
GAS LISTING /var/folders/1s/lqjcb7x5323625d47g9gdgmr0000gp/T//ccQR4rtp.s 			page 130


 7306 01a8 0E        		.uleb128 0xe
 7307 01a9 0B        		.uleb128 0xb
 7308 01aa 0B        		.uleb128 0xb
 7309 01ab 3A        		.uleb128 0x3a
 7310 01ac 0B        		.uleb128 0xb
 7311 01ad 3B        		.uleb128 0x3b
 7312 01ae 0B        		.uleb128 0xb
 7313 01af 1D        		.uleb128 0x1d
 7314 01b0 13        		.uleb128 0x13
 7315 01b1 01        		.uleb128 0x1
 7316 01b2 13        		.uleb128 0x13
 7317 01b3 00        		.byte	0x0
 7318 01b4 00        		.byte	0x0
 7319 01b5 20        		.uleb128 0x20
 7320 01b6 1C        		.uleb128 0x1c
 7321 01b7 00        		.byte	0x0
 7322 01b8 49        		.uleb128 0x49
 7323 01b9 13        		.uleb128 0x13
 7324 01ba 38        		.uleb128 0x38
 7325 01bb 0A        		.uleb128 0xa
 7326 01bc 32        		.uleb128 0x32
 7327 01bd 0B        		.uleb128 0xb
 7328 01be 00        		.byte	0x0
 7329 01bf 00        		.byte	0x0
 7330 01c0 21        		.uleb128 0x21
 7331 01c1 2E        		.uleb128 0x2e
 7332 01c2 01        		.byte	0x1
 7333 01c3 3F        		.uleb128 0x3f
 7334 01c4 0C        		.uleb128 0xc
 7335 01c5 03        		.uleb128 0x3
 7336 01c6 0E        		.uleb128 0xe
 7337 01c7 34        		.uleb128 0x34
 7338 01c8 0C        		.uleb128 0xc
 7339 01c9 3C        		.uleb128 0x3c
 7340 01ca 0C        		.uleb128 0xc
 7341 01cb 01        		.uleb128 0x1
 7342 01cc 13        		.uleb128 0x13
 7343 01cd 00        		.byte	0x0
 7344 01ce 00        		.byte	0x0
 7345 01cf 22        		.uleb128 0x22
 7346 01d0 2E        		.uleb128 0x2e
 7347 01d1 01        		.byte	0x1
 7348 01d2 3F        		.uleb128 0x3f
 7349 01d3 0C        		.uleb128 0xc
 7350 01d4 03        		.uleb128 0x3
 7351 01d5 0E        		.uleb128 0xe
 7352 01d6 3A        		.uleb128 0x3a
 7353 01d7 0B        		.uleb128 0xb
 7354 01d8 3B        		.uleb128 0x3b
 7355 01d9 05        		.uleb128 0x5
 7356 01da 3C        		.uleb128 0x3c
 7357 01db 0C        		.uleb128 0xc
 7358 01dc 01        		.uleb128 0x1
 7359 01dd 13        		.uleb128 0x13
 7360 01de 00        		.byte	0x0
 7361 01df 00        		.byte	0x0
 7362 01e0 23        		.uleb128 0x23
GAS LISTING /var/folders/1s/lqjcb7x5323625d47g9gdgmr0000gp/T//ccQR4rtp.s 			page 131


 7363 01e1 2E        		.uleb128 0x2e
 7364 01e2 01        		.byte	0x1
 7365 01e3 3F        		.uleb128 0x3f
 7366 01e4 0C        		.uleb128 0xc
 7367 01e5 03        		.uleb128 0x3
 7368 01e6 0E        		.uleb128 0xe
 7369 01e7 3A        		.uleb128 0x3a
 7370 01e8 0B        		.uleb128 0xb
 7371 01e9 3B        		.uleb128 0x3b
 7372 01ea 05        		.uleb128 0x5
 7373 01eb 8740      		.uleb128 0x2007
 7374 01ed 0E        		.uleb128 0xe
 7375 01ee 3C        		.uleb128 0x3c
 7376 01ef 0C        		.uleb128 0xc
 7377 01f0 01        		.uleb128 0x1
 7378 01f1 13        		.uleb128 0x13
 7379 01f2 00        		.byte	0x0
 7380 01f3 00        		.byte	0x0
 7381 01f4 24        		.uleb128 0x24
 7382 01f5 2E        		.uleb128 0x2e
 7383 01f6 01        		.byte	0x1
 7384 01f7 3F        		.uleb128 0x3f
 7385 01f8 0C        		.uleb128 0xc
 7386 01f9 03        		.uleb128 0x3
 7387 01fa 08        		.uleb128 0x8
 7388 01fb 3A        		.uleb128 0x3a
 7389 01fc 0B        		.uleb128 0xb
 7390 01fd 3B        		.uleb128 0x3b
 7391 01fe 05        		.uleb128 0x5
 7392 01ff 8740      		.uleb128 0x2007
 7393 0201 0E        		.uleb128 0xe
 7394 0202 3C        		.uleb128 0x3c
 7395 0203 0C        		.uleb128 0xc
 7396 0204 01        		.uleb128 0x1
 7397 0205 13        		.uleb128 0x13
 7398 0206 00        		.byte	0x0
 7399 0207 00        		.byte	0x0
 7400 0208 25        		.uleb128 0x25
 7401 0209 2E        		.uleb128 0x2e
 7402 020a 01        		.byte	0x1
 7403 020b 3F        		.uleb128 0x3f
 7404 020c 0C        		.uleb128 0xc
 7405 020d 03        		.uleb128 0x3
 7406 020e 0E        		.uleb128 0xe
 7407 020f 3A        		.uleb128 0x3a
 7408 0210 0B        		.uleb128 0xb
 7409 0211 3B        		.uleb128 0x3b
 7410 0212 05        		.uleb128 0x5
 7411 0213 8740      		.uleb128 0x2007
 7412 0215 0E        		.uleb128 0xe
 7413 0216 49        		.uleb128 0x49
 7414 0217 13        		.uleb128 0x13
 7415 0218 4C        		.uleb128 0x4c
 7416 0219 0B        		.uleb128 0xb
 7417 021a 4D        		.uleb128 0x4d
 7418 021b 0A        		.uleb128 0xa
 7419 021c 1D        		.uleb128 0x1d
GAS LISTING /var/folders/1s/lqjcb7x5323625d47g9gdgmr0000gp/T//ccQR4rtp.s 			page 132


 7420 021d 13        		.uleb128 0x13
 7421 021e 3C        		.uleb128 0x3c
 7422 021f 0C        		.uleb128 0xc
 7423 0220 01        		.uleb128 0x1
 7424 0221 13        		.uleb128 0x13
 7425 0222 00        		.byte	0x0
 7426 0223 00        		.byte	0x0
 7427 0224 26        		.uleb128 0x26
 7428 0225 2E        		.uleb128 0x2e
 7429 0226 01        		.byte	0x1
 7430 0227 3F        		.uleb128 0x3f
 7431 0228 0C        		.uleb128 0xc
 7432 0229 03        		.uleb128 0x3
 7433 022a 0E        		.uleb128 0xe
 7434 022b 3A        		.uleb128 0x3a
 7435 022c 0B        		.uleb128 0xb
 7436 022d 3B        		.uleb128 0x3b
 7437 022e 05        		.uleb128 0x5
 7438 022f 8740      		.uleb128 0x2007
 7439 0231 0E        		.uleb128 0xe
 7440 0232 4C        		.uleb128 0x4c
 7441 0233 0B        		.uleb128 0xb
 7442 0234 4D        		.uleb128 0x4d
 7443 0235 0A        		.uleb128 0xa
 7444 0236 1D        		.uleb128 0x1d
 7445 0237 13        		.uleb128 0x13
 7446 0238 3C        		.uleb128 0x3c
 7447 0239 0C        		.uleb128 0xc
 7448 023a 01        		.uleb128 0x1
 7449 023b 13        		.uleb128 0x13
 7450 023c 00        		.byte	0x0
 7451 023d 00        		.byte	0x0
 7452 023e 27        		.uleb128 0x27
 7453 023f 2E        		.uleb128 0x2e
 7454 0240 01        		.byte	0x1
 7455 0241 3F        		.uleb128 0x3f
 7456 0242 0C        		.uleb128 0xc
 7457 0243 03        		.uleb128 0x3
 7458 0244 0E        		.uleb128 0xe
 7459 0245 3A        		.uleb128 0x3a
 7460 0246 0B        		.uleb128 0xb
 7461 0247 3B        		.uleb128 0x3b
 7462 0248 05        		.uleb128 0x5
 7463 0249 8740      		.uleb128 0x2007
 7464 024b 0E        		.uleb128 0xe
 7465 024c 49        		.uleb128 0x49
 7466 024d 13        		.uleb128 0x13
 7467 024e 3C        		.uleb128 0x3c
 7468 024f 0C        		.uleb128 0xc
 7469 0250 00        		.byte	0x0
 7470 0251 00        		.byte	0x0
 7471 0252 28        		.uleb128 0x28
 7472 0253 2E        		.uleb128 0x2e
 7473 0254 01        		.byte	0x1
 7474 0255 3F        		.uleb128 0x3f
 7475 0256 0C        		.uleb128 0xc
 7476 0257 03        		.uleb128 0x3
GAS LISTING /var/folders/1s/lqjcb7x5323625d47g9gdgmr0000gp/T//ccQR4rtp.s 			page 133


 7477 0258 0E        		.uleb128 0xe
 7478 0259 3A        		.uleb128 0x3a
 7479 025a 0B        		.uleb128 0xb
 7480 025b 3B        		.uleb128 0x3b
 7481 025c 0B        		.uleb128 0xb
 7482 025d 8740      		.uleb128 0x2007
 7483 025f 0E        		.uleb128 0xe
 7484 0260 4C        		.uleb128 0x4c
 7485 0261 0B        		.uleb128 0xb
 7486 0262 4D        		.uleb128 0x4d
 7487 0263 0A        		.uleb128 0xa
 7488 0264 1D        		.uleb128 0x1d
 7489 0265 13        		.uleb128 0x13
 7490 0266 3C        		.uleb128 0x3c
 7491 0267 0C        		.uleb128 0xc
 7492 0268 01        		.uleb128 0x1
 7493 0269 13        		.uleb128 0x13
 7494 026a 00        		.byte	0x0
 7495 026b 00        		.byte	0x0
 7496 026c 29        		.uleb128 0x29
 7497 026d 2E        		.uleb128 0x2e
 7498 026e 01        		.byte	0x1
 7499 026f 47        		.uleb128 0x47
 7500 0270 13        		.uleb128 0x13
 7501 0271 20        		.uleb128 0x20
 7502 0272 0B        		.uleb128 0xb
 7503 0273 01        		.uleb128 0x1
 7504 0274 13        		.uleb128 0x13
 7505 0275 00        		.byte	0x0
 7506 0276 00        		.byte	0x0
 7507 0277 2A        		.uleb128 0x2a
 7508 0278 05        		.uleb128 0x5
 7509 0279 00        		.byte	0x0
 7510 027a 03        		.uleb128 0x3
 7511 027b 0E        		.uleb128 0xe
 7512 027c 49        		.uleb128 0x49
 7513 027d 13        		.uleb128 0x13
 7514 027e 34        		.uleb128 0x34
 7515 027f 0C        		.uleb128 0xc
 7516 0280 00        		.byte	0x0
 7517 0281 00        		.byte	0x0
 7518 0282 2B        		.uleb128 0x2b
 7519 0283 2E        		.uleb128 0x2e
 7520 0284 01        		.byte	0x1
 7521 0285 3F        		.uleb128 0x3f
 7522 0286 0C        		.uleb128 0xc
 7523 0287 03        		.uleb128 0x3
 7524 0288 0E        		.uleb128 0xe
 7525 0289 3A        		.uleb128 0x3a
 7526 028a 0B        		.uleb128 0xb
 7527 028b 3B        		.uleb128 0x3b
 7528 028c 0B        		.uleb128 0xb
 7529 028d 20        		.uleb128 0x20
 7530 028e 0B        		.uleb128 0xb
 7531 028f 01        		.uleb128 0x1
 7532 0290 13        		.uleb128 0x13
 7533 0291 00        		.byte	0x0
GAS LISTING /var/folders/1s/lqjcb7x5323625d47g9gdgmr0000gp/T//ccQR4rtp.s 			page 134


 7534 0292 00        		.byte	0x0
 7535 0293 2C        		.uleb128 0x2c
 7536 0294 05        		.uleb128 0x5
 7537 0295 00        		.byte	0x0
 7538 0296 03        		.uleb128 0x3
 7539 0297 08        		.uleb128 0x8
 7540 0298 3A        		.uleb128 0x3a
 7541 0299 0B        		.uleb128 0xb
 7542 029a 3B        		.uleb128 0x3b
 7543 029b 0B        		.uleb128 0xb
 7544 029c 49        		.uleb128 0x49
 7545 029d 13        		.uleb128 0x13
 7546 029e 00        		.byte	0x0
 7547 029f 00        		.byte	0x0
 7548 02a0 2D        		.uleb128 0x2d
 7549 02a1 05        		.uleb128 0x5
 7550 02a2 00        		.byte	0x0
 7551 02a3 03        		.uleb128 0x3
 7552 02a4 0E        		.uleb128 0xe
 7553 02a5 3A        		.uleb128 0x3a
 7554 02a6 0B        		.uleb128 0xb
 7555 02a7 3B        		.uleb128 0x3b
 7556 02a8 0B        		.uleb128 0xb
 7557 02a9 49        		.uleb128 0x49
 7558 02aa 13        		.uleb128 0x13
 7559 02ab 00        		.byte	0x0
 7560 02ac 00        		.byte	0x0
 7561 02ad 2E        		.uleb128 0x2e
 7562 02ae 34        		.uleb128 0x34
 7563 02af 00        		.byte	0x0
 7564 02b0 03        		.uleb128 0x3
 7565 02b1 08        		.uleb128 0x8
 7566 02b2 3A        		.uleb128 0x3a
 7567 02b3 0B        		.uleb128 0xb
 7568 02b4 3B        		.uleb128 0x3b
 7569 02b5 0B        		.uleb128 0xb
 7570 02b6 49        		.uleb128 0x49
 7571 02b7 13        		.uleb128 0x13
 7572 02b8 00        		.byte	0x0
 7573 02b9 00        		.byte	0x0
 7574 02ba 2F        		.uleb128 0x2f
 7575 02bb 05        		.uleb128 0x5
 7576 02bc 00        		.byte	0x0
 7577 02bd 03        		.uleb128 0x3
 7578 02be 0E        		.uleb128 0xe
 7579 02bf 3A        		.uleb128 0x3a
 7580 02c0 0B        		.uleb128 0xb
 7581 02c1 3B        		.uleb128 0x3b
 7582 02c2 05        		.uleb128 0x5
 7583 02c3 49        		.uleb128 0x49
 7584 02c4 13        		.uleb128 0x13
 7585 02c5 00        		.byte	0x0
 7586 02c6 00        		.byte	0x0
 7587 02c7 30        		.uleb128 0x30
 7588 02c8 05        		.uleb128 0x5
 7589 02c9 00        		.byte	0x0
 7590 02ca 03        		.uleb128 0x3
GAS LISTING /var/folders/1s/lqjcb7x5323625d47g9gdgmr0000gp/T//ccQR4rtp.s 			page 135


 7591 02cb 08        		.uleb128 0x8
 7592 02cc 3A        		.uleb128 0x3a
 7593 02cd 0B        		.uleb128 0xb
 7594 02ce 3B        		.uleb128 0x3b
 7595 02cf 05        		.uleb128 0x5
 7596 02d0 49        		.uleb128 0x49
 7597 02d1 13        		.uleb128 0x13
 7598 02d2 00        		.byte	0x0
 7599 02d3 00        		.byte	0x0
 7600 02d4 31        		.uleb128 0x31
 7601 02d5 2E        		.uleb128 0x2e
 7602 02d6 01        		.byte	0x1
 7603 02d7 03        		.uleb128 0x3
 7604 02d8 0E        		.uleb128 0xe
 7605 02d9 34        		.uleb128 0x34
 7606 02da 0C        		.uleb128 0xc
 7607 02db 20        		.uleb128 0x20
 7608 02dc 0B        		.uleb128 0xb
 7609 02dd 01        		.uleb128 0x1
 7610 02de 13        		.uleb128 0x13
 7611 02df 00        		.byte	0x0
 7612 02e0 00        		.byte	0x0
 7613 02e1 32        		.uleb128 0x32
 7614 02e2 0B        		.uleb128 0xb
 7615 02e3 01        		.byte	0x1
 7616 02e4 01        		.uleb128 0x1
 7617 02e5 13        		.uleb128 0x13
 7618 02e6 00        		.byte	0x0
 7619 02e7 00        		.byte	0x0
 7620 02e8 33        		.uleb128 0x33
 7621 02e9 05        		.uleb128 0x5
 7622 02ea 00        		.byte	0x0
 7623 02eb 31        		.uleb128 0x31
 7624 02ec 13        		.uleb128 0x13
 7625 02ed 00        		.byte	0x0
 7626 02ee 00        		.byte	0x0
 7627 02ef 34        		.uleb128 0x34
 7628 02f0 0B        		.uleb128 0xb
 7629 02f1 01        		.byte	0x1
 7630 02f2 00        		.byte	0x0
 7631 02f3 00        		.byte	0x0
 7632 02f4 35        		.uleb128 0x35
 7633 02f5 2E        		.uleb128 0x2e
 7634 02f6 00        		.byte	0x0
 7635 02f7 3F        		.uleb128 0x3f
 7636 02f8 0C        		.uleb128 0xc
 7637 02f9 03        		.uleb128 0x3
 7638 02fa 0E        		.uleb128 0xe
 7639 02fb 3A        		.uleb128 0x3a
 7640 02fc 0B        		.uleb128 0xb
 7641 02fd 3B        		.uleb128 0x3b
 7642 02fe 0B        		.uleb128 0xb
 7643 02ff 8740      		.uleb128 0x2007
 7644 0301 0E        		.uleb128 0xe
 7645 0302 11        		.uleb128 0x11
 7646 0303 01        		.uleb128 0x1
 7647 0304 12        		.uleb128 0x12
GAS LISTING /var/folders/1s/lqjcb7x5323625d47g9gdgmr0000gp/T//ccQR4rtp.s 			page 136


 7648 0305 01        		.uleb128 0x1
 7649 0306 40        		.uleb128 0x40
 7650 0307 0A        		.uleb128 0xa
 7651 0308 00        		.byte	0x0
 7652 0309 00        		.byte	0x0
 7653 030a 36        		.uleb128 0x36
 7654 030b 2E        		.uleb128 0x2e
 7655 030c 01        		.byte	0x1
 7656 030d 3F        		.uleb128 0x3f
 7657 030e 0C        		.uleb128 0xc
 7658 030f 03        		.uleb128 0x3
 7659 0310 0E        		.uleb128 0xe
 7660 0311 3A        		.uleb128 0x3a
 7661 0312 0B        		.uleb128 0xb
 7662 0313 3B        		.uleb128 0x3b
 7663 0314 0B        		.uleb128 0xb
 7664 0315 11        		.uleb128 0x11
 7665 0316 01        		.uleb128 0x1
 7666 0317 12        		.uleb128 0x12
 7667 0318 01        		.uleb128 0x1
 7668 0319 40        		.uleb128 0x40
 7669 031a 0A        		.uleb128 0xa
 7670 031b 01        		.uleb128 0x1
 7671 031c 13        		.uleb128 0x13
 7672 031d 00        		.byte	0x0
 7673 031e 00        		.byte	0x0
 7674 031f 37        		.uleb128 0x37
 7675 0320 0B        		.uleb128 0xb
 7676 0321 01        		.byte	0x1
 7677 0322 11        		.uleb128 0x11
 7678 0323 01        		.uleb128 0x1
 7679 0324 12        		.uleb128 0x12
 7680 0325 01        		.uleb128 0x1
 7681 0326 01        		.uleb128 0x1
 7682 0327 13        		.uleb128 0x13
 7683 0328 00        		.byte	0x0
 7684 0329 00        		.byte	0x0
 7685 032a 38        		.uleb128 0x38
 7686 032b 34        		.uleb128 0x34
 7687 032c 00        		.byte	0x0
 7688 032d 03        		.uleb128 0x3
 7689 032e 08        		.uleb128 0x8
 7690 032f 3A        		.uleb128 0x3a
 7691 0330 0B        		.uleb128 0xb
 7692 0331 3B        		.uleb128 0x3b
 7693 0332 0B        		.uleb128 0xb
 7694 0333 49        		.uleb128 0x49
 7695 0334 13        		.uleb128 0x13
 7696 0335 02        		.uleb128 0x2
 7697 0336 06        		.uleb128 0x6
 7698 0337 00        		.byte	0x0
 7699 0338 00        		.byte	0x0
 7700 0339 39        		.uleb128 0x39
 7701 033a 1D        		.uleb128 0x1d
 7702 033b 01        		.byte	0x1
 7703 033c 31        		.uleb128 0x31
 7704 033d 13        		.uleb128 0x13
GAS LISTING /var/folders/1s/lqjcb7x5323625d47g9gdgmr0000gp/T//ccQR4rtp.s 			page 137


 7705 033e 11        		.uleb128 0x11
 7706 033f 01        		.uleb128 0x1
 7707 0340 12        		.uleb128 0x12
 7708 0341 01        		.uleb128 0x1
 7709 0342 58        		.uleb128 0x58
 7710 0343 0B        		.uleb128 0xb
 7711 0344 59        		.uleb128 0x59
 7712 0345 0B        		.uleb128 0xb
 7713 0346 00        		.byte	0x0
 7714 0347 00        		.byte	0x0
 7715 0348 3A        		.uleb128 0x3a
 7716 0349 34        		.uleb128 0x34
 7717 034a 00        		.byte	0x0
 7718 034b 31        		.uleb128 0x31
 7719 034c 13        		.uleb128 0x13
 7720 034d 00        		.byte	0x0
 7721 034e 00        		.byte	0x0
 7722 034f 3B        		.uleb128 0x3b
 7723 0350 0B        		.uleb128 0xb
 7724 0351 01        		.byte	0x1
 7725 0352 11        		.uleb128 0x11
 7726 0353 01        		.uleb128 0x1
 7727 0354 12        		.uleb128 0x12
 7728 0355 01        		.uleb128 0x1
 7729 0356 00        		.byte	0x0
 7730 0357 00        		.byte	0x0
 7731 0358 3C        		.uleb128 0x3c
 7732 0359 2E        		.uleb128 0x2e
 7733 035a 01        		.byte	0x1
 7734 035b 3F        		.uleb128 0x3f
 7735 035c 0C        		.uleb128 0xc
 7736 035d 03        		.uleb128 0x3
 7737 035e 0E        		.uleb128 0xe
 7738 035f 3A        		.uleb128 0x3a
 7739 0360 0B        		.uleb128 0xb
 7740 0361 3B        		.uleb128 0x3b
 7741 0362 0B        		.uleb128 0xb
 7742 0363 8740      		.uleb128 0x2007
 7743 0365 0E        		.uleb128 0xe
 7744 0366 11        		.uleb128 0x11
 7745 0367 01        		.uleb128 0x1
 7746 0368 12        		.uleb128 0x12
 7747 0369 01        		.uleb128 0x1
 7748 036a 40        		.uleb128 0x40
 7749 036b 0A        		.uleb128 0xa
 7750 036c 01        		.uleb128 0x1
 7751 036d 13        		.uleb128 0x13
 7752 036e 00        		.byte	0x0
 7753 036f 00        		.byte	0x0
 7754 0370 3D        		.uleb128 0x3d
 7755 0371 1D        		.uleb128 0x1d
 7756 0372 01        		.byte	0x1
 7757 0373 31        		.uleb128 0x31
 7758 0374 13        		.uleb128 0x13
 7759 0375 11        		.uleb128 0x11
 7760 0376 01        		.uleb128 0x1
 7761 0377 12        		.uleb128 0x12
GAS LISTING /var/folders/1s/lqjcb7x5323625d47g9gdgmr0000gp/T//ccQR4rtp.s 			page 138


 7762 0378 01        		.uleb128 0x1
 7763 0379 58        		.uleb128 0x58
 7764 037a 0B        		.uleb128 0xb
 7765 037b 59        		.uleb128 0x59
 7766 037c 0B        		.uleb128 0xb
 7767 037d 01        		.uleb128 0x1
 7768 037e 13        		.uleb128 0x13
 7769 037f 00        		.byte	0x0
 7770 0380 00        		.byte	0x0
 7771 0381 3E        		.uleb128 0x3e
 7772 0382 2E        		.uleb128 0x2e
 7773 0383 01        		.byte	0x1
 7774 0384 3F        		.uleb128 0x3f
 7775 0385 0C        		.uleb128 0xc
 7776 0386 03        		.uleb128 0x3
 7777 0387 0E        		.uleb128 0xe
 7778 0388 3A        		.uleb128 0x3a
 7779 0389 0B        		.uleb128 0xb
 7780 038a 3B        		.uleb128 0x3b
 7781 038b 05        		.uleb128 0x5
 7782 038c 11        		.uleb128 0x11
 7783 038d 01        		.uleb128 0x1
 7784 038e 12        		.uleb128 0x12
 7785 038f 01        		.uleb128 0x1
 7786 0390 40        		.uleb128 0x40
 7787 0391 0A        		.uleb128 0xa
 7788 0392 01        		.uleb128 0x1
 7789 0393 13        		.uleb128 0x13
 7790 0394 00        		.byte	0x0
 7791 0395 00        		.byte	0x0
 7792 0396 3F        		.uleb128 0x3f
 7793 0397 34        		.uleb128 0x34
 7794 0398 00        		.byte	0x0
 7795 0399 03        		.uleb128 0x3
 7796 039a 08        		.uleb128 0x8
 7797 039b 3A        		.uleb128 0x3a
 7798 039c 0B        		.uleb128 0xb
 7799 039d 3B        		.uleb128 0x3b
 7800 039e 05        		.uleb128 0x5
 7801 039f 49        		.uleb128 0x49
 7802 03a0 13        		.uleb128 0x13
 7803 03a1 02        		.uleb128 0x2
 7804 03a2 06        		.uleb128 0x6
 7805 03a3 00        		.byte	0x0
 7806 03a4 00        		.byte	0x0
 7807 03a5 40        		.uleb128 0x40
 7808 03a6 2E        		.uleb128 0x2e
 7809 03a7 01        		.byte	0x1
 7810 03a8 31        		.uleb128 0x31
 7811 03a9 13        		.uleb128 0x13
 7812 03aa 11        		.uleb128 0x11
 7813 03ab 01        		.uleb128 0x1
 7814 03ac 12        		.uleb128 0x12
 7815 03ad 01        		.uleb128 0x1
 7816 03ae 40        		.uleb128 0x40
 7817 03af 0A        		.uleb128 0xa
 7818 03b0 01        		.uleb128 0x1
GAS LISTING /var/folders/1s/lqjcb7x5323625d47g9gdgmr0000gp/T//ccQR4rtp.s 			page 139


 7819 03b1 13        		.uleb128 0x13
 7820 03b2 00        		.byte	0x0
 7821 03b3 00        		.byte	0x0
 7822 03b4 41        		.uleb128 0x41
 7823 03b5 05        		.uleb128 0x5
 7824 03b6 00        		.byte	0x0
 7825 03b7 31        		.uleb128 0x31
 7826 03b8 13        		.uleb128 0x13
 7827 03b9 02        		.uleb128 0x2
 7828 03ba 06        		.uleb128 0x6
 7829 03bb 00        		.byte	0x0
 7830 03bc 00        		.byte	0x0
 7831 03bd 42        		.uleb128 0x42
 7832 03be 05        		.uleb128 0x5
 7833 03bf 00        		.byte	0x0
 7834 03c0 31        		.uleb128 0x31
 7835 03c1 13        		.uleb128 0x13
 7836 03c2 02        		.uleb128 0x2
 7837 03c3 0A        		.uleb128 0xa
 7838 03c4 00        		.byte	0x0
 7839 03c5 00        		.byte	0x0
 7840 03c6 43        		.uleb128 0x43
 7841 03c7 1D        		.uleb128 0x1d
 7842 03c8 01        		.byte	0x1
 7843 03c9 31        		.uleb128 0x31
 7844 03ca 13        		.uleb128 0x13
 7845 03cb 11        		.uleb128 0x11
 7846 03cc 01        		.uleb128 0x1
 7847 03cd 12        		.uleb128 0x12
 7848 03ce 01        		.uleb128 0x1
 7849 03cf 58        		.uleb128 0x58
 7850 03d0 0B        		.uleb128 0xb
 7851 03d1 59        		.uleb128 0x59
 7852 03d2 05        		.uleb128 0x5
 7853 03d3 00        		.byte	0x0
 7854 03d4 00        		.byte	0x0
 7855 03d5 44        		.uleb128 0x44
 7856 03d6 2E        		.uleb128 0x2e
 7857 03d7 01        		.byte	0x1
 7858 03d8 47        		.uleb128 0x47
 7859 03d9 13        		.uleb128 0x13
 7860 03da 11        		.uleb128 0x11
 7861 03db 01        		.uleb128 0x1
 7862 03dc 12        		.uleb128 0x12
 7863 03dd 01        		.uleb128 0x1
 7864 03de 40        		.uleb128 0x40
 7865 03df 0A        		.uleb128 0xa
 7866 03e0 01        		.uleb128 0x1
 7867 03e1 13        		.uleb128 0x13
 7868 03e2 00        		.byte	0x0
 7869 03e3 00        		.byte	0x0
 7870 03e4 45        		.uleb128 0x45
 7871 03e5 05        		.uleb128 0x5
 7872 03e6 00        		.byte	0x0
 7873 03e7 03        		.uleb128 0x3
 7874 03e8 0E        		.uleb128 0xe
 7875 03e9 49        		.uleb128 0x49
GAS LISTING /var/folders/1s/lqjcb7x5323625d47g9gdgmr0000gp/T//ccQR4rtp.s 			page 140


 7876 03ea 13        		.uleb128 0x13
 7877 03eb 34        		.uleb128 0x34
 7878 03ec 0C        		.uleb128 0xc
 7879 03ed 02        		.uleb128 0x2
 7880 03ee 06        		.uleb128 0x6
 7881 03ef 00        		.byte	0x0
 7882 03f0 00        		.byte	0x0
 7883 03f1 46        		.uleb128 0x46
 7884 03f2 05        		.uleb128 0x5
 7885 03f3 00        		.byte	0x0
 7886 03f4 03        		.uleb128 0x3
 7887 03f5 0E        		.uleb128 0xe
 7888 03f6 3A        		.uleb128 0x3a
 7889 03f7 0B        		.uleb128 0xb
 7890 03f8 3B        		.uleb128 0x3b
 7891 03f9 05        		.uleb128 0x5
 7892 03fa 49        		.uleb128 0x49
 7893 03fb 13        		.uleb128 0x13
 7894 03fc 02        		.uleb128 0x2
 7895 03fd 06        		.uleb128 0x6
 7896 03fe 00        		.byte	0x0
 7897 03ff 00        		.byte	0x0
 7898 0400 47        		.uleb128 0x47
 7899 0401 34        		.uleb128 0x34
 7900 0402 00        		.byte	0x0
 7901 0403 03        		.uleb128 0x3
 7902 0404 0E        		.uleb128 0xe
 7903 0405 3A        		.uleb128 0x3a
 7904 0406 0B        		.uleb128 0xb
 7905 0407 3B        		.uleb128 0x3b
 7906 0408 05        		.uleb128 0x5
 7907 0409 49        		.uleb128 0x49
 7908 040a 13        		.uleb128 0x13
 7909 040b 02        		.uleb128 0x2
 7910 040c 06        		.uleb128 0x6
 7911 040d 00        		.byte	0x0
 7912 040e 00        		.byte	0x0
 7913 040f 48        		.uleb128 0x48
 7914 0410 34        		.uleb128 0x34
 7915 0411 00        		.byte	0x0
 7916 0412 03        		.uleb128 0x3
 7917 0413 0E        		.uleb128 0xe
 7918 0414 3A        		.uleb128 0x3a
 7919 0415 0B        		.uleb128 0xb
 7920 0416 3B        		.uleb128 0x3b
 7921 0417 05        		.uleb128 0x5
 7922 0418 49        		.uleb128 0x49
 7923 0419 13        		.uleb128 0x13
 7924 041a 00        		.byte	0x0
 7925 041b 00        		.byte	0x0
 7926 041c 49        		.uleb128 0x49
 7927 041d 05        		.uleb128 0x5
 7928 041e 00        		.byte	0x0
 7929 041f 03        		.uleb128 0x3
 7930 0420 08        		.uleb128 0x8
 7931 0421 3A        		.uleb128 0x3a
 7932 0422 0B        		.uleb128 0xb
GAS LISTING /var/folders/1s/lqjcb7x5323625d47g9gdgmr0000gp/T//ccQR4rtp.s 			page 141


 7933 0423 3B        		.uleb128 0x3b
 7934 0424 05        		.uleb128 0x5
 7935 0425 49        		.uleb128 0x49
 7936 0426 13        		.uleb128 0x13
 7937 0427 02        		.uleb128 0x2
 7938 0428 0A        		.uleb128 0xa
 7939 0429 00        		.byte	0x0
 7940 042a 00        		.byte	0x0
 7941 042b 4A        		.uleb128 0x4a
 7942 042c 2E        		.uleb128 0x2e
 7943 042d 01        		.byte	0x1
 7944 042e 03        		.uleb128 0x3
 7945 042f 0E        		.uleb128 0xe
 7946 0430 34        		.uleb128 0x34
 7947 0431 0C        		.uleb128 0xc
 7948 0432 11        		.uleb128 0x11
 7949 0433 01        		.uleb128 0x1
 7950 0434 12        		.uleb128 0x12
 7951 0435 01        		.uleb128 0x1
 7952 0436 40        		.uleb128 0x40
 7953 0437 0A        		.uleb128 0xa
 7954 0438 01        		.uleb128 0x1
 7955 0439 13        		.uleb128 0x13
 7956 043a 00        		.byte	0x0
 7957 043b 00        		.byte	0x0
 7958 043c 4B        		.uleb128 0x4b
 7959 043d 1D        		.uleb128 0x1d
 7960 043e 01        		.byte	0x1
 7961 043f 31        		.uleb128 0x31
 7962 0440 13        		.uleb128 0x13
 7963 0441 11        		.uleb128 0x11
 7964 0442 01        		.uleb128 0x1
 7965 0443 12        		.uleb128 0x12
 7966 0444 01        		.uleb128 0x1
 7967 0445 58        		.uleb128 0x58
 7968 0446 0B        		.uleb128 0xb
 7969 0447 59        		.uleb128 0x59
 7970 0448 05        		.uleb128 0x5
 7971 0449 01        		.uleb128 0x1
 7972 044a 13        		.uleb128 0x13
 7973 044b 00        		.byte	0x0
 7974 044c 00        		.byte	0x0
 7975 044d 4C        		.uleb128 0x4c
 7976 044e 34        		.uleb128 0x34
 7977 044f 00        		.byte	0x0
 7978 0450 03        		.uleb128 0x3
 7979 0451 0E        		.uleb128 0xe
 7980 0452 3A        		.uleb128 0x3a
 7981 0453 0B        		.uleb128 0xb
 7982 0454 3B        		.uleb128 0x3b
 7983 0455 05        		.uleb128 0x5
 7984 0456 49        		.uleb128 0x49
 7985 0457 13        		.uleb128 0x13
 7986 0458 3F        		.uleb128 0x3f
 7987 0459 0C        		.uleb128 0xc
 7988 045a 02        		.uleb128 0x2
 7989 045b 0A        		.uleb128 0xa
GAS LISTING /var/folders/1s/lqjcb7x5323625d47g9gdgmr0000gp/T//ccQR4rtp.s 			page 142


 7990 045c 00        		.byte	0x0
 7991 045d 00        		.byte	0x0
 7992 045e 4D        		.uleb128 0x4d
 7993 045f 34        		.uleb128 0x34
 7994 0460 00        		.byte	0x0
 7995 0461 03        		.uleb128 0x3
 7996 0462 08        		.uleb128 0x8
 7997 0463 3A        		.uleb128 0x3a
 7998 0464 0B        		.uleb128 0xb
 7999 0465 3B        		.uleb128 0x3b
 8000 0466 0B        		.uleb128 0xb
 8001 0467 49        		.uleb128 0x49
 8002 0468 13        		.uleb128 0x13
 8003 0469 1C        		.uleb128 0x1c
 8004 046a 0B        		.uleb128 0xb
 8005 046b 00        		.byte	0x0
 8006 046c 00        		.byte	0x0
 8007 046d 4E        		.uleb128 0x4e
 8008 046e 34        		.uleb128 0x34
 8009 046f 00        		.byte	0x0
 8010 0470 03        		.uleb128 0x3
 8011 0471 0E        		.uleb128 0xe
 8012 0472 3A        		.uleb128 0x3a
 8013 0473 0B        		.uleb128 0xb
 8014 0474 3B        		.uleb128 0x3b
 8015 0475 0B        		.uleb128 0xb
 8016 0476 49        		.uleb128 0x49
 8017 0477 13        		.uleb128 0x13
 8018 0478 1C        		.uleb128 0x1c
 8019 0479 0B        		.uleb128 0xb
 8020 047a 00        		.byte	0x0
 8021 047b 00        		.byte	0x0
 8022 047c 4F        		.uleb128 0x4f
 8023 047d 34        		.uleb128 0x34
 8024 047e 00        		.byte	0x0
 8025 047f 03        		.uleb128 0x3
 8026 0480 0E        		.uleb128 0xe
 8027 0481 3A        		.uleb128 0x3a
 8028 0482 0B        		.uleb128 0xb
 8029 0483 3B        		.uleb128 0x3b
 8030 0484 0B        		.uleb128 0xb
 8031 0485 49        		.uleb128 0x49
 8032 0486 13        		.uleb128 0x13
 8033 0487 3F        		.uleb128 0x3f
 8034 0488 0C        		.uleb128 0xc
 8035 0489 02        		.uleb128 0x2
 8036 048a 0A        		.uleb128 0xa
 8037 048b 00        		.byte	0x0
 8038 048c 00        		.byte	0x0
 8039 048d 00        		.byte	0x0
 8040               		.section	.debug_pubnames,"",@progbits
 8041 0000 C102 0000 		.long	0x2c1
 8042 0004 0200      		.word	0x2
 8043 0006 0000 0000 		.long	.Ldebug_info0
 8044 000a 051F 0000 		.long	0x1f05
 8045 000e 3414 0000 		.long	0x1434
 8046 0012 7365 7269 		.string	"serialEvent"
GAS LISTING /var/folders/1s/lqjcb7x5323625d47g9gdgmr0000gp/T//ccQR4rtp.s 			page 143


 8046      616C 4576 
 8046      656E 7400 
 8047 001e 4B14 0000 		.long	0x144b
 8048 0022 5F5F 7665 		.string	"__vector_25"
 8048      6374 6F72 
 8048      5F32 3500 
 8049 002e B414 0000 		.long	0x14b4
 8050 0032 7365 7269 		.string	"serialEvent1"
 8050      616C 4576 
 8050      656E 7431 
 8050      00
 8051 003f CB14 0000 		.long	0x14cb
 8052 0043 5F5F 7665 		.string	"__vector_36"
 8052      6374 6F72 
 8052      5F33 3600 
 8053 004f 3415 0000 		.long	0x1534
 8054 0053 7365 7269 		.string	"serialEvent2"
 8054      616C 4576 
 8054      656E 7432 
 8054      00
 8055 0060 4B15 0000 		.long	0x154b
 8056 0064 5F5F 7665 		.string	"__vector_51"
 8056      6374 6F72 
 8056      5F35 3100 
 8057 0070 B415 0000 		.long	0x15b4
 8058 0074 7365 7269 		.string	"serialEvent3"
 8058      616C 4576 
 8058      656E 7433 
 8058      00
 8059 0081 CB15 0000 		.long	0x15cb
 8060 0085 5F5F 7665 		.string	"__vector_54"
 8060      6374 6F72 
 8060      5F35 3400 
 8061 0091 3416 0000 		.long	0x1634
 8062 0095 7365 7269 		.string	"serialEventRun"
 8062      616C 4576 
 8062      656E 7452 
 8062      756E 00
 8063 00a4 B016 0000 		.long	0x16b0
 8064 00a8 5F5F 7665 		.string	"__vector_26"
 8064      6374 6F72 
 8064      5F32 3600 
 8065 00b4 DF16 0000 		.long	0x16df
 8066 00b8 5F5F 7665 		.string	"__vector_37"
 8066      6374 6F72 
 8066      5F33 3700 
 8067 00c4 1017 0000 		.long	0x1710
 8068 00c8 5F5F 7665 		.string	"__vector_52"
 8068      6374 6F72 
 8068      5F35 3200 
 8069 00d4 4117 0000 		.long	0x1741
 8070 00d8 5F5F 7665 		.string	"__vector_55"
 8070      6374 6F72 
 8070      5F35 3500 
 8071 00e4 7217 0000 		.long	0x1772
 8072 00e8 4861 7264 		.string	"HardwareSerial::HardwareSerial"
 8072      7761 7265 
GAS LISTING /var/folders/1s/lqjcb7x5323625d47g9gdgmr0000gp/T//ccQR4rtp.s 			page 144


 8072      5365 7269 
 8072      616C 3A3A 
 8072      4861 7264 
 8073 0107 3418 0000 		.long	0x1834
 8074 010b 4861 7264 		.string	"HardwareSerial::HardwareSerial"
 8074      7761 7265 
 8074      5365 7269 
 8074      616C 3A3A 
 8074      4861 7264 
 8075 012a F618 0000 		.long	0x18f6
 8076 012e 4861 7264 		.string	"HardwareSerial::begin"
 8076      7761 7265 
 8076      5365 7269 
 8076      616C 3A3A 
 8076      6265 6769 
 8077 0144 4919 0000 		.long	0x1949
 8078 0148 4861 7264 		.string	"HardwareSerial::begin"
 8078      7761 7265 
 8078      5365 7269 
 8078      616C 3A3A 
 8078      6265 6769 
 8079 015e B819 0000 		.long	0x19b8
 8080 0162 4861 7264 		.string	"HardwareSerial::end"
 8080      7761 7265 
 8080      5365 7269 
 8080      616C 3A3A 
 8080      656E 6400 
 8081 0176 DB19 0000 		.long	0x19db
 8082 017a 4861 7264 		.string	"HardwareSerial::available"
 8082      7761 7265 
 8082      5365 7269 
 8082      616C 3A3A 
 8082      6176 6169 
 8083 0194 F919 0000 		.long	0x19f9
 8084 0198 4861 7264 		.string	"HardwareSerial::peek"
 8084      7761 7265 
 8084      5365 7269 
 8084      616C 3A3A 
 8084      7065 656B 
 8085 01ad 1C1A 0000 		.long	0x1a1c
 8086 01b1 4861 7264 		.string	"HardwareSerial::read"
 8086      7761 7265 
 8086      5365 7269 
 8086      616C 3A3A 
 8086      7265 6164 
 8087 01c6 571A 0000 		.long	0x1a57
 8088 01ca 4861 7264 		.string	"HardwareSerial::flush"
 8088      7761 7265 
 8088      5365 7269 
 8088      616C 3A3A 
 8088      666C 7573 
 8089 01e0 7A1A 0000 		.long	0x1a7a
 8090 01e4 4861 7264 		.string	"HardwareSerial::write"
 8090      7761 7265 
 8090      5365 7269 
 8090      616C 3A3A 
 8090      7772 6974 
GAS LISTING /var/folders/1s/lqjcb7x5323625d47g9gdgmr0000gp/T//ccQR4rtp.s 			page 145


 8091 01fa B71A 0000 		.long	0x1ab7
 8092 01fe 4861 7264 		.string	"HardwareSerial::operator bool"
 8092      7761 7265 
 8092      5365 7269 
 8092      616C 3A3A 
 8092      6F70 6572 
 8093 021c 1F1D 0000 		.long	0x1d1f
 8094 0220 5365 7269 		.string	"Serial"
 8094      616C 00
 8095 0227 321D 0000 		.long	0x1d32
 8096 022b 5365 7269 		.string	"Serial1"
 8096      616C 3100 
 8097 0233 451D 0000 		.long	0x1d45
 8098 0237 5365 7269 		.string	"Serial2"
 8098      616C 3200 
 8099 023f 581D 0000 		.long	0x1d58
 8100 0243 5365 7269 		.string	"Serial3"
 8100      616C 3300 
 8101 024b 741E 0000 		.long	0x1e74
 8102 024f 7278 5F62 		.string	"rx_buffer"
 8102      7566 6665 
 8102      7200 
 8103 0259 861E 0000 		.long	0x1e86
 8104 025d 7478 5F62 		.string	"tx_buffer"
 8104      7566 6665 
 8104      7200 
 8105 0267 981E 0000 		.long	0x1e98
 8106 026b 7278 5F62 		.string	"rx_buffer1"
 8106      7566 6665 
 8106      7231 00
 8107 0276 AA1E 0000 		.long	0x1eaa
 8108 027a 7478 5F62 		.string	"tx_buffer1"
 8108      7566 6665 
 8108      7231 00
 8109 0285 BC1E 0000 		.long	0x1ebc
 8110 0289 7278 5F62 		.string	"rx_buffer2"
 8110      7566 6665 
 8110      7232 00
 8111 0294 CE1E 0000 		.long	0x1ece
 8112 0298 7478 5F62 		.string	"tx_buffer2"
 8112      7566 6665 
 8112      7232 00
 8113 02a3 E01E 0000 		.long	0x1ee0
 8114 02a7 7278 5F62 		.string	"rx_buffer3"
 8114      7566 6665 
 8114      7233 00
 8115 02b2 F21E 0000 		.long	0x1ef2
 8116 02b6 7478 5F62 		.string	"tx_buffer3"
 8116      7566 6665 
 8116      7233 00
 8117 02c1 0000 0000 		.long	0x0
 8118               		.section	.debug_aranges,"",@progbits
 8119 0000 DC00 0000 		.long	0xdc
 8120 0004 0200      		.word	0x2
 8121 0006 0000 0000 		.long	.Ldebug_info0
 8122 000a 04        		.byte	0x4
 8123 000b 00        		.byte	0x0
GAS LISTING /var/folders/1s/lqjcb7x5323625d47g9gdgmr0000gp/T//ccQR4rtp.s 			page 146


 8124 000c 0000      		.word	0x0
 8125 000e 0000      		.word	0x0
 8126 0010 0000 0000 		.long	.LFB76
 8127 0014 0200 0000 		.long	.LFE76-.LFB76
 8128 0018 0000 0000 		.long	.LFB77
 8129 001c 7E00 0000 		.long	.LFE77-.LFB77
 8130 0020 0000 0000 		.long	.LFB78
 8131 0024 0200 0000 		.long	.LFE78-.LFB78
 8132 0028 0000 0000 		.long	.LFB79
 8133 002c 7E00 0000 		.long	.LFE79-.LFB79
 8134 0030 0000 0000 		.long	.LFB80
 8135 0034 0200 0000 		.long	.LFE80-.LFB80
 8136 0038 0000 0000 		.long	.LFB81
 8137 003c 7E00 0000 		.long	.LFE81-.LFB81
 8138 0040 0000 0000 		.long	.LFB82
 8139 0044 0200 0000 		.long	.LFE82-.LFB82
 8140 0048 0000 0000 		.long	.LFB83
 8141 004c 7E00 0000 		.long	.LFE83-.LFB83
 8142 0050 0000 0000 		.long	.LFB84
 8143 0054 9200 0000 		.long	.LFE84-.LFB84
 8144 0058 0000 0000 		.long	.LFB85
 8145 005c 7E00 0000 		.long	.LFE85-.LFB85
 8146 0060 0000 0000 		.long	.LFB86
 8147 0064 7E00 0000 		.long	.LFE86-.LFB86
 8148 0068 0000 0000 		.long	.LFB87
 8149 006c 7E00 0000 		.long	.LFE87-.LFB87
 8150 0070 0000 0000 		.long	.LFB88
 8151 0074 7E00 0000 		.long	.LFE88-.LFB88
 8152 0078 0000 0000 		.long	.LFB90
 8153 007c 8800 0000 		.long	.LFE90-.LFB90
 8154 0080 0000 0000 		.long	.LFB91
 8155 0084 8800 0000 		.long	.LFE91-.LFB91
 8156 0088 0000 0000 		.long	.LFB92
 8157 008c 0E01 0000 		.long	.LFE92-.LFB92
 8158 0090 0000 0000 		.long	.LFB93
 8159 0094 1801 0000 		.long	.LFE93-.LFB93
 8160 0098 0000 0000 		.long	.LFB94
 8161 009c CC00 0000 		.long	.LFE94-.LFB94
 8162 00a0 0000 0000 		.long	.LFB95
 8163 00a4 2200 0000 		.long	.LFE95-.LFB95
 8164 00a8 0000 0000 		.long	.LFB96
 8165 00ac 4000 0000 		.long	.LFE96-.LFB96
 8166 00b0 0000 0000 		.long	.LFB97
 8167 00b4 5200 0000 		.long	.LFE97-.LFB97
 8168 00b8 0000 0000 		.long	.LFB98
 8169 00bc 2000 0000 		.long	.LFE98-.LFB98
 8170 00c0 0000 0000 		.long	.LFB99
 8171 00c4 8000 0000 		.long	.LFE99-.LFB99
 8172 00c8 0000 0000 		.long	.LFB100
 8173 00cc 0400 0000 		.long	.LFE100-.LFB100
 8174 00d0 0000 0000 		.long	.LFB102
 8175 00d4 6C02 0000 		.long	.LFE102-.LFB102
 8176 00d8 0000 0000 		.long	0x0
 8177 00dc 0000 0000 		.long	0x0
 8178               		.section	.debug_ranges,"",@progbits
 8179               	.Ldebug_ranges0:
 8180 0000 0000 0000 		.long	.Ltext0
GAS LISTING /var/folders/1s/lqjcb7x5323625d47g9gdgmr0000gp/T//ccQR4rtp.s 			page 147


 8181 0004 0000 0000 		.long	.Letext0
 8182 0008 0000 0000 		.long	.LFB76
 8183 000c 0000 0000 		.long	.LFE76
 8184 0010 0000 0000 		.long	.LFB77
 8185 0014 0000 0000 		.long	.LFE77
 8186 0018 0000 0000 		.long	.LFB78
 8187 001c 0000 0000 		.long	.LFE78
 8188 0020 0000 0000 		.long	.LFB79
 8189 0024 0000 0000 		.long	.LFE79
 8190 0028 0000 0000 		.long	.LFB80
 8191 002c 0000 0000 		.long	.LFE80
 8192 0030 0000 0000 		.long	.LFB81
 8193 0034 0000 0000 		.long	.LFE81
 8194 0038 0000 0000 		.long	.LFB82
 8195 003c 0000 0000 		.long	.LFE82
 8196 0040 0000 0000 		.long	.LFB83
 8197 0044 0000 0000 		.long	.LFE83
 8198 0048 0000 0000 		.long	.LFB84
 8199 004c 0000 0000 		.long	.LFE84
 8200 0050 0000 0000 		.long	.LFB85
 8201 0054 0000 0000 		.long	.LFE85
 8202 0058 0000 0000 		.long	.LFB86
 8203 005c 0000 0000 		.long	.LFE86
 8204 0060 0000 0000 		.long	.LFB87
 8205 0064 0000 0000 		.long	.LFE87
 8206 0068 0000 0000 		.long	.LFB88
 8207 006c 0000 0000 		.long	.LFE88
 8208 0070 0000 0000 		.long	.LFB90
 8209 0074 0000 0000 		.long	.LFE90
 8210 0078 0000 0000 		.long	.LFB91
 8211 007c 0000 0000 		.long	.LFE91
 8212 0080 0000 0000 		.long	.LFB92
 8213 0084 0000 0000 		.long	.LFE92
 8214 0088 0000 0000 		.long	.LFB93
 8215 008c 0000 0000 		.long	.LFE93
 8216 0090 0000 0000 		.long	.LFB94
 8217 0094 0000 0000 		.long	.LFE94
 8218 0098 0000 0000 		.long	.LFB95
 8219 009c 0000 0000 		.long	.LFE95
 8220 00a0 0000 0000 		.long	.LFB96
 8221 00a4 0000 0000 		.long	.LFE96
 8222 00a8 0000 0000 		.long	.LFB97
 8223 00ac 0000 0000 		.long	.LFE97
 8224 00b0 0000 0000 		.long	.LFB98
 8225 00b4 0000 0000 		.long	.LFE98
 8226 00b8 0000 0000 		.long	.LFB99
 8227 00bc 0000 0000 		.long	.LFE99
 8228 00c0 0000 0000 		.long	.LFB100
 8229 00c4 0000 0000 		.long	.LFE100
 8230 00c8 0000 0000 		.long	.LFB102
 8231 00cc 0000 0000 		.long	.LFE102
 8232 00d0 0000 0000 		.long	0x0
 8233 00d4 0000 0000 		.long	0x0
 8234               		.section	.debug_line
 8235 0000 A10B 0000 		.long	.LELT0-.LSLT0
 8236               	.LSLT0:
 8237 0004 0200      		.word	0x2
GAS LISTING /var/folders/1s/lqjcb7x5323625d47g9gdgmr0000gp/T//ccQR4rtp.s 			page 148


 8238 0006 1B02 0000 		.long	.LELTP0-.LASLTP0
 8239               	.LASLTP0:
 8240 000a 01        		.byte	0x1
 8241 000b 01        		.byte	0x1
 8242 000c F6        		.byte	0xf6
 8243 000d F5        		.byte	0xf5
 8244 000e 0A        		.byte	0xa
 8245 000f 00        		.byte	0x0
 8246 0010 01        		.byte	0x1
 8247 0011 01        		.byte	0x1
 8248 0012 01        		.byte	0x1
 8249 0013 01        		.byte	0x1
 8250 0014 00        		.byte	0x0
 8251 0015 00        		.byte	0x0
 8252 0016 00        		.byte	0x0
 8253 0017 01        		.byte	0x1
 8254 0018 2F41 7070 		.ascii	"/Applications/Arduino.app/Contents/Resources/Java/hardware/a"
 8254      6C69 6361 
 8254      7469 6F6E 
 8254      732F 4172 
 8254      6475 696E 
 8255 0054 7264 7569 		.ascii	"rduino/avr/cores/arduino"
 8255      6E6F 2F61 
 8255      7672 2F63 
 8255      6F72 6573 
 8255      2F61 7264 
 8256 006c 00        		.byte	0
 8257 006d 2F41 7070 		.ascii	"/Applications/Arduino.app/Contents/Resources/Java/hardware/a"
 8257      6C69 6361 
 8257      7469 6F6E 
 8257      732F 4172 
 8257      6475 696E 
 8258 00a9 7264 7569 		.ascii	"rduino/avr/variants/mega"
 8258      6E6F 2F61 
 8258      7672 2F76 
 8258      6172 6961 
 8258      6E74 732F 
 8259 00c1 00        		.byte	0
 8260 00c2 2F41 7070 		.ascii	"/Applications/Arduino.app/Contents/Resources/Java/hardware/t"
 8260      6C69 6361 
 8260      7469 6F6E 
 8260      732F 4172 
 8260      6475 696E 
 8261 00fe 6F6F 6C73 		.ascii	"ools/avr/bin/../lib/gcc/avr/4.3.2/../../../../avr/include"
 8261      2F61 7672 
 8261      2F62 696E 
 8261      2F2E 2E2F 
 8261      6C69 622F 
 8262 0137 00        		.byte	0
 8263 0138 2F41 7070 		.ascii	"/Applications/Arduino.app/Contents/Resources/Java/hardware/t"
 8263      6C69 6361 
 8263      7469 6F6E 
 8263      732F 4172 
 8263      6475 696E 
 8264 0174 6F6F 6C73 		.ascii	"ools/avr/bin/../lib/gcc/avr/4.3.2/include"
 8264      2F61 7672 
 8264      2F62 696E 
GAS LISTING /var/folders/1s/lqjcb7x5323625d47g9gdgmr0000gp/T//ccQR4rtp.s 			page 149


 8264      2F2E 2E2F 
 8264      6C69 622F 
 8265 019d 00        		.byte	0
 8266 019e 00        		.byte	0x0
 8267 019f 4861 7264 		.string	"HardwareSerial.cpp"
 8267      7761 7265 
 8267      5365 7269 
 8267      616C 2E63 
 8267      7070 00
 8268 01b2 01        		.uleb128 0x1
 8269 01b3 00        		.uleb128 0x0
 8270 01b4 00        		.uleb128 0x0
 8271 01b5 5072 696E 		.string	"Print.h"
 8271      742E 6800 
 8272 01bd 01        		.uleb128 0x1
 8273 01be 00        		.uleb128 0x0
 8274 01bf 00        		.uleb128 0x0
 8275 01c0 5374 7265 		.string	"Stream.h"
 8275      616D 2E68 
 8275      00
 8276 01c9 01        		.uleb128 0x1
 8277 01ca 00        		.uleb128 0x0
 8278 01cb 00        		.uleb128 0x0
 8279 01cc 7374 6464 		.string	"stddef.h"
 8279      6566 2E68 
 8279      00
 8280 01d5 04        		.uleb128 0x4
 8281 01d6 00        		.uleb128 0x0
 8282 01d7 00        		.uleb128 0x0
 8283 01d8 7374 6469 		.string	"stdint.h"
 8283      6E74 2E68 
 8283      00
 8284 01e1 03        		.uleb128 0x3
 8285 01e2 00        		.uleb128 0x0
 8286 01e3 00        		.uleb128 0x0
 8287 01e4 4172 6475 		.string	"Arduino.h"
 8287      696E 6F2E 
 8287      6800 
 8288 01ee 01        		.uleb128 0x1
 8289 01ef 00        		.uleb128 0x0
 8290 01f0 00        		.uleb128 0x0
 8291 01f1 5753 7472 		.string	"WString.h"
 8291      696E 672E 
 8291      6800 
 8292 01fb 01        		.uleb128 0x1
 8293 01fc 00        		.uleb128 0x0
 8294 01fd 00        		.uleb128 0x0
 8295 01fe 4861 7264 		.string	"HardwareSerial.h"
 8295      7761 7265 
 8295      5365 7269 
 8295      616C 2E68 
 8295      00
 8296 020f 01        		.uleb128 0x1
 8297 0210 00        		.uleb128 0x0
 8298 0211 00        		.uleb128 0x0
 8299 0212 7069 6E73 		.string	"pins_arduino.h"
 8299      5F61 7264 
GAS LISTING /var/folders/1s/lqjcb7x5323625d47g9gdgmr0000gp/T//ccQR4rtp.s 			page 150


 8299      7569 6E6F 
 8299      2E68 00
 8300 0221 02        		.uleb128 0x2
 8301 0222 00        		.uleb128 0x0
 8302 0223 00        		.uleb128 0x0
 8303 0224 00        		.byte	0x0
 8304               	.LELTP0:
 8305 0225 00        		.byte	0x0
 8306 0226 05        		.uleb128 0x5
 8307 0227 02        		.byte	0x2
 8308 0228 0000 0000 		.long	.Letext0
 8309 022c 00        		.byte	0x0
 8310 022d 01        		.uleb128 0x1
 8311 022e 01        		.byte	0x1
 8312 022f 00        		.byte	0x0
 8313 0230 05        		.uleb128 0x5
 8314 0231 02        		.byte	0x2
 8315 0232 0000 0000 		.long	.LSM0
 8316 0236 84        		.byte	0x84
 8317 0237 00        		.byte	0x0
 8318 0238 05        		.uleb128 0x5
 8319 0239 02        		.byte	0x2
 8320 023a 0000 0000 		.long	.LSM1
 8321 023e 01        		.byte	0x1
 8322 023f 00        		.byte	0x0
 8323 0240 05        		.uleb128 0x5
 8324 0241 02        		.byte	0x2
 8325 0242 0000 0000 		.long	.LFE76
 8326 0246 00        		.byte	0x0
 8327 0247 01        		.uleb128 0x1
 8328 0248 01        		.byte	0x1
 8329 0249 00        		.byte	0x0
 8330 024a 05        		.uleb128 0x5
 8331 024b 02        		.byte	0x2
 8332 024c 0000 0000 		.long	.LSM2
 8333 0250 89        		.byte	0x89
 8334 0251 00        		.byte	0x0
 8335 0252 05        		.uleb128 0x5
 8336 0253 02        		.byte	0x2
 8337 0254 0000 0000 		.long	.LSM3
 8338 0258 1E        		.byte	0x1e
 8339 0259 00        		.byte	0x0
 8340 025a 05        		.uleb128 0x5
 8341 025b 02        		.byte	0x2
 8342 025c 0000 0000 		.long	.LSM4
 8343 0260 15        		.byte	0x15
 8344 0261 00        		.byte	0x0
 8345 0262 05        		.uleb128 0x5
 8346 0263 02        		.byte	0x2
 8347 0264 0000 0000 		.long	.LSM5
 8348 0268 03        		.byte	0x3
 8349 0269 5B        		.sleb128 -37
 8350 026a 01        		.byte	0x1
 8351 026b 00        		.byte	0x0
 8352 026c 05        		.uleb128 0x5
 8353 026d 02        		.byte	0x2
 8354 026e 0000 0000 		.long	.LSM6
GAS LISTING /var/folders/1s/lqjcb7x5323625d47g9gdgmr0000gp/T//ccQR4rtp.s 			page 151


 8355 0272 1A        		.byte	0x1a
 8356 0273 00        		.byte	0x0
 8357 0274 05        		.uleb128 0x5
 8358 0275 02        		.byte	0x2
 8359 0276 0000 0000 		.long	.LSM7
 8360 027a 15        		.byte	0x15
 8361 027b 00        		.byte	0x0
 8362 027c 05        		.uleb128 0x5
 8363 027d 02        		.byte	0x2
 8364 027e 0000 0000 		.long	.LSM8
 8365 0282 15        		.byte	0x15
 8366 0283 00        		.byte	0x0
 8367 0284 05        		.uleb128 0x5
 8368 0285 02        		.byte	0x2
 8369 0286 0000 0000 		.long	.LSM9
 8370 028a 34        		.byte	0x34
 8371 028b 00        		.byte	0x0
 8372 028c 05        		.uleb128 0x5
 8373 028d 02        		.byte	0x2
 8374 028e 0000 0000 		.long	.LSM10
 8375 0292 20        		.byte	0x20
 8376 0293 00        		.byte	0x0
 8377 0294 05        		.uleb128 0x5
 8378 0295 02        		.byte	0x2
 8379 0296 0000 0000 		.long	.LFE77
 8380 029a 00        		.byte	0x0
 8381 029b 01        		.uleb128 0x1
 8382 029c 01        		.byte	0x1
 8383 029d 00        		.byte	0x0
 8384 029e 05        		.uleb128 0x5
 8385 029f 02        		.byte	0x2
 8386 02a0 0000 0000 		.long	.LSM11
 8387 02a4 A9        		.byte	0xa9
 8388 02a5 00        		.byte	0x0
 8389 02a6 05        		.uleb128 0x5
 8390 02a7 02        		.byte	0x2
 8391 02a8 0000 0000 		.long	.LSM12
 8392 02ac 01        		.byte	0x1
 8393 02ad 00        		.byte	0x0
 8394 02ae 05        		.uleb128 0x5
 8395 02af 02        		.byte	0x2
 8396 02b0 0000 0000 		.long	.LFE78
 8397 02b4 00        		.byte	0x0
 8398 02b5 01        		.uleb128 0x1
 8399 02b6 01        		.byte	0x1
 8400 02b7 00        		.byte	0x0
 8401 02b8 05        		.uleb128 0x5
 8402 02b9 02        		.byte	0x2
 8403 02ba 0000 0000 		.long	.LSM13
 8404 02be AB        		.byte	0xab
 8405 02bf 00        		.byte	0x0
 8406 02c0 05        		.uleb128 0x5
 8407 02c1 02        		.byte	0x2
 8408 02c2 0000 0000 		.long	.LSM14
 8409 02c6 16        		.byte	0x16
 8410 02c7 00        		.byte	0x0
 8411 02c8 05        		.uleb128 0x5
GAS LISTING /var/folders/1s/lqjcb7x5323625d47g9gdgmr0000gp/T//ccQR4rtp.s 			page 152


 8412 02c9 02        		.byte	0x2
 8413 02ca 0000 0000 		.long	.LSM15
 8414 02ce 15        		.byte	0x15
 8415 02cf 00        		.byte	0x0
 8416 02d0 05        		.uleb128 0x5
 8417 02d1 02        		.byte	0x2
 8418 02d2 0000 0000 		.long	.LSM16
 8419 02d6 03        		.byte	0x3
 8420 02d7 41        		.sleb128 -63
 8421 02d8 01        		.byte	0x1
 8422 02d9 00        		.byte	0x0
 8423 02da 05        		.uleb128 0x5
 8424 02db 02        		.byte	0x2
 8425 02dc 0000 0000 		.long	.LSM17
 8426 02e0 1A        		.byte	0x1a
 8427 02e1 00        		.byte	0x0
 8428 02e2 05        		.uleb128 0x5
 8429 02e3 02        		.byte	0x2
 8430 02e4 0000 0000 		.long	.LSM18
 8431 02e8 15        		.byte	0x15
 8432 02e9 00        		.byte	0x0
 8433 02ea 05        		.uleb128 0x5
 8434 02eb 02        		.byte	0x2
 8435 02ec 0000 0000 		.long	.LSM19
 8436 02f0 15        		.byte	0x15
 8437 02f1 00        		.byte	0x0
 8438 02f2 05        		.uleb128 0x5
 8439 02f3 02        		.byte	0x2
 8440 02f4 0000 0000 		.long	.LSM20
 8441 02f8 4E        		.byte	0x4e
 8442 02f9 00        		.byte	0x0
 8443 02fa 05        		.uleb128 0x5
 8444 02fb 02        		.byte	0x2
 8445 02fc 0000 0000 		.long	.LSM21
 8446 0300 16        		.byte	0x16
 8447 0301 00        		.byte	0x0
 8448 0302 05        		.uleb128 0x5
 8449 0303 02        		.byte	0x2
 8450 0304 0000 0000 		.long	.LFE79
 8451 0308 00        		.byte	0x0
 8452 0309 01        		.uleb128 0x1
 8453 030a 01        		.byte	0x1
 8454 030b 00        		.byte	0x0
 8455 030c 05        		.uleb128 0x5
 8456 030d 02        		.byte	0x2
 8457 030e 0000 0000 		.long	.LSM22
 8458 0312 BA        		.byte	0xba
 8459 0313 00        		.byte	0x0
 8460 0314 05        		.uleb128 0x5
 8461 0315 02        		.byte	0x2
 8462 0316 0000 0000 		.long	.LSM23
 8463 031a 01        		.byte	0x1
 8464 031b 00        		.byte	0x0
 8465 031c 05        		.uleb128 0x5
 8466 031d 02        		.byte	0x2
 8467 031e 0000 0000 		.long	.LFE80
 8468 0322 00        		.byte	0x0
GAS LISTING /var/folders/1s/lqjcb7x5323625d47g9gdgmr0000gp/T//ccQR4rtp.s 			page 153


 8469 0323 01        		.uleb128 0x1
 8470 0324 01        		.byte	0x1
 8471 0325 00        		.byte	0x0
 8472 0326 05        		.uleb128 0x5
 8473 0327 02        		.byte	0x2
 8474 0328 0000 0000 		.long	.LSM24
 8475 032c BC        		.byte	0xbc
 8476 032d 00        		.byte	0x0
 8477 032e 05        		.uleb128 0x5
 8478 032f 02        		.byte	0x2
 8479 0330 0000 0000 		.long	.LSM25
 8480 0334 16        		.byte	0x16
 8481 0335 00        		.byte	0x0
 8482 0336 05        		.uleb128 0x5
 8483 0337 02        		.byte	0x2
 8484 0338 0000 0000 		.long	.LSM26
 8485 033c 15        		.byte	0x15
 8486 033d 00        		.byte	0x0
 8487 033e 05        		.uleb128 0x5
 8488 033f 02        		.byte	0x2
 8489 0340 0000 0000 		.long	.LSM27
 8490 0344 03        		.byte	0x3
 8491 0345 B07F      		.sleb128 -80
 8492 0347 01        		.byte	0x1
 8493 0348 00        		.byte	0x0
 8494 0349 05        		.uleb128 0x5
 8495 034a 02        		.byte	0x2
 8496 034b 0000 0000 		.long	.LSM28
 8497 034f 1A        		.byte	0x1a
 8498 0350 00        		.byte	0x0
 8499 0351 05        		.uleb128 0x5
 8500 0352 02        		.byte	0x2
 8501 0353 0000 0000 		.long	.LSM29
 8502 0357 15        		.byte	0x15
 8503 0358 00        		.byte	0x0
 8504 0359 05        		.uleb128 0x5
 8505 035a 02        		.byte	0x2
 8506 035b 0000 0000 		.long	.LSM30
 8507 035f 15        		.byte	0x15
 8508 0360 00        		.byte	0x0
 8509 0361 05        		.uleb128 0x5
 8510 0362 02        		.byte	0x2
 8511 0363 0000 0000 		.long	.LSM31
 8512 0367 5F        		.byte	0x5f
 8513 0368 00        		.byte	0x0
 8514 0369 05        		.uleb128 0x5
 8515 036a 02        		.byte	0x2
 8516 036b 0000 0000 		.long	.LSM32
 8517 036f 16        		.byte	0x16
 8518 0370 00        		.byte	0x0
 8519 0371 05        		.uleb128 0x5
 8520 0372 02        		.byte	0x2
 8521 0373 0000 0000 		.long	.LFE81
 8522 0377 00        		.byte	0x0
 8523 0378 01        		.uleb128 0x1
 8524 0379 01        		.byte	0x1
 8525 037a 00        		.byte	0x0
GAS LISTING /var/folders/1s/lqjcb7x5323625d47g9gdgmr0000gp/T//ccQR4rtp.s 			page 154


 8526 037b 05        		.uleb128 0x5
 8527 037c 02        		.byte	0x2
 8528 037d 0000 0000 		.long	.LSM33
 8529 0381 CB        		.byte	0xcb
 8530 0382 00        		.byte	0x0
 8531 0383 05        		.uleb128 0x5
 8532 0384 02        		.byte	0x2
 8533 0385 0000 0000 		.long	.LSM34
 8534 0389 01        		.byte	0x1
 8535 038a 00        		.byte	0x0
 8536 038b 05        		.uleb128 0x5
 8537 038c 02        		.byte	0x2
 8538 038d 0000 0000 		.long	.LFE82
 8539 0391 00        		.byte	0x0
 8540 0392 01        		.uleb128 0x1
 8541 0393 01        		.byte	0x1
 8542 0394 00        		.byte	0x0
 8543 0395 05        		.uleb128 0x5
 8544 0396 02        		.byte	0x2
 8545 0397 0000 0000 		.long	.LSM35
 8546 039b CD        		.byte	0xcd
 8547 039c 00        		.byte	0x0
 8548 039d 05        		.uleb128 0x5
 8549 039e 02        		.byte	0x2
 8550 039f 0000 0000 		.long	.LSM36
 8551 03a3 16        		.byte	0x16
 8552 03a4 00        		.byte	0x0
 8553 03a5 05        		.uleb128 0x5
 8554 03a6 02        		.byte	0x2
 8555 03a7 0000 0000 		.long	.LSM37
 8556 03ab 15        		.byte	0x15
 8557 03ac 00        		.byte	0x0
 8558 03ad 05        		.uleb128 0x5
 8559 03ae 02        		.byte	0x2
 8560 03af 0000 0000 		.long	.LSM38
 8561 03b3 03        		.byte	0x3
 8562 03b4 9F7F      		.sleb128 -97
 8563 03b6 01        		.byte	0x1
 8564 03b7 00        		.byte	0x0
 8565 03b8 05        		.uleb128 0x5
 8566 03b9 02        		.byte	0x2
 8567 03ba 0000 0000 		.long	.LSM39
 8568 03be 1A        		.byte	0x1a
 8569 03bf 00        		.byte	0x0
 8570 03c0 05        		.uleb128 0x5
 8571 03c1 02        		.byte	0x2
 8572 03c2 0000 0000 		.long	.LSM40
 8573 03c6 15        		.byte	0x15
 8574 03c7 00        		.byte	0x0
 8575 03c8 05        		.uleb128 0x5
 8576 03c9 02        		.byte	0x2
 8577 03ca 0000 0000 		.long	.LSM41
 8578 03ce 15        		.byte	0x15
 8579 03cf 00        		.byte	0x0
 8580 03d0 05        		.uleb128 0x5
 8581 03d1 02        		.byte	0x2
 8582 03d2 0000 0000 		.long	.LSM42
GAS LISTING /var/folders/1s/lqjcb7x5323625d47g9gdgmr0000gp/T//ccQR4rtp.s 			page 155


 8583 03d6 70        		.byte	0x70
 8584 03d7 00        		.byte	0x0
 8585 03d8 05        		.uleb128 0x5
 8586 03d9 02        		.byte	0x2
 8587 03da 0000 0000 		.long	.LSM43
 8588 03de 16        		.byte	0x16
 8589 03df 00        		.byte	0x0
 8590 03e0 05        		.uleb128 0x5
 8591 03e1 02        		.byte	0x2
 8592 03e2 0000 0000 		.long	.LFE83
 8593 03e6 00        		.byte	0x0
 8594 03e7 01        		.uleb128 0x1
 8595 03e8 01        		.byte	0x1
 8596 03e9 00        		.byte	0x0
 8597 03ea 05        		.uleb128 0x5
 8598 03eb 02        		.byte	0x2
 8599 03ec 0000 0000 		.long	.LSM44
 8600 03f0 DA        		.byte	0xda
 8601 03f1 00        		.byte	0x0
 8602 03f2 05        		.uleb128 0x5
 8603 03f3 02        		.byte	0x2
 8604 03f4 0000 0000 		.long	.LSM45
 8605 03f8 03        		.byte	0x3
 8606 03f9 F101      		.sleb128 241
 8607 03fb 01        		.byte	0x1
 8608 03fc 00        		.byte	0x0
 8609 03fd 05        		.uleb128 0x5
 8610 03fe 02        		.byte	0x2
 8611 03ff 0000 0000 		.long	.LSM46
 8612 0403 03        		.byte	0x3
 8613 0404 927E      		.sleb128 -238
 8614 0406 01        		.byte	0x1
 8615 0407 00        		.byte	0x0
 8616 0408 05        		.uleb128 0x5
 8617 0409 02        		.byte	0x2
 8618 040a 0000 0000 		.long	.LSM47
 8619 040e 03        		.byte	0x3
 8620 040f EE01      		.sleb128 238
 8621 0411 01        		.byte	0x1
 8622 0412 00        		.byte	0x0
 8623 0413 05        		.uleb128 0x5
 8624 0414 02        		.byte	0x2
 8625 0415 0000 0000 		.long	.LSM48
 8626 0419 03        		.byte	0x3
 8627 041a 957E      		.sleb128 -235
 8628 041c 01        		.byte	0x1
 8629 041d 00        		.byte	0x0
 8630 041e 05        		.uleb128 0x5
 8631 041f 02        		.byte	0x2
 8632 0420 0000 0000 		.long	.LSM49
 8633 0424 03        		.byte	0x3
 8634 0425 EB01      		.sleb128 235
 8635 0427 01        		.byte	0x1
 8636 0428 00        		.byte	0x0
 8637 0429 05        		.uleb128 0x5
 8638 042a 02        		.byte	0x2
 8639 042b 0000 0000 		.long	.LSM50
GAS LISTING /var/folders/1s/lqjcb7x5323625d47g9gdgmr0000gp/T//ccQR4rtp.s 			page 156


 8640 042f 03        		.byte	0x3
 8641 0430 987E      		.sleb128 -232
 8642 0432 01        		.byte	0x1
 8643 0433 00        		.byte	0x0
 8644 0434 05        		.uleb128 0x5
 8645 0435 02        		.byte	0x2
 8646 0436 0000 0000 		.long	.LSM51
 8647 043a FC        		.byte	0xfc
 8648 043b 00        		.byte	0x0
 8649 043c 05        		.uleb128 0x5
 8650 043d 02        		.byte	0x2
 8651 043e 0000 0000 		.long	.LSM52
 8652 0442 03        		.byte	0x3
 8653 0443 9B7E      		.sleb128 -229
 8654 0445 01        		.byte	0x1
 8655 0446 00        		.byte	0x0
 8656 0447 05        		.uleb128 0x5
 8657 0448 02        		.byte	0x2
 8658 0449 0000 0000 		.long	.LFE84
 8659 044d 00        		.byte	0x0
 8660 044e 01        		.uleb128 0x1
 8661 044f 01        		.byte	0x1
 8662 0450 00        		.byte	0x0
 8663 0451 05        		.uleb128 0x5
 8664 0452 02        		.byte	0x2
 8665 0453 0000 0000 		.long	.LSM53
 8666 0457 F6        		.byte	0xf6
 8667 0458 00        		.byte	0x0
 8668 0459 05        		.uleb128 0x5
 8669 045a 02        		.byte	0x2
 8670 045b 0000 0000 		.long	.LSM54
 8671 045f 19        		.byte	0x19
 8672 0460 00        		.byte	0x0
 8673 0461 05        		.uleb128 0x5
 8674 0462 02        		.byte	0x2
 8675 0463 0000 0000 		.long	.LSM55
 8676 0467 17        		.byte	0x17
 8677 0468 00        		.byte	0x0
 8678 0469 05        		.uleb128 0x5
 8679 046a 02        		.byte	0x2
 8680 046b 0000 0000 		.long	.LSM56
 8681 046f 1B        		.byte	0x1b
 8682 0470 00        		.byte	0x0
 8683 0471 05        		.uleb128 0x5
 8684 0472 02        		.byte	0x2
 8685 0473 0000 0000 		.long	.LSM57
 8686 0477 15        		.byte	0x15
 8687 0478 00        		.byte	0x0
 8688 0479 05        		.uleb128 0x5
 8689 047a 02        		.byte	0x2
 8690 047b 0000 0000 		.long	.LSM58
 8691 047f 17        		.byte	0x17
 8692 0480 00        		.byte	0x0
 8693 0481 05        		.uleb128 0x5
 8694 0482 02        		.byte	0x2
 8695 0483 0000 0000 		.long	.LSM59
 8696 0487 1B        		.byte	0x1b
GAS LISTING /var/folders/1s/lqjcb7x5323625d47g9gdgmr0000gp/T//ccQR4rtp.s 			page 157


 8697 0488 00        		.byte	0x0
 8698 0489 05        		.uleb128 0x5
 8699 048a 02        		.byte	0x2
 8700 048b 0000 0000 		.long	.LFE85
 8701 048f 00        		.byte	0x0
 8702 0490 01        		.uleb128 0x1
 8703 0491 01        		.byte	0x1
 8704 0492 00        		.byte	0x0
 8705 0493 05        		.uleb128 0x5
 8706 0494 02        		.byte	0x2
 8707 0495 0000 0000 		.long	.LSM60
 8708 0499 03        		.byte	0x3
 8709 049a 8102      		.sleb128 257
 8710 049c 01        		.byte	0x1
 8711 049d 00        		.byte	0x0
 8712 049e 05        		.uleb128 0x5
 8713 049f 02        		.byte	0x2
 8714 04a0 0000 0000 		.long	.LSM61
 8715 04a4 16        		.byte	0x16
 8716 04a5 00        		.byte	0x0
 8717 04a6 05        		.uleb128 0x5
 8718 04a7 02        		.byte	0x2
 8719 04a8 0000 0000 		.long	.LSM62
 8720 04ac 16        		.byte	0x16
 8721 04ad 00        		.byte	0x0
 8722 04ae 05        		.uleb128 0x5
 8723 04af 02        		.byte	0x2
 8724 04b0 0000 0000 		.long	.LSM63
 8725 04b4 18        		.byte	0x18
 8726 04b5 00        		.byte	0x0
 8727 04b6 05        		.uleb128 0x5
 8728 04b7 02        		.byte	0x2
 8729 04b8 0000 0000 		.long	.LSM64
 8730 04bc 15        		.byte	0x15
 8731 04bd 00        		.byte	0x0
 8732 04be 05        		.uleb128 0x5
 8733 04bf 02        		.byte	0x2
 8734 04c0 0000 0000 		.long	.LSM65
 8735 04c4 16        		.byte	0x16
 8736 04c5 00        		.byte	0x0
 8737 04c6 05        		.uleb128 0x5
 8738 04c7 02        		.byte	0x2
 8739 04c8 0000 0000 		.long	.LSM66
 8740 04cc 16        		.byte	0x16
 8741 04cd 00        		.byte	0x0
 8742 04ce 05        		.uleb128 0x5
 8743 04cf 02        		.byte	0x2
 8744 04d0 0000 0000 		.long	.LFE86
 8745 04d4 00        		.byte	0x0
 8746 04d5 01        		.uleb128 0x1
 8747 04d6 01        		.byte	0x1
 8748 04d7 00        		.byte	0x0
 8749 04d8 05        		.uleb128 0x5
 8750 04d9 02        		.byte	0x2
 8751 04da 0000 0000 		.long	.LSM67
 8752 04de 03        		.byte	0x3
 8753 04df 9202      		.sleb128 274
GAS LISTING /var/folders/1s/lqjcb7x5323625d47g9gdgmr0000gp/T//ccQR4rtp.s 			page 158


 8754 04e1 01        		.byte	0x1
 8755 04e2 00        		.byte	0x0
 8756 04e3 05        		.uleb128 0x5
 8757 04e4 02        		.byte	0x2
 8758 04e5 0000 0000 		.long	.LSM68
 8759 04e9 16        		.byte	0x16
 8760 04ea 00        		.byte	0x0
 8761 04eb 05        		.uleb128 0x5
 8762 04ec 02        		.byte	0x2
 8763 04ed 0000 0000 		.long	.LSM69
 8764 04f1 16        		.byte	0x16
 8765 04f2 00        		.byte	0x0
 8766 04f3 05        		.uleb128 0x5
 8767 04f4 02        		.byte	0x2
 8768 04f5 0000 0000 		.long	.LSM70
 8769 04f9 18        		.byte	0x18
 8770 04fa 00        		.byte	0x0
 8771 04fb 05        		.uleb128 0x5
 8772 04fc 02        		.byte	0x2
 8773 04fd 0000 0000 		.long	.LSM71
 8774 0501 15        		.byte	0x15
 8775 0502 00        		.byte	0x0
 8776 0503 05        		.uleb128 0x5
 8777 0504 02        		.byte	0x2
 8778 0505 0000 0000 		.long	.LSM72
 8779 0509 16        		.byte	0x16
 8780 050a 00        		.byte	0x0
 8781 050b 05        		.uleb128 0x5
 8782 050c 02        		.byte	0x2
 8783 050d 0000 0000 		.long	.LSM73
 8784 0511 16        		.byte	0x16
 8785 0512 00        		.byte	0x0
 8786 0513 05        		.uleb128 0x5
 8787 0514 02        		.byte	0x2
 8788 0515 0000 0000 		.long	.LFE87
 8789 0519 00        		.byte	0x0
 8790 051a 01        		.uleb128 0x1
 8791 051b 01        		.byte	0x1
 8792 051c 00        		.byte	0x0
 8793 051d 05        		.uleb128 0x5
 8794 051e 02        		.byte	0x2
 8795 051f 0000 0000 		.long	.LSM74
 8796 0523 03        		.byte	0x3
 8797 0524 A302      		.sleb128 291
 8798 0526 01        		.byte	0x1
 8799 0527 00        		.byte	0x0
 8800 0528 05        		.uleb128 0x5
 8801 0529 02        		.byte	0x2
 8802 052a 0000 0000 		.long	.LSM75
 8803 052e 16        		.byte	0x16
 8804 052f 00        		.byte	0x0
 8805 0530 05        		.uleb128 0x5
 8806 0531 02        		.byte	0x2
 8807 0532 0000 0000 		.long	.LSM76
 8808 0536 16        		.byte	0x16
 8809 0537 00        		.byte	0x0
 8810 0538 05        		.uleb128 0x5
GAS LISTING /var/folders/1s/lqjcb7x5323625d47g9gdgmr0000gp/T//ccQR4rtp.s 			page 159


 8811 0539 02        		.byte	0x2
 8812 053a 0000 0000 		.long	.LSM77
 8813 053e 18        		.byte	0x18
 8814 053f 00        		.byte	0x0
 8815 0540 05        		.uleb128 0x5
 8816 0541 02        		.byte	0x2
 8817 0542 0000 0000 		.long	.LSM78
 8818 0546 15        		.byte	0x15
 8819 0547 00        		.byte	0x0
 8820 0548 05        		.uleb128 0x5
 8821 0549 02        		.byte	0x2
 8822 054a 0000 0000 		.long	.LSM79
 8823 054e 16        		.byte	0x16
 8824 054f 00        		.byte	0x0
 8825 0550 05        		.uleb128 0x5
 8826 0551 02        		.byte	0x2
 8827 0552 0000 0000 		.long	.LSM80
 8828 0556 16        		.byte	0x16
 8829 0557 00        		.byte	0x0
 8830 0558 05        		.uleb128 0x5
 8831 0559 02        		.byte	0x2
 8832 055a 0000 0000 		.long	.LFE88
 8833 055e 00        		.byte	0x0
 8834 055f 01        		.uleb128 0x1
 8835 0560 01        		.byte	0x1
 8836 0561 00        		.byte	0x0
 8837 0562 05        		.uleb128 0x5
 8838 0563 02        		.byte	0x2
 8839 0564 0000 0000 		.long	.LSM81
 8840 0568 03        		.byte	0x3
 8841 0569 BA02      		.sleb128 314
 8842 056b 01        		.byte	0x1
 8843 056c 00        		.byte	0x0
 8844 056d 05        		.uleb128 0x5
 8845 056e 02        		.byte	0x2
 8846 056f 0000 0000 		.long	.LSM82
 8847 0573 04        		.byte	0x4
 8848 0574 02        		.uleb128 0x2
 8849 0575 03        		.byte	0x3
 8850 0576 F07D      		.sleb128 -272
 8851 0578 01        		.byte	0x1
 8852 0579 00        		.byte	0x0
 8853 057a 05        		.uleb128 0x5
 8854 057b 02        		.byte	0x2
 8855 057c 0000 0000 		.long	.LSM83
 8856 0580 04        		.byte	0x4
 8857 0581 03        		.uleb128 0x3
 8858 0582 1E        		.byte	0x1e
 8859 0583 00        		.byte	0x0
 8860 0584 05        		.uleb128 0x5
 8861 0585 02        		.byte	0x2
 8862 0586 0000 0000 		.long	.LSM84
 8863 058a 04        		.byte	0x4
 8864 058b 01        		.uleb128 0x1
 8865 058c 03        		.byte	0x3
 8866 058d 8602      		.sleb128 262
 8867 058f 01        		.byte	0x1
GAS LISTING /var/folders/1s/lqjcb7x5323625d47g9gdgmr0000gp/T//ccQR4rtp.s 			page 160


 8868 0590 00        		.byte	0x0
 8869 0591 05        		.uleb128 0x5
 8870 0592 02        		.byte	0x2
 8871 0593 0000 0000 		.long	.LSM85
 8872 0597 16        		.byte	0x16
 8873 0598 00        		.byte	0x0
 8874 0599 05        		.uleb128 0x5
 8875 059a 02        		.byte	0x2
 8876 059b 0000 0000 		.long	.LSM86
 8877 059f 15        		.byte	0x15
 8878 05a0 00        		.byte	0x0
 8879 05a1 05        		.uleb128 0x5
 8880 05a2 02        		.byte	0x2
 8881 05a3 0000 0000 		.long	.LSM87
 8882 05a7 15        		.byte	0x15
 8883 05a8 00        		.byte	0x0
 8884 05a9 05        		.uleb128 0x5
 8885 05aa 02        		.byte	0x2
 8886 05ab 0000 0000 		.long	.LSM88
 8887 05af 15        		.byte	0x15
 8888 05b0 00        		.byte	0x0
 8889 05b1 05        		.uleb128 0x5
 8890 05b2 02        		.byte	0x2
 8891 05b3 0000 0000 		.long	.LSM89
 8892 05b7 15        		.byte	0x15
 8893 05b8 00        		.byte	0x0
 8894 05b9 05        		.uleb128 0x5
 8895 05ba 02        		.byte	0x2
 8896 05bb 0000 0000 		.long	.LSM90
 8897 05bf 15        		.byte	0x15
 8898 05c0 00        		.byte	0x0
 8899 05c1 05        		.uleb128 0x5
 8900 05c2 02        		.byte	0x2
 8901 05c3 0000 0000 		.long	.LSM91
 8902 05c7 15        		.byte	0x15
 8903 05c8 00        		.byte	0x0
 8904 05c9 05        		.uleb128 0x5
 8905 05ca 02        		.byte	0x2
 8906 05cb 0000 0000 		.long	.LSM92
 8907 05cf 15        		.byte	0x15
 8908 05d0 00        		.byte	0x0
 8909 05d1 05        		.uleb128 0x5
 8910 05d2 02        		.byte	0x2
 8911 05d3 0000 0000 		.long	.LSM93
 8912 05d7 15        		.byte	0x15
 8913 05d8 00        		.byte	0x0
 8914 05d9 05        		.uleb128 0x5
 8915 05da 02        		.byte	0x2
 8916 05db 0000 0000 		.long	.LSM94
 8917 05df 15        		.byte	0x15
 8918 05e0 00        		.byte	0x0
 8919 05e1 05        		.uleb128 0x5
 8920 05e2 02        		.byte	0x2
 8921 05e3 0000 0000 		.long	.LSM95
 8922 05e7 15        		.byte	0x15
 8923 05e8 00        		.byte	0x0
 8924 05e9 05        		.uleb128 0x5
GAS LISTING /var/folders/1s/lqjcb7x5323625d47g9gdgmr0000gp/T//ccQR4rtp.s 			page 161


 8925 05ea 02        		.byte	0x2
 8926 05eb 0000 0000 		.long	.LSM96
 8927 05ef 15        		.byte	0x15
 8928 05f0 00        		.byte	0x0
 8929 05f1 05        		.uleb128 0x5
 8930 05f2 02        		.byte	0x2
 8931 05f3 0000 0000 		.long	.LSM97
 8932 05f7 15        		.byte	0x15
 8933 05f8 00        		.byte	0x0
 8934 05f9 05        		.uleb128 0x5
 8935 05fa 02        		.byte	0x2
 8936 05fb 0000 0000 		.long	.LSM98
 8937 05ff 15        		.byte	0x15
 8938 0600 00        		.byte	0x0
 8939 0601 05        		.uleb128 0x5
 8940 0602 02        		.byte	0x2
 8941 0603 0000 0000 		.long	.LFE90
 8942 0607 00        		.byte	0x0
 8943 0608 01        		.uleb128 0x1
 8944 0609 01        		.byte	0x1
 8945 060a 00        		.byte	0x0
 8946 060b 05        		.uleb128 0x5
 8947 060c 02        		.byte	0x2
 8948 060d 0000 0000 		.long	.LSM99
 8949 0611 03        		.byte	0x3
 8950 0612 BA02      		.sleb128 314
 8951 0614 01        		.byte	0x1
 8952 0615 00        		.byte	0x0
 8953 0616 05        		.uleb128 0x5
 8954 0617 02        		.byte	0x2
 8955 0618 0000 0000 		.long	.LSM100
 8956 061c 04        		.byte	0x4
 8957 061d 02        		.uleb128 0x2
 8958 061e 03        		.byte	0x3
 8959 061f F07D      		.sleb128 -272
 8960 0621 01        		.byte	0x1
 8961 0622 00        		.byte	0x0
 8962 0623 05        		.uleb128 0x5
 8963 0624 02        		.byte	0x2
 8964 0625 0000 0000 		.long	.LSM101
 8965 0629 04        		.byte	0x4
 8966 062a 03        		.uleb128 0x3
 8967 062b 1E        		.byte	0x1e
 8968 062c 00        		.byte	0x0
 8969 062d 05        		.uleb128 0x5
 8970 062e 02        		.byte	0x2
 8971 062f 0000 0000 		.long	.LSM102
 8972 0633 04        		.byte	0x4
 8973 0634 01        		.uleb128 0x1
 8974 0635 03        		.byte	0x3
 8975 0636 8602      		.sleb128 262
 8976 0638 01        		.byte	0x1
 8977 0639 00        		.byte	0x0
 8978 063a 05        		.uleb128 0x5
 8979 063b 02        		.byte	0x2
 8980 063c 0000 0000 		.long	.LSM103
 8981 0640 16        		.byte	0x16
GAS LISTING /var/folders/1s/lqjcb7x5323625d47g9gdgmr0000gp/T//ccQR4rtp.s 			page 162


 8982 0641 00        		.byte	0x0
 8983 0642 05        		.uleb128 0x5
 8984 0643 02        		.byte	0x2
 8985 0644 0000 0000 		.long	.LSM104
 8986 0648 15        		.byte	0x15
 8987 0649 00        		.byte	0x0
 8988 064a 05        		.uleb128 0x5
 8989 064b 02        		.byte	0x2
 8990 064c 0000 0000 		.long	.LSM105
 8991 0650 15        		.byte	0x15
 8992 0651 00        		.byte	0x0
 8993 0652 05        		.uleb128 0x5
 8994 0653 02        		.byte	0x2
 8995 0654 0000 0000 		.long	.LSM106
 8996 0658 15        		.byte	0x15
 8997 0659 00        		.byte	0x0
 8998 065a 05        		.uleb128 0x5
 8999 065b 02        		.byte	0x2
 9000 065c 0000 0000 		.long	.LSM107
 9001 0660 15        		.byte	0x15
 9002 0661 00        		.byte	0x0
 9003 0662 05        		.uleb128 0x5
 9004 0663 02        		.byte	0x2
 9005 0664 0000 0000 		.long	.LSM108
 9006 0668 15        		.byte	0x15
 9007 0669 00        		.byte	0x0
 9008 066a 05        		.uleb128 0x5
 9009 066b 02        		.byte	0x2
 9010 066c 0000 0000 		.long	.LSM109
 9011 0670 15        		.byte	0x15
 9012 0671 00        		.byte	0x0
 9013 0672 05        		.uleb128 0x5
 9014 0673 02        		.byte	0x2
 9015 0674 0000 0000 		.long	.LSM110
 9016 0678 15        		.byte	0x15
 9017 0679 00        		.byte	0x0
 9018 067a 05        		.uleb128 0x5
 9019 067b 02        		.byte	0x2
 9020 067c 0000 0000 		.long	.LSM111
 9021 0680 15        		.byte	0x15
 9022 0681 00        		.byte	0x0
 9023 0682 05        		.uleb128 0x5
 9024 0683 02        		.byte	0x2
 9025 0684 0000 0000 		.long	.LSM112
 9026 0688 15        		.byte	0x15
 9027 0689 00        		.byte	0x0
 9028 068a 05        		.uleb128 0x5
 9029 068b 02        		.byte	0x2
 9030 068c 0000 0000 		.long	.LSM113
 9031 0690 15        		.byte	0x15
 9032 0691 00        		.byte	0x0
 9033 0692 05        		.uleb128 0x5
 9034 0693 02        		.byte	0x2
 9035 0694 0000 0000 		.long	.LSM114
 9036 0698 15        		.byte	0x15
 9037 0699 00        		.byte	0x0
 9038 069a 05        		.uleb128 0x5
GAS LISTING /var/folders/1s/lqjcb7x5323625d47g9gdgmr0000gp/T//ccQR4rtp.s 			page 163


 9039 069b 02        		.byte	0x2
 9040 069c 0000 0000 		.long	.LSM115
 9041 06a0 15        		.byte	0x15
 9042 06a1 00        		.byte	0x0
 9043 06a2 05        		.uleb128 0x5
 9044 06a3 02        		.byte	0x2
 9045 06a4 0000 0000 		.long	.LSM116
 9046 06a8 15        		.byte	0x15
 9047 06a9 00        		.byte	0x0
 9048 06aa 05        		.uleb128 0x5
 9049 06ab 02        		.byte	0x2
 9050 06ac 0000 0000 		.long	.LFE91
 9051 06b0 00        		.byte	0x0
 9052 06b1 01        		.uleb128 0x1
 9053 06b2 01        		.byte	0x1
 9054 06b3 00        		.byte	0x0
 9055 06b4 05        		.uleb128 0x5
 9056 06b5 02        		.byte	0x2
 9057 06b6 0000 0000 		.long	.LSM117
 9058 06ba 03        		.byte	0x3
 9059 06bb CD02      		.sleb128 333
 9060 06bd 01        		.byte	0x1
 9061 06be 00        		.byte	0x0
 9062 06bf 05        		.uleb128 0x5
 9063 06c0 02        		.byte	0x2
 9064 06c1 0000 0000 		.long	.LSM118
 9065 06c5 01        		.byte	0x1
 9066 06c6 00        		.byte	0x0
 9067 06c7 05        		.uleb128 0x5
 9068 06c8 02        		.byte	0x2
 9069 06c9 0000 0000 		.long	.LSM119
 9070 06cd 25        		.byte	0x25
 9071 06ce 00        		.byte	0x0
 9072 06cf 05        		.uleb128 0x5
 9073 06d0 02        		.byte	0x2
 9074 06d1 0000 0000 		.long	.LSM120
 9075 06d5 13        		.byte	0x13
 9076 06d6 00        		.byte	0x0
 9077 06d7 05        		.uleb128 0x5
 9078 06d8 02        		.byte	0x2
 9079 06d9 0000 0000 		.long	.LSM121
 9080 06dd 15        		.byte	0x15
 9081 06de 00        		.byte	0x0
 9082 06df 05        		.uleb128 0x5
 9083 06e0 02        		.byte	0x2
 9084 06e1 0000 0000 		.long	.LSM122
 9085 06e5 15        		.byte	0x15
 9086 06e6 00        		.byte	0x0
 9087 06e7 05        		.uleb128 0x5
 9088 06e8 02        		.byte	0x2
 9089 06e9 0000 0000 		.long	.LSM123
 9090 06ed 16        		.byte	0x16
 9091 06ee 00        		.byte	0x0
 9092 06ef 05        		.uleb128 0x5
 9093 06f0 02        		.byte	0x2
 9094 06f1 0000 0000 		.long	.LSM124
 9095 06f5 15        		.byte	0x15
GAS LISTING /var/folders/1s/lqjcb7x5323625d47g9gdgmr0000gp/T//ccQR4rtp.s 			page 164


 9096 06f6 00        		.byte	0x0
 9097 06f7 05        		.uleb128 0x5
 9098 06f8 02        		.byte	0x2
 9099 06f9 0000 0000 		.long	.LSM125
 9100 06fd 17        		.byte	0x17
 9101 06fe 00        		.byte	0x0
 9102 06ff 05        		.uleb128 0x5
 9103 0700 02        		.byte	0x2
 9104 0701 0000 0000 		.long	.LSM126
 9105 0705 1B        		.byte	0x1b
 9106 0706 00        		.byte	0x0
 9107 0707 05        		.uleb128 0x5
 9108 0708 02        		.byte	0x2
 9109 0709 0000 0000 		.long	.LSM127
 9110 070d 15        		.byte	0x15
 9111 070e 00        		.byte	0x0
 9112 070f 05        		.uleb128 0x5
 9113 0710 02        		.byte	0x2
 9114 0711 0000 0000 		.long	.LSM128
 9115 0715 16        		.byte	0x16
 9116 0716 00        		.byte	0x0
 9117 0717 05        		.uleb128 0x5
 9118 0718 02        		.byte	0x2
 9119 0719 0000 0000 		.long	.LSM129
 9120 071d 16        		.byte	0x16
 9121 071e 00        		.byte	0x0
 9122 071f 05        		.uleb128 0x5
 9123 0720 02        		.byte	0x2
 9124 0721 0000 0000 		.long	.LSM130
 9125 0725 15        		.byte	0x15
 9126 0726 00        		.byte	0x0
 9127 0727 05        		.uleb128 0x5
 9128 0728 02        		.byte	0x2
 9129 0729 0000 0000 		.long	.LSM131
 9130 072d 15        		.byte	0x15
 9131 072e 00        		.byte	0x0
 9132 072f 05        		.uleb128 0x5
 9133 0730 02        		.byte	0x2
 9134 0731 0000 0000 		.long	.LSM132
 9135 0735 15        		.byte	0x15
 9136 0736 00        		.byte	0x0
 9137 0737 05        		.uleb128 0x5
 9138 0738 02        		.byte	0x2
 9139 0739 0000 0000 		.long	.LSM133
 9140 073d 15        		.byte	0x15
 9141 073e 00        		.byte	0x0
 9142 073f 05        		.uleb128 0x5
 9143 0740 02        		.byte	0x2
 9144 0741 0000 0000 		.long	.LFE92
 9145 0745 00        		.byte	0x0
 9146 0746 01        		.uleb128 0x1
 9147 0747 01        		.byte	0x1
 9148 0748 00        		.byte	0x0
 9149 0749 05        		.uleb128 0x5
 9150 074a 02        		.byte	0x2
 9151 074b 0000 0000 		.long	.LSM134
 9152 074f 03        		.byte	0x3
GAS LISTING /var/folders/1s/lqjcb7x5323625d47g9gdgmr0000gp/T//ccQR4rtp.s 			page 165


 9153 0750 F702      		.sleb128 375
 9154 0752 01        		.byte	0x1
 9155 0753 00        		.byte	0x0
 9156 0754 05        		.uleb128 0x5
 9157 0755 02        		.byte	0x2
 9158 0756 0000 0000 		.long	.LSM135
 9159 075a 01        		.byte	0x1
 9160 075b 00        		.byte	0x0
 9161 075c 05        		.uleb128 0x5
 9162 075d 02        		.byte	0x2
 9163 075e 0000 0000 		.long	.LSM136
 9164 0762 26        		.byte	0x26
 9165 0763 00        		.byte	0x0
 9166 0764 05        		.uleb128 0x5
 9167 0765 02        		.byte	0x2
 9168 0766 0000 0000 		.long	.LSM137
 9169 076a 13        		.byte	0x13
 9170 076b 00        		.byte	0x0
 9171 076c 05        		.uleb128 0x5
 9172 076d 02        		.byte	0x2
 9173 076e 0000 0000 		.long	.LSM138
 9174 0772 15        		.byte	0x15
 9175 0773 00        		.byte	0x0
 9176 0774 05        		.uleb128 0x5
 9177 0775 02        		.byte	0x2
 9178 0776 0000 0000 		.long	.LSM139
 9179 077a 15        		.byte	0x15
 9180 077b 00        		.byte	0x0
 9181 077c 05        		.uleb128 0x5
 9182 077d 02        		.byte	0x2
 9183 077e 0000 0000 		.long	.LSM140
 9184 0782 16        		.byte	0x16
 9185 0783 00        		.byte	0x0
 9186 0784 05        		.uleb128 0x5
 9187 0785 02        		.byte	0x2
 9188 0786 0000 0000 		.long	.LSM141
 9189 078a 15        		.byte	0x15
 9190 078b 00        		.byte	0x0
 9191 078c 05        		.uleb128 0x5
 9192 078d 02        		.byte	0x2
 9193 078e 0000 0000 		.long	.LSM142
 9194 0792 17        		.byte	0x17
 9195 0793 00        		.byte	0x0
 9196 0794 05        		.uleb128 0x5
 9197 0795 02        		.byte	0x2
 9198 0796 0000 0000 		.long	.LSM143
 9199 079a 1B        		.byte	0x1b
 9200 079b 00        		.byte	0x0
 9201 079c 05        		.uleb128 0x5
 9202 079d 02        		.byte	0x2
 9203 079e 0000 0000 		.long	.LSM144
 9204 07a2 15        		.byte	0x15
 9205 07a3 00        		.byte	0x0
 9206 07a4 05        		.uleb128 0x5
 9207 07a5 02        		.byte	0x2
 9208 07a6 0000 0000 		.long	.LSM145
 9209 07aa 1A        		.byte	0x1a
GAS LISTING /var/folders/1s/lqjcb7x5323625d47g9gdgmr0000gp/T//ccQR4rtp.s 			page 166


 9210 07ab 00        		.byte	0x0
 9211 07ac 05        		.uleb128 0x5
 9212 07ad 02        		.byte	0x2
 9213 07ae 0000 0000 		.long	.LSM146
 9214 07b2 16        		.byte	0x16
 9215 07b3 00        		.byte	0x0
 9216 07b4 05        		.uleb128 0x5
 9217 07b5 02        		.byte	0x2
 9218 07b6 0000 0000 		.long	.LSM147
 9219 07ba 15        		.byte	0x15
 9220 07bb 00        		.byte	0x0
 9221 07bc 05        		.uleb128 0x5
 9222 07bd 02        		.byte	0x2
 9223 07be 0000 0000 		.long	.LSM148
 9224 07c2 15        		.byte	0x15
 9225 07c3 00        		.byte	0x0
 9226 07c4 05        		.uleb128 0x5
 9227 07c5 02        		.byte	0x2
 9228 07c6 0000 0000 		.long	.LSM149
 9229 07ca 15        		.byte	0x15
 9230 07cb 00        		.byte	0x0
 9231 07cc 05        		.uleb128 0x5
 9232 07cd 02        		.byte	0x2
 9233 07ce 0000 0000 		.long	.LSM150
 9234 07d2 15        		.byte	0x15
 9235 07d3 00        		.byte	0x0
 9236 07d4 05        		.uleb128 0x5
 9237 07d5 02        		.byte	0x2
 9238 07d6 0000 0000 		.long	.LFE93
 9239 07da 00        		.byte	0x0
 9240 07db 01        		.uleb128 0x1
 9241 07dc 01        		.byte	0x1
 9242 07dd 00        		.byte	0x0
 9243 07de 05        		.uleb128 0x5
 9244 07df 02        		.byte	0x2
 9245 07e0 0000 0000 		.long	.LSM151
 9246 07e4 03        		.byte	0x3
 9247 07e5 A603      		.sleb128 422
 9248 07e7 01        		.byte	0x1
 9249 07e8 00        		.byte	0x0
 9250 07e9 05        		.uleb128 0x5
 9251 07ea 02        		.byte	0x2
 9252 07eb 0000 0000 		.long	.LSM152
 9253 07ef 17        		.byte	0x17
 9254 07f0 00        		.byte	0x0
 9255 07f1 05        		.uleb128 0x5
 9256 07f2 02        		.byte	0x2
 9257 07f3 0000 0000 		.long	.LSM153
 9258 07f7 17        		.byte	0x17
 9259 07f8 00        		.byte	0x0
 9260 07f9 05        		.uleb128 0x5
 9261 07fa 02        		.byte	0x2
 9262 07fb 0000 0000 		.long	.LSM154
 9263 07ff 15        		.byte	0x15
 9264 0800 00        		.byte	0x0
 9265 0801 05        		.uleb128 0x5
 9266 0802 02        		.byte	0x2
GAS LISTING /var/folders/1s/lqjcb7x5323625d47g9gdgmr0000gp/T//ccQR4rtp.s 			page 167


 9267 0803 0000 0000 		.long	.LSM155
 9268 0807 15        		.byte	0x15
 9269 0808 00        		.byte	0x0
 9270 0809 05        		.uleb128 0x5
 9271 080a 02        		.byte	0x2
 9272 080b 0000 0000 		.long	.LSM156
 9273 080f 15        		.byte	0x15
 9274 0810 00        		.byte	0x0
 9275 0811 05        		.uleb128 0x5
 9276 0812 02        		.byte	0x2
 9277 0813 0000 0000 		.long	.LSM157
 9278 0817 17        		.byte	0x17
 9279 0818 00        		.byte	0x0
 9280 0819 05        		.uleb128 0x5
 9281 081a 02        		.byte	0x2
 9282 081b 0000 0000 		.long	.LSM158
 9283 081f 15        		.byte	0x15
 9284 0820 00        		.byte	0x0
 9285 0821 05        		.uleb128 0x5
 9286 0822 02        		.byte	0x2
 9287 0823 0000 0000 		.long	.LFE94
 9288 0827 00        		.byte	0x0
 9289 0828 01        		.uleb128 0x1
 9290 0829 01        		.byte	0x1
 9291 082a 00        		.byte	0x0
 9292 082b 05        		.uleb128 0x5
 9293 082c 02        		.byte	0x2
 9294 082d 0000 0000 		.long	.LSM159
 9295 0831 03        		.byte	0x3
 9296 0832 B503      		.sleb128 437
 9297 0834 01        		.byte	0x1
 9298 0835 00        		.byte	0x0
 9299 0836 05        		.uleb128 0x5
 9300 0837 02        		.byte	0x2
 9301 0838 0000 0000 		.long	.LSM160
 9302 083c 16        		.byte	0x16
 9303 083d 00        		.byte	0x0
 9304 083e 05        		.uleb128 0x5
 9305 083f 02        		.byte	0x2
 9306 0840 0000 0000 		.long	.LSM161
 9307 0844 15        		.byte	0x15
 9308 0845 00        		.byte	0x0
 9309 0846 05        		.uleb128 0x5
 9310 0847 02        		.byte	0x2
 9311 0848 0000 0000 		.long	.LFE95
 9312 084c 00        		.byte	0x0
 9313 084d 01        		.uleb128 0x1
 9314 084e 01        		.byte	0x1
 9315 084f 00        		.byte	0x0
 9316 0850 05        		.uleb128 0x5
 9317 0851 02        		.byte	0x2
 9318 0852 0000 0000 		.long	.LSM162
 9319 0856 03        		.byte	0x3
 9320 0857 BA03      		.sleb128 442
 9321 0859 01        		.byte	0x1
 9322 085a 00        		.byte	0x0
 9323 085b 05        		.uleb128 0x5
GAS LISTING /var/folders/1s/lqjcb7x5323625d47g9gdgmr0000gp/T//ccQR4rtp.s 			page 168


 9324 085c 02        		.byte	0x2
 9325 085d 0000 0000 		.long	.LSM163
 9326 0861 16        		.byte	0x16
 9327 0862 00        		.byte	0x0
 9328 0863 05        		.uleb128 0x5
 9329 0864 02        		.byte	0x2
 9330 0865 0000 0000 		.long	.LSM164
 9331 0869 17        		.byte	0x17
 9332 086a 00        		.byte	0x0
 9333 086b 05        		.uleb128 0x5
 9334 086c 02        		.byte	0x2
 9335 086d 0000 0000 		.long	.LSM165
 9336 0871 16        		.byte	0x16
 9337 0872 00        		.byte	0x0
 9338 0873 05        		.uleb128 0x5
 9339 0874 02        		.byte	0x2
 9340 0875 0000 0000 		.long	.LFE96
 9341 0879 00        		.byte	0x0
 9342 087a 01        		.uleb128 0x1
 9343 087b 01        		.byte	0x1
 9344 087c 00        		.byte	0x0
 9345 087d 05        		.uleb128 0x5
 9346 087e 02        		.byte	0x2
 9347 087f 0000 0000 		.long	.LSM166
 9348 0883 03        		.byte	0x3
 9349 0884 C303      		.sleb128 451
 9350 0886 01        		.byte	0x1
 9351 0887 00        		.byte	0x0
 9352 0888 05        		.uleb128 0x5
 9353 0889 02        		.byte	0x2
 9354 088a 0000 0000 		.long	.LSM167
 9355 088e 17        		.byte	0x17
 9356 088f 00        		.byte	0x0
 9357 0890 05        		.uleb128 0x5
 9358 0891 02        		.byte	0x2
 9359 0892 0000 0000 		.long	.LSM168
 9360 0896 17        		.byte	0x17
 9361 0897 00        		.byte	0x0
 9362 0898 05        		.uleb128 0x5
 9363 0899 02        		.byte	0x2
 9364 089a 0000 0000 		.long	.LSM169
 9365 089e 15        		.byte	0x15
 9366 089f 00        		.byte	0x0
 9367 08a0 05        		.uleb128 0x5
 9368 08a1 02        		.byte	0x2
 9369 08a2 0000 0000 		.long	.LSM170
 9370 08a6 15        		.byte	0x15
 9371 08a7 00        		.byte	0x0
 9372 08a8 05        		.uleb128 0x5
 9373 08a9 02        		.byte	0x2
 9374 08aa 0000 0000 		.long	.LSM171
 9375 08ae 16        		.byte	0x16
 9376 08af 00        		.byte	0x0
 9377 08b0 05        		.uleb128 0x5
 9378 08b1 02        		.byte	0x2
 9379 08b2 0000 0000 		.long	.LFE97
 9380 08b6 00        		.byte	0x0
GAS LISTING /var/folders/1s/lqjcb7x5323625d47g9gdgmr0000gp/T//ccQR4rtp.s 			page 169


 9381 08b7 01        		.uleb128 0x1
 9382 08b8 01        		.byte	0x1
 9383 08b9 00        		.byte	0x0
 9384 08ba 05        		.uleb128 0x5
 9385 08bb 02        		.byte	0x2
 9386 08bc 0000 0000 		.long	.LSM172
 9387 08c0 03        		.byte	0x3
 9388 08c1 CF03      		.sleb128 463
 9389 08c3 01        		.byte	0x1
 9390 08c4 00        		.byte	0x0
 9391 08c5 05        		.uleb128 0x5
 9392 08c6 02        		.byte	0x2
 9393 08c7 0000 0000 		.long	.LSM173
 9394 08cb 17        		.byte	0x17
 9395 08cc 00        		.byte	0x0
 9396 08cd 05        		.uleb128 0x5
 9397 08ce 02        		.byte	0x2
 9398 08cf 0000 0000 		.long	.LSM174
 9399 08d3 15        		.byte	0x15
 9400 08d4 00        		.byte	0x0
 9401 08d5 05        		.uleb128 0x5
 9402 08d6 02        		.byte	0x2
 9403 08d7 0000 0000 		.long	.LSM175
 9404 08db 15        		.byte	0x15
 9405 08dc 00        		.byte	0x0
 9406 08dd 05        		.uleb128 0x5
 9407 08de 02        		.byte	0x2
 9408 08df 0000 0000 		.long	.LFE98
 9409 08e3 00        		.byte	0x0
 9410 08e4 01        		.uleb128 0x1
 9411 08e5 01        		.byte	0x1
 9412 08e6 00        		.byte	0x0
 9413 08e7 05        		.uleb128 0x5
 9414 08e8 02        		.byte	0x2
 9415 08e9 0000 0000 		.long	.LSM176
 9416 08ed 03        		.byte	0x3
 9417 08ee D603      		.sleb128 470
 9418 08f0 01        		.byte	0x1
 9419 08f1 00        		.byte	0x0
 9420 08f2 05        		.uleb128 0x5
 9421 08f3 02        		.byte	0x2
 9422 08f4 0000 0000 		.long	.LSM177
 9423 08f8 16        		.byte	0x16
 9424 08f9 00        		.byte	0x0
 9425 08fa 05        		.uleb128 0x5
 9426 08fb 02        		.byte	0x2
 9427 08fc 0000 0000 		.long	.LSM178
 9428 0900 19        		.byte	0x19
 9429 0901 00        		.byte	0x0
 9430 0902 05        		.uleb128 0x5
 9431 0903 02        		.byte	0x2
 9432 0904 0000 0000 		.long	.LSM179
 9433 0908 17        		.byte	0x17
 9434 0909 00        		.byte	0x0
 9435 090a 05        		.uleb128 0x5
 9436 090b 02        		.byte	0x2
 9437 090c 0000 0000 		.long	.LSM180
GAS LISTING /var/folders/1s/lqjcb7x5323625d47g9gdgmr0000gp/T//ccQR4rtp.s 			page 170


 9438 0910 15        		.byte	0x15
 9439 0911 00        		.byte	0x0
 9440 0912 05        		.uleb128 0x5
 9441 0913 02        		.byte	0x2
 9442 0914 0000 0000 		.long	.LSM181
 9443 0918 16        		.byte	0x16
 9444 0919 00        		.byte	0x0
 9445 091a 05        		.uleb128 0x5
 9446 091b 02        		.byte	0x2
 9447 091c 0000 0000 		.long	.LSM182
 9448 0920 16        		.byte	0x16
 9449 0921 00        		.byte	0x0
 9450 0922 05        		.uleb128 0x5
 9451 0923 02        		.byte	0x2
 9452 0924 0000 0000 		.long	.LSM183
 9453 0928 15        		.byte	0x15
 9454 0929 00        		.byte	0x0
 9455 092a 05        		.uleb128 0x5
 9456 092b 02        		.byte	0x2
 9457 092c 0000 0000 		.long	.LSM184
 9458 0930 17        		.byte	0x17
 9459 0931 00        		.byte	0x0
 9460 0932 05        		.uleb128 0x5
 9461 0933 02        		.byte	0x2
 9462 0934 0000 0000 		.long	.LFE99
 9463 0938 00        		.byte	0x0
 9464 0939 01        		.uleb128 0x1
 9465 093a 01        		.byte	0x1
 9466 093b 00        		.byte	0x0
 9467 093c 05        		.uleb128 0x5
 9468 093d 02        		.byte	0x2
 9469 093e 0000 0000 		.long	.LSM185
 9470 0942 03        		.byte	0x3
 9471 0943 EB03      		.sleb128 491
 9472 0945 01        		.byte	0x1
 9473 0946 00        		.byte	0x0
 9474 0947 05        		.uleb128 0x5
 9475 0948 02        		.byte	0x2
 9476 0949 0000 0000 		.long	.LSM186
 9477 094d 16        		.byte	0x16
 9478 094e 00        		.byte	0x0
 9479 094f 05        		.uleb128 0x5
 9480 0950 02        		.byte	0x2
 9481 0951 0000 0000 		.long	.LFE100
 9482 0955 00        		.byte	0x0
 9483 0956 01        		.uleb128 0x1
 9484 0957 01        		.byte	0x1
 9485 0958 00        		.byte	0x0
 9486 0959 05        		.uleb128 0x5
 9487 095a 02        		.byte	0x2
 9488 095b 0000 0000 		.long	.LSM187
 9489 095f 03        		.byte	0x3
 9490 0960 8204      		.sleb128 514
 9491 0962 01        		.byte	0x1
 9492 0963 00        		.byte	0x0
 9493 0964 05        		.uleb128 0x5
 9494 0965 02        		.byte	0x2
GAS LISTING /var/folders/1s/lqjcb7x5323625d47g9gdgmr0000gp/T//ccQR4rtp.s 			page 171


 9495 0966 0000 0000 		.long	.LSM188
 9496 096a 04        		.byte	0x4
 9497 096b 02        		.uleb128 0x2
 9498 096c 03        		.byte	0x3
 9499 096d A87C      		.sleb128 -472
 9500 096f 01        		.byte	0x1
 9501 0970 00        		.byte	0x0
 9502 0971 05        		.uleb128 0x5
 9503 0972 02        		.byte	0x2
 9504 0973 0000 0000 		.long	.LSM189
 9505 0977 04        		.byte	0x4
 9506 0978 03        		.uleb128 0x3
 9507 0979 1E        		.byte	0x1e
 9508 097a 00        		.byte	0x0
 9509 097b 05        		.uleb128 0x5
 9510 097c 02        		.byte	0x2
 9511 097d 0000 0000 		.long	.LSM190
 9512 0981 04        		.byte	0x4
 9513 0982 01        		.uleb128 0x1
 9514 0983 03        		.byte	0x3
 9515 0984 8602      		.sleb128 262
 9516 0986 01        		.byte	0x1
 9517 0987 00        		.byte	0x0
 9518 0988 05        		.uleb128 0x5
 9519 0989 02        		.byte	0x2
 9520 098a 0000 0000 		.long	.LSM191
 9521 098e 16        		.byte	0x16
 9522 098f 00        		.byte	0x0
 9523 0990 05        		.uleb128 0x5
 9524 0991 02        		.byte	0x2
 9525 0992 0000 0000 		.long	.LSM192
 9526 0996 15        		.byte	0x15
 9527 0997 00        		.byte	0x0
 9528 0998 05        		.uleb128 0x5
 9529 0999 02        		.byte	0x2
 9530 099a 0000 0000 		.long	.LSM193
 9531 099e 15        		.byte	0x15
 9532 099f 00        		.byte	0x0
 9533 09a0 05        		.uleb128 0x5
 9534 09a1 02        		.byte	0x2
 9535 09a2 0000 0000 		.long	.LSM194
 9536 09a6 15        		.byte	0x15
 9537 09a7 00        		.byte	0x0
 9538 09a8 05        		.uleb128 0x5
 9539 09a9 02        		.byte	0x2
 9540 09aa 0000 0000 		.long	.LSM195
 9541 09ae 15        		.byte	0x15
 9542 09af 00        		.byte	0x0
 9543 09b0 05        		.uleb128 0x5
 9544 09b1 02        		.byte	0x2
 9545 09b2 0000 0000 		.long	.LSM196
 9546 09b6 15        		.byte	0x15
 9547 09b7 00        		.byte	0x0
 9548 09b8 05        		.uleb128 0x5
 9549 09b9 02        		.byte	0x2
 9550 09ba 0000 0000 		.long	.LSM197
 9551 09be 15        		.byte	0x15
GAS LISTING /var/folders/1s/lqjcb7x5323625d47g9gdgmr0000gp/T//ccQR4rtp.s 			page 172


 9552 09bf 00        		.byte	0x0
 9553 09c0 05        		.uleb128 0x5
 9554 09c1 02        		.byte	0x2
 9555 09c2 0000 0000 		.long	.LSM198
 9556 09c6 15        		.byte	0x15
 9557 09c7 00        		.byte	0x0
 9558 09c8 05        		.uleb128 0x5
 9559 09c9 02        		.byte	0x2
 9560 09ca 0000 0000 		.long	.LSM199
 9561 09ce 15        		.byte	0x15
 9562 09cf 00        		.byte	0x0
 9563 09d0 05        		.uleb128 0x5
 9564 09d1 02        		.byte	0x2
 9565 09d2 0000 0000 		.long	.LSM200
 9566 09d6 15        		.byte	0x15
 9567 09d7 00        		.byte	0x0
 9568 09d8 05        		.uleb128 0x5
 9569 09d9 02        		.byte	0x2
 9570 09da 0000 0000 		.long	.LSM201
 9571 09de 15        		.byte	0x15
 9572 09df 00        		.byte	0x0
 9573 09e0 05        		.uleb128 0x5
 9574 09e1 02        		.byte	0x2
 9575 09e2 0000 0000 		.long	.LSM202
 9576 09e6 15        		.byte	0x15
 9577 09e7 00        		.byte	0x0
 9578 09e8 05        		.uleb128 0x5
 9579 09e9 02        		.byte	0x2
 9580 09ea 0000 0000 		.long	.LSM203
 9581 09ee 15        		.byte	0x15
 9582 09ef 00        		.byte	0x0
 9583 09f0 05        		.uleb128 0x5
 9584 09f1 02        		.byte	0x2
 9585 09f2 0000 0000 		.long	.LSM204
 9586 09f6 04        		.byte	0x4
 9587 09f7 02        		.uleb128 0x2
 9588 09f8 03        		.byte	0x3
 9589 09f9 E27D      		.sleb128 -286
 9590 09fb 01        		.byte	0x1
 9591 09fc 00        		.byte	0x0
 9592 09fd 05        		.uleb128 0x5
 9593 09fe 02        		.byte	0x2
 9594 09ff 0000 0000 		.long	.LSM205
 9595 0a03 04        		.byte	0x4
 9596 0a04 03        		.uleb128 0x3
 9597 0a05 1E        		.byte	0x1e
 9598 0a06 00        		.byte	0x0
 9599 0a07 05        		.uleb128 0x5
 9600 0a08 02        		.byte	0x2
 9601 0a09 0000 0000 		.long	.LSM206
 9602 0a0d 04        		.byte	0x4
 9603 0a0e 01        		.uleb128 0x1
 9604 0a0f 03        		.byte	0x3
 9605 0a10 8602      		.sleb128 262
 9606 0a12 01        		.byte	0x1
 9607 0a13 00        		.byte	0x0
 9608 0a14 05        		.uleb128 0x5
GAS LISTING /var/folders/1s/lqjcb7x5323625d47g9gdgmr0000gp/T//ccQR4rtp.s 			page 173


 9609 0a15 02        		.byte	0x2
 9610 0a16 0000 0000 		.long	.LSM207
 9611 0a1a 16        		.byte	0x16
 9612 0a1b 00        		.byte	0x0
 9613 0a1c 05        		.uleb128 0x5
 9614 0a1d 02        		.byte	0x2
 9615 0a1e 0000 0000 		.long	.LSM208
 9616 0a22 15        		.byte	0x15
 9617 0a23 00        		.byte	0x0
 9618 0a24 05        		.uleb128 0x5
 9619 0a25 02        		.byte	0x2
 9620 0a26 0000 0000 		.long	.LSM209
 9621 0a2a 15        		.byte	0x15
 9622 0a2b 00        		.byte	0x0
 9623 0a2c 05        		.uleb128 0x5
 9624 0a2d 02        		.byte	0x2
 9625 0a2e 0000 0000 		.long	.LSM210
 9626 0a32 15        		.byte	0x15
 9627 0a33 00        		.byte	0x0
 9628 0a34 05        		.uleb128 0x5
 9629 0a35 02        		.byte	0x2
 9630 0a36 0000 0000 		.long	.LSM211
 9631 0a3a 15        		.byte	0x15
 9632 0a3b 00        		.byte	0x0
 9633 0a3c 05        		.uleb128 0x5
 9634 0a3d 02        		.byte	0x2
 9635 0a3e 0000 0000 		.long	.LSM212
 9636 0a42 15        		.byte	0x15
 9637 0a43 00        		.byte	0x0
 9638 0a44 05        		.uleb128 0x5
 9639 0a45 02        		.byte	0x2
 9640 0a46 0000 0000 		.long	.LSM213
 9641 0a4a 15        		.byte	0x15
 9642 0a4b 00        		.byte	0x0
 9643 0a4c 05        		.uleb128 0x5
 9644 0a4d 02        		.byte	0x2
 9645 0a4e 0000 0000 		.long	.LSM214
 9646 0a52 15        		.byte	0x15
 9647 0a53 00        		.byte	0x0
 9648 0a54 05        		.uleb128 0x5
 9649 0a55 02        		.byte	0x2
 9650 0a56 0000 0000 		.long	.LSM215
 9651 0a5a 15        		.byte	0x15
 9652 0a5b 00        		.byte	0x0
 9653 0a5c 05        		.uleb128 0x5
 9654 0a5d 02        		.byte	0x2
 9655 0a5e 0000 0000 		.long	.LSM216
 9656 0a62 15        		.byte	0x15
 9657 0a63 00        		.byte	0x0
 9658 0a64 05        		.uleb128 0x5
 9659 0a65 02        		.byte	0x2
 9660 0a66 0000 0000 		.long	.LSM217
 9661 0a6a 15        		.byte	0x15
 9662 0a6b 00        		.byte	0x0
 9663 0a6c 05        		.uleb128 0x5
 9664 0a6d 02        		.byte	0x2
 9665 0a6e 0000 0000 		.long	.LSM218
GAS LISTING /var/folders/1s/lqjcb7x5323625d47g9gdgmr0000gp/T//ccQR4rtp.s 			page 174


 9666 0a72 15        		.byte	0x15
 9667 0a73 00        		.byte	0x0
 9668 0a74 05        		.uleb128 0x5
 9669 0a75 02        		.byte	0x2
 9670 0a76 0000 0000 		.long	.LSM219
 9671 0a7a 15        		.byte	0x15
 9672 0a7b 00        		.byte	0x0
 9673 0a7c 05        		.uleb128 0x5
 9674 0a7d 02        		.byte	0x2
 9675 0a7e 0000 0000 		.long	.LSM220
 9676 0a82 04        		.byte	0x4
 9677 0a83 02        		.uleb128 0x2
 9678 0a84 03        		.byte	0x3
 9679 0a85 E27D      		.sleb128 -286
 9680 0a87 01        		.byte	0x1
 9681 0a88 00        		.byte	0x0
 9682 0a89 05        		.uleb128 0x5
 9683 0a8a 02        		.byte	0x2
 9684 0a8b 0000 0000 		.long	.LSM221
 9685 0a8f 04        		.byte	0x4
 9686 0a90 03        		.uleb128 0x3
 9687 0a91 1E        		.byte	0x1e
 9688 0a92 00        		.byte	0x0
 9689 0a93 05        		.uleb128 0x5
 9690 0a94 02        		.byte	0x2
 9691 0a95 0000 0000 		.long	.LSM222
 9692 0a99 04        		.byte	0x4
 9693 0a9a 01        		.uleb128 0x1
 9694 0a9b 03        		.byte	0x3
 9695 0a9c 8602      		.sleb128 262
 9696 0a9e 01        		.byte	0x1
 9697 0a9f 00        		.byte	0x0
 9698 0aa0 05        		.uleb128 0x5
 9699 0aa1 02        		.byte	0x2
 9700 0aa2 0000 0000 		.long	.LSM223
 9701 0aa6 16        		.byte	0x16
 9702 0aa7 00        		.byte	0x0
 9703 0aa8 05        		.uleb128 0x5
 9704 0aa9 02        		.byte	0x2
 9705 0aaa 0000 0000 		.long	.LSM224
 9706 0aae 15        		.byte	0x15
 9707 0aaf 00        		.byte	0x0
 9708 0ab0 05        		.uleb128 0x5
 9709 0ab1 02        		.byte	0x2
 9710 0ab2 0000 0000 		.long	.LSM225
 9711 0ab6 15        		.byte	0x15
 9712 0ab7 00        		.byte	0x0
 9713 0ab8 05        		.uleb128 0x5
 9714 0ab9 02        		.byte	0x2
 9715 0aba 0000 0000 		.long	.LSM226
 9716 0abe 15        		.byte	0x15
 9717 0abf 00        		.byte	0x0
 9718 0ac0 05        		.uleb128 0x5
 9719 0ac1 02        		.byte	0x2
 9720 0ac2 0000 0000 		.long	.LSM227
 9721 0ac6 15        		.byte	0x15
 9722 0ac7 00        		.byte	0x0
GAS LISTING /var/folders/1s/lqjcb7x5323625d47g9gdgmr0000gp/T//ccQR4rtp.s 			page 175


 9723 0ac8 05        		.uleb128 0x5
 9724 0ac9 02        		.byte	0x2
 9725 0aca 0000 0000 		.long	.LSM228
 9726 0ace 15        		.byte	0x15
 9727 0acf 00        		.byte	0x0
 9728 0ad0 05        		.uleb128 0x5
 9729 0ad1 02        		.byte	0x2
 9730 0ad2 0000 0000 		.long	.LSM229
 9731 0ad6 15        		.byte	0x15
 9732 0ad7 00        		.byte	0x0
 9733 0ad8 05        		.uleb128 0x5
 9734 0ad9 02        		.byte	0x2
 9735 0ada 0000 0000 		.long	.LSM230
 9736 0ade 15        		.byte	0x15
 9737 0adf 00        		.byte	0x0
 9738 0ae0 05        		.uleb128 0x5
 9739 0ae1 02        		.byte	0x2
 9740 0ae2 0000 0000 		.long	.LSM231
 9741 0ae6 15        		.byte	0x15
 9742 0ae7 00        		.byte	0x0
 9743 0ae8 05        		.uleb128 0x5
 9744 0ae9 02        		.byte	0x2
 9745 0aea 0000 0000 		.long	.LSM232
 9746 0aee 15        		.byte	0x15
 9747 0aef 00        		.byte	0x0
 9748 0af0 05        		.uleb128 0x5
 9749 0af1 02        		.byte	0x2
 9750 0af2 0000 0000 		.long	.LSM233
 9751 0af6 15        		.byte	0x15
 9752 0af7 00        		.byte	0x0
 9753 0af8 05        		.uleb128 0x5
 9754 0af9 02        		.byte	0x2
 9755 0afa 0000 0000 		.long	.LSM234
 9756 0afe 15        		.byte	0x15
 9757 0aff 00        		.byte	0x0
 9758 0b00 05        		.uleb128 0x5
 9759 0b01 02        		.byte	0x2
 9760 0b02 0000 0000 		.long	.LSM235
 9761 0b06 15        		.byte	0x15
 9762 0b07 00        		.byte	0x0
 9763 0b08 05        		.uleb128 0x5
 9764 0b09 02        		.byte	0x2
 9765 0b0a 0000 0000 		.long	.LSM236
 9766 0b0e 04        		.byte	0x4
 9767 0b0f 02        		.uleb128 0x2
 9768 0b10 03        		.byte	0x3
 9769 0b11 E27D      		.sleb128 -286
 9770 0b13 01        		.byte	0x1
 9771 0b14 00        		.byte	0x0
 9772 0b15 05        		.uleb128 0x5
 9773 0b16 02        		.byte	0x2
 9774 0b17 0000 0000 		.long	.LSM237
 9775 0b1b 04        		.byte	0x4
 9776 0b1c 03        		.uleb128 0x3
 9777 0b1d 1E        		.byte	0x1e
 9778 0b1e 00        		.byte	0x0
 9779 0b1f 05        		.uleb128 0x5
GAS LISTING /var/folders/1s/lqjcb7x5323625d47g9gdgmr0000gp/T//ccQR4rtp.s 			page 176


 9780 0b20 02        		.byte	0x2
 9781 0b21 0000 0000 		.long	.LSM238
 9782 0b25 04        		.byte	0x4
 9783 0b26 01        		.uleb128 0x1
 9784 0b27 03        		.byte	0x3
 9785 0b28 8602      		.sleb128 262
 9786 0b2a 01        		.byte	0x1
 9787 0b2b 00        		.byte	0x0
 9788 0b2c 05        		.uleb128 0x5
 9789 0b2d 02        		.byte	0x2
 9790 0b2e 0000 0000 		.long	.LSM239
 9791 0b32 16        		.byte	0x16
 9792 0b33 00        		.byte	0x0
 9793 0b34 05        		.uleb128 0x5
 9794 0b35 02        		.byte	0x2
 9795 0b36 0000 0000 		.long	.LSM240
 9796 0b3a 15        		.byte	0x15
 9797 0b3b 00        		.byte	0x0
 9798 0b3c 05        		.uleb128 0x5
 9799 0b3d 02        		.byte	0x2
 9800 0b3e 0000 0000 		.long	.LSM241
 9801 0b42 15        		.byte	0x15
 9802 0b43 00        		.byte	0x0
 9803 0b44 05        		.uleb128 0x5
 9804 0b45 02        		.byte	0x2
 9805 0b46 0000 0000 		.long	.LSM242
 9806 0b4a 15        		.byte	0x15
 9807 0b4b 00        		.byte	0x0
 9808 0b4c 05        		.uleb128 0x5
 9809 0b4d 02        		.byte	0x2
 9810 0b4e 0000 0000 		.long	.LSM243
 9811 0b52 15        		.byte	0x15
 9812 0b53 00        		.byte	0x0
 9813 0b54 05        		.uleb128 0x5
 9814 0b55 02        		.byte	0x2
 9815 0b56 0000 0000 		.long	.LSM244
 9816 0b5a 15        		.byte	0x15
 9817 0b5b 00        		.byte	0x0
 9818 0b5c 05        		.uleb128 0x5
 9819 0b5d 02        		.byte	0x2
 9820 0b5e 0000 0000 		.long	.LSM245
 9821 0b62 15        		.byte	0x15
 9822 0b63 00        		.byte	0x0
 9823 0b64 05        		.uleb128 0x5
 9824 0b65 02        		.byte	0x2
 9825 0b66 0000 0000 		.long	.LSM246
 9826 0b6a 15        		.byte	0x15
 9827 0b6b 00        		.byte	0x0
 9828 0b6c 05        		.uleb128 0x5
 9829 0b6d 02        		.byte	0x2
 9830 0b6e 0000 0000 		.long	.LSM247
 9831 0b72 15        		.byte	0x15
 9832 0b73 00        		.byte	0x0
 9833 0b74 05        		.uleb128 0x5
 9834 0b75 02        		.byte	0x2
 9835 0b76 0000 0000 		.long	.LSM248
 9836 0b7a 15        		.byte	0x15
GAS LISTING /var/folders/1s/lqjcb7x5323625d47g9gdgmr0000gp/T//ccQR4rtp.s 			page 177


 9837 0b7b 00        		.byte	0x0
 9838 0b7c 05        		.uleb128 0x5
 9839 0b7d 02        		.byte	0x2
 9840 0b7e 0000 0000 		.long	.LSM249
 9841 0b82 15        		.byte	0x15
 9842 0b83 00        		.byte	0x0
 9843 0b84 05        		.uleb128 0x5
 9844 0b85 02        		.byte	0x2
 9845 0b86 0000 0000 		.long	.LSM250
 9846 0b8a 15        		.byte	0x15
 9847 0b8b 00        		.byte	0x0
 9848 0b8c 05        		.uleb128 0x5
 9849 0b8d 02        		.byte	0x2
 9850 0b8e 0000 0000 		.long	.LSM251
 9851 0b92 15        		.byte	0x15
 9852 0b93 00        		.byte	0x0
 9853 0b94 05        		.uleb128 0x5
 9854 0b95 02        		.byte	0x2
 9855 0b96 0000 0000 		.long	.LSM252
 9856 0b9a CE        		.byte	0xce
 9857 0b9b 00        		.byte	0x0
 9858 0b9c 05        		.uleb128 0x5
 9859 0b9d 02        		.byte	0x2
 9860 0b9e 0000 0000 		.long	.LFE102
 9861 0ba2 00        		.byte	0x0
 9862 0ba3 01        		.uleb128 0x1
 9863 0ba4 01        		.byte	0x1
 9864               	.LELT0:
 9865 0ba5 1900 0000 		.section	.debug_str,"MS",@progbits,1
 9865      0200 1300 
 9865      0000 0101 
 9865      FB0E 0D00 
 9865      0101 0101 
 9866               	.LASF13:
 9867 0000 6361 7061 		.string	"capacity"
 9867      6369 7479 
 9867      00
 9868               	.LASF47:
 9869 0009 5F5A 4E4B 		.string	"_ZNK6String9compareToERKS_"
 9869      3653 7472 
 9869      696E 6739 
 9869      636F 6D70 
 9869      6172 6554 
 9870               	.LASF170:
 9871 0024 5F5A 4E36 		.string	"_ZN6Stream4findEPc"
 9871      5374 7265 
 9871      616D 3466 
 9871      696E 6445 
 9871      5063 00
 9872               	.LASF37:
 9873 0037 5F5A 4E36 		.string	"_ZN6StringpLEPKc"
 9873      5374 7269 
 9873      6E67 704C 
 9873      4550 4B63 
 9873      00
 9874               	.LASF3:
 9875 0048 7369 7A65 		.string	"size_t"
GAS LISTING /var/folders/1s/lqjcb7x5323625d47g9gdgmr0000gp/T//ccQR4rtp.s 			page 178


 9875      5F74 00
 9876               	.LASF63:
 9877 004f 6F70 6572 		.string	"operator>="
 9877      6174 6F72 
 9877      3E3D 00
 9878               	.LASF112:
 9879 005a 5F5A 4E36 		.string	"_ZN6String12changeBufferEj"
 9879      5374 7269 
 9879      6E67 3132 
 9879      6368 616E 
 9879      6765 4275 
 9880               	.LASF200:
 9881 0075 7278 656E 		.string	"rxen"
 9881      00
 9882               	.LASF139:
 9883 007a 7772 6974 		.string	"write"
 9883      6500 
 9884               	.LASF115:
 9885 0080 5F5A 4E36 		.string	"_ZN6String4copyEPKcj"
 9885      5374 7269 
 9885      6E67 3463 
 9885      6F70 7945 
 9885      504B 636A 
 9886               	.LASF73:
 9887 0095 5F5A 4E4B 		.string	"_ZNK6String6charAtEj"
 9887      3653 7472 
 9887      696E 6736 
 9887      6368 6172 
 9887      4174 456A 
 9888               	.LASF155:
 9889 00aa 5F73 7461 		.string	"_startMillis"
 9889      7274 4D69 
 9889      6C6C 6973 
 9889      00
 9890               	.LASF104:
 9891 00b7 5F5A 4E36 		.string	"_ZN6String4trimEv"
 9891      5374 7269 
 9891      6E67 3474 
 9891      7269 6D45 
 9891      7600 
 9892               	.LASF78:
 9893 00c9 6765 7442 		.string	"getBytes"
 9893      7974 6573 
 9893      00
 9894               	.LASF220:
 9895 00d2 5F5F 7665 		.string	"__vector_26"
 9895      6374 6F72 
 9895      5F32 3600 
 9896               	.LASF162:
 9897 00de 5F5A 4E35 		.string	"_ZN5Print5writeEPKhj"
 9897      5072 696E 
 9897      7435 7772 
 9897      6974 6545 
 9897      504B 686A 
 9898               	.LASF91:
 9899 00f3 5F5A 4E4B 		.string	"_ZNK6String11lastIndexOfERKS_"
 9899      3653 7472 
GAS LISTING /var/folders/1s/lqjcb7x5323625d47g9gdgmr0000gp/T//ccQR4rtp.s 			page 179


 9899      696E 6731 
 9899      316C 6173 
 9899      7449 6E64 
 9900               	.LASF224:
 9901 0111 6261 7564 		.string	"baud_setting"
 9901      5F73 6574 
 9901      7469 6E67 
 9901      00
 9902               	.LASF190:
 9903 011e 666C 6F61 		.string	"float"
 9903      7400 
 9904               	.LASF152:
 9905 0124 5F5A 4E31 		.string	"_ZN14HardwareSerialcvbEv"
 9905      3448 6172 
 9905      6477 6172 
 9905      6553 6572 
 9905      6961 6C63 
 9906               	.LASF71:
 9907 013d 5F5A 4E4B 		.string	"_ZNK6String8endsWithERKS_"
 9907      3653 7472 
 9907      696E 6738 
 9907      656E 6473 
 9907      5769 7468 
 9908               	.LASF102:
 9909 0157 5F5A 4E36 		.string	"_ZN6String11toUpperCaseEv"
 9909      5374 7269 
 9909      6E67 3131 
 9909      746F 5570 
 9909      7065 7243 
 9910               	.LASF50:
 9911 0171 5F5A 4E4B 		.string	"_ZNK6String6equalsEPKc"
 9911      3653 7472 
 9911      696E 6736 
 9911      6571 7561 
 9911      6C73 4550 
 9912               	.LASF160:
 9913 0188 7065 656B 		.string	"peekNextDigit"
 9913      4E65 7874 
 9913      4469 6769 
 9913      7400 
 9914               	.LASF116:
 9915 0196 5F5F 7066 		.string	"__pfn"
 9915      6E00 
 9916               	.LASF9:
 9917 019c 6C6F 6E67 		.string	"long long unsigned int"
 9917      206C 6F6E 
 9917      6720 756E 
 9917      7369 676E 
 9917      6564 2069 
 9918               	.LASF121:
 9919 01b3 5F74 785F 		.string	"_tx_buffer"
 9919      6275 6666 
 9919      6572 00
 9920               	.LASF111:
 9921 01be 6368 616E 		.string	"changeBuffer"
 9921      6765 4275 
 9921      6666 6572 
GAS LISTING /var/folders/1s/lqjcb7x5323625d47g9gdgmr0000gp/T//ccQR4rtp.s 			page 180


 9921      00
 9922               	.LASF75:
 9923 01cb 5F5A 4E4B 		.string	"_ZNK6StringixEj"
 9923      3653 7472 
 9923      696E 6769 
 9923      7845 6A00 
 9924               	.LASF196:
 9925 01db 7562 7272 		.string	"ubrrl"
 9925      6C00 
 9926               	.LASF135:
 9927 01e1 4861 7264 		.string	"HardwareSerial"
 9927      7761 7265 
 9927      5365 7269 
 9927      616C 00
 9928               	.LASF16:
 9929 01f0 7E53 7472 		.string	"~String"
 9929      696E 6700 
 9930               	.LASF48:
 9931 01f8 6571 7561 		.string	"equals"
 9931      6C73 00
 9932               	.LASF242:
 9933 01ff 474E 5520 		.string	"GNU C++ 4.3.2"
 9933      432B 2B20 
 9933      342E 332E 
 9933      3200 
 9934               	.LASF90:
 9935 020d 5F5A 4E4B 		.string	"_ZNK6String11lastIndexOfEcj"
 9935      3653 7472 
 9935      696E 6731 
 9935      316C 6173 
 9935      7449 6E64 
 9936               	.LASF213:
 9937 0229 5F5A 3132 		.string	"_Z12serialEvent2v"
 9937      7365 7269 
 9937      616C 4576 
 9937      656E 7432 
 9937      7600 
 9938               	.LASF171:
 9939 023b 5F5A 4E36 		.string	"_ZN6Stream4findEPcj"
 9939      5374 7265 
 9939      616D 3466 
 9939      696E 6445 
 9939      5063 6A00 
 9940               	.LASF8:
 9941 024f 6C6F 6E67 		.string	"long long int"
 9941      206C 6F6E 
 9941      6720 696E 
 9941      7400 
 9942               	.LASF2:
 9943 025d 7369 676E 		.string	"signed char"
 9943      6564 2063 
 9943      6861 7200 
 9944               	.LASF230:
 9945 0269 5365 7269 		.string	"Serial1"
 9945      616C 3100 
 9946               	.LASF66:
 9947 0271 5F5A 4E4B 		.string	"_ZNK6String16equalsIgnoreCaseERKS_"
GAS LISTING /var/folders/1s/lqjcb7x5323625d47g9gdgmr0000gp/T//ccQR4rtp.s 			page 181


 9947      3653 7472 
 9947      696E 6731 
 9947      3665 7175 
 9947      616C 7349 
 9948               	.LASF231:
 9949 0294 5365 7269 		.string	"Serial2"
 9949      616C 3200 
 9950               	.LASF56:
 9951 029c 5F5A 4E4B 		.string	"_ZNK6StringneEPKc"
 9951      3653 7472 
 9951      696E 676E 
 9951      6545 504B 
 9951      6300 
 9952               	.LASF174:
 9953 02ae 5F5A 4E36 		.string	"_ZN6Stream9findUntilEPcjS0_j"
 9953      5374 7265 
 9953      616D 3966 
 9953      696E 6455 
 9953      6E74 696C 
 9954               	.LASF172:
 9955 02cb 6669 6E64 		.string	"findUntil"
 9955      556E 7469 
 9955      6C00 
 9956               	.LASF159:
 9957 02d5 5F5A 4E36 		.string	"_ZN6Stream9timedPeekEv"
 9957      5374 7265 
 9957      616D 3974 
 9957      696D 6564 
 9957      5065 656B 
 9958               	.LASF86:
 9959 02ec 5F5A 4E4B 		.string	"_ZNK6String7indexOfERKS_"
 9959      3653 7472 
 9959      696E 6737 
 9959      696E 6465 
 9959      784F 6645 
 9960               	.LASF100:
 9961 0305 5F5A 4E36 		.string	"_ZN6String11toLowerCaseEv"
 9961      5374 7269 
 9961      6E67 3131 
 9961      746F 4C6F 
 9961      7765 7243 
 9962               	.LASF1:
 9963 031f 6C6F 6E67 		.string	"long int"
 9963      2069 6E74 
 9963      00
 9964               	.LASF211:
 9965 0328 5F5F 7665 		.string	"__vector_36"
 9965      6374 6F72 
 9965      5F33 3600 
 9966               	.LASF221:
 9967 0334 5F5F 7665 		.string	"__vector_37"
 9967      6374 6F72 
 9967      5F33 3700 
 9968               	.LASF129:
 9969 0340 5F74 7865 		.string	"_txen"
 9969      6E00 
 9970               	.LASF154:
GAS LISTING /var/folders/1s/lqjcb7x5323625d47g9gdgmr0000gp/T//ccQR4rtp.s 			page 182


 9971 0346 5F74 696D 		.string	"_timeout"
 9971      656F 7574 
 9971      00
 9972               	.LASF46:
 9973 034f 636F 6D70 		.string	"compareTo"
 9973      6172 6554 
 9973      6F00 
 9974               	.LASF54:
 9975 0359 6F70 6572 		.string	"operator!="
 9975      6174 6F72 
 9975      213D 00
 9976               	.LASF243:
 9977 0364 2F41 7070 		.ascii	"/Applications/Arduino.app/Contents/Reso"
 9977      6C69 6361 
 9977      7469 6F6E 
 9977      732F 4172 
 9977      6475 696E 
 9978 038b 7572 6365 		.string	"urces/Java/hardware/arduino/avr/cores/arduino/HardwareSerial.cpp"
 9978      732F 4A61 
 9978      7661 2F68 
 9978      6172 6477 
 9978      6172 652F 
 9979               	.LASF94:
 9980 03cc 5F5A 4E4B 		.string	"_ZNK6String9substringEj"
 9980      3653 7472 
 9980      696E 6739 
 9980      7375 6273 
 9980      7472 696E 
 9981               	.LASF109:
 9982 03e4 696E 7661 		.string	"invalidate"
 9982      6C69 6461 
 9982      7465 00
 9983               	.LASF6:
 9984 03ef 7569 6E74 		.string	"uint16_t"
 9984      3136 5F74 
 9984      00
 9985               	.LASF82:
 9986 03f8 5F5A 4E4B 		.string	"_ZNK6String11toCharArrayEPcjj"
 9986      3653 7472 
 9986      696E 6731 
 9986      3174 6F43 
 9986      6861 7241 
 9987               	.LASF127:
 9988 0416 5F75 6472 		.string	"_udr"
 9988      00
 9989               	.LASF192:
 9990 041b 7468 6973 		.string	"this"
 9990      00
 9991               	.LASF28:
 9992 0420 5F5A 4E36 		.string	"_ZN6String6concatEPKc"
 9992      5374 7269 
 9992      6E67 3663 
 9992      6F6E 6361 
 9992      7445 504B 
 9993               	.LASF217:
 9994 0436 5F5F 7665 		.string	"__vector_54"
 9994      6374 6F72 
GAS LISTING /var/folders/1s/lqjcb7x5323625d47g9gdgmr0000gp/T//ccQR4rtp.s 			page 183


 9994      5F35 3400 
 9995               	.LASF219:
 9996 0442 5F5A 3134 		.string	"_Z14serialEventRunv"
 9996      7365 7269 
 9996      616C 4576 
 9996      656E 7452 
 9996      756E 7600 
 9997               	.LASF80:
 9998 0456 5F5A 4E4B 		.string	"_ZNK6String8getBytesEPhjj"
 9998      3653 7472 
 9998      696E 6738 
 9998      6765 7442 
 9998      7974 6573 
 9999               	.LASF11:
 10000 0470 6279 7465 		.string	"byte"
 10000      00
 10001               	.LASF186:
 10002 0475 5F5A 4E36 		.string	"_ZN6Stream15readStringUntilEc"
 10002      5374 7265 
 10002      616D 3135 
 10002      7265 6164 
 10002      5374 7269 
 10003               	.LASF26:
 10004 0493 636F 6E63 		.string	"concat"
 10004      6174 00
 10005               	.LASF204:
 10006 049a 5F5F 696E 		.string	"__initialize_p"
 10006      6974 6961 
 10006      6C69 7A65 
 10006      5F70 00
 10007               	.LASF31:
 10008 04a9 5F5A 4E36 		.string	"_ZN6String6concatEi"
 10008      5374 7269 
 10008      6E67 3663 
 10008      6F6E 6361 
 10008      7445 6900 
 10009               	.LASF60:
 10010 04bd 5F5A 4E4B 		.string	"_ZNK6StringgtERKS_"
 10010      3653 7472 
 10010      696E 6767 
 10010      7445 524B 
 10010      535F 00
 10011               	.LASF126:
 10012 04d0 5F75 6373 		.string	"_ucsrc"
 10012      7263 00
 10013               	.LASF20:
 10014 04d7 5F5A 4E36 		.string	"_ZN6String7reserveEj"
 10014      5374 7269 
 10014      6E67 3772 
 10014      6573 6572 
 10014      7665 456A 
 10015               	.LASF130:
 10016 04ec 5F72 7863 		.string	"_rxcie"
 10016      6965 00
 10017               	.LASF88:
 10018 04f3 6C61 7374 		.string	"lastIndexOf"
 10018      496E 6465 
GAS LISTING /var/folders/1s/lqjcb7x5323625d47g9gdgmr0000gp/T//ccQR4rtp.s 			page 184


 10018      784F 6600 
 10019               	.LASF34:
 10020 04ff 5F5A 4E36 		.string	"_ZN6String6concatEm"
 10020      5374 7269 
 10020      6E67 3663 
 10020      6F6E 6361 
 10020      7445 6D00 
 10021               	.LASF202:
 10022 0513 7278 6369 		.string	"rxcie"
 10022      6500 
 10023               	.LASF84:
 10024 0519 5F5A 4E4B 		.string	"_ZNK6String7indexOfEc"
 10024      3653 7472 
 10024      696E 6737 
 10024      696E 6465 
 10024      784F 6645 
 10025               	.LASF0:
 10026 052f 756E 7369 		.string	"unsigned int"
 10026      676E 6564 
 10026      2069 6E74 
 10026      00
 10027               	.LASF136:
 10028 053c 6265 6769 		.string	"begin"
 10028      6E00 
 10029               	.LASF81:
 10030 0542 746F 4368 		.string	"toCharArray"
 10030      6172 4172 
 10030      7261 7900 
 10031               	.LASF97:
 10032 054e 5F5A 4E36 		.string	"_ZN6String7replaceEcc"
 10032      5374 7269 
 10032      6E67 3772 
 10032      6570 6C61 
 10032      6365 4563 
 10033               	.LASF191:
 10034 0564 7374 6F72 		.string	"store_char"
 10034      655F 6368 
 10034      6172 00
 10035               	.LASF7:
 10036 056f 6C6F 6E67 		.string	"long unsigned int"
 10036      2075 6E73 
 10036      6967 6E65 
 10036      6420 696E 
 10036      7400 
 10037               	.LASF183:
 10038 0581 7265 6164 		.string	"readString"
 10038      5374 7269 
 10038      6E67 00
 10039               	.LASF168:
 10040 058c 5F5A 4E36 		.string	"_ZN6Stream10setTimeoutEm"
 10040      5374 7265 
 10040      616D 3130 
 10040      7365 7454 
 10040      696D 656F 
 10041               	.LASF79:
 10042 05a5 5F5A 4E36 		.string	"_ZN6String9setCharAtEjc"
 10042      5374 7269 
GAS LISTING /var/folders/1s/lqjcb7x5323625d47g9gdgmr0000gp/T//ccQR4rtp.s 			page 185


 10042      6E67 3973 
 10042      6574 4368 
 10042      6172 4174 
 10043               	.LASF76:
 10044 05bd 5F5A 4E36 		.string	"_ZN6StringixEj"
 10044      5374 7269 
 10044      6E67 6978 
 10044      456A 00
 10045               	.LASF25:
 10046 05cc 5F5A 4E36 		.string	"_ZN6StringaSEPKc"
 10046      5374 7269 
 10046      6E67 6153 
 10046      4550 4B63 
 10046      00
 10047               	.LASF149:
 10048 05dd 5F5A 4E31 		.string	"_ZN14HardwareSerial5writeEj"
 10048      3448 6172 
 10048      6477 6172 
 10048      6553 6572 
 10048      6961 6C35 
 10049               	.LASF197:
 10050 05f9 7563 7372 		.string	"ucsra"
 10050      6100 
 10051               	.LASF148:
 10052 05ff 5F5A 4E31 		.string	"_ZN14HardwareSerial5writeEl"
 10052      3448 6172 
 10052      6477 6172 
 10052      6553 6572 
 10052      6961 6C35 
 10053               	.LASF141:
 10054 061b 7065 656B 		.string	"peek"
 10054      00
 10055               	.LASF142:
 10056 0620 5F5A 4E31 		.string	"_ZN14HardwareSerial9availableEv"
 10056      3448 6172 
 10056      6477 6172 
 10056      6553 6572 
 10056      6961 6C39 
 10057               	.LASF72:
 10058 0640 6368 6172 		.string	"charAt"
 10058      4174 00
 10059               	.LASF101:
 10060 0647 746F 5570 		.string	"toUpperCase"
 10060      7065 7243 
 10060      6173 6500 
 10061               	.LASF138:
 10062 0653 5F5A 4E31 		.string	"_ZN14HardwareSerial5beginEmh"
 10062      3448 6172 
 10062      6477 6172 
 10062      6553 6572 
 10062      6961 6C35 
 10063               	.LASF65:
 10064 0670 6571 7561 		.string	"equalsIgnoreCase"
 10064      6C73 4967 
 10064      6E6F 7265 
 10064      4361 7365 
 10064      00
GAS LISTING /var/folders/1s/lqjcb7x5323625d47g9gdgmr0000gp/T//ccQR4rtp.s 			page 186


 10065               	.LASF163:
 10066 0681 5F5A 4E36 		.string	"_ZN6Stream9availableEv"
 10066      5374 7265 
 10066      616D 3961 
 10066      7661 696C 
 10066      6162 6C65 
 10067               	.LASF93:
 10068 0698 7375 6273 		.string	"substring"
 10068      7472 696E 
 10068      6700 
 10069               	.LASF128:
 10070 06a2 5F72 7865 		.string	"_rxen"
 10070      6E00 
 10071               	.LASF29:
 10072 06a8 5F5A 4E36 		.string	"_ZN6String6concatEc"
 10072      5374 7269 
 10072      6E67 3663 
 10072      6F6E 6361 
 10072      7445 6300 
 10073               	.LASF165:
 10074 06bc 5F5A 4E36 		.string	"_ZN6Stream4peekEv"
 10074      5374 7265 
 10074      616D 3470 
 10074      6565 6B45 
 10074      7600 
 10075               	.LASF103:
 10076 06ce 7472 696D 		.string	"trim"
 10076      00
 10077               	.LASF210:
 10078 06d3 5F5A 3132 		.string	"_Z12serialEvent1v"
 10078      7365 7269 
 10078      616C 4576 
 10078      656E 7431 
 10078      7600 
 10079               	.LASF30:
 10080 06e5 5F5A 4E36 		.string	"_ZN6String6concatEh"
 10080      5374 7269 
 10080      6E67 3663 
 10080      6F6E 6361 
 10080      7445 6800 
 10081               	.LASF17:
 10082 06f9 5374 7269 		.string	"StringIfHelper"
 10082      6E67 4966 
 10082      4865 6C70 
 10082      6572 00
 10083               	.LASF32:
 10084 0708 5F5A 4E36 		.string	"_ZN6String6concatEj"
 10084      5374 7269 
 10084      6E67 3663 
 10084      6F6E 6361 
 10084      7445 6A00 
 10085               	.LASF177:
 10086 071c 7061 7273 		.string	"parseFloat"
 10086      6546 6C6F 
 10086      6174 00
 10087               	.LASF33:
 10088 0727 5F5A 4E36 		.string	"_ZN6String6concatEl"
GAS LISTING /var/folders/1s/lqjcb7x5323625d47g9gdgmr0000gp/T//ccQR4rtp.s 			page 187


 10088      5374 7269 
 10088      6E67 3663 
 10088      6F6E 6361 
 10088      7445 6C00 
 10089               	.LASF27:
 10090 073b 5F5A 4E36 		.string	"_ZN6String6concatERKS_"
 10090      5374 7269 
 10090      6E67 3663 
 10090      6F6E 6361 
 10090      7445 524B 
 10091               	.LASF51:
 10092 0752 6F70 6572 		.string	"operator=="
 10092      6174 6F72 
 10092      3D3D 00
 10093               	.LASF214:
 10094 075d 5F5F 7665 		.string	"__vector_51"
 10094      6374 6F72 
 10094      5F35 3100 
 10095               	.LASF222:
 10096 0769 5F5F 7665 		.string	"__vector_52"
 10096      6374 6F72 
 10096      5F35 3200 
 10097               	.LASF176:
 10098 0775 5F5A 4E36 		.string	"_ZN6Stream8parseIntEv"
 10098      5374 7265 
 10098      616D 3870 
 10098      6172 7365 
 10098      496E 7445 
 10099               	.LASF223:
 10100 078b 5F5F 7665 		.string	"__vector_55"
 10100      6374 6F72 
 10100      5F35 3500 
 10101               	.LASF187:
 10102 0797 5F5A 4E36 		.string	"_ZN6Stream8parseIntEc"
 10102      5374 7265 
 10102      616D 3870 
 10102      6172 7365 
 10102      496E 7445 
 10103               	.LASF69:
 10104 07ad 5F5A 4E4B 		.string	"_ZNK6String10startsWithERKS_j"
 10104      3653 7472 
 10104      696E 6731 
 10104      3073 7461 
 10104      7274 7357 
 10105               	.LASF92:
 10106 07cb 5F5A 4E4B 		.string	"_ZNK6String11lastIndexOfERKS_j"
 10106      3653 7472 
 10106      696E 6731 
 10106      316C 6173 
 10106      7449 6E64 
 10107               	.LASF110:
 10108 07ea 5F5A 4E36 		.string	"_ZN6String10invalidateEv"
 10108      5374 7269 
 10108      6E67 3130 
 10108      696E 7661 
 10108      6C69 6461 
 10109               	.LASF114:
GAS LISTING /var/folders/1s/lqjcb7x5323625d47g9gdgmr0000gp/T//ccQR4rtp.s 			page 188


 10110 0803 636F 7079 		.string	"copy"
 10110      00
 10111               	.LASF74:
 10112 0808 6F70 6572 		.string	"operator[]"
 10112      6174 6F72 
 10112      5B5D 00
 10113               	.LASF218:
 10114 0813 7365 7269 		.string	"serialEventRun"
 10114      616C 4576 
 10114      656E 7452 
 10114      756E 00
 10115               	.LASF119:
 10116 0822 7461 696C 		.string	"tail"
 10116      00
 10117               	.LASF236:
 10118 0827 7278 5F62 		.string	"rx_buffer1"
 10118      7566 6665 
 10118      7231 00
 10119               	.LASF238:
 10120 0832 7278 5F62 		.string	"rx_buffer2"
 10120      7566 6665 
 10120      7232 00
 10121               	.LASF67:
 10122 083d 7374 6172 		.string	"startsWith"
 10122      7473 5769 
 10122      7468 00
 10123               	.LASF240:
 10124 0848 7278 5F62 		.string	"rx_buffer3"
 10124      7566 6665 
 10124      7233 00
 10125               	.LASF209:
 10126 0853 5F5A 3131 		.string	"_Z11serialEventv"
 10126      7365 7269 
 10126      616C 4576 
 10126      656E 7476 
 10126      00
 10127               	.LASF36:
 10128 0864 5F5A 4E36 		.string	"_ZN6StringpLERKS_"
 10128      5374 7269 
 10128      6E67 704C 
 10128      4552 4B53 
 10128      5F00 
 10129               	.LASF35:
 10130 0876 6F70 6572 		.string	"operator+="
 10130      6174 6F72 
 10130      2B3D 00
 10131               	.LASF122:
 10132 0881 5F75 6272 		.string	"_ubrrh"
 10132      7268 00
 10133               	.LASF173:
 10134 0888 5F5A 4E36 		.string	"_ZN6Stream9findUntilEPcS0_"
 10134      5374 7265 
 10134      616D 3966 
 10134      696E 6455 
 10134      6E74 696C 
 10135               	.LASF146:
 10136 08a3 5F5A 4E31 		.string	"_ZN14HardwareSerial5writeEh"
GAS LISTING /var/folders/1s/lqjcb7x5323625d47g9gdgmr0000gp/T//ccQR4rtp.s 			page 189


 10136      3448 6172 
 10136      6477 6172 
 10136      6553 6572 
 10136      6961 6C35 
 10137               	.LASF38:
 10138 08bf 5F5A 4E36 		.string	"_ZN6StringpLEc"
 10138      5374 7269 
 10138      6E67 704C 
 10138      4563 00
 10139               	.LASF22:
 10140 08ce 5F5A 4E4B 		.string	"_ZNK6String6lengthEv"
 10140      3653 7472 
 10140      696E 6736 
 10140      6C65 6E67 
 10140      7468 4576 
 10141               	.LASF123:
 10142 08e3 5F75 6272 		.string	"_ubrrl"
 10142      726C 00
 10143               	.LASF235:
 10144 08ea 4C45 445F 		.string	"LED_BUILTIN"
 10144      4255 494C 
 10144      5449 4E00 
 10145               	.LASF39:
 10146 08f6 5F5A 4E36 		.string	"_ZN6StringpLEh"
 10146      5374 7269 
 10146      6E67 704C 
 10146      4568 00
 10147               	.LASF40:
 10148 0905 5F5A 4E36 		.string	"_ZN6StringpLEi"
 10148      5374 7269 
 10148      6E67 704C 
 10148      4569 00
 10149               	.LASF41:
 10150 0914 5F5A 4E36 		.string	"_ZN6StringpLEj"
 10150      5374 7269 
 10150      6E67 704C 
 10150      456A 00
 10151               	.LASF147:
 10152 0923 5F5A 4E31 		.string	"_ZN14HardwareSerial5writeEm"
 10152      3448 6172 
 10152      6477 6172 
 10152      6553 6572 
 10152      6961 6C35 
 10153               	.LASF42:
 10154 093f 5F5A 4E36 		.string	"_ZN6StringpLEl"
 10154      5374 7269 
 10154      6E67 704C 
 10154      456C 00
 10155               	.LASF43:
 10156 094e 5F5A 4E36 		.string	"_ZN6StringpLEm"
 10156      5374 7269 
 10156      6E67 704C 
 10156      456D 00
 10157               	.LASF98:
 10158 095d 5F5A 4E36 		.string	"_ZN6String7replaceERKS_S1_"
 10158      5374 7269 
 10158      6E67 3772 
GAS LISTING /var/folders/1s/lqjcb7x5323625d47g9gdgmr0000gp/T//ccQR4rtp.s 			page 190


 10158      6570 6C61 
 10158      6365 4552 
 10159               	.LASF158:
 10160 0978 7469 6D65 		.string	"timedPeek"
 10160      6450 6565 
 10160      6B00 
 10161               	.LASF107:
 10162 0982 696E 6974 		.string	"init"
 10162      00
 10163               	.LASF185:
 10164 0987 7265 6164 		.string	"readStringUntil"
 10164      5374 7269 
 10164      6E67 556E 
 10164      7469 6C00 
 10165               	.LASF167:
 10166 0997 7365 7454 		.string	"setTimeout"
 10166      696D 656F 
 10166      7574 00
 10167               	.LASF52:
 10168 09a2 5F5A 4E4B 		.string	"_ZNK6StringeqERKS_"
 10168      3653 7472 
 10168      696E 6765 
 10168      7145 524B 
 10168      535F 00
 10169               	.LASF45:
 10170 09b5 5F5A 4E4B 		.string	"_ZNK6StringcvMS_KFvvEEv"
 10170      3653 7472 
 10170      696E 6763 
 10170      764D 535F 
 10170      4B46 7676 
 10171               	.LASF206:
 10172 09cd 5F5F 7665 		.string	"__vector_25"
 10172      6374 6F72 
 10172      5F32 3500 
 10173               	.LASF189:
 10174 09d9 626F 6F6C 		.string	"bool"
 10174      00
 10175               	.LASF140:
 10176 09de 6176 6169 		.string	"available"
 10176      6C61 626C 
 10176      6500 
 10177               	.LASF70:
 10178 09e8 656E 6473 		.string	"endsWith"
 10178      5769 7468 
 10178      00
 10179               	.LASF249:
 10180 09f1 5F47 4C4F 		.string	"_GLOBAL__I_rx_buffer"
 10180      4241 4C5F 
 10180      5F49 5F72 
 10180      785F 6275 
 10180      6666 6572 
 10181               	.LASF49:
 10182 0a06 5F5A 4E4B 		.string	"_ZNK6String6equalsERKS_"
 10182      3653 7472 
 10182      696E 6736 
 10182      6571 7561 
 10182      6C73 4552 
GAS LISTING /var/folders/1s/lqjcb7x5323625d47g9gdgmr0000gp/T//ccQR4rtp.s 			page 191


 10183               	.LASF77:
 10184 0a1e 7365 7443 		.string	"setCharAt"
 10184      6861 7241 
 10184      7400 
 10185               	.LASF193:
 10186 0a28 7278 5F62 		.string	"rx_buffer"
 10186      7566 6665 
 10186      7200 
 10187               	.LASF5:
 10188 0a32 756E 7369 		.string	"unsigned char"
 10188      676E 6564 
 10188      2063 6861 
 10188      7200 
 10189               	.LASF57:
 10190 0a40 6F70 6572 		.string	"operator<"
 10190      6174 6F72 
 10190      3C00 
 10191               	.LASF23:
 10192 0a4a 6F70 6572 		.string	"operator="
 10192      6174 6F72 
 10192      3D00 
 10193               	.LASF59:
 10194 0a54 6F70 6572 		.string	"operator>"
 10194      6174 6F72 
 10194      3E00 
 10195               	.LASF179:
 10196 0a5e 7265 6164 		.string	"readBytes"
 10196      4279 7465 
 10196      7300 
 10197               	.LASF132:
 10198 0a68 5F75 3278 		.string	"_u2x"
 10198      00
 10199               	.LASF164:
 10200 0a6d 5F5A 4E36 		.string	"_ZN6Stream4readEv"
 10200      5374 7265 
 10200      616D 3472 
 10200      6561 6445 
 10200      7600 
 10201               	.LASF131:
 10202 0a7f 5F75 6472 		.string	"_udrie"
 10202      6965 00
 10203               	.LASF161:
 10204 0a86 5F5A 4E36 		.string	"_ZN6Stream13peekNextDigitEv"
 10204      5374 7265 
 10204      616D 3133 
 10204      7065 656B 
 10204      4E65 7874 
 10205               	.LASF212:
 10206 0aa2 7365 7269 		.string	"serialEvent2"
 10206      616C 4576 
 10206      656E 7432 
 10206      00
 10207               	.LASF203:
 10208 0aaf 7564 7269 		.string	"udrie"
 10208      6500 
 10209               	.LASF215:
 10210 0ab5 7365 7269 		.string	"serialEvent3"
GAS LISTING /var/folders/1s/lqjcb7x5323625d47g9gdgmr0000gp/T//ccQR4rtp.s 			page 192


 10210      616C 4576 
 10210      656E 7433 
 10210      00
 10211               	.LASF216:
 10212 0ac2 5F5A 3132 		.string	"_Z12serialEvent3v"
 10212      7365 7269 
 10212      616C 4576 
 10212      656E 7433 
 10212      7600 
 10213               	.LASF53:
 10214 0ad4 5F5A 4E4B 		.string	"_ZNK6StringeqEPKc"
 10214      3653 7472 
 10214      696E 6765 
 10214      7145 504B 
 10214      6300 
 10215               	.LASF150:
 10216 0ae6 5F5A 4E31 		.string	"_ZN14HardwareSerial5writeEi"
 10216      3448 6172 
 10216      6477 6172 
 10216      6553 6572 
 10216      6961 6C35 
 10217               	.LASF153:
 10218 0b02 5374 7265 		.string	"Stream"
 10218      616D 00
 10219               	.LASF198:
 10220 0b09 7563 7372 		.string	"ucsrb"
 10220      6200 
 10221               	.LASF118:
 10222 0b0f 6865 6164 		.string	"head"
 10222      00
 10223               	.LASF19:
 10224 0b14 5F5A 4E4B 		.string	"_ZNK6String14StringIfHelperEv"
 10224      3653 7472 
 10224      696E 6731 
 10224      3453 7472 
 10224      696E 6749 
 10225               	.LASF175:
 10226 0b32 7061 7273 		.string	"parseInt"
 10226      6549 6E74 
 10226      00
 10227               	.LASF225:
 10228 0b3b 7573 655F 		.string	"use_u2x"
 10228      7532 7800 
 10229               	.LASF226:
 10230 0b43 6261 7564 		.string	"baud"
 10230      00
 10231               	.LASF133:
 10232 0b48 7472 616E 		.string	"transmitting"
 10232      736D 6974 
 10232      7469 6E67 
 10232      00
 10233               	.LASF182:
 10234 0b55 5F5A 4E36 		.string	"_ZN6Stream14readBytesUntilEcPcj"
 10234      5374 7265 
 10234      616D 3134 
 10234      7265 6164 
 10234      4279 7465 
GAS LISTING /var/folders/1s/lqjcb7x5323625d47g9gdgmr0000gp/T//ccQR4rtp.s 			page 193


 10235               	.LASF21:
 10236 0b75 6C65 6E67 		.string	"length"
 10236      7468 00
 10237               	.LASF247:
 10238 0b7c 5F5A 4E36 		.string	"_ZN6Stream5flushEv"
 10238      5374 7265 
 10238      616D 3566 
 10238      6C75 7368 
 10238      4576 00
 10239               	.LASF10:
 10240 0b8f 6368 6172 		.string	"char"
 10240      00
 10241               	.LASF83:
 10242 0b94 696E 6465 		.string	"indexOf"
 10242      784F 6600 
 10243               	.LASF61:
 10244 0b9c 6F70 6572 		.string	"operator<="
 10244      6174 6F72 
 10244      3C3D 00
 10245               	.LASF227:
 10246 0ba7 636F 6E66 		.string	"config"
 10246      6967 00
 10247               	.LASF207:
 10248 0bae 7365 7269 		.string	"serialEvent"
 10248      616C 4576 
 10248      656E 7400 
 10249               	.LASF145:
 10250 0bba 5F5A 4E31 		.string	"_ZN14HardwareSerial4readEv"
 10250      3448 6172 
 10250      6477 6172 
 10250      6553 6572 
 10250      6961 6C34 
 10251               	.LASF233:
 10252 0bd5 4D4F 5349 		.string	"MOSI"
 10252      00
 10253               	.LASF68:
 10254 0bda 5F5A 4E4B 		.string	"_ZNK6String10startsWithERKS_"
 10254      3653 7472 
 10254      696E 6731 
 10254      3073 7461 
 10254      7274 7357 
 10255               	.LASF124:
 10256 0bf7 5F75 6373 		.string	"_ucsra"
 10256      7261 00
 10257               	.LASF125:
 10258 0bfe 5F75 6373 		.string	"_ucsrb"
 10258      7262 00
 10259               	.LASF96:
 10260 0c05 7265 706C 		.string	"replace"
 10260      6163 6500 
 10261               	.LASF113:
 10262 0c0d 5F5A 4E36 		.string	"_ZN6String6concatEPKcj"
 10262      5374 7269 
 10262      6E67 3663 
 10262      6F6E 6361 
 10262      7445 504B 
 10263               	.LASF120:
GAS LISTING /var/folders/1s/lqjcb7x5323625d47g9gdgmr0000gp/T//ccQR4rtp.s 			page 194


 10264 0c24 5F72 785F 		.string	"_rx_buffer"
 10264      6275 6666 
 10264      6572 00
 10265               	.LASF12:
 10266 0c2f 6275 6666 		.string	"buffer"
 10266      6572 00
 10267               	.LASF199:
 10268 0c36 7563 7372 		.string	"ucsrc"
 10268      6300 
 10269               	.LASF137:
 10270 0c3c 5F5A 4E31 		.string	"_ZN14HardwareSerial5beginEm"
 10270      3448 6172 
 10270      6477 6172 
 10270      6553 6572 
 10270      6961 6C35 
 10271               	.LASF156:
 10272 0c58 7469 6D65 		.string	"timedRead"
 10272      6452 6561 
 10272      6400 
 10273               	.LASF99:
 10274 0c62 746F 4C6F 		.string	"toLowerCase"
 10274      7765 7243 
 10274      6173 6500 
 10275               	.LASF15:
 10276 0c6e 5374 7269 		.string	"String"
 10276      6E67 00
 10277               	.LASF237:
 10278 0c75 7478 5F62 		.string	"tx_buffer1"
 10278      7566 6665 
 10278      7231 00
 10279               	.LASF157:
 10280 0c80 5F5A 4E36 		.string	"_ZN6Stream9timedReadEv"
 10280      5374 7265 
 10280      616D 3974 
 10280      696D 6564 
 10280      5265 6164 
 10281               	.LASF239:
 10282 0c97 7478 5F62 		.string	"tx_buffer2"
 10282      7566 6665 
 10282      7232 00
 10283               	.LASF201:
 10284 0ca2 7478 656E 		.string	"txen"
 10284      00
 10285               	.LASF106:
 10286 0ca7 5F5A 4E4B 		.string	"_ZNK6String5toIntEv"
 10286      3653 7472 
 10286      696E 6735 
 10286      746F 496E 
 10286      7445 7600 
 10287               	.LASF143:
 10288 0cbb 5F5A 4E31 		.string	"_ZN14HardwareSerial4peekEv"
 10288      3448 6172 
 10288      6477 6172 
 10288      6553 6572 
 10288      6961 6C34 
 10289               	.LASF62:
 10290 0cd6 5F5A 4E4B 		.string	"_ZNK6StringleERKS_"
GAS LISTING /var/folders/1s/lqjcb7x5323625d47g9gdgmr0000gp/T//ccQR4rtp.s 			page 195


 10290      3653 7472 
 10290      696E 676C 
 10290      6545 524B 
 10290      535F 00
 10291               	.LASF241:
 10292 0ce9 7478 5F62 		.string	"tx_buffer3"
 10292      7566 6665 
 10292      7233 00
 10293               	.LASF117:
 10294 0cf4 5F5F 6465 		.string	"__delta"
 10294      6C74 6100 
 10295               	.LASF85:
 10296 0cfc 5F5A 4E4B 		.string	"_ZNK6String7indexOfEcj"
 10296      3653 7472 
 10296      696E 6737 
 10296      696E 6465 
 10296      784F 6645 
 10297               	.LASF108:
 10298 0d13 5F5A 4E36 		.string	"_ZN6String4initEv"
 10298      5374 7269 
 10298      6E67 3469 
 10298      6E69 7445 
 10298      7600 
 10299               	.LASF166:
 10300 0d25 666C 7573 		.string	"flush"
 10300      6800 
 10301               	.LASF194:
 10302 0d2b 7478 5F62 		.string	"tx_buffer"
 10302      7566 6665 
 10302      7200 
 10303               	.LASF55:
 10304 0d35 5F5A 4E4B 		.string	"_ZNK6StringneERKS_"
 10304      3653 7472 
 10304      696E 676E 
 10304      6545 524B 
 10304      535F 00
 10305               	.LASF151:
 10306 0d48 6F70 6572 		.string	"operator bool"
 10306      6174 6F72 
 10306      2062 6F6F 
 10306      6C00 
 10307               	.LASF58:
 10308 0d56 5F5A 4E4B 		.string	"_ZNK6StringltERKS_"
 10308      3653 7472 
 10308      696E 676C 
 10308      7445 524B 
 10308      535F 00
 10309               	.LASF234:
 10310 0d69 4D49 534F 		.string	"MISO"
 10310      00
 10311               	.LASF18:
 10312 0d6e 7265 7365 		.string	"reserve"
 10312      7276 6500 
 10313               	.LASF248:
 10314 0d76 5F5F 7374 		.string	"__static_initialization_and_destruction_0"
 10314      6174 6963 
 10314      5F69 6E69 
GAS LISTING /var/folders/1s/lqjcb7x5323625d47g9gdgmr0000gp/T//ccQR4rtp.s 			page 196


 10314      7469 616C 
 10314      697A 6174 
 10315               	.LASF229:
 10316 0da0 5365 7269 		.string	"Serial"
 10316      616C 00
 10317               	.LASF181:
 10318 0da7 7265 6164 		.string	"readBytesUntil"
 10318      4279 7465 
 10318      7355 6E74 
 10318      696C 00
 10319               	.LASF134:
 10320 0db6 5072 696E 		.string	"Print"
 10320      7400 
 10321               	.LASF4:
 10322 0dbc 7569 6E74 		.string	"uint8_t"
 10322      385F 7400 
 10323               	.LASF232:
 10324 0dc4 5365 7269 		.string	"Serial3"
 10324      616C 3300 
 10325               	.LASF14:
 10326 0dcc 666C 6167 		.string	"flags"
 10326      7300 
 10327               	.LASF245:
 10328 0dd2 5F5A 4E31 		.string	"_ZN14HardwareSerial3endEv"
 10328      3448 6172 
 10328      6477 6172 
 10328      6553 6572 
 10328      6961 6C33 
 10329               	.LASF244:
 10330 0dec 7269 6E67 		.string	"ring_buffer"
 10330      5F62 7566 
 10330      6665 7200 
 10331               	.LASF44:
 10332 0df8 6F70 6572 		.string	"operator void (String::*)()const"
 10332      6174 6F72 
 10332      2076 6F69 
 10332      6420 2853 
 10332      7472 696E 
 10333               	.LASF144:
 10334 0e19 7265 6164 		.string	"read"
 10334      00
 10335               	.LASF169:
 10336 0e1e 6669 6E64 		.string	"find"
 10336      00
 10337               	.LASF228:
 10338 0e23 6375 7272 		.string	"current_config"
 10338      656E 745F 
 10338      636F 6E66 
 10338      6967 00
 10339               	.LASF105:
 10340 0e32 746F 496E 		.string	"toInt"
 10340      7400 
 10341               	.LASF95:
 10342 0e38 5F5A 4E4B 		.string	"_ZNK6String9substringEjj"
 10342      3653 7472 
 10342      696E 6739 
 10342      7375 6273 
GAS LISTING /var/folders/1s/lqjcb7x5323625d47g9gdgmr0000gp/T//ccQR4rtp.s 			page 197


 10342      7472 696E 
 10343               	.LASF89:
 10344 0e51 5F5A 4E4B 		.string	"_ZNK6String11lastIndexOfEc"
 10344      3653 7472 
 10344      696E 6731 
 10344      316C 6173 
 10344      7449 6E64 
 10345               	.LASF195:
 10346 0e6c 7562 7272 		.string	"ubrrh"
 10346      6800 
 10347               	.LASF64:
 10348 0e72 5F5A 4E4B 		.string	"_ZNK6StringgeERKS_"
 10348      3653 7472 
 10348      696E 6767 
 10348      6545 524B 
 10348      535F 00
 10349               	.LASF188:
 10350 0e85 5F5A 4E36 		.string	"_ZN6Stream10parseFloatEc"
 10350      5374 7265 
 10350      616D 3130 
 10350      7061 7273 
 10350      6546 6C6F 
 10351               	.LASF87:
 10352 0e9e 5F5A 4E4B 		.string	"_ZNK6String7indexOfERKS_j"
 10352      3653 7472 
 10352      696E 6737 
 10352      696E 6465 
 10352      784F 6645 
 10353               	.LASF24:
 10354 0eb8 5F5A 4E36 		.string	"_ZN6StringaSERKS_"
 10354      5374 7269 
 10354      6E67 6153 
 10354      4552 4B53 
 10354      5F00 
 10355               	.LASF184:
 10356 0eca 5F5A 4E36 		.string	"_ZN6Stream10readStringEv"
 10356      5374 7265 
 10356      616D 3130 
 10356      7265 6164 
 10356      5374 7269 
 10357               	.LASF205:
 10358 0ee3 5F5F 7072 		.string	"__priority"
 10358      696F 7269 
 10358      7479 00
 10359               	.LASF246:
 10360 0eee 5F5A 4E31 		.string	"_ZN14HardwareSerial5flushEv"
 10360      3448 6172 
 10360      6477 6172 
 10360      6553 6572 
 10360      6961 6C35 
 10361               	.LASF180:
 10362 0f0a 5F5A 4E36 		.string	"_ZN6Stream9readBytesEPcj"
 10362      5374 7265 
 10362      616D 3972 
 10362      6561 6442 
 10362      7974 6573 
 10363               	.LASF208:
GAS LISTING /var/folders/1s/lqjcb7x5323625d47g9gdgmr0000gp/T//ccQR4rtp.s 			page 198


 10364 0f23 7365 7269 		.string	"serialEvent1"
 10364      616C 4576 
 10364      656E 7431 
 10364      00
 10365               	.LASF178:
 10366 0f30 5F5A 4E36 		.string	"_ZN6Stream10parseFloatEv"
 10366      5374 7265 
 10366      616D 3130 
 10366      7061 7273 
 10366      6546 6C6F 
GAS LISTING /var/folders/1s/lqjcb7x5323625d47g9gdgmr0000gp/T//ccQR4rtp.s 			page 199


DEFINED SYMBOLS
                            *ABS*:00000000 HardwareSerial.cpp
/var/folders/1s/lqjcb7x5323625d47g9gdgmr0000gp/T//ccQR4rtp.s:2      *ABS*:0000003f __SREG__
/var/folders/1s/lqjcb7x5323625d47g9gdgmr0000gp/T//ccQR4rtp.s:3      *ABS*:0000003e __SP_H__
/var/folders/1s/lqjcb7x5323625d47g9gdgmr0000gp/T//ccQR4rtp.s:4      *ABS*:0000003d __SP_L__
/var/folders/1s/lqjcb7x5323625d47g9gdgmr0000gp/T//ccQR4rtp.s:5      *ABS*:00000034 __CCP__
/var/folders/1s/lqjcb7x5323625d47g9gdgmr0000gp/T//ccQR4rtp.s:6      *ABS*:00000000 __tmp_reg__
/var/folders/1s/lqjcb7x5323625d47g9gdgmr0000gp/T//ccQR4rtp.s:7      *ABS*:00000001 __zero_reg__
/var/folders/1s/lqjcb7x5323625d47g9gdgmr0000gp/T//ccQR4rtp.s:21     .text._Z11serialEventv:00000000 _Z11serialEventv
/var/folders/1s/lqjcb7x5323625d47g9gdgmr0000gp/T//ccQR4rtp.s:34     .text.__vector_25:00000000 __vector_25
/var/folders/1s/lqjcb7x5323625d47g9gdgmr0000gp/T//ccQR4rtp.s:2215   .bss.rx_buffer:00000000 rx_buffer
/var/folders/1s/lqjcb7x5323625d47g9gdgmr0000gp/T//ccQR4rtp.s:124    .text._Z12serialEvent1v:00000000 _Z12serialEvent1v
/var/folders/1s/lqjcb7x5323625d47g9gdgmr0000gp/T//ccQR4rtp.s:137    .text.__vector_36:00000000 __vector_36
/var/folders/1s/lqjcb7x5323625d47g9gdgmr0000gp/T//ccQR4rtp.s:2227   .bss.rx_buffer1:00000000 rx_buffer1
/var/folders/1s/lqjcb7x5323625d47g9gdgmr0000gp/T//ccQR4rtp.s:227    .text._Z12serialEvent2v:00000000 _Z12serialEvent2v
/var/folders/1s/lqjcb7x5323625d47g9gdgmr0000gp/T//ccQR4rtp.s:240    .text.__vector_51:00000000 __vector_51
/var/folders/1s/lqjcb7x5323625d47g9gdgmr0000gp/T//ccQR4rtp.s:2239   .bss.rx_buffer2:00000000 rx_buffer2
/var/folders/1s/lqjcb7x5323625d47g9gdgmr0000gp/T//ccQR4rtp.s:330    .text._Z12serialEvent3v:00000000 _Z12serialEvent3v
/var/folders/1s/lqjcb7x5323625d47g9gdgmr0000gp/T//ccQR4rtp.s:343    .text.__vector_54:00000000 __vector_54
/var/folders/1s/lqjcb7x5323625d47g9gdgmr0000gp/T//ccQR4rtp.s:2251   .bss.rx_buffer3:00000000 rx_buffer3
/var/folders/1s/lqjcb7x5323625d47g9gdgmr0000gp/T//ccQR4rtp.s:433    .text._Z14serialEventRunv:00000000 _Z14serialEventRunv
/var/folders/1s/lqjcb7x5323625d47g9gdgmr0000gp/T//ccQR4rtp.s:2263   .bss.Serial:00000000 Serial
/var/folders/1s/lqjcb7x5323625d47g9gdgmr0000gp/T//ccQR4rtp.s:2269   .bss.Serial1:00000000 Serial1
/var/folders/1s/lqjcb7x5323625d47g9gdgmr0000gp/T//ccQR4rtp.s:2275   .bss.Serial2:00000000 Serial2
/var/folders/1s/lqjcb7x5323625d47g9gdgmr0000gp/T//ccQR4rtp.s:2281   .bss.Serial3:00000000 Serial3
/var/folders/1s/lqjcb7x5323625d47g9gdgmr0000gp/T//ccQR4rtp.s:532    .text.__vector_26:00000000 __vector_26
/var/folders/1s/lqjcb7x5323625d47g9gdgmr0000gp/T//ccQR4rtp.s:2221   .bss.tx_buffer:00000000 tx_buffer
/var/folders/1s/lqjcb7x5323625d47g9gdgmr0000gp/T//ccQR4rtp.s:607    .text.__vector_37:00000000 __vector_37
/var/folders/1s/lqjcb7x5323625d47g9gdgmr0000gp/T//ccQR4rtp.s:2233   .bss.tx_buffer1:00000000 tx_buffer1
/var/folders/1s/lqjcb7x5323625d47g9gdgmr0000gp/T//ccQR4rtp.s:682    .text.__vector_52:00000000 __vector_52
/var/folders/1s/lqjcb7x5323625d47g9gdgmr0000gp/T//ccQR4rtp.s:2245   .bss.tx_buffer2:00000000 tx_buffer2
/var/folders/1s/lqjcb7x5323625d47g9gdgmr0000gp/T//ccQR4rtp.s:757    .text.__vector_55:00000000 __vector_55
/var/folders/1s/lqjcb7x5323625d47g9gdgmr0000gp/T//ccQR4rtp.s:2257   .bss.tx_buffer3:00000000 tx_buffer3
/var/folders/1s/lqjcb7x5323625d47g9gdgmr0000gp/T//ccQR4rtp.s:832    .text._ZN14HardwareSerialC2EP11ring_bufferS1_PVhS3_S3_S3_S3_S3_hhhhh:00000000 _ZN14HardwareSerialC2EP11ring_bufferS1_PVhS3_S3_S3_S3_S3_hhhhh
/var/folders/1s/lqjcb7x5323625d47g9gdgmr0000gp/T//ccQR4rtp.s:2287   .rodata._ZTV14HardwareSerial:00000000 _ZTV14HardwareSerial
/var/folders/1s/lqjcb7x5323625d47g9gdgmr0000gp/T//ccQR4rtp.s:959    .text._ZN14HardwareSerialC1EP11ring_bufferS1_PVhS3_S3_S3_S3_S3_hhhhh:00000000 _ZN14HardwareSerialC1EP11ring_bufferS1_PVhS3_S3_S3_S3_S3_hhhhh
/var/folders/1s/lqjcb7x5323625d47g9gdgmr0000gp/T//ccQR4rtp.s:1086   .text._ZN14HardwareSerial5beginEm:00000000 _ZN14HardwareSerial5beginEm
/var/folders/1s/lqjcb7x5323625d47g9gdgmr0000gp/T//ccQR4rtp.s:1266   .text._ZN14HardwareSerial5beginEmh:00000000 _ZN14HardwareSerial5beginEmh
/var/folders/1s/lqjcb7x5323625d47g9gdgmr0000gp/T//ccQR4rtp.s:1453   .text._ZN14HardwareSerial3endEv:00000000 _ZN14HardwareSerial3endEv
/var/folders/1s/lqjcb7x5323625d47g9gdgmr0000gp/T//ccQR4rtp.s:1576   .text._ZN14HardwareSerial9availableEv:00000000 _ZN14HardwareSerial9availableEv
/var/folders/1s/lqjcb7x5323625d47g9gdgmr0000gp/T//ccQR4rtp.s:1608   .text._ZN14HardwareSerial4peekEv:00000000 _ZN14HardwareSerial4peekEv
/var/folders/1s/lqjcb7x5323625d47g9gdgmr0000gp/T//ccQR4rtp.s:1658   .text._ZN14HardwareSerial4readEv:00000000 _ZN14HardwareSerial4readEv
/var/folders/1s/lqjcb7x5323625d47g9gdgmr0000gp/T//ccQR4rtp.s:1725   .text._ZN14HardwareSerial5flushEv:00000000 _ZN14HardwareSerial5flushEv
/var/folders/1s/lqjcb7x5323625d47g9gdgmr0000gp/T//ccQR4rtp.s:1759   .text._ZN14HardwareSerial5writeEh:00000000 _ZN14HardwareSerial5writeEh
/var/folders/1s/lqjcb7x5323625d47g9gdgmr0000gp/T//ccQR4rtp.s:1850   .text._ZN14HardwareSerialcvbEv:00000000 _ZN14HardwareSerialcvbEv
/var/folders/1s/lqjcb7x5323625d47g9gdgmr0000gp/T//ccQR4rtp.s:1865   .text._GLOBAL__I_rx_buffer:00000000 _GLOBAL__I_rx_buffer
/var/folders/1s/lqjcb7x5323625d47g9gdgmr0000gp/T//ccQR4rtp.s:2300   .rodata._ZTV6Stream:00000000 _ZTV6Stream

UNDEFINED SYMBOLS
__do_copy_data
__do_clear_bss
__udivmodsi4
__do_global_ctors
_ZN5Print5writeEPKhj
__cxa_pure_virtual
