GAS LISTING /var/folders/1s/lqjcb7x5323625d47g9gdgmr0000gp/T//ccJs2JT3.s 			page 1


   1               		.file	"IPAddress.cpp"
   2               	__SREG__ = 0x3f
   3               	__SP_H__ = 0x3e
   4               	__SP_L__ = 0x3d
   5               	__CCP__  = 0x34
   6               	__tmp_reg__ = 0
   7               	__zero_reg__ = 1
   8               		.global __do_copy_data
   9               		.global __do_clear_bss
  10               		.section	.debug_abbrev,"",@progbits
  11               	.Ldebug_abbrev0:
  12               		.section	.debug_info,"",@progbits
  13               	.Ldebug_info0:
  14               		.section	.debug_line,"",@progbits
  15               	.Ldebug_line0:
  16               		.text
  17               	.Ltext0:
  18               		.section	.text._ZN9IPAddressC2Ehhhh,"ax",@progbits
  19               	.global	_ZN9IPAddressC2Ehhhh
  20               		.type	_ZN9IPAddressC2Ehhhh, @function
  21               	_ZN9IPAddressC2Ehhhh:
  22               	.LFB87:
  23               	.LSM0:
  24               	.LVL0:
  25 0000 0F93      		push r16
  26               	.LVL1:
  27               	/* prologue: function */
  28               	/* frame size = 0 */
  29 0002 FC01      		movw r30,r24
  30               	.LBB48:
  31               	.LSM1:
  32 0004 80E0      		ldi r24,lo8(_ZTV9IPAddress+4)
  33 0006 90E0      		ldi r25,hi8(_ZTV9IPAddress+4)
  34               	.LVL2:
  35 0008 9183      		std Z+1,r25
  36 000a 8083      		st Z,r24
  37               	.LSM2:
  38 000c 6283      		std Z+2,r22
  39               	.LSM3:
  40 000e 4383      		std Z+3,r20
  41               	.LSM4:
  42 0010 2483      		std Z+4,r18
  43               	.LSM5:
  44 0012 0583      		std Z+5,r16
  45               	.LVL3:
  46               	/* epilogue start */
  47               	.LBE48:
  48               	.LSM6:
  49 0014 0F91      		pop r16
  50               	.LVL4:
  51 0016 0895      		ret
  52               	.LFE87:
  53               		.size	_ZN9IPAddressC2Ehhhh, .-_ZN9IPAddressC2Ehhhh
  54               		.section	.text._ZN9IPAddressC1Ehhhh,"ax",@progbits
  55               	.global	_ZN9IPAddressC1Ehhhh
  56               		.type	_ZN9IPAddressC1Ehhhh, @function
  57               	_ZN9IPAddressC1Ehhhh:
GAS LISTING /var/folders/1s/lqjcb7x5323625d47g9gdgmr0000gp/T//ccJs2JT3.s 			page 2


  58               	.LFB88:
  59               	.LSM7:
  60               	.LVL5:
  61 0000 0F93      		push r16
  62               	.LVL6:
  63               	/* prologue: function */
  64               	/* frame size = 0 */
  65 0002 FC01      		movw r30,r24
  66               	.LBB49:
  67               	.LSM8:
  68 0004 80E0      		ldi r24,lo8(_ZTV9IPAddress+4)
  69 0006 90E0      		ldi r25,hi8(_ZTV9IPAddress+4)
  70               	.LVL7:
  71 0008 9183      		std Z+1,r25
  72 000a 8083      		st Z,r24
  73               	.LSM9:
  74 000c 6283      		std Z+2,r22
  75               	.LSM10:
  76 000e 4383      		std Z+3,r20
  77               	.LSM11:
  78 0010 2483      		std Z+4,r18
  79               	.LSM12:
  80 0012 0583      		std Z+5,r16
  81               	.LVL8:
  82               	/* epilogue start */
  83               	.LBE49:
  84               	.LSM13:
  85 0014 0F91      		pop r16
  86               	.LVL9:
  87 0016 0895      		ret
  88               	.LFE88:
  89               		.size	_ZN9IPAddressC1Ehhhh, .-_ZN9IPAddressC1Ehhhh
  90               		.section	.text._GLOBAL__I__ZN9IPAddressC2Ev,"ax",@progbits
  91               		.type	_GLOBAL__I__ZN9IPAddressC2Ev, @function
  92               	_GLOBAL__I__ZN9IPAddressC2Ev:
  93               	.LFB100:
  94               	.LSM14:
  95               	/* prologue: function */
  96               	/* frame size = 0 */
  97               	.LBB50:
  98               	.LBB51:
  99               	.LBB52:
 100               	.LBB53:
 101               	.LBB54:
 102               	.LSM15:
 103 0000 80E0      		ldi r24,lo8(_ZTV9IPAddress+4)
 104 0002 90E0      		ldi r25,hi8(_ZTV9IPAddress+4)
 105 0004 9093 0000 		sts (_ZL11INADDR_NONE)+1,r25
 106 0008 8093 0000 		sts _ZL11INADDR_NONE,r24
 107               	.LSM16:
 108 000c 1092 0000 		sts _ZL11INADDR_NONE+2,__zero_reg__
 109               	.LSM17:
 110 0010 1092 0000 		sts _ZL11INADDR_NONE+3,__zero_reg__
 111               	.LSM18:
 112 0014 1092 0000 		sts _ZL11INADDR_NONE+4,__zero_reg__
 113               	.LSM19:
 114 0018 1092 0000 		sts _ZL11INADDR_NONE+5,__zero_reg__
GAS LISTING /var/folders/1s/lqjcb7x5323625d47g9gdgmr0000gp/T//ccJs2JT3.s 			page 3


 115               	/* epilogue start */
 116               	.LBE54:
 117               	.LBE53:
 118               	.LBE52:
 119               	.LBE51:
 120               	.LBE50:
 121               	.LSM20:
 122 001c 0895      		ret
 123               	.LFE100:
 124               		.size	_GLOBAL__I__ZN9IPAddressC2Ev, .-_GLOBAL__I__ZN9IPAddressC2Ev
 125               		.global __do_global_ctors
 126               		.section .ctors,"a",@progbits
 127 0000 0000      		.word	gs(_GLOBAL__I__ZN9IPAddressC2Ev)
 128               		.section	.text._ZNK9IPAddress7printToER5Print,"ax",@progbits
 129               	.global	_ZNK9IPAddress7printToER5Print
 130               		.type	_ZNK9IPAddress7printToER5Print, @function
 131               	_ZNK9IPAddress7printToER5Print:
 132               	.LFB98:
 133               	.LSM21:
 134               	.LVL10:
 135 0000 8F92      		push r8
 136 0002 9F92      		push r9
 137 0004 AF92      		push r10
 138 0006 BF92      		push r11
 139 0008 CF92      		push r12
 140 000a DF92      		push r13
 141 000c EF92      		push r14
 142 000e FF92      		push r15
 143 0010 0F93      		push r16
 144 0012 1F93      		push r17
 145 0014 CF93      		push r28
 146 0016 DF93      		push r29
 147               	/* prologue: function */
 148               	/* frame size = 0 */
 149 0018 4C01      		movw r8,r24
 150 001a 6B01      		movw r12,r22
 151               	.LSM22:
 152 001c 7C01      		movw r14,r24
 153 001e AA24      		clr r10
 154 0020 BB24      		clr r11
 155               	.LVL11:
 156 0022 C0E0      		ldi r28,lo8(0)
 157 0024 D0E0      		ldi r29,hi8(0)
 158               	.LVL12:
 159               	.L8:
 160               	.LBB57:
 161               	.LBB58:
 162               	.LSM23:
 163 0026 C601      		movw r24,r12
 164               	.LVL13:
 165 0028 F701      		movw r30,r14
 166 002a 6281      		ldd r22,Z+2
 167 002c 4AE0      		ldi r20,lo8(10)
 168 002e 50E0      		ldi r21,hi8(10)
 169 0030 0E94 0000 		call _ZN5Print5printEhi
 170 0034 8C01      		movw r16,r24
 171               	.LSM24:
GAS LISTING /var/folders/1s/lqjcb7x5323625d47g9gdgmr0000gp/T//ccJs2JT3.s 			page 4


 172 0036 C601      		movw r24,r12
 173 0038 6EE2      		ldi r22,lo8(46)
 174 003a 0E94 0000 		call _ZN5Print5printEc
 175               	.LSM25:
 176 003e 080F      		add r16,r24
 177 0040 191F      		adc r17,r25
 178               	.LSM26:
 179 0042 A00E      		add r10,r16
 180 0044 B11E      		adc r11,r17
 181               	.LSM27:
 182 0046 2196      		adiw r28,1
 183 0048 0894      		sec
 184 004a E11C      		adc r14,__zero_reg__
 185 004c F11C      		adc r15,__zero_reg__
 186 004e C330      		cpi r28,3
 187 0050 D105      		cpc r29,__zero_reg__
 188 0052 01F4      		brne .L8
 189               	.LBE58:
 190               	.LSM28:
 191 0054 C601      		movw r24,r12
 192 0056 F401      		movw r30,r8
 193 0058 6581      		ldd r22,Z+5
 194 005a 4AE0      		ldi r20,lo8(10)
 195 005c 50E0      		ldi r21,hi8(10)
 196 005e 0E94 0000 		call _ZN5Print5printEhi
 197 0062 9501      		movw r18,r10
 198 0064 280F      		add r18,r24
 199 0066 391F      		adc r19,r25
 200               	.LBE57:
 201               	.LSM29:
 202 0068 C901      		movw r24,r18
 203               	/* epilogue start */
 204 006a DF91      		pop r29
 205 006c CF91      		pop r28
 206               	.LVL14:
 207 006e 1F91      		pop r17
 208 0070 0F91      		pop r16
 209 0072 FF90      		pop r15
 210 0074 EF90      		pop r14
 211 0076 DF90      		pop r13
 212 0078 CF90      		pop r12
 213               	.LVL15:
 214 007a BF90      		pop r11
 215 007c AF90      		pop r10
 216               	.LVL16:
 217 007e 9F90      		pop r9
 218 0080 8F90      		pop r8
 219               	.LVL17:
 220 0082 0895      		ret
 221               	.LFE98:
 222               		.size	_ZNK9IPAddress7printToER5Print, .-_ZNK9IPAddress7printToER5Print
 223               		.section	.text._ZN9IPAddresseqEPKh,"ax",@progbits
 224               	.global	_ZN9IPAddresseqEPKh
 225               		.type	_ZN9IPAddresseqEPKh, @function
 226               	_ZN9IPAddresseqEPKh:
 227               	.LFB97:
 228               	.LSM30:
GAS LISTING /var/folders/1s/lqjcb7x5323625d47g9gdgmr0000gp/T//ccJs2JT3.s 			page 5


 229               	.LVL18:
 230               	/* prologue: function */
 231               	/* frame size = 0 */
 232               	.LSM31:
 233 0000 9C01      		movw r18,r24
 234 0002 2E5F      		subi r18,lo8(-(2))
 235 0004 3F4F      		sbci r19,hi8(-(2))
 236 0006 CB01      		movw r24,r22
 237               	.LVL19:
 238 0008 B901      		movw r22,r18
 239               	.LVL20:
 240 000a 44E0      		ldi r20,lo8(4)
 241 000c 50E0      		ldi r21,hi8(4)
 242 000e 0E94 0000 		call memcmp
 243 0012 9C01      		movw r18,r24
 244 0014 80E0      		ldi r24,lo8(0)
 245 0016 232B      		or r18,r19
 246 0018 01F4      		brne .L12
 247 001a 81E0      		ldi r24,lo8(1)
 248               	.L12:
 249               	.LSM32:
 250 001c 0895      		ret
 251               	.LFE97:
 252               		.size	_ZN9IPAddresseqEPKh, .-_ZN9IPAddresseqEPKh
 253               		.section	.text._ZN9IPAddressaSEm,"ax",@progbits
 254               	.global	_ZN9IPAddressaSEm
 255               		.type	_ZN9IPAddressaSEm, @function
 256               	_ZN9IPAddressaSEm:
 257               	.LFB96:
 258               	.LSM33:
 259               	.LVL21:
 260 0000 DF93      		push r29
 261 0002 CF93      		push r28
 262 0004 00D0      		rcall .
 263 0006 0F92      		push __tmp_reg__
 264 0008 CDB7      		in r28,__SP_L__
 265 000a DEB7      		in r29,__SP_H__
 266               	/* prologue: function */
 267               	/* frame size = 4 */
 268 000c FC01      		movw r30,r24
 269               	.LSM34:
 270 000e 4283      		std Z+2,r20
 271 0010 5383      		std Z+3,r21
 272 0012 6483      		std Z+4,r22
 273 0014 7583      		std Z+5,r23
 274               	.LVL22:
 275               	.LVL23:
 276               	/* epilogue start */
 277               	.LSM35:
 278 0016 0F90      		pop __tmp_reg__
 279 0018 0F90      		pop __tmp_reg__
 280 001a 0F90      		pop __tmp_reg__
 281 001c 0F90      		pop __tmp_reg__
 282 001e CF91      		pop r28
 283 0020 DF91      		pop r29
 284 0022 0895      		ret
 285               	.LFE96:
GAS LISTING /var/folders/1s/lqjcb7x5323625d47g9gdgmr0000gp/T//ccJs2JT3.s 			page 6


 286               		.size	_ZN9IPAddressaSEm, .-_ZN9IPAddressaSEm
 287               		.section	.text._ZN9IPAddressaSEPKh,"ax",@progbits
 288               	.global	_ZN9IPAddressaSEPKh
 289               		.type	_ZN9IPAddressaSEPKh, @function
 290               	_ZN9IPAddressaSEPKh:
 291               	.LFB95:
 292               	.LSM36:
 293               	.LVL24:
 294               	/* prologue: function */
 295               	/* frame size = 0 */
 296 0000 9C01      		movw r18,r24
 297 0002 FB01      		movw r30,r22
 298               	.LSM37:
 299 0004 8081      		ld r24,Z
 300 0006 9181      		ldd r25,Z+1
 301 0008 A281      		ldd r26,Z+2
 302 000a B381      		ldd r27,Z+3
 303               	.LVL25:
 304 000c F901      		movw r30,r18
 305 000e 8283      		std Z+2,r24
 306 0010 9383      		std Z+3,r25
 307 0012 A483      		std Z+4,r26
 308 0014 B583      		std Z+5,r27
 309               	.LSM38:
 310 0016 C901      		movw r24,r18
 311               	.LVL26:
 312               	/* epilogue start */
 313 0018 0895      		ret
 314               	.LFE95:
 315               		.size	_ZN9IPAddressaSEPKh, .-_ZN9IPAddressaSEPKh
 316               		.section	.text._ZN9IPAddressC1EPKh,"ax",@progbits
 317               	.global	_ZN9IPAddressC1EPKh
 318               		.type	_ZN9IPAddressC1EPKh, @function
 319               	_ZN9IPAddressC1EPKh:
 320               	.LFB94:
 321               	.LSM39:
 322               	.LVL27:
 323               	/* prologue: function */
 324               	/* frame size = 0 */
 325 0000 9C01      		movw r18,r24
 326 0002 FB01      		movw r30,r22
 327               	.LBB63:
 328               	.LSM40:
 329 0004 80E0      		ldi r24,lo8(_ZTV9IPAddress+4)
 330 0006 90E0      		ldi r25,hi8(_ZTV9IPAddress+4)
 331               	.LVL28:
 332 0008 D901      		movw r26,r18
 333 000a 8D93      		st X+,r24
 334 000c 9C93      		st X,r25
 335               	.LSM41:
 336 000e 8081      		ld r24,Z
 337 0010 9181      		ldd r25,Z+1
 338 0012 A281      		ldd r26,Z+2
 339 0014 B381      		ldd r27,Z+3
 340 0016 F901      		movw r30,r18
 341 0018 8283      		std Z+2,r24
 342 001a 9383      		std Z+3,r25
GAS LISTING /var/folders/1s/lqjcb7x5323625d47g9gdgmr0000gp/T//ccJs2JT3.s 			page 7


 343 001c A483      		std Z+4,r26
 344 001e B583      		std Z+5,r27
 345               	/* epilogue start */
 346               	.LBE63:
 347               	.LSM42:
 348 0020 0895      		ret
 349               	.LFE94:
 350               		.size	_ZN9IPAddressC1EPKh, .-_ZN9IPAddressC1EPKh
 351               		.section	.text._ZN9IPAddressC2EPKh,"ax",@progbits
 352               	.global	_ZN9IPAddressC2EPKh
 353               		.type	_ZN9IPAddressC2EPKh, @function
 354               	_ZN9IPAddressC2EPKh:
 355               	.LFB93:
 356               	.LSM43:
 357               	.LVL29:
 358               	/* prologue: function */
 359               	/* frame size = 0 */
 360 0000 9C01      		movw r18,r24
 361 0002 FB01      		movw r30,r22
 362               	.LBB68:
 363               	.LSM44:
 364 0004 80E0      		ldi r24,lo8(_ZTV9IPAddress+4)
 365 0006 90E0      		ldi r25,hi8(_ZTV9IPAddress+4)
 366               	.LVL30:
 367 0008 D901      		movw r26,r18
 368 000a 8D93      		st X+,r24
 369 000c 9C93      		st X,r25
 370               	.LSM45:
 371 000e 8081      		ld r24,Z
 372 0010 9181      		ldd r25,Z+1
 373 0012 A281      		ldd r26,Z+2
 374 0014 B381      		ldd r27,Z+3
 375 0016 F901      		movw r30,r18
 376 0018 8283      		std Z+2,r24
 377 001a 9383      		std Z+3,r25
 378 001c A483      		std Z+4,r26
 379 001e B583      		std Z+5,r27
 380               	/* epilogue start */
 381               	.LBE68:
 382               	.LSM46:
 383 0020 0895      		ret
 384               	.LFE93:
 385               		.size	_ZN9IPAddressC2EPKh, .-_ZN9IPAddressC2EPKh
 386               		.section	.text._ZN9IPAddressC1Em,"ax",@progbits
 387               	.global	_ZN9IPAddressC1Em
 388               		.type	_ZN9IPAddressC1Em, @function
 389               	_ZN9IPAddressC1Em:
 390               	.LFB91:
 391               	.LSM47:
 392               	.LVL31:
 393 0000 DF93      		push r29
 394 0002 CF93      		push r28
 395 0004 00D0      		rcall .
 396 0006 0F92      		push __tmp_reg__
 397 0008 CDB7      		in r28,__SP_L__
 398 000a DEB7      		in r29,__SP_H__
 399               	/* prologue: function */
GAS LISTING /var/folders/1s/lqjcb7x5323625d47g9gdgmr0000gp/T//ccJs2JT3.s 			page 8


 400               	/* frame size = 4 */
 401 000c FC01      		movw r30,r24
 402               	.LBB73:
 403               	.LSM48:
 404 000e 80E0      		ldi r24,lo8(_ZTV9IPAddress+4)
 405 0010 90E0      		ldi r25,hi8(_ZTV9IPAddress+4)
 406               	.LVL32:
 407 0012 9183      		std Z+1,r25
 408 0014 8083      		st Z,r24
 409               	.LSM49:
 410 0016 4283      		std Z+2,r20
 411 0018 5383      		std Z+3,r21
 412 001a 6483      		std Z+4,r22
 413 001c 7583      		std Z+5,r23
 414               	.LVL33:
 415               	/* epilogue start */
 416               	.LBE73:
 417               	.LSM50:
 418 001e 0F90      		pop __tmp_reg__
 419 0020 0F90      		pop __tmp_reg__
 420 0022 0F90      		pop __tmp_reg__
 421 0024 0F90      		pop __tmp_reg__
 422 0026 CF91      		pop r28
 423 0028 DF91      		pop r29
 424 002a 0895      		ret
 425               	.LFE91:
 426               		.size	_ZN9IPAddressC1Em, .-_ZN9IPAddressC1Em
 427               		.section	.text._ZN9IPAddressC2Em,"ax",@progbits
 428               	.global	_ZN9IPAddressC2Em
 429               		.type	_ZN9IPAddressC2Em, @function
 430               	_ZN9IPAddressC2Em:
 431               	.LFB90:
 432               	.LSM51:
 433               	.LVL34:
 434 0000 DF93      		push r29
 435 0002 CF93      		push r28
 436 0004 00D0      		rcall .
 437 0006 0F92      		push __tmp_reg__
 438 0008 CDB7      		in r28,__SP_L__
 439 000a DEB7      		in r29,__SP_H__
 440               	/* prologue: function */
 441               	/* frame size = 4 */
 442 000c FC01      		movw r30,r24
 443               	.LBB78:
 444               	.LSM52:
 445 000e 80E0      		ldi r24,lo8(_ZTV9IPAddress+4)
 446 0010 90E0      		ldi r25,hi8(_ZTV9IPAddress+4)
 447               	.LVL35:
 448 0012 9183      		std Z+1,r25
 449 0014 8083      		st Z,r24
 450               	.LSM53:
 451 0016 4283      		std Z+2,r20
 452 0018 5383      		std Z+3,r21
 453 001a 6483      		std Z+4,r22
 454 001c 7583      		std Z+5,r23
 455               	.LVL36:
 456               	/* epilogue start */
GAS LISTING /var/folders/1s/lqjcb7x5323625d47g9gdgmr0000gp/T//ccJs2JT3.s 			page 9


 457               	.LBE78:
 458               	.LSM54:
 459 001e 0F90      		pop __tmp_reg__
 460 0020 0F90      		pop __tmp_reg__
 461 0022 0F90      		pop __tmp_reg__
 462 0024 0F90      		pop __tmp_reg__
 463 0026 CF91      		pop r28
 464 0028 DF91      		pop r29
 465 002a 0895      		ret
 466               	.LFE90:
 467               		.size	_ZN9IPAddressC2Em, .-_ZN9IPAddressC2Em
 468               		.section	.text._ZN9IPAddressC1Ev,"ax",@progbits
 469               	.global	_ZN9IPAddressC1Ev
 470               		.type	_ZN9IPAddressC1Ev, @function
 471               	_ZN9IPAddressC1Ev:
 472               	.LFB85:
 473               	.LSM55:
 474               	.LVL37:
 475               	/* prologue: function */
 476               	/* frame size = 0 */
 477 0000 FC01      		movw r30,r24
 478               	.LBB83:
 479               	.LSM56:
 480 0002 80E0      		ldi r24,lo8(_ZTV9IPAddress+4)
 481 0004 90E0      		ldi r25,hi8(_ZTV9IPAddress+4)
 482               	.LVL38:
 483 0006 9183      		std Z+1,r25
 484 0008 8083      		st Z,r24
 485               	.LSM57:
 486 000a 1282      		std Z+2,__zero_reg__
 487 000c 1382      		std Z+3,__zero_reg__
 488 000e 1482      		std Z+4,__zero_reg__
 489 0010 1582      		std Z+5,__zero_reg__
 490               	/* epilogue start */
 491               	.LBE83:
 492               	.LSM58:
 493 0012 0895      		ret
 494               	.LFE85:
 495               		.size	_ZN9IPAddressC1Ev, .-_ZN9IPAddressC1Ev
 496               		.section	.text._ZN9IPAddressC2Ev,"ax",@progbits
 497               	.global	_ZN9IPAddressC2Ev
 498               		.type	_ZN9IPAddressC2Ev, @function
 499               	_ZN9IPAddressC2Ev:
 500               	.LFB84:
 501               	.LSM59:
 502               	.LVL39:
 503               	/* prologue: function */
 504               	/* frame size = 0 */
 505 0000 FC01      		movw r30,r24
 506               	.LBB88:
 507               	.LSM60:
 508 0002 80E0      		ldi r24,lo8(_ZTV9IPAddress+4)
 509 0004 90E0      		ldi r25,hi8(_ZTV9IPAddress+4)
 510               	.LVL40:
 511 0006 9183      		std Z+1,r25
 512 0008 8083      		st Z,r24
 513               	.LSM61:
GAS LISTING /var/folders/1s/lqjcb7x5323625d47g9gdgmr0000gp/T//ccJs2JT3.s 			page 10


 514 000a 1282      		std Z+2,__zero_reg__
 515 000c 1382      		std Z+3,__zero_reg__
 516 000e 1482      		std Z+4,__zero_reg__
 517 0010 1582      		std Z+5,__zero_reg__
 518               	/* epilogue start */
 519               	.LBE88:
 520               	.LSM62:
 521 0012 0895      		ret
 522               	.LFE84:
 523               		.size	_ZN9IPAddressC2Ev, .-_ZN9IPAddressC2Ev
 524               		.weak	_ZTV9IPAddress
 525               		.section	.rodata._ZTV9IPAddress,"a",@progbits
 526               		.type	_ZTV9IPAddress, @object
 527               		.size	_ZTV9IPAddress, 6
 528               	_ZTV9IPAddress:
 529 0000 0000      		.word	0
 530 0002 0000      		.word	0
 531 0004 0000      		.word	gs(_ZNK9IPAddress7printToER5Print)
 532               		.section	.bss._ZL11INADDR_NONE,"aw",@nobits
 533               		.type	_ZL11INADDR_NONE, @object
 534               		.size	_ZL11INADDR_NONE, 6
 535               	_ZL11INADDR_NONE:
 536 0000 0000 0000 		.skip 6,0
 536      0000 
 537               		.weak	_ZTV9Printable
 538               		.section	.rodata._ZTV9Printable,"a",@progbits
 539               		.type	_ZTV9Printable, @object
 540               		.size	_ZTV9Printable, 6
 541               	_ZTV9Printable:
 542 0000 0000      		.word	0
 543 0002 0000      		.word	0
 544 0004 0000      		.word	gs(__cxa_pure_virtual)
 545               		.section	.debug_frame,"",@progbits
 546               	.Lframe0:
 547 0000 0C00 0000 		.long	.LECIE0-.LSCIE0
 548               	.LSCIE0:
 549 0004 FFFF FFFF 		.long	0xffffffff
 550 0008 01        		.byte	0x1
 551 0009 00        		.string	""
 552 000a 01        		.uleb128 0x1
 553 000b 7F        		.sleb128 -1
 554 000c 24        		.byte	0x24
 555 000d 0C        		.byte	0xc
 556 000e 20        		.uleb128 0x20
 557 000f 00        		.uleb128 0x0
 558               		.p2align	2
 559               	.LECIE0:
 560               	.LSFDE0:
 561 0010 0C00 0000 		.long	.LEFDE0-.LASFDE0
 562               	.LASFDE0:
 563 0014 0000 0000 		.long	.Lframe0
 564 0018 0000 0000 		.long	.LFB87
 565 001c 1800 0000 		.long	.LFE87-.LFB87
 566               		.p2align	2
 567               	.LEFDE0:
 568               	.LSFDE2:
 569 0020 0C00 0000 		.long	.LEFDE2-.LASFDE2
GAS LISTING /var/folders/1s/lqjcb7x5323625d47g9gdgmr0000gp/T//ccJs2JT3.s 			page 11


 570               	.LASFDE2:
 571 0024 0000 0000 		.long	.Lframe0
 572 0028 0000 0000 		.long	.LFB88
 573 002c 1800 0000 		.long	.LFE88-.LFB88
 574               		.p2align	2
 575               	.LEFDE2:
 576               	.LSFDE4:
 577 0030 0C00 0000 		.long	.LEFDE4-.LASFDE4
 578               	.LASFDE4:
 579 0034 0000 0000 		.long	.Lframe0
 580 0038 0000 0000 		.long	.LFB100
 581 003c 1E00 0000 		.long	.LFE100-.LFB100
 582               		.p2align	2
 583               	.LEFDE4:
 584               	.LSFDE6:
 585 0040 0C00 0000 		.long	.LEFDE6-.LASFDE6
 586               	.LASFDE6:
 587 0044 0000 0000 		.long	.Lframe0
 588 0048 0000 0000 		.long	.LFB98
 589 004c 8400 0000 		.long	.LFE98-.LFB98
 590               		.p2align	2
 591               	.LEFDE6:
 592               	.LSFDE8:
 593 0050 0C00 0000 		.long	.LEFDE8-.LASFDE8
 594               	.LASFDE8:
 595 0054 0000 0000 		.long	.Lframe0
 596 0058 0000 0000 		.long	.LFB97
 597 005c 1E00 0000 		.long	.LFE97-.LFB97
 598               		.p2align	2
 599               	.LEFDE8:
 600               	.LSFDE10:
 601 0060 0C00 0000 		.long	.LEFDE10-.LASFDE10
 602               	.LASFDE10:
 603 0064 0000 0000 		.long	.Lframe0
 604 0068 0000 0000 		.long	.LFB96
 605 006c 2400 0000 		.long	.LFE96-.LFB96
 606               		.p2align	2
 607               	.LEFDE10:
 608               	.LSFDE12:
 609 0070 0C00 0000 		.long	.LEFDE12-.LASFDE12
 610               	.LASFDE12:
 611 0074 0000 0000 		.long	.Lframe0
 612 0078 0000 0000 		.long	.LFB95
 613 007c 1A00 0000 		.long	.LFE95-.LFB95
 614               		.p2align	2
 615               	.LEFDE12:
 616               	.LSFDE14:
 617 0080 0C00 0000 		.long	.LEFDE14-.LASFDE14
 618               	.LASFDE14:
 619 0084 0000 0000 		.long	.Lframe0
 620 0088 0000 0000 		.long	.LFB94
 621 008c 2200 0000 		.long	.LFE94-.LFB94
 622               		.p2align	2
 623               	.LEFDE14:
 624               	.LSFDE16:
 625 0090 0C00 0000 		.long	.LEFDE16-.LASFDE16
 626               	.LASFDE16:
GAS LISTING /var/folders/1s/lqjcb7x5323625d47g9gdgmr0000gp/T//ccJs2JT3.s 			page 12


 627 0094 0000 0000 		.long	.Lframe0
 628 0098 0000 0000 		.long	.LFB93
 629 009c 2200 0000 		.long	.LFE93-.LFB93
 630               		.p2align	2
 631               	.LEFDE16:
 632               	.LSFDE18:
 633 00a0 0C00 0000 		.long	.LEFDE18-.LASFDE18
 634               	.LASFDE18:
 635 00a4 0000 0000 		.long	.Lframe0
 636 00a8 0000 0000 		.long	.LFB91
 637 00ac 2C00 0000 		.long	.LFE91-.LFB91
 638               		.p2align	2
 639               	.LEFDE18:
 640               	.LSFDE20:
 641 00b0 0C00 0000 		.long	.LEFDE20-.LASFDE20
 642               	.LASFDE20:
 643 00b4 0000 0000 		.long	.Lframe0
 644 00b8 0000 0000 		.long	.LFB90
 645 00bc 2C00 0000 		.long	.LFE90-.LFB90
 646               		.p2align	2
 647               	.LEFDE20:
 648               	.LSFDE22:
 649 00c0 0C00 0000 		.long	.LEFDE22-.LASFDE22
 650               	.LASFDE22:
 651 00c4 0000 0000 		.long	.Lframe0
 652 00c8 0000 0000 		.long	.LFB85
 653 00cc 1400 0000 		.long	.LFE85-.LFB85
 654               		.p2align	2
 655               	.LEFDE22:
 656               	.LSFDE24:
 657 00d0 0C00 0000 		.long	.LEFDE24-.LASFDE24
 658               	.LASFDE24:
 659 00d4 0000 0000 		.long	.Lframe0
 660 00d8 0000 0000 		.long	.LFB84
 661 00dc 1400 0000 		.long	.LFE84-.LFB84
 662               		.p2align	2
 663               	.LEFDE24:
 664               		.text
 665               	.Letext0:
 666               		.section	.debug_loc,"",@progbits
 667               	.Ldebug_loc0:
 668               	.LLST1:
 669 0000 0000 0000 		.long	.LVL0
 670 0004 0000 0000 		.long	.LVL2
 671 0008 0600      		.word	0x6
 672 000a 68        		.byte	0x68
 673 000b 93        		.byte	0x93
 674 000c 01        		.uleb128 0x1
 675 000d 69        		.byte	0x69
 676 000e 93        		.byte	0x93
 677 000f 01        		.uleb128 0x1
 678 0010 0000 0000 		.long	.LVL2
 679 0014 0000 0000 		.long	.LFE87
 680 0018 0600      		.word	0x6
 681 001a 6E        		.byte	0x6e
 682 001b 93        		.byte	0x93
 683 001c 01        		.uleb128 0x1
GAS LISTING /var/folders/1s/lqjcb7x5323625d47g9gdgmr0000gp/T//ccJs2JT3.s 			page 13


 684 001d 6F        		.byte	0x6f
 685 001e 93        		.byte	0x93
 686 001f 01        		.uleb128 0x1
 687 0020 0000 0000 		.long	0x0
 688 0024 0000 0000 		.long	0x0
 689               	.LLST2:
 690 0028 0000 0000 		.long	.LVL0
 691 002c 0000 0000 		.long	.LVL1
 692 0030 0100      		.word	0x1
 693 0032 60        		.byte	0x60
 694 0033 0000 0000 		.long	.LVL3
 695 0037 0000 0000 		.long	.LVL4
 696 003b 0100      		.word	0x1
 697 003d 60        		.byte	0x60
 698 003e 0000 0000 		.long	0x0
 699 0042 0000 0000 		.long	0x0
 700               	.LLST4:
 701 0046 0000 0000 		.long	.LVL5
 702 004a 0000 0000 		.long	.LVL7
 703 004e 0600      		.word	0x6
 704 0050 68        		.byte	0x68
 705 0051 93        		.byte	0x93
 706 0052 01        		.uleb128 0x1
 707 0053 69        		.byte	0x69
 708 0054 93        		.byte	0x93
 709 0055 01        		.uleb128 0x1
 710 0056 0000 0000 		.long	.LVL7
 711 005a 0000 0000 		.long	.LFE88
 712 005e 0600      		.word	0x6
 713 0060 6E        		.byte	0x6e
 714 0061 93        		.byte	0x93
 715 0062 01        		.uleb128 0x1
 716 0063 6F        		.byte	0x6f
 717 0064 93        		.byte	0x93
 718 0065 01        		.uleb128 0x1
 719 0066 0000 0000 		.long	0x0
 720 006a 0000 0000 		.long	0x0
 721               	.LLST5:
 722 006e 0000 0000 		.long	.LVL5
 723 0072 0000 0000 		.long	.LVL6
 724 0076 0100      		.word	0x1
 725 0078 60        		.byte	0x60
 726 0079 0000 0000 		.long	.LVL8
 727 007d 0000 0000 		.long	.LVL9
 728 0081 0100      		.word	0x1
 729 0083 60        		.byte	0x60
 730 0084 0000 0000 		.long	0x0
 731 0088 0000 0000 		.long	0x0
 732               	.LLST8:
 733 008c 0000 0000 		.long	.LVL10
 734 0090 0000 0000 		.long	.LVL13
 735 0094 0600      		.word	0x6
 736 0096 68        		.byte	0x68
 737 0097 93        		.byte	0x93
 738 0098 01        		.uleb128 0x1
 739 0099 69        		.byte	0x69
 740 009a 93        		.byte	0x93
GAS LISTING /var/folders/1s/lqjcb7x5323625d47g9gdgmr0000gp/T//ccJs2JT3.s 			page 14


 741 009b 01        		.uleb128 0x1
 742 009c 0000 0000 		.long	.LVL13
 743 00a0 0000 0000 		.long	.LVL17
 744 00a4 0600      		.word	0x6
 745 00a6 58        		.byte	0x58
 746 00a7 93        		.byte	0x93
 747 00a8 01        		.uleb128 0x1
 748 00a9 59        		.byte	0x59
 749 00aa 93        		.byte	0x93
 750 00ab 01        		.uleb128 0x1
 751 00ac 0000 0000 		.long	0x0
 752 00b0 0000 0000 		.long	0x0
 753               	.LLST9:
 754 00b4 0000 0000 		.long	.LVL10
 755 00b8 0000 0000 		.long	.LVL12
 756 00bc 0600      		.word	0x6
 757 00be 66        		.byte	0x66
 758 00bf 93        		.byte	0x93
 759 00c0 01        		.uleb128 0x1
 760 00c1 67        		.byte	0x67
 761 00c2 93        		.byte	0x93
 762 00c3 01        		.uleb128 0x1
 763 00c4 0000 0000 		.long	.LVL12
 764 00c8 0000 0000 		.long	.LVL15
 765 00cc 0600      		.word	0x6
 766 00ce 5C        		.byte	0x5c
 767 00cf 93        		.byte	0x93
 768 00d0 01        		.uleb128 0x1
 769 00d1 5D        		.byte	0x5d
 770 00d2 93        		.byte	0x93
 771 00d3 01        		.uleb128 0x1
 772 00d4 0000 0000 		.long	0x0
 773 00d8 0000 0000 		.long	0x0
 774               	.LLST10:
 775 00dc 0000 0000 		.long	.LVL11
 776 00e0 0000 0000 		.long	.LVL16
 777 00e4 0600      		.word	0x6
 778 00e6 5A        		.byte	0x5a
 779 00e7 93        		.byte	0x93
 780 00e8 01        		.uleb128 0x1
 781 00e9 5B        		.byte	0x5b
 782 00ea 93        		.byte	0x93
 783 00eb 01        		.uleb128 0x1
 784 00ec 0000 0000 		.long	0x0
 785 00f0 0000 0000 		.long	0x0
 786               	.LLST11:
 787 00f4 0000 0000 		.long	.LVL12
 788 00f8 0000 0000 		.long	.LVL14
 789 00fc 0600      		.word	0x6
 790 00fe 6C        		.byte	0x6c
 791 00ff 93        		.byte	0x93
 792 0100 01        		.uleb128 0x1
 793 0101 6D        		.byte	0x6d
 794 0102 93        		.byte	0x93
 795 0103 01        		.uleb128 0x1
 796 0104 0000 0000 		.long	0x0
 797 0108 0000 0000 		.long	0x0
GAS LISTING /var/folders/1s/lqjcb7x5323625d47g9gdgmr0000gp/T//ccJs2JT3.s 			page 15


 798               	.LLST13:
 799 010c 0000 0000 		.long	.LVL18
 800 0110 0000 0000 		.long	.LVL19
 801 0114 0600      		.word	0x6
 802 0116 68        		.byte	0x68
 803 0117 93        		.byte	0x93
 804 0118 01        		.uleb128 0x1
 805 0119 69        		.byte	0x69
 806 011a 93        		.byte	0x93
 807 011b 01        		.uleb128 0x1
 808 011c 0000 0000 		.long	0x0
 809 0120 0000 0000 		.long	0x0
 810               	.LLST14:
 811 0124 0000 0000 		.long	.LVL18
 812 0128 0000 0000 		.long	.LVL20
 813 012c 0600      		.word	0x6
 814 012e 66        		.byte	0x66
 815 012f 93        		.byte	0x93
 816 0130 01        		.uleb128 0x1
 817 0131 67        		.byte	0x67
 818 0132 93        		.byte	0x93
 819 0133 01        		.uleb128 0x1
 820 0134 0000 0000 		.long	0x0
 821 0138 0000 0000 		.long	0x0
 822               	.LLST16:
 823 013c 0000 0000 		.long	.LVL21
 824 0140 0000 0000 		.long	.LVL23
 825 0144 0600      		.word	0x6
 826 0146 68        		.byte	0x68
 827 0147 93        		.byte	0x93
 828 0148 01        		.uleb128 0x1
 829 0149 69        		.byte	0x69
 830 014a 93        		.byte	0x93
 831 014b 01        		.uleb128 0x1
 832 014c 0000 0000 		.long	.LVL23
 833 0150 0000 0000 		.long	.LFE96
 834 0154 0600      		.word	0x6
 835 0156 6E        		.byte	0x6e
 836 0157 93        		.byte	0x93
 837 0158 01        		.uleb128 0x1
 838 0159 6F        		.byte	0x6f
 839 015a 93        		.byte	0x93
 840 015b 01        		.uleb128 0x1
 841 015c 0000 0000 		.long	0x0
 842 0160 0000 0000 		.long	0x0
 843               	.LLST17:
 844 0164 0000 0000 		.long	.LVL21
 845 0168 0000 0000 		.long	.LVL22
 846 016c 0C00      		.word	0xc
 847 016e 64        		.byte	0x64
 848 016f 93        		.byte	0x93
 849 0170 01        		.uleb128 0x1
 850 0171 65        		.byte	0x65
 851 0172 93        		.byte	0x93
 852 0173 01        		.uleb128 0x1
 853 0174 66        		.byte	0x66
 854 0175 93        		.byte	0x93
GAS LISTING /var/folders/1s/lqjcb7x5323625d47g9gdgmr0000gp/T//ccJs2JT3.s 			page 16


 855 0176 01        		.uleb128 0x1
 856 0177 67        		.byte	0x67
 857 0178 93        		.byte	0x93
 858 0179 01        		.uleb128 0x1
 859 017a 0000 0000 		.long	0x0
 860 017e 0000 0000 		.long	0x0
 861               	.LLST19:
 862 0182 0000 0000 		.long	.LVL24
 863 0186 0000 0000 		.long	.LVL25
 864 018a 0600      		.word	0x6
 865 018c 68        		.byte	0x68
 866 018d 93        		.byte	0x93
 867 018e 01        		.uleb128 0x1
 868 018f 69        		.byte	0x69
 869 0190 93        		.byte	0x93
 870 0191 01        		.uleb128 0x1
 871 0192 0000 0000 		.long	.LVL25
 872 0196 0000 0000 		.long	.LVL26
 873 019a 0600      		.word	0x6
 874 019c 62        		.byte	0x62
 875 019d 93        		.byte	0x93
 876 019e 01        		.uleb128 0x1
 877 019f 63        		.byte	0x63
 878 01a0 93        		.byte	0x93
 879 01a1 01        		.uleb128 0x1
 880 01a2 0000 0000 		.long	0x0
 881 01a6 0000 0000 		.long	0x0
 882               	.LLST21:
 883 01aa 0000 0000 		.long	.LVL27
 884 01ae 0000 0000 		.long	.LVL28
 885 01b2 0600      		.word	0x6
 886 01b4 68        		.byte	0x68
 887 01b5 93        		.byte	0x93
 888 01b6 01        		.uleb128 0x1
 889 01b7 69        		.byte	0x69
 890 01b8 93        		.byte	0x93
 891 01b9 01        		.uleb128 0x1
 892 01ba 0000 0000 		.long	.LVL28
 893 01be 0000 0000 		.long	.LFE94
 894 01c2 0600      		.word	0x6
 895 01c4 62        		.byte	0x62
 896 01c5 93        		.byte	0x93
 897 01c6 01        		.uleb128 0x1
 898 01c7 63        		.byte	0x63
 899 01c8 93        		.byte	0x93
 900 01c9 01        		.uleb128 0x1
 901 01ca 0000 0000 		.long	0x0
 902 01ce 0000 0000 		.long	0x0
 903               	.LLST23:
 904 01d2 0000 0000 		.long	.LVL29
 905 01d6 0000 0000 		.long	.LVL30
 906 01da 0600      		.word	0x6
 907 01dc 68        		.byte	0x68
 908 01dd 93        		.byte	0x93
 909 01de 01        		.uleb128 0x1
 910 01df 69        		.byte	0x69
 911 01e0 93        		.byte	0x93
GAS LISTING /var/folders/1s/lqjcb7x5323625d47g9gdgmr0000gp/T//ccJs2JT3.s 			page 17


 912 01e1 01        		.uleb128 0x1
 913 01e2 0000 0000 		.long	.LVL30
 914 01e6 0000 0000 		.long	.LFE93
 915 01ea 0600      		.word	0x6
 916 01ec 62        		.byte	0x62
 917 01ed 93        		.byte	0x93
 918 01ee 01        		.uleb128 0x1
 919 01ef 63        		.byte	0x63
 920 01f0 93        		.byte	0x93
 921 01f1 01        		.uleb128 0x1
 922 01f2 0000 0000 		.long	0x0
 923 01f6 0000 0000 		.long	0x0
 924               	.LLST25:
 925 01fa 0000 0000 		.long	.LVL31
 926 01fe 0000 0000 		.long	.LVL32
 927 0202 0600      		.word	0x6
 928 0204 68        		.byte	0x68
 929 0205 93        		.byte	0x93
 930 0206 01        		.uleb128 0x1
 931 0207 69        		.byte	0x69
 932 0208 93        		.byte	0x93
 933 0209 01        		.uleb128 0x1
 934 020a 0000 0000 		.long	.LVL32
 935 020e 0000 0000 		.long	.LFE91
 936 0212 0600      		.word	0x6
 937 0214 6E        		.byte	0x6e
 938 0215 93        		.byte	0x93
 939 0216 01        		.uleb128 0x1
 940 0217 6F        		.byte	0x6f
 941 0218 93        		.byte	0x93
 942 0219 01        		.uleb128 0x1
 943 021a 0000 0000 		.long	0x0
 944 021e 0000 0000 		.long	0x0
 945               	.LLST26:
 946 0222 0000 0000 		.long	.LVL31
 947 0226 0000 0000 		.long	.LVL33
 948 022a 0C00      		.word	0xc
 949 022c 64        		.byte	0x64
 950 022d 93        		.byte	0x93
 951 022e 01        		.uleb128 0x1
 952 022f 65        		.byte	0x65
 953 0230 93        		.byte	0x93
 954 0231 01        		.uleb128 0x1
 955 0232 66        		.byte	0x66
 956 0233 93        		.byte	0x93
 957 0234 01        		.uleb128 0x1
 958 0235 67        		.byte	0x67
 959 0236 93        		.byte	0x93
 960 0237 01        		.uleb128 0x1
 961 0238 0000 0000 		.long	0x0
 962 023c 0000 0000 		.long	0x0
 963               	.LLST28:
 964 0240 0000 0000 		.long	.LVL34
 965 0244 0000 0000 		.long	.LVL35
 966 0248 0600      		.word	0x6
 967 024a 68        		.byte	0x68
 968 024b 93        		.byte	0x93
GAS LISTING /var/folders/1s/lqjcb7x5323625d47g9gdgmr0000gp/T//ccJs2JT3.s 			page 18


 969 024c 01        		.uleb128 0x1
 970 024d 69        		.byte	0x69
 971 024e 93        		.byte	0x93
 972 024f 01        		.uleb128 0x1
 973 0250 0000 0000 		.long	.LVL35
 974 0254 0000 0000 		.long	.LFE90
 975 0258 0600      		.word	0x6
 976 025a 6E        		.byte	0x6e
 977 025b 93        		.byte	0x93
 978 025c 01        		.uleb128 0x1
 979 025d 6F        		.byte	0x6f
 980 025e 93        		.byte	0x93
 981 025f 01        		.uleb128 0x1
 982 0260 0000 0000 		.long	0x0
 983 0264 0000 0000 		.long	0x0
 984               	.LLST29:
 985 0268 0000 0000 		.long	.LVL34
 986 026c 0000 0000 		.long	.LVL36
 987 0270 0C00      		.word	0xc
 988 0272 64        		.byte	0x64
 989 0273 93        		.byte	0x93
 990 0274 01        		.uleb128 0x1
 991 0275 65        		.byte	0x65
 992 0276 93        		.byte	0x93
 993 0277 01        		.uleb128 0x1
 994 0278 66        		.byte	0x66
 995 0279 93        		.byte	0x93
 996 027a 01        		.uleb128 0x1
 997 027b 67        		.byte	0x67
 998 027c 93        		.byte	0x93
 999 027d 01        		.uleb128 0x1
 1000 027e 0000 0000 		.long	0x0
 1001 0282 0000 0000 		.long	0x0
 1002               	.LLST31:
 1003 0286 0000 0000 		.long	.LVL37
 1004 028a 0000 0000 		.long	.LVL38
 1005 028e 0600      		.word	0x6
 1006 0290 68        		.byte	0x68
 1007 0291 93        		.byte	0x93
 1008 0292 01        		.uleb128 0x1
 1009 0293 69        		.byte	0x69
 1010 0294 93        		.byte	0x93
 1011 0295 01        		.uleb128 0x1
 1012 0296 0000 0000 		.long	.LVL38
 1013 029a 0000 0000 		.long	.LFE85
 1014 029e 0600      		.word	0x6
 1015 02a0 6E        		.byte	0x6e
 1016 02a1 93        		.byte	0x93
 1017 02a2 01        		.uleb128 0x1
 1018 02a3 6F        		.byte	0x6f
 1019 02a4 93        		.byte	0x93
 1020 02a5 01        		.uleb128 0x1
 1021 02a6 0000 0000 		.long	0x0
 1022 02aa 0000 0000 		.long	0x0
 1023               	.LLST33:
 1024 02ae 0000 0000 		.long	.LVL39
 1025 02b2 0000 0000 		.long	.LVL40
GAS LISTING /var/folders/1s/lqjcb7x5323625d47g9gdgmr0000gp/T//ccJs2JT3.s 			page 19


 1026 02b6 0600      		.word	0x6
 1027 02b8 68        		.byte	0x68
 1028 02b9 93        		.byte	0x93
 1029 02ba 01        		.uleb128 0x1
 1030 02bb 69        		.byte	0x69
 1031 02bc 93        		.byte	0x93
 1032 02bd 01        		.uleb128 0x1
 1033 02be 0000 0000 		.long	.LVL40
 1034 02c2 0000 0000 		.long	.LFE84
 1035 02c6 0600      		.word	0x6
 1036 02c8 6E        		.byte	0x6e
 1037 02c9 93        		.byte	0x93
 1038 02ca 01        		.uleb128 0x1
 1039 02cb 6F        		.byte	0x6f
 1040 02cc 93        		.byte	0x93
 1041 02cd 01        		.uleb128 0x1
 1042 02ce 0000 0000 		.long	0x0
 1043 02d2 0000 0000 		.long	0x0
 1044               		.section	.debug_info
 1045 0000 9308 0000 		.long	0x893
 1046 0004 0200      		.word	0x2
 1047 0006 0000 0000 		.long	.Ldebug_abbrev0
 1048 000a 04        		.byte	0x4
 1049 000b 01        		.uleb128 0x1
 1050 000c 0000 0000 		.long	.LASF44
 1051 0010 04        		.byte	0x4
 1052 0011 0000 0000 		.long	.LASF45
 1053 0015 0000 0000 		.long	0x0
 1054 0019 0000 0000 		.long	0x0
 1055 001d 0000 0000 		.long	.Ldebug_ranges0+0x0
 1056 0021 0000 0000 		.long	.Ldebug_line0
 1057 0025 02        		.uleb128 0x2
 1058 0026 0000 0000 		.long	.LASF3
 1059 002a 02        		.byte	0x2
 1060 002b D6        		.byte	0xd6
 1061 002c 3000 0000 		.long	0x30
 1062 0030 03        		.uleb128 0x3
 1063 0031 02        		.byte	0x2
 1064 0032 07        		.byte	0x7
 1065 0033 0000 0000 		.long	.LASF0
 1066 0037 04        		.uleb128 0x4
 1067 0038 02        		.byte	0x2
 1068 0039 05        		.byte	0x5
 1069 003a 696E 7400 		.string	"int"
 1070 003e 03        		.uleb128 0x3
 1071 003f 04        		.byte	0x4
 1072 0040 05        		.byte	0x5
 1073 0041 0000 0000 		.long	.LASF1
 1074 0045 03        		.uleb128 0x3
 1075 0046 01        		.byte	0x1
 1076 0047 06        		.byte	0x6
 1077 0048 0000 0000 		.long	.LASF2
 1078 004c 02        		.uleb128 0x2
 1079 004d 0000 0000 		.long	.LASF4
 1080 0051 03        		.byte	0x3
 1081 0052 7A        		.byte	0x7a
 1082 0053 5700 0000 		.long	0x57
GAS LISTING /var/folders/1s/lqjcb7x5323625d47g9gdgmr0000gp/T//ccJs2JT3.s 			page 20


 1083 0057 03        		.uleb128 0x3
 1084 0058 01        		.byte	0x1
 1085 0059 08        		.byte	0x8
 1086 005a 0000 0000 		.long	.LASF5
 1087 005e 02        		.uleb128 0x2
 1088 005f 0000 0000 		.long	.LASF6
 1089 0063 03        		.byte	0x3
 1090 0064 7E        		.byte	0x7e
 1091 0065 6900 0000 		.long	0x69
 1092 0069 03        		.uleb128 0x3
 1093 006a 04        		.byte	0x4
 1094 006b 07        		.byte	0x7
 1095 006c 0000 0000 		.long	.LASF7
 1096 0070 03        		.uleb128 0x3
 1097 0071 08        		.byte	0x8
 1098 0072 05        		.byte	0x5
 1099 0073 0000 0000 		.long	.LASF8
 1100 0077 03        		.uleb128 0x3
 1101 0078 08        		.byte	0x8
 1102 0079 07        		.byte	0x7
 1103 007a 0000 0000 		.long	.LASF9
 1104 007e 05        		.uleb128 0x5
 1105 007f 01        		.byte	0x1
 1106 0080 06        		.byte	0x6
 1107 0081 05        		.uleb128 0x5
 1108 0082 01        		.byte	0x1
 1109 0083 08        		.byte	0x8
 1110 0084 03        		.uleb128 0x3
 1111 0085 01        		.byte	0x1
 1112 0086 06        		.byte	0x6
 1113 0087 0000 0000 		.long	.LASF10
 1114 008b 06        		.uleb128 0x6
 1115 008c 0000 0000 		.long	.LASF46
 1116 0090 01        		.byte	0x1
 1117 0091 CB00 0000 		.long	0xcb
 1118 0095 07        		.uleb128 0x7
 1119 0096 01        		.byte	0x1
 1120 0097 0000 0000 		.long	.LASF47
 1121 009b 07        		.byte	0x7
 1122 009c 35        		.byte	0x35
 1123 009d 0000 0000 		.long	.LASF48
 1124 00a1 2500 0000 		.long	0x25
 1125 00a5 01        		.byte	0x1
 1126 00a6 02        		.byte	0x2
 1127 00a7 10        		.byte	0x10
 1128 00a8 01        		.uleb128 0x1
 1129 00a9 8B00 0000 		.long	0x8b
 1130 00ad 01        		.byte	0x1
 1131 00ae C300 0000 		.long	0xc3
 1132 00b2 08        		.uleb128 0x8
 1133 00b3 CB00 0000 		.long	0xcb
 1134 00b7 01        		.byte	0x1
 1135 00b8 09        		.uleb128 0x9
 1136 00b9 D100 0000 		.long	0xd1
 1137 00bd 09        		.uleb128 0x9
 1138 00be 2500 0000 		.long	0x25
 1139 00c2 00        		.byte	0x0
GAS LISTING /var/folders/1s/lqjcb7x5323625d47g9gdgmr0000gp/T//ccJs2JT3.s 			page 21


 1140 00c3 0A        		.uleb128 0xa
 1141 00c4 08        		.byte	0x8
 1142 00c5 21        		.byte	0x21
 1143 00c6 9500 0000 		.long	0x95
 1144 00ca 00        		.byte	0x0
 1145 00cb 0B        		.uleb128 0xb
 1146 00cc 02        		.byte	0x2
 1147 00cd 8B00 0000 		.long	0x8b
 1148 00d1 0B        		.uleb128 0xb
 1149 00d2 02        		.byte	0x2
 1150 00d3 D700 0000 		.long	0xd7
 1151 00d7 0C        		.uleb128 0xc
 1152 00d8 4C00 0000 		.long	0x4c
 1153 00dc 0D        		.uleb128 0xd
 1154 00dd 0000 0000 		.long	.LASF11
 1155 00e1 06        		.byte	0x6
 1156 00e2 04        		.byte	0x4
 1157 00e3 21        		.byte	0x21
 1158 00e4 CF02 0000 		.long	0x2cf
 1159 00e8 CF02 0000 		.long	0x2cf
 1160 00ec 0E        		.uleb128 0xe
 1161 00ed CF02 0000 		.long	0x2cf
 1162 00f1 02        		.byte	0x2
 1163 00f2 23        		.byte	0x23
 1164 00f3 00        		.uleb128 0x0
 1165 00f4 01        		.byte	0x1
 1166 00f5 0F        		.uleb128 0xf
 1167 00f6 0000 0000 		.long	.LASF49
 1168 00fa 04        		.byte	0x4
 1169 00fb 23        		.byte	0x23
 1170 00fc 5D03 0000 		.long	0x35d
 1171 0100 02        		.byte	0x2
 1172 0101 23        		.byte	0x23
 1173 0102 02        		.uleb128 0x2
 1174 0103 03        		.byte	0x3
 1175 0104 10        		.uleb128 0x10
 1176 0105 01        		.byte	0x1
 1177 0106 0000 0000 		.long	.LASF20
 1178 010a 0000 0000 		.long	.LASF24
 1179 010e 7003 0000 		.long	0x370
 1180 0112 01        		.byte	0x1
 1181 0113 01        		.byte	0x1
 1182 0114 2401 0000 		.long	0x124
 1183 0118 08        		.uleb128 0x8
 1184 0119 7603 0000 		.long	0x376
 1185 011d 01        		.byte	0x1
 1186 011e 09        		.uleb128 0x9
 1187 011f 7C03 0000 		.long	0x37c
 1188 0123 00        		.byte	0x0
 1189 0124 11        		.uleb128 0x11
 1190 0125 01        		.byte	0x1
 1191 0126 0000 0000 		.long	.LASF11
 1192 012a 01        		.byte	0x1
 1193 012b 01        		.byte	0x1
 1194 012c 3C01 0000 		.long	0x13c
 1195 0130 08        		.uleb128 0x8
 1196 0131 7603 0000 		.long	0x376
GAS LISTING /var/folders/1s/lqjcb7x5323625d47g9gdgmr0000gp/T//ccJs2JT3.s 			page 22


 1197 0135 01        		.byte	0x1
 1198 0136 09        		.uleb128 0x9
 1199 0137 7C03 0000 		.long	0x37c
 1200 013b 00        		.byte	0x0
 1201 013c 12        		.uleb128 0x12
 1202 013d 01        		.byte	0x1
 1203 013e 0000 0000 		.long	.LASF50
 1204 0142 04        		.byte	0x4
 1205 0143 28        		.byte	0x28
 1206 0144 0000 0000 		.long	.LASF51
 1207 0148 8703 0000 		.long	0x387
 1208 014c 03        		.byte	0x3
 1209 014d 01        		.byte	0x1
 1210 014e 5901 0000 		.long	0x159
 1211 0152 08        		.uleb128 0x8
 1212 0153 7603 0000 		.long	0x376
 1213 0157 01        		.byte	0x1
 1214 0158 00        		.byte	0x0
 1215 0159 13        		.uleb128 0x13
 1216 015a 01        		.byte	0x1
 1217 015b 0000 0000 		.long	.LASF11
 1218 015f 01        		.byte	0x1
 1219 0160 05        		.byte	0x5
 1220 0161 01        		.byte	0x1
 1221 0162 6D01 0000 		.long	0x16d
 1222 0166 08        		.uleb128 0x8
 1223 0167 7603 0000 		.long	0x376
 1224 016b 01        		.byte	0x1
 1225 016c 00        		.byte	0x0
 1226 016d 13        		.uleb128 0x13
 1227 016e 01        		.byte	0x1
 1228 016f 0000 0000 		.long	.LASF11
 1229 0173 01        		.byte	0x1
 1230 0174 0A        		.byte	0xa
 1231 0175 01        		.byte	0x1
 1232 0176 9501 0000 		.long	0x195
 1233 017a 08        		.uleb128 0x8
 1234 017b 7603 0000 		.long	0x376
 1235 017f 01        		.byte	0x1
 1236 0180 09        		.uleb128 0x9
 1237 0181 4C00 0000 		.long	0x4c
 1238 0185 09        		.uleb128 0x9
 1239 0186 4C00 0000 		.long	0x4c
 1240 018a 09        		.uleb128 0x9
 1241 018b 4C00 0000 		.long	0x4c
 1242 018f 09        		.uleb128 0x9
 1243 0190 4C00 0000 		.long	0x4c
 1244 0194 00        		.byte	0x0
 1245 0195 13        		.uleb128 0x13
 1246 0196 01        		.byte	0x1
 1247 0197 0000 0000 		.long	.LASF11
 1248 019b 01        		.byte	0x1
 1249 019c 12        		.byte	0x12
 1250 019d 01        		.byte	0x1
 1251 019e AE01 0000 		.long	0x1ae
 1252 01a2 08        		.uleb128 0x8
 1253 01a3 7603 0000 		.long	0x376
GAS LISTING /var/folders/1s/lqjcb7x5323625d47g9gdgmr0000gp/T//ccJs2JT3.s 			page 23


 1254 01a7 01        		.byte	0x1
 1255 01a8 09        		.uleb128 0x9
 1256 01a9 5E00 0000 		.long	0x5e
 1257 01ad 00        		.byte	0x0
 1258 01ae 13        		.uleb128 0x13
 1259 01af 01        		.byte	0x1
 1260 01b0 0000 0000 		.long	.LASF11
 1261 01b4 01        		.byte	0x1
 1262 01b5 17        		.byte	0x17
 1263 01b6 01        		.byte	0x1
 1264 01b7 C701 0000 		.long	0x1c7
 1265 01bb 08        		.uleb128 0x8
 1266 01bc 7603 0000 		.long	0x376
 1267 01c0 01        		.byte	0x1
 1268 01c1 09        		.uleb128 0x9
 1269 01c2 D100 0000 		.long	0xd1
 1270 01c6 00        		.byte	0x0
 1271 01c7 14        		.uleb128 0x14
 1272 01c8 01        		.byte	0x1
 1273 01c9 0000 0000 		.long	.LASF12
 1274 01cd 04        		.byte	0x4
 1275 01ce 33        		.byte	0x33
 1276 01cf 0000 0000 		.long	.LASF14
 1277 01d3 5E00 0000 		.long	0x5e
 1278 01d7 01        		.byte	0x1
 1279 01d8 E301 0000 		.long	0x1e3
 1280 01dc 08        		.uleb128 0x8
 1281 01dd 7603 0000 		.long	0x376
 1282 01e1 01        		.byte	0x1
 1283 01e2 00        		.byte	0x0
 1284 01e3 14        		.uleb128 0x14
 1285 01e4 01        		.byte	0x1
 1286 01e5 0000 0000 		.long	.LASF13
 1287 01e9 04        		.byte	0x4
 1288 01ea 34        		.byte	0x34
 1289 01eb 0000 0000 		.long	.LASF15
 1290 01ef 8D03 0000 		.long	0x38d
 1291 01f3 01        		.byte	0x1
 1292 01f4 0402 0000 		.long	0x204
 1293 01f8 08        		.uleb128 0x8
 1294 01f9 7603 0000 		.long	0x376
 1295 01fd 01        		.byte	0x1
 1296 01fe 09        		.uleb128 0x9
 1297 01ff 7C03 0000 		.long	0x37c
 1298 0203 00        		.byte	0x0
 1299 0204 14        		.uleb128 0x14
 1300 0205 01        		.byte	0x1
 1301 0206 0000 0000 		.long	.LASF13
 1302 020a 01        		.byte	0x1
 1303 020b 28        		.byte	0x28
 1304 020c 0000 0000 		.long	.LASF16
 1305 0210 8D03 0000 		.long	0x38d
 1306 0214 01        		.byte	0x1
 1307 0215 2502 0000 		.long	0x225
 1308 0219 08        		.uleb128 0x8
 1309 021a 7603 0000 		.long	0x376
 1310 021e 01        		.byte	0x1
GAS LISTING /var/folders/1s/lqjcb7x5323625d47g9gdgmr0000gp/T//ccJs2JT3.s 			page 24


 1311 021f 09        		.uleb128 0x9
 1312 0220 D100 0000 		.long	0xd1
 1313 0224 00        		.byte	0x0
 1314 0225 14        		.uleb128 0x14
 1315 0226 01        		.byte	0x1
 1316 0227 0000 0000 		.long	.LASF17
 1317 022b 04        		.byte	0x4
 1318 022c 38        		.byte	0x38
 1319 022d 0000 0000 		.long	.LASF18
 1320 0231 4C00 0000 		.long	0x4c
 1321 0235 01        		.byte	0x1
 1322 0236 4602 0000 		.long	0x246
 1323 023a 08        		.uleb128 0x8
 1324 023b 9403 0000 		.long	0x394
 1325 023f 01        		.byte	0x1
 1326 0240 09        		.uleb128 0x9
 1327 0241 3700 0000 		.long	0x37
 1328 0245 00        		.byte	0x0
 1329 0246 14        		.uleb128 0x14
 1330 0247 01        		.byte	0x1
 1331 0248 0000 0000 		.long	.LASF17
 1332 024c 04        		.byte	0x4
 1333 024d 39        		.byte	0x39
 1334 024e 0000 0000 		.long	.LASF19
 1335 0252 9A03 0000 		.long	0x39a
 1336 0256 01        		.byte	0x1
 1337 0257 6702 0000 		.long	0x267
 1338 025b 08        		.uleb128 0x8
 1339 025c 7603 0000 		.long	0x376
 1340 0260 01        		.byte	0x1
 1341 0261 09        		.uleb128 0x9
 1342 0262 3700 0000 		.long	0x37
 1343 0266 00        		.byte	0x0
 1344 0267 14        		.uleb128 0x14
 1345 0268 01        		.byte	0x1
 1346 0269 0000 0000 		.long	.LASF20
 1347 026d 01        		.byte	0x1
 1348 026e 1C        		.byte	0x1c
 1349 026f 0000 0000 		.long	.LASF21
 1350 0273 7003 0000 		.long	0x370
 1351 0277 01        		.byte	0x1
 1352 0278 8802 0000 		.long	0x288
 1353 027c 08        		.uleb128 0x8
 1354 027d 7603 0000 		.long	0x376
 1355 0281 01        		.byte	0x1
 1356 0282 09        		.uleb128 0x9
 1357 0283 D100 0000 		.long	0xd1
 1358 0287 00        		.byte	0x0
 1359 0288 14        		.uleb128 0x14
 1360 0289 01        		.byte	0x1
 1361 028a 0000 0000 		.long	.LASF20
 1362 028e 01        		.byte	0x1
 1363 028f 22        		.byte	0x22
 1364 0290 0000 0000 		.long	.LASF22
 1365 0294 7003 0000 		.long	0x370
 1366 0298 01        		.byte	0x1
 1367 0299 A902 0000 		.long	0x2a9
GAS LISTING /var/folders/1s/lqjcb7x5323625d47g9gdgmr0000gp/T//ccJs2JT3.s 			page 25


 1368 029d 08        		.uleb128 0x8
 1369 029e 7603 0000 		.long	0x376
 1370 02a2 01        		.byte	0x1
 1371 02a3 09        		.uleb128 0x9
 1372 02a4 5E00 0000 		.long	0x5e
 1373 02a8 00        		.byte	0x0
 1374 02a9 15        		.uleb128 0x15
 1375 02aa 01        		.byte	0x1
 1376 02ab 0000 0000 		.long	.LASF26
 1377 02af 01        		.byte	0x1
 1378 02b0 2D        		.byte	0x2d
 1379 02b1 0000 0000 		.long	.LASF27
 1380 02b5 2500 0000 		.long	0x25
 1381 02b9 01        		.byte	0x1
 1382 02ba 02        		.byte	0x2
 1383 02bb 10        		.byte	0x10
 1384 02bc 00        		.uleb128 0x0
 1385 02bd DC00 0000 		.long	0xdc
 1386 02c1 01        		.byte	0x1
 1387 02c2 08        		.uleb128 0x8
 1388 02c3 9403 0000 		.long	0x394
 1389 02c7 01        		.byte	0x1
 1390 02c8 09        		.uleb128 0x9
 1391 02c9 A003 0000 		.long	0x3a0
 1392 02cd 00        		.byte	0x0
 1393 02ce 00        		.byte	0x0
 1394 02cf 0D        		.uleb128 0xd
 1395 02d0 0000 0000 		.long	.LASF23
 1396 02d4 02        		.byte	0x2
 1397 02d5 05        		.byte	0x5
 1398 02d6 22        		.byte	0x22
 1399 02d7 CF02 0000 		.long	0x2cf
 1400 02db 5D03 0000 		.long	0x35d
 1401 02df 16        		.uleb128 0x16
 1402 02e0 0000 0000 		.long	.LASF52
 1403 02e4 B803 0000 		.long	0x3b8
 1404 02e8 02        		.byte	0x2
 1405 02e9 23        		.byte	0x23
 1406 02ea 00        		.uleb128 0x0
 1407 02eb 01        		.byte	0x1
 1408 02ec 11        		.uleb128 0x11
 1409 02ed 01        		.byte	0x1
 1410 02ee 0000 0000 		.long	.LASF23
 1411 02f2 01        		.byte	0x1
 1412 02f3 01        		.byte	0x1
 1413 02f4 FF02 0000 		.long	0x2ff
 1414 02f8 08        		.uleb128 0x8
 1415 02f9 C803 0000 		.long	0x3c8
 1416 02fd 01        		.byte	0x1
 1417 02fe 00        		.byte	0x0
 1418 02ff 11        		.uleb128 0x11
 1419 0300 01        		.byte	0x1
 1420 0301 0000 0000 		.long	.LASF23
 1421 0305 01        		.byte	0x1
 1422 0306 01        		.byte	0x1
 1423 0307 1703 0000 		.long	0x317
 1424 030b 08        		.uleb128 0x8
GAS LISTING /var/folders/1s/lqjcb7x5323625d47g9gdgmr0000gp/T//ccJs2JT3.s 			page 26


 1425 030c C803 0000 		.long	0x3c8
 1426 0310 01        		.byte	0x1
 1427 0311 09        		.uleb128 0x9
 1428 0312 CE03 0000 		.long	0x3ce
 1429 0316 00        		.byte	0x0
 1430 0317 10        		.uleb128 0x10
 1431 0318 01        		.byte	0x1
 1432 0319 0000 0000 		.long	.LASF20
 1433 031d 0000 0000 		.long	.LASF25
 1434 0321 D903 0000 		.long	0x3d9
 1435 0325 01        		.byte	0x1
 1436 0326 01        		.byte	0x1
 1437 0327 3703 0000 		.long	0x337
 1438 032b 08        		.uleb128 0x8
 1439 032c C803 0000 		.long	0x3c8
 1440 0330 01        		.byte	0x1
 1441 0331 09        		.uleb128 0x9
 1442 0332 CE03 0000 		.long	0x3ce
 1443 0336 00        		.byte	0x0
 1444 0337 15        		.uleb128 0x15
 1445 0338 01        		.byte	0x1
 1446 0339 0000 0000 		.long	.LASF26
 1447 033d 05        		.byte	0x5
 1448 033e 24        		.byte	0x24
 1449 033f 0000 0000 		.long	.LASF28
 1450 0343 2500 0000 		.long	0x25
 1451 0347 01        		.byte	0x1
 1452 0348 02        		.byte	0x2
 1453 0349 10        		.byte	0x10
 1454 034a 00        		.uleb128 0x0
 1455 034b CF02 0000 		.long	0x2cf
 1456 034f 01        		.byte	0x1
 1457 0350 08        		.uleb128 0x8
 1458 0351 DF03 0000 		.long	0x3df
 1459 0355 01        		.byte	0x1
 1460 0356 09        		.uleb128 0x9
 1461 0357 A003 0000 		.long	0x3a0
 1462 035b 00        		.byte	0x0
 1463 035c 00        		.byte	0x0
 1464 035d 17        		.uleb128 0x17
 1465 035e 4C00 0000 		.long	0x4c
 1466 0362 6D03 0000 		.long	0x36d
 1467 0366 18        		.uleb128 0x18
 1468 0367 6D03 0000 		.long	0x36d
 1469 036b 03        		.byte	0x3
 1470 036c 00        		.byte	0x0
 1471 036d 05        		.uleb128 0x5
 1472 036e 02        		.byte	0x2
 1473 036f 07        		.byte	0x7
 1474 0370 19        		.uleb128 0x19
 1475 0371 02        		.byte	0x2
 1476 0372 DC00 0000 		.long	0xdc
 1477 0376 0B        		.uleb128 0xb
 1478 0377 02        		.byte	0x2
 1479 0378 DC00 0000 		.long	0xdc
 1480 037c 19        		.uleb128 0x19
 1481 037d 02        		.byte	0x2
GAS LISTING /var/folders/1s/lqjcb7x5323625d47g9gdgmr0000gp/T//ccJs2JT3.s 			page 27


 1482 037e 8203 0000 		.long	0x382
 1483 0382 0C        		.uleb128 0xc
 1484 0383 DC00 0000 		.long	0xdc
 1485 0387 0B        		.uleb128 0xb
 1486 0388 02        		.byte	0x2
 1487 0389 4C00 0000 		.long	0x4c
 1488 038d 03        		.uleb128 0x3
 1489 038e 01        		.byte	0x1
 1490 038f 02        		.byte	0x2
 1491 0390 0000 0000 		.long	.LASF29
 1492 0394 0B        		.uleb128 0xb
 1493 0395 02        		.byte	0x2
 1494 0396 8203 0000 		.long	0x382
 1495 039a 19        		.uleb128 0x19
 1496 039b 02        		.byte	0x2
 1497 039c 4C00 0000 		.long	0x4c
 1498 03a0 19        		.uleb128 0x19
 1499 03a1 02        		.byte	0x2
 1500 03a2 8B00 0000 		.long	0x8b
 1501 03a6 03        		.uleb128 0x3
 1502 03a7 04        		.byte	0x4
 1503 03a8 04        		.byte	0x4
 1504 03a9 0000 0000 		.long	.LASF30
 1505 03ad 1A        		.uleb128 0x1a
 1506 03ae 3700 0000 		.long	0x37
 1507 03b2 B803 0000 		.long	0x3b8
 1508 03b6 1B        		.uleb128 0x1b
 1509 03b7 00        		.byte	0x0
 1510 03b8 0B        		.uleb128 0xb
 1511 03b9 02        		.byte	0x2
 1512 03ba BE03 0000 		.long	0x3be
 1513 03be 1C        		.uleb128 0x1c
 1514 03bf 02        		.byte	0x2
 1515 03c0 0000 0000 		.long	.LASF53
 1516 03c4 AD03 0000 		.long	0x3ad
 1517 03c8 0B        		.uleb128 0xb
 1518 03c9 02        		.byte	0x2
 1519 03ca CF02 0000 		.long	0x2cf
 1520 03ce 19        		.uleb128 0x19
 1521 03cf 02        		.byte	0x2
 1522 03d0 D403 0000 		.long	0x3d4
 1523 03d4 0C        		.uleb128 0xc
 1524 03d5 CF02 0000 		.long	0x2cf
 1525 03d9 19        		.uleb128 0x19
 1526 03da 02        		.byte	0x2
 1527 03db CF02 0000 		.long	0x2cf
 1528 03df 0B        		.uleb128 0xb
 1529 03e0 02        		.byte	0x2
 1530 03e1 D403 0000 		.long	0x3d4
 1531 03e5 1D        		.uleb128 0x1d
 1532 03e6 EC02 0000 		.long	0x2ec
 1533 03ea 05        		.byte	0x5
 1534 03eb 22        		.byte	0x22
 1535 03ec 03        		.byte	0x3
 1536 03ed FC03 0000 		.long	0x3fc
 1537 03f1 1E        		.uleb128 0x1e
 1538 03f2 0000 0000 		.long	.LASF31
GAS LISTING /var/folders/1s/lqjcb7x5323625d47g9gdgmr0000gp/T//ccJs2JT3.s 			page 28


 1539 03f6 FC03 0000 		.long	0x3fc
 1540 03fa 01        		.byte	0x1
 1541 03fb 00        		.byte	0x0
 1542 03fc 0C        		.uleb128 0xc
 1543 03fd C803 0000 		.long	0x3c8
 1544 0401 1F        		.uleb128 0x1f
 1545 0402 6D01 0000 		.long	0x16d
 1546 0406 01        		.byte	0x1
 1547 0407 4204 0000 		.long	0x442
 1548 040b 1E        		.uleb128 0x1e
 1549 040c 0000 0000 		.long	.LASF31
 1550 0410 4204 0000 		.long	0x442
 1551 0414 01        		.byte	0x1
 1552 0415 20        		.uleb128 0x20
 1553 0416 0000 0000 		.long	.LASF32
 1554 041a 01        		.byte	0x1
 1555 041b 0A        		.byte	0xa
 1556 041c 4C00 0000 		.long	0x4c
 1557 0420 20        		.uleb128 0x20
 1558 0421 0000 0000 		.long	.LASF33
 1559 0425 01        		.byte	0x1
 1560 0426 0A        		.byte	0xa
 1561 0427 4C00 0000 		.long	0x4c
 1562 042b 20        		.uleb128 0x20
 1563 042c 0000 0000 		.long	.LASF34
 1564 0430 01        		.byte	0x1
 1565 0431 0A        		.byte	0xa
 1566 0432 4C00 0000 		.long	0x4c
 1567 0436 20        		.uleb128 0x20
 1568 0437 0000 0000 		.long	.LASF35
 1569 043b 01        		.byte	0x1
 1570 043c 0A        		.byte	0xa
 1571 043d 4C00 0000 		.long	0x4c
 1572 0441 00        		.byte	0x0
 1573 0442 0C        		.uleb128 0xc
 1574 0443 7603 0000 		.long	0x376
 1575 0447 21        		.uleb128 0x21
 1576 0448 0000 0000 		.long	.LASF54
 1577 044c 01        		.byte	0x1
 1578 044d 01        		.byte	0x1
 1579 044e 8B04 0000 		.long	0x48b
 1580 0452 20        		.uleb128 0x20
 1581 0453 0000 0000 		.long	.LASF36
 1582 0457 01        		.byte	0x1
 1583 0458 37        		.byte	0x37
 1584 0459 3700 0000 		.long	0x37
 1585 045d 20        		.uleb128 0x20
 1586 045e 0000 0000 		.long	.LASF37
 1587 0462 01        		.byte	0x1
 1588 0463 37        		.byte	0x37
 1589 0464 3700 0000 		.long	0x37
 1590 0468 22        		.uleb128 0x22
 1591 0469 23        		.uleb128 0x23
 1592 046a 3604 0000 		.long	0x436
 1593 046e 23        		.uleb128 0x23
 1594 046f 2B04 0000 		.long	0x42b
 1595 0473 23        		.uleb128 0x23
GAS LISTING /var/folders/1s/lqjcb7x5323625d47g9gdgmr0000gp/T//ccJs2JT3.s 			page 29


 1596 0474 2004 0000 		.long	0x420
 1597 0478 23        		.uleb128 0x23
 1598 0479 1504 0000 		.long	0x415
 1599 047d 23        		.uleb128 0x23
 1600 047e 0B04 0000 		.long	0x40b
 1601 0482 22        		.uleb128 0x22
 1602 0483 23        		.uleb128 0x23
 1603 0484 F103 0000 		.long	0x3f1
 1604 0488 00        		.byte	0x0
 1605 0489 00        		.byte	0x0
 1606 048a 00        		.byte	0x0
 1607 048b 24        		.uleb128 0x24
 1608 048c 0104 0000 		.long	0x401
 1609 0490 0000 0000 		.long	.LFB87
 1610 0494 0000 0000 		.long	.LFE87
 1611 0498 02        		.byte	0x2
 1612 0499 90        		.byte	0x90
 1613 049a 20        		.uleb128 0x20
 1614 049b C704 0000 		.long	0x4c7
 1615 049f 25        		.uleb128 0x25
 1616 04a0 0B04 0000 		.long	0x40b
 1617 04a4 0000 0000 		.long	.LLST1
 1618 04a8 26        		.uleb128 0x26
 1619 04a9 1504 0000 		.long	0x415
 1620 04ad 01        		.byte	0x1
 1621 04ae 66        		.byte	0x66
 1622 04af 26        		.uleb128 0x26
 1623 04b0 2004 0000 		.long	0x420
 1624 04b4 01        		.byte	0x1
 1625 04b5 64        		.byte	0x64
 1626 04b6 26        		.uleb128 0x26
 1627 04b7 2B04 0000 		.long	0x42b
 1628 04bb 01        		.byte	0x1
 1629 04bc 62        		.byte	0x62
 1630 04bd 25        		.uleb128 0x25
 1631 04be 3604 0000 		.long	0x436
 1632 04c2 0000 0000 		.long	.LLST2
 1633 04c6 00        		.byte	0x0
 1634 04c7 24        		.uleb128 0x24
 1635 04c8 0104 0000 		.long	0x401
 1636 04cc 0000 0000 		.long	.LFB88
 1637 04d0 0000 0000 		.long	.LFE88
 1638 04d4 02        		.byte	0x2
 1639 04d5 90        		.byte	0x90
 1640 04d6 20        		.uleb128 0x20
 1641 04d7 0305 0000 		.long	0x503
 1642 04db 25        		.uleb128 0x25
 1643 04dc 0B04 0000 		.long	0x40b
 1644 04e0 0000 0000 		.long	.LLST4
 1645 04e4 26        		.uleb128 0x26
 1646 04e5 1504 0000 		.long	0x415
 1647 04e9 01        		.byte	0x1
 1648 04ea 66        		.byte	0x66
 1649 04eb 26        		.uleb128 0x26
 1650 04ec 2004 0000 		.long	0x420
 1651 04f0 01        		.byte	0x1
 1652 04f1 64        		.byte	0x64
GAS LISTING /var/folders/1s/lqjcb7x5323625d47g9gdgmr0000gp/T//ccJs2JT3.s 			page 30


 1653 04f2 26        		.uleb128 0x26
 1654 04f3 2B04 0000 		.long	0x42b
 1655 04f7 01        		.byte	0x1
 1656 04f8 62        		.byte	0x62
 1657 04f9 25        		.uleb128 0x25
 1658 04fa 3604 0000 		.long	0x436
 1659 04fe 0000 0000 		.long	.LLST5
 1660 0502 00        		.byte	0x0
 1661 0503 27        		.uleb128 0x27
 1662 0504 0000 0000 		.long	.LASF55
 1663 0508 01        		.byte	0x1
 1664 0509 0000 0000 		.long	.LFB100
 1665 050d 0000 0000 		.long	.LFE100
 1666 0511 02        		.byte	0x2
 1667 0512 90        		.byte	0x90
 1668 0513 20        		.uleb128 0x20
 1669 0514 5205 0000 		.long	0x552
 1670 0518 28        		.uleb128 0x28
 1671 0519 4704 0000 		.long	0x447
 1672 051d 0000 0000 		.long	.LBB50
 1673 0521 0000 0000 		.long	.LBE50
 1674 0525 01        		.byte	0x1
 1675 0526 37        		.byte	0x37
 1676 0527 28        		.uleb128 0x28
 1677 0528 0104 0000 		.long	0x401
 1678 052c 0000 0000 		.long	.LBB52
 1679 0530 0000 0000 		.long	.LBE52
 1680 0534 04        		.byte	0x4
 1681 0535 49        		.byte	0x49
 1682 0536 23        		.uleb128 0x23
 1683 0537 3604 0000 		.long	0x436
 1684 053b 23        		.uleb128 0x23
 1685 053c 2B04 0000 		.long	0x42b
 1686 0540 23        		.uleb128 0x23
 1687 0541 2004 0000 		.long	0x420
 1688 0545 23        		.uleb128 0x23
 1689 0546 1504 0000 		.long	0x415
 1690 054a 23        		.uleb128 0x23
 1691 054b 0B04 0000 		.long	0x40b
 1692 054f 00        		.byte	0x0
 1693 0550 00        		.byte	0x0
 1694 0551 00        		.byte	0x0
 1695 0552 29        		.uleb128 0x29
 1696 0553 A902 0000 		.long	0x2a9
 1697 0557 0000 0000 		.long	.LFB98
 1698 055b 0000 0000 		.long	.LFE98
 1699 055f 02        		.byte	0x2
 1700 0560 90        		.byte	0x90
 1701 0561 20        		.uleb128 0x20
 1702 0562 A605 0000 		.long	0x5a6
 1703 0566 2A        		.uleb128 0x2a
 1704 0567 0000 0000 		.long	.LASF31
 1705 056b A605 0000 		.long	0x5a6
 1706 056f 01        		.byte	0x1
 1707 0570 0000 0000 		.long	.LLST8
 1708 0574 2B        		.uleb128 0x2b
 1709 0575 7000      		.string	"p"
GAS LISTING /var/folders/1s/lqjcb7x5323625d47g9gdgmr0000gp/T//ccJs2JT3.s 			page 31


 1710 0577 01        		.byte	0x1
 1711 0578 2D        		.byte	0x2d
 1712 0579 AB05 0000 		.long	0x5ab
 1713 057d 0000 0000 		.long	.LLST9
 1714 0581 2C        		.uleb128 0x2c
 1715 0582 6E00      		.string	"n"
 1716 0584 01        		.byte	0x1
 1717 0585 2F        		.byte	0x2f
 1718 0586 2500 0000 		.long	0x25
 1719 058a 0000 0000 		.long	.LLST10
 1720 058e 2D        		.uleb128 0x2d
 1721 058f 0000 0000 		.long	.LBB58
 1722 0593 0000 0000 		.long	.LBE58
 1723 0597 2C        		.uleb128 0x2c
 1724 0598 6900      		.string	"i"
 1725 059a 01        		.byte	0x1
 1726 059b 30        		.byte	0x30
 1727 059c 3700 0000 		.long	0x37
 1728 05a0 0000 0000 		.long	.LLST11
 1729 05a4 00        		.byte	0x0
 1730 05a5 00        		.byte	0x0
 1731 05a6 0C        		.uleb128 0xc
 1732 05a7 9403 0000 		.long	0x394
 1733 05ab 0C        		.uleb128 0xc
 1734 05ac A003 0000 		.long	0x3a0
 1735 05b0 29        		.uleb128 0x29
 1736 05b1 0402 0000 		.long	0x204
 1737 05b5 0000 0000 		.long	.LFB97
 1738 05b9 0000 0000 		.long	.LFE97
 1739 05bd 02        		.byte	0x2
 1740 05be 90        		.byte	0x90
 1741 05bf 20        		.uleb128 0x20
 1742 05c0 E205 0000 		.long	0x5e2
 1743 05c4 2A        		.uleb128 0x2a
 1744 05c5 0000 0000 		.long	.LASF31
 1745 05c9 4204 0000 		.long	0x442
 1746 05cd 01        		.byte	0x1
 1747 05ce 0000 0000 		.long	.LLST13
 1748 05d2 2E        		.uleb128 0x2e
 1749 05d3 0000 0000 		.long	.LASF38
 1750 05d7 01        		.byte	0x1
 1751 05d8 28        		.byte	0x28
 1752 05d9 D100 0000 		.long	0xd1
 1753 05dd 0000 0000 		.long	.LLST14
 1754 05e1 00        		.byte	0x0
 1755 05e2 29        		.uleb128 0x29
 1756 05e3 8802 0000 		.long	0x288
 1757 05e7 0000 0000 		.long	.LFB96
 1758 05eb 0000 0000 		.long	.LFE96
 1759 05ef 02        		.byte	0x2
 1760 05f0 90        		.byte	0x90
 1761 05f1 20        		.uleb128 0x20
 1762 05f2 1406 0000 		.long	0x614
 1763 05f6 2A        		.uleb128 0x2a
 1764 05f7 0000 0000 		.long	.LASF31
 1765 05fb 4204 0000 		.long	0x442
 1766 05ff 01        		.byte	0x1
GAS LISTING /var/folders/1s/lqjcb7x5323625d47g9gdgmr0000gp/T//ccJs2JT3.s 			page 32


 1767 0600 0000 0000 		.long	.LLST16
 1768 0604 2E        		.uleb128 0x2e
 1769 0605 0000 0000 		.long	.LASF39
 1770 0609 01        		.byte	0x1
 1771 060a 22        		.byte	0x22
 1772 060b 5E00 0000 		.long	0x5e
 1773 060f 0000 0000 		.long	.LLST17
 1774 0613 00        		.byte	0x0
 1775 0614 29        		.uleb128 0x29
 1776 0615 6702 0000 		.long	0x267
 1777 0619 0000 0000 		.long	.LFB95
 1778 061d 0000 0000 		.long	.LFE95
 1779 0621 02        		.byte	0x2
 1780 0622 90        		.byte	0x90
 1781 0623 20        		.uleb128 0x20
 1782 0624 4906 0000 		.long	0x649
 1783 0628 2A        		.uleb128 0x2a
 1784 0629 0000 0000 		.long	.LASF31
 1785 062d 4204 0000 		.long	0x442
 1786 0631 01        		.byte	0x1
 1787 0632 0000 0000 		.long	.LLST19
 1788 0636 2F        		.uleb128 0x2f
 1789 0637 0000 0000 		.long	.LASF39
 1790 063b 01        		.byte	0x1
 1791 063c 1C        		.byte	0x1c
 1792 063d D100 0000 		.long	0xd1
 1793 0641 06        		.byte	0x6
 1794 0642 66        		.byte	0x66
 1795 0643 93        		.byte	0x93
 1796 0644 01        		.uleb128 0x1
 1797 0645 67        		.byte	0x67
 1798 0646 93        		.byte	0x93
 1799 0647 01        		.uleb128 0x1
 1800 0648 00        		.byte	0x0
 1801 0649 1F        		.uleb128 0x1f
 1802 064a AE01 0000 		.long	0x1ae
 1803 064e 00        		.byte	0x0
 1804 064f 6906 0000 		.long	0x669
 1805 0653 1E        		.uleb128 0x1e
 1806 0654 0000 0000 		.long	.LASF31
 1807 0658 4204 0000 		.long	0x442
 1808 065c 01        		.byte	0x1
 1809 065d 20        		.uleb128 0x20
 1810 065e 0000 0000 		.long	.LASF39
 1811 0662 01        		.byte	0x1
 1812 0663 17        		.byte	0x17
 1813 0664 D100 0000 		.long	0xd1
 1814 0668 00        		.byte	0x0
 1815 0669 24        		.uleb128 0x24
 1816 066a 4906 0000 		.long	0x649
 1817 066e 0000 0000 		.long	.LFB94
 1818 0672 0000 0000 		.long	.LFE94
 1819 0676 02        		.byte	0x2
 1820 0677 90        		.byte	0x90
 1821 0678 20        		.uleb128 0x20
 1822 0679 9306 0000 		.long	0x693
 1823 067d 25        		.uleb128 0x25
GAS LISTING /var/folders/1s/lqjcb7x5323625d47g9gdgmr0000gp/T//ccJs2JT3.s 			page 33


 1824 067e 5306 0000 		.long	0x653
 1825 0682 0000 0000 		.long	.LLST21
 1826 0686 26        		.uleb128 0x26
 1827 0687 5D06 0000 		.long	0x65d
 1828 068b 06        		.byte	0x6
 1829 068c 66        		.byte	0x66
 1830 068d 93        		.byte	0x93
 1831 068e 01        		.uleb128 0x1
 1832 068f 67        		.byte	0x67
 1833 0690 93        		.byte	0x93
 1834 0691 01        		.uleb128 0x1
 1835 0692 00        		.byte	0x0
 1836 0693 24        		.uleb128 0x24
 1837 0694 4906 0000 		.long	0x649
 1838 0698 0000 0000 		.long	.LFB93
 1839 069c 0000 0000 		.long	.LFE93
 1840 06a0 02        		.byte	0x2
 1841 06a1 90        		.byte	0x90
 1842 06a2 20        		.uleb128 0x20
 1843 06a3 BD06 0000 		.long	0x6bd
 1844 06a7 25        		.uleb128 0x25
 1845 06a8 5306 0000 		.long	0x653
 1846 06ac 0000 0000 		.long	.LLST23
 1847 06b0 26        		.uleb128 0x26
 1848 06b1 5D06 0000 		.long	0x65d
 1849 06b5 06        		.byte	0x6
 1850 06b6 66        		.byte	0x66
 1851 06b7 93        		.byte	0x93
 1852 06b8 01        		.uleb128 0x1
 1853 06b9 67        		.byte	0x67
 1854 06ba 93        		.byte	0x93
 1855 06bb 01        		.uleb128 0x1
 1856 06bc 00        		.byte	0x0
 1857 06bd 1F        		.uleb128 0x1f
 1858 06be 9501 0000 		.long	0x195
 1859 06c2 00        		.byte	0x0
 1860 06c3 DD06 0000 		.long	0x6dd
 1861 06c7 1E        		.uleb128 0x1e
 1862 06c8 0000 0000 		.long	.LASF31
 1863 06cc 4204 0000 		.long	0x442
 1864 06d0 01        		.byte	0x1
 1865 06d1 20        		.uleb128 0x20
 1866 06d2 0000 0000 		.long	.LASF39
 1867 06d6 01        		.byte	0x1
 1868 06d7 12        		.byte	0x12
 1869 06d8 5E00 0000 		.long	0x5e
 1870 06dc 00        		.byte	0x0
 1871 06dd 24        		.uleb128 0x24
 1872 06de BD06 0000 		.long	0x6bd
 1873 06e2 0000 0000 		.long	.LFB91
 1874 06e6 0000 0000 		.long	.LFE91
 1875 06ea 02        		.byte	0x2
 1876 06eb 90        		.byte	0x90
 1877 06ec 20        		.uleb128 0x20
 1878 06ed 0407 0000 		.long	0x704
 1879 06f1 25        		.uleb128 0x25
 1880 06f2 C706 0000 		.long	0x6c7
GAS LISTING /var/folders/1s/lqjcb7x5323625d47g9gdgmr0000gp/T//ccJs2JT3.s 			page 34


 1881 06f6 0000 0000 		.long	.LLST25
 1882 06fa 25        		.uleb128 0x25
 1883 06fb D106 0000 		.long	0x6d1
 1884 06ff 0000 0000 		.long	.LLST26
 1885 0703 00        		.byte	0x0
 1886 0704 24        		.uleb128 0x24
 1887 0705 BD06 0000 		.long	0x6bd
 1888 0709 0000 0000 		.long	.LFB90
 1889 070d 0000 0000 		.long	.LFE90
 1890 0711 02        		.byte	0x2
 1891 0712 90        		.byte	0x90
 1892 0713 20        		.uleb128 0x20
 1893 0714 2B07 0000 		.long	0x72b
 1894 0718 25        		.uleb128 0x25
 1895 0719 C706 0000 		.long	0x6c7
 1896 071d 0000 0000 		.long	.LLST28
 1897 0721 25        		.uleb128 0x25
 1898 0722 D106 0000 		.long	0x6d1
 1899 0726 0000 0000 		.long	.LLST29
 1900 072a 00        		.byte	0x0
 1901 072b 1F        		.uleb128 0x1f
 1902 072c 5901 0000 		.long	0x159
 1903 0730 00        		.byte	0x0
 1904 0731 4007 0000 		.long	0x740
 1905 0735 1E        		.uleb128 0x1e
 1906 0736 0000 0000 		.long	.LASF31
 1907 073a 4204 0000 		.long	0x442
 1908 073e 01        		.byte	0x1
 1909 073f 00        		.byte	0x0
 1910 0740 24        		.uleb128 0x24
 1911 0741 2B07 0000 		.long	0x72b
 1912 0745 0000 0000 		.long	.LFB85
 1913 0749 0000 0000 		.long	.LFE85
 1914 074d 02        		.byte	0x2
 1915 074e 90        		.byte	0x90
 1916 074f 20        		.uleb128 0x20
 1917 0750 5E07 0000 		.long	0x75e
 1918 0754 25        		.uleb128 0x25
 1919 0755 3507 0000 		.long	0x735
 1920 0759 0000 0000 		.long	.LLST31
 1921 075d 00        		.byte	0x0
 1922 075e 24        		.uleb128 0x24
 1923 075f 2B07 0000 		.long	0x72b
 1924 0763 0000 0000 		.long	.LFB84
 1925 0767 0000 0000 		.long	.LFE84
 1926 076b 02        		.byte	0x2
 1927 076c 90        		.byte	0x90
 1928 076d 20        		.uleb128 0x20
 1929 076e 7C07 0000 		.long	0x77c
 1930 0772 25        		.uleb128 0x25
 1931 0773 3507 0000 		.long	0x735
 1932 0777 0000 0000 		.long	.LLST33
 1933 077b 00        		.byte	0x0
 1934 077c 30        		.uleb128 0x30
 1935 077d 5353 00   		.string	"SS"
 1936 0780 06        		.byte	0x6
 1937 0781 23        		.byte	0x23
GAS LISTING /var/folders/1s/lqjcb7x5323625d47g9gdgmr0000gp/T//ccJs2JT3.s 			page 35


 1938 0782 D700 0000 		.long	0xd7
 1939 0786 35        		.byte	0x35
 1940 0787 31        		.uleb128 0x31
 1941 0788 0000 0000 		.long	.LASF40
 1942 078c 06        		.byte	0x6
 1943 078d 24        		.byte	0x24
 1944 078e D700 0000 		.long	0xd7
 1945 0792 33        		.byte	0x33
 1946 0793 31        		.uleb128 0x31
 1947 0794 0000 0000 		.long	.LASF41
 1948 0798 06        		.byte	0x6
 1949 0799 25        		.byte	0x25
 1950 079a D700 0000 		.long	0xd7
 1951 079e 32        		.byte	0x32
 1952 079f 30        		.uleb128 0x30
 1953 07a0 5343 4B00 		.string	"SCK"
 1954 07a4 06        		.byte	0x6
 1955 07a5 26        		.byte	0x26
 1956 07a6 D700 0000 		.long	0xd7
 1957 07aa 34        		.byte	0x34
 1958 07ab 30        		.uleb128 0x30
 1959 07ac 5344 4100 		.string	"SDA"
 1960 07b0 06        		.byte	0x6
 1961 07b1 28        		.byte	0x28
 1962 07b2 D700 0000 		.long	0xd7
 1963 07b6 14        		.byte	0x14
 1964 07b7 30        		.uleb128 0x30
 1965 07b8 5343 4C00 		.string	"SCL"
 1966 07bc 06        		.byte	0x6
 1967 07bd 29        		.byte	0x29
 1968 07be D700 0000 		.long	0xd7
 1969 07c2 15        		.byte	0x15
 1970 07c3 31        		.uleb128 0x31
 1971 07c4 0000 0000 		.long	.LASF42
 1972 07c8 06        		.byte	0x6
 1973 07c9 2A        		.byte	0x2a
 1974 07ca D700 0000 		.long	0xd7
 1975 07ce 0D        		.byte	0xd
 1976 07cf 30        		.uleb128 0x30
 1977 07d0 4130 00   		.string	"A0"
 1978 07d3 06        		.byte	0x6
 1979 07d4 2C        		.byte	0x2c
 1980 07d5 D700 0000 		.long	0xd7
 1981 07d9 36        		.byte	0x36
 1982 07da 30        		.uleb128 0x30
 1983 07db 4131 00   		.string	"A1"
 1984 07de 06        		.byte	0x6
 1985 07df 2D        		.byte	0x2d
 1986 07e0 D700 0000 		.long	0xd7
 1987 07e4 37        		.byte	0x37
 1988 07e5 30        		.uleb128 0x30
 1989 07e6 4132 00   		.string	"A2"
 1990 07e9 06        		.byte	0x6
 1991 07ea 2E        		.byte	0x2e
 1992 07eb D700 0000 		.long	0xd7
 1993 07ef 38        		.byte	0x38
 1994 07f0 30        		.uleb128 0x30
GAS LISTING /var/folders/1s/lqjcb7x5323625d47g9gdgmr0000gp/T//ccJs2JT3.s 			page 36


 1995 07f1 4133 00   		.string	"A3"
 1996 07f4 06        		.byte	0x6
 1997 07f5 2F        		.byte	0x2f
 1998 07f6 D700 0000 		.long	0xd7
 1999 07fa 39        		.byte	0x39
 2000 07fb 30        		.uleb128 0x30
 2001 07fc 4134 00   		.string	"A4"
 2002 07ff 06        		.byte	0x6
 2003 0800 30        		.byte	0x30
 2004 0801 D700 0000 		.long	0xd7
 2005 0805 3A        		.byte	0x3a
 2006 0806 30        		.uleb128 0x30
 2007 0807 4135 00   		.string	"A5"
 2008 080a 06        		.byte	0x6
 2009 080b 31        		.byte	0x31
 2010 080c D700 0000 		.long	0xd7
 2011 0810 3B        		.byte	0x3b
 2012 0811 30        		.uleb128 0x30
 2013 0812 4136 00   		.string	"A6"
 2014 0815 06        		.byte	0x6
 2015 0816 32        		.byte	0x32
 2016 0817 D700 0000 		.long	0xd7
 2017 081b 3C        		.byte	0x3c
 2018 081c 30        		.uleb128 0x30
 2019 081d 4137 00   		.string	"A7"
 2020 0820 06        		.byte	0x6
 2021 0821 33        		.byte	0x33
 2022 0822 D700 0000 		.long	0xd7
 2023 0826 3D        		.byte	0x3d
 2024 0827 30        		.uleb128 0x30
 2025 0828 4138 00   		.string	"A8"
 2026 082b 06        		.byte	0x6
 2027 082c 34        		.byte	0x34
 2028 082d D700 0000 		.long	0xd7
 2029 0831 3E        		.byte	0x3e
 2030 0832 30        		.uleb128 0x30
 2031 0833 4139 00   		.string	"A9"
 2032 0836 06        		.byte	0x6
 2033 0837 35        		.byte	0x35
 2034 0838 D700 0000 		.long	0xd7
 2035 083c 3F        		.byte	0x3f
 2036 083d 30        		.uleb128 0x30
 2037 083e 4131 3000 		.string	"A10"
 2038 0842 06        		.byte	0x6
 2039 0843 36        		.byte	0x36
 2040 0844 D700 0000 		.long	0xd7
 2041 0848 40        		.byte	0x40
 2042 0849 30        		.uleb128 0x30
 2043 084a 4131 3100 		.string	"A11"
 2044 084e 06        		.byte	0x6
 2045 084f 37        		.byte	0x37
 2046 0850 D700 0000 		.long	0xd7
 2047 0854 41        		.byte	0x41
 2048 0855 30        		.uleb128 0x30
 2049 0856 4131 3200 		.string	"A12"
 2050 085a 06        		.byte	0x6
 2051 085b 38        		.byte	0x38
GAS LISTING /var/folders/1s/lqjcb7x5323625d47g9gdgmr0000gp/T//ccJs2JT3.s 			page 37


 2052 085c D700 0000 		.long	0xd7
 2053 0860 42        		.byte	0x42
 2054 0861 30        		.uleb128 0x30
 2055 0862 4131 3300 		.string	"A13"
 2056 0866 06        		.byte	0x6
 2057 0867 39        		.byte	0x39
 2058 0868 D700 0000 		.long	0xd7
 2059 086c 43        		.byte	0x43
 2060 086d 30        		.uleb128 0x30
 2061 086e 4131 3400 		.string	"A14"
 2062 0872 06        		.byte	0x6
 2063 0873 3A        		.byte	0x3a
 2064 0874 D700 0000 		.long	0xd7
 2065 0878 44        		.byte	0x44
 2066 0879 30        		.uleb128 0x30
 2067 087a 4131 3500 		.string	"A15"
 2068 087e 06        		.byte	0x6
 2069 087f 3B        		.byte	0x3b
 2070 0880 D700 0000 		.long	0xd7
 2071 0884 45        		.byte	0x45
 2072 0885 32        		.uleb128 0x32
 2073 0886 0000 0000 		.long	.LASF43
 2074 088a 04        		.byte	0x4
 2075 088b 49        		.byte	0x49
 2076 088c 8203 0000 		.long	0x382
 2077 0890 05        		.byte	0x5
 2078 0891 03        		.byte	0x3
 2079 0892 0000 0000 		.long	_ZL11INADDR_NONE
 2080 0896 00        		.byte	0x0
 2081               		.section	.debug_abbrev
 2082 0000 01        		.uleb128 0x1
 2083 0001 11        		.uleb128 0x11
 2084 0002 01        		.byte	0x1
 2085 0003 25        		.uleb128 0x25
 2086 0004 0E        		.uleb128 0xe
 2087 0005 13        		.uleb128 0x13
 2088 0006 0B        		.uleb128 0xb
 2089 0007 03        		.uleb128 0x3
 2090 0008 0E        		.uleb128 0xe
 2091 0009 11        		.uleb128 0x11
 2092 000a 01        		.uleb128 0x1
 2093 000b 52        		.uleb128 0x52
 2094 000c 01        		.uleb128 0x1
 2095 000d 55        		.uleb128 0x55
 2096 000e 06        		.uleb128 0x6
 2097 000f 10        		.uleb128 0x10
 2098 0010 06        		.uleb128 0x6
 2099 0011 00        		.byte	0x0
 2100 0012 00        		.byte	0x0
 2101 0013 02        		.uleb128 0x2
 2102 0014 16        		.uleb128 0x16
 2103 0015 00        		.byte	0x0
 2104 0016 03        		.uleb128 0x3
 2105 0017 0E        		.uleb128 0xe
 2106 0018 3A        		.uleb128 0x3a
 2107 0019 0B        		.uleb128 0xb
 2108 001a 3B        		.uleb128 0x3b
GAS LISTING /var/folders/1s/lqjcb7x5323625d47g9gdgmr0000gp/T//ccJs2JT3.s 			page 38


 2109 001b 0B        		.uleb128 0xb
 2110 001c 49        		.uleb128 0x49
 2111 001d 13        		.uleb128 0x13
 2112 001e 00        		.byte	0x0
 2113 001f 00        		.byte	0x0
 2114 0020 03        		.uleb128 0x3
 2115 0021 24        		.uleb128 0x24
 2116 0022 00        		.byte	0x0
 2117 0023 0B        		.uleb128 0xb
 2118 0024 0B        		.uleb128 0xb
 2119 0025 3E        		.uleb128 0x3e
 2120 0026 0B        		.uleb128 0xb
 2121 0027 03        		.uleb128 0x3
 2122 0028 0E        		.uleb128 0xe
 2123 0029 00        		.byte	0x0
 2124 002a 00        		.byte	0x0
 2125 002b 04        		.uleb128 0x4
 2126 002c 24        		.uleb128 0x24
 2127 002d 00        		.byte	0x0
 2128 002e 0B        		.uleb128 0xb
 2129 002f 0B        		.uleb128 0xb
 2130 0030 3E        		.uleb128 0x3e
 2131 0031 0B        		.uleb128 0xb
 2132 0032 03        		.uleb128 0x3
 2133 0033 08        		.uleb128 0x8
 2134 0034 00        		.byte	0x0
 2135 0035 00        		.byte	0x0
 2136 0036 05        		.uleb128 0x5
 2137 0037 24        		.uleb128 0x24
 2138 0038 00        		.byte	0x0
 2139 0039 0B        		.uleb128 0xb
 2140 003a 0B        		.uleb128 0xb
 2141 003b 3E        		.uleb128 0x3e
 2142 003c 0B        		.uleb128 0xb
 2143 003d 00        		.byte	0x0
 2144 003e 00        		.byte	0x0
 2145 003f 06        		.uleb128 0x6
 2146 0040 02        		.uleb128 0x2
 2147 0041 01        		.byte	0x1
 2148 0042 03        		.uleb128 0x3
 2149 0043 0E        		.uleb128 0xe
 2150 0044 3C        		.uleb128 0x3c
 2151 0045 0C        		.uleb128 0xc
 2152 0046 01        		.uleb128 0x1
 2153 0047 13        		.uleb128 0x13
 2154 0048 00        		.byte	0x0
 2155 0049 00        		.byte	0x0
 2156 004a 07        		.uleb128 0x7
 2157 004b 2E        		.uleb128 0x2e
 2158 004c 01        		.byte	0x1
 2159 004d 3F        		.uleb128 0x3f
 2160 004e 0C        		.uleb128 0xc
 2161 004f 03        		.uleb128 0x3
 2162 0050 0E        		.uleb128 0xe
 2163 0051 3A        		.uleb128 0x3a
 2164 0052 0B        		.uleb128 0xb
 2165 0053 3B        		.uleb128 0x3b
GAS LISTING /var/folders/1s/lqjcb7x5323625d47g9gdgmr0000gp/T//ccJs2JT3.s 			page 39


 2166 0054 0B        		.uleb128 0xb
 2167 0055 8740      		.uleb128 0x2007
 2168 0057 0E        		.uleb128 0xe
 2169 0058 49        		.uleb128 0x49
 2170 0059 13        		.uleb128 0x13
 2171 005a 4C        		.uleb128 0x4c
 2172 005b 0B        		.uleb128 0xb
 2173 005c 4D        		.uleb128 0x4d
 2174 005d 0A        		.uleb128 0xa
 2175 005e 1D        		.uleb128 0x1d
 2176 005f 13        		.uleb128 0x13
 2177 0060 3C        		.uleb128 0x3c
 2178 0061 0C        		.uleb128 0xc
 2179 0062 01        		.uleb128 0x1
 2180 0063 13        		.uleb128 0x13
 2181 0064 00        		.byte	0x0
 2182 0065 00        		.byte	0x0
 2183 0066 08        		.uleb128 0x8
 2184 0067 05        		.uleb128 0x5
 2185 0068 00        		.byte	0x0
 2186 0069 49        		.uleb128 0x49
 2187 006a 13        		.uleb128 0x13
 2188 006b 34        		.uleb128 0x34
 2189 006c 0C        		.uleb128 0xc
 2190 006d 00        		.byte	0x0
 2191 006e 00        		.byte	0x0
 2192 006f 09        		.uleb128 0x9
 2193 0070 05        		.uleb128 0x5
 2194 0071 00        		.byte	0x0
 2195 0072 49        		.uleb128 0x49
 2196 0073 13        		.uleb128 0x13
 2197 0074 00        		.byte	0x0
 2198 0075 00        		.byte	0x0
 2199 0076 0A        		.uleb128 0xa
 2200 0077 08        		.uleb128 0x8
 2201 0078 00        		.byte	0x0
 2202 0079 3A        		.uleb128 0x3a
 2203 007a 0B        		.uleb128 0xb
 2204 007b 3B        		.uleb128 0x3b
 2205 007c 0B        		.uleb128 0xb
 2206 007d 18        		.uleb128 0x18
 2207 007e 13        		.uleb128 0x13
 2208 007f 00        		.byte	0x0
 2209 0080 00        		.byte	0x0
 2210 0081 0B        		.uleb128 0xb
 2211 0082 0F        		.uleb128 0xf
 2212 0083 00        		.byte	0x0
 2213 0084 0B        		.uleb128 0xb
 2214 0085 0B        		.uleb128 0xb
 2215 0086 49        		.uleb128 0x49
 2216 0087 13        		.uleb128 0x13
 2217 0088 00        		.byte	0x0
 2218 0089 00        		.byte	0x0
 2219 008a 0C        		.uleb128 0xc
 2220 008b 26        		.uleb128 0x26
 2221 008c 00        		.byte	0x0
 2222 008d 49        		.uleb128 0x49
GAS LISTING /var/folders/1s/lqjcb7x5323625d47g9gdgmr0000gp/T//ccJs2JT3.s 			page 40


 2223 008e 13        		.uleb128 0x13
 2224 008f 00        		.byte	0x0
 2225 0090 00        		.byte	0x0
 2226 0091 0D        		.uleb128 0xd
 2227 0092 02        		.uleb128 0x2
 2228 0093 01        		.byte	0x1
 2229 0094 03        		.uleb128 0x3
 2230 0095 0E        		.uleb128 0xe
 2231 0096 0B        		.uleb128 0xb
 2232 0097 0B        		.uleb128 0xb
 2233 0098 3A        		.uleb128 0x3a
 2234 0099 0B        		.uleb128 0xb
 2235 009a 3B        		.uleb128 0x3b
 2236 009b 0B        		.uleb128 0xb
 2237 009c 1D        		.uleb128 0x1d
 2238 009d 13        		.uleb128 0x13
 2239 009e 01        		.uleb128 0x1
 2240 009f 13        		.uleb128 0x13
 2241 00a0 00        		.byte	0x0
 2242 00a1 00        		.byte	0x0
 2243 00a2 0E        		.uleb128 0xe
 2244 00a3 1C        		.uleb128 0x1c
 2245 00a4 00        		.byte	0x0
 2246 00a5 49        		.uleb128 0x49
 2247 00a6 13        		.uleb128 0x13
 2248 00a7 38        		.uleb128 0x38
 2249 00a8 0A        		.uleb128 0xa
 2250 00a9 32        		.uleb128 0x32
 2251 00aa 0B        		.uleb128 0xb
 2252 00ab 00        		.byte	0x0
 2253 00ac 00        		.byte	0x0
 2254 00ad 0F        		.uleb128 0xf
 2255 00ae 0D        		.uleb128 0xd
 2256 00af 00        		.byte	0x0
 2257 00b0 03        		.uleb128 0x3
 2258 00b1 0E        		.uleb128 0xe
 2259 00b2 3A        		.uleb128 0x3a
 2260 00b3 0B        		.uleb128 0xb
 2261 00b4 3B        		.uleb128 0x3b
 2262 00b5 0B        		.uleb128 0xb
 2263 00b6 49        		.uleb128 0x49
 2264 00b7 13        		.uleb128 0x13
 2265 00b8 38        		.uleb128 0x38
 2266 00b9 0A        		.uleb128 0xa
 2267 00ba 32        		.uleb128 0x32
 2268 00bb 0B        		.uleb128 0xb
 2269 00bc 00        		.byte	0x0
 2270 00bd 00        		.byte	0x0
 2271 00be 10        		.uleb128 0x10
 2272 00bf 2E        		.uleb128 0x2e
 2273 00c0 01        		.byte	0x1
 2274 00c1 3F        		.uleb128 0x3f
 2275 00c2 0C        		.uleb128 0xc
 2276 00c3 03        		.uleb128 0x3
 2277 00c4 0E        		.uleb128 0xe
 2278 00c5 8740      		.uleb128 0x2007
 2279 00c7 0E        		.uleb128 0xe
GAS LISTING /var/folders/1s/lqjcb7x5323625d47g9gdgmr0000gp/T//ccJs2JT3.s 			page 41


 2280 00c8 49        		.uleb128 0x49
 2281 00c9 13        		.uleb128 0x13
 2282 00ca 34        		.uleb128 0x34
 2283 00cb 0C        		.uleb128 0xc
 2284 00cc 3C        		.uleb128 0x3c
 2285 00cd 0C        		.uleb128 0xc
 2286 00ce 01        		.uleb128 0x1
 2287 00cf 13        		.uleb128 0x13
 2288 00d0 00        		.byte	0x0
 2289 00d1 00        		.byte	0x0
 2290 00d2 11        		.uleb128 0x11
 2291 00d3 2E        		.uleb128 0x2e
 2292 00d4 01        		.byte	0x1
 2293 00d5 3F        		.uleb128 0x3f
 2294 00d6 0C        		.uleb128 0xc
 2295 00d7 03        		.uleb128 0x3
 2296 00d8 0E        		.uleb128 0xe
 2297 00d9 34        		.uleb128 0x34
 2298 00da 0C        		.uleb128 0xc
 2299 00db 3C        		.uleb128 0x3c
 2300 00dc 0C        		.uleb128 0xc
 2301 00dd 01        		.uleb128 0x1
 2302 00de 13        		.uleb128 0x13
 2303 00df 00        		.byte	0x0
 2304 00e0 00        		.byte	0x0
 2305 00e1 12        		.uleb128 0x12
 2306 00e2 2E        		.uleb128 0x2e
 2307 00e3 01        		.byte	0x1
 2308 00e4 3F        		.uleb128 0x3f
 2309 00e5 0C        		.uleb128 0xc
 2310 00e6 03        		.uleb128 0x3
 2311 00e7 0E        		.uleb128 0xe
 2312 00e8 3A        		.uleb128 0x3a
 2313 00e9 0B        		.uleb128 0xb
 2314 00ea 3B        		.uleb128 0x3b
 2315 00eb 0B        		.uleb128 0xb
 2316 00ec 8740      		.uleb128 0x2007
 2317 00ee 0E        		.uleb128 0xe
 2318 00ef 49        		.uleb128 0x49
 2319 00f0 13        		.uleb128 0x13
 2320 00f1 32        		.uleb128 0x32
 2321 00f2 0B        		.uleb128 0xb
 2322 00f3 3C        		.uleb128 0x3c
 2323 00f4 0C        		.uleb128 0xc
 2324 00f5 01        		.uleb128 0x1
 2325 00f6 13        		.uleb128 0x13
 2326 00f7 00        		.byte	0x0
 2327 00f8 00        		.byte	0x0
 2328 00f9 13        		.uleb128 0x13
 2329 00fa 2E        		.uleb128 0x2e
 2330 00fb 01        		.byte	0x1
 2331 00fc 3F        		.uleb128 0x3f
 2332 00fd 0C        		.uleb128 0xc
 2333 00fe 03        		.uleb128 0x3
 2334 00ff 0E        		.uleb128 0xe
 2335 0100 3A        		.uleb128 0x3a
 2336 0101 0B        		.uleb128 0xb
GAS LISTING /var/folders/1s/lqjcb7x5323625d47g9gdgmr0000gp/T//ccJs2JT3.s 			page 42


 2337 0102 3B        		.uleb128 0x3b
 2338 0103 0B        		.uleb128 0xb
 2339 0104 3C        		.uleb128 0x3c
 2340 0105 0C        		.uleb128 0xc
 2341 0106 01        		.uleb128 0x1
 2342 0107 13        		.uleb128 0x13
 2343 0108 00        		.byte	0x0
 2344 0109 00        		.byte	0x0
 2345 010a 14        		.uleb128 0x14
 2346 010b 2E        		.uleb128 0x2e
 2347 010c 01        		.byte	0x1
 2348 010d 3F        		.uleb128 0x3f
 2349 010e 0C        		.uleb128 0xc
 2350 010f 03        		.uleb128 0x3
 2351 0110 0E        		.uleb128 0xe
 2352 0111 3A        		.uleb128 0x3a
 2353 0112 0B        		.uleb128 0xb
 2354 0113 3B        		.uleb128 0x3b
 2355 0114 0B        		.uleb128 0xb
 2356 0115 8740      		.uleb128 0x2007
 2357 0117 0E        		.uleb128 0xe
 2358 0118 49        		.uleb128 0x49
 2359 0119 13        		.uleb128 0x13
 2360 011a 3C        		.uleb128 0x3c
 2361 011b 0C        		.uleb128 0xc
 2362 011c 01        		.uleb128 0x1
 2363 011d 13        		.uleb128 0x13
 2364 011e 00        		.byte	0x0
 2365 011f 00        		.byte	0x0
 2366 0120 15        		.uleb128 0x15
 2367 0121 2E        		.uleb128 0x2e
 2368 0122 01        		.byte	0x1
 2369 0123 3F        		.uleb128 0x3f
 2370 0124 0C        		.uleb128 0xc
 2371 0125 03        		.uleb128 0x3
 2372 0126 0E        		.uleb128 0xe
 2373 0127 3A        		.uleb128 0x3a
 2374 0128 0B        		.uleb128 0xb
 2375 0129 3B        		.uleb128 0x3b
 2376 012a 0B        		.uleb128 0xb
 2377 012b 8740      		.uleb128 0x2007
 2378 012d 0E        		.uleb128 0xe
 2379 012e 49        		.uleb128 0x49
 2380 012f 13        		.uleb128 0x13
 2381 0130 4C        		.uleb128 0x4c
 2382 0131 0B        		.uleb128 0xb
 2383 0132 4D        		.uleb128 0x4d
 2384 0133 0A        		.uleb128 0xa
 2385 0134 1D        		.uleb128 0x1d
 2386 0135 13        		.uleb128 0x13
 2387 0136 3C        		.uleb128 0x3c
 2388 0137 0C        		.uleb128 0xc
 2389 0138 00        		.byte	0x0
 2390 0139 00        		.byte	0x0
 2391 013a 16        		.uleb128 0x16
 2392 013b 0D        		.uleb128 0xd
 2393 013c 00        		.byte	0x0
GAS LISTING /var/folders/1s/lqjcb7x5323625d47g9gdgmr0000gp/T//ccJs2JT3.s 			page 43


 2394 013d 03        		.uleb128 0x3
 2395 013e 0E        		.uleb128 0xe
 2396 013f 49        		.uleb128 0x49
 2397 0140 13        		.uleb128 0x13
 2398 0141 38        		.uleb128 0x38
 2399 0142 0A        		.uleb128 0xa
 2400 0143 34        		.uleb128 0x34
 2401 0144 0C        		.uleb128 0xc
 2402 0145 00        		.byte	0x0
 2403 0146 00        		.byte	0x0
 2404 0147 17        		.uleb128 0x17
 2405 0148 01        		.uleb128 0x1
 2406 0149 01        		.byte	0x1
 2407 014a 49        		.uleb128 0x49
 2408 014b 13        		.uleb128 0x13
 2409 014c 01        		.uleb128 0x1
 2410 014d 13        		.uleb128 0x13
 2411 014e 00        		.byte	0x0
 2412 014f 00        		.byte	0x0
 2413 0150 18        		.uleb128 0x18
 2414 0151 21        		.uleb128 0x21
 2415 0152 00        		.byte	0x0
 2416 0153 49        		.uleb128 0x49
 2417 0154 13        		.uleb128 0x13
 2418 0155 2F        		.uleb128 0x2f
 2419 0156 0B        		.uleb128 0xb
 2420 0157 00        		.byte	0x0
 2421 0158 00        		.byte	0x0
 2422 0159 19        		.uleb128 0x19
 2423 015a 10        		.uleb128 0x10
 2424 015b 00        		.byte	0x0
 2425 015c 0B        		.uleb128 0xb
 2426 015d 0B        		.uleb128 0xb
 2427 015e 49        		.uleb128 0x49
 2428 015f 13        		.uleb128 0x13
 2429 0160 00        		.byte	0x0
 2430 0161 00        		.byte	0x0
 2431 0162 1A        		.uleb128 0x1a
 2432 0163 15        		.uleb128 0x15
 2433 0164 01        		.byte	0x1
 2434 0165 49        		.uleb128 0x49
 2435 0166 13        		.uleb128 0x13
 2436 0167 01        		.uleb128 0x1
 2437 0168 13        		.uleb128 0x13
 2438 0169 00        		.byte	0x0
 2439 016a 00        		.byte	0x0
 2440 016b 1B        		.uleb128 0x1b
 2441 016c 18        		.uleb128 0x18
 2442 016d 00        		.byte	0x0
 2443 016e 00        		.byte	0x0
 2444 016f 00        		.byte	0x0
 2445 0170 1C        		.uleb128 0x1c
 2446 0171 0F        		.uleb128 0xf
 2447 0172 00        		.byte	0x0
 2448 0173 0B        		.uleb128 0xb
 2449 0174 0B        		.uleb128 0xb
 2450 0175 03        		.uleb128 0x3
GAS LISTING /var/folders/1s/lqjcb7x5323625d47g9gdgmr0000gp/T//ccJs2JT3.s 			page 44


 2451 0176 0E        		.uleb128 0xe
 2452 0177 49        		.uleb128 0x49
 2453 0178 13        		.uleb128 0x13
 2454 0179 00        		.byte	0x0
 2455 017a 00        		.byte	0x0
 2456 017b 1D        		.uleb128 0x1d
 2457 017c 2E        		.uleb128 0x2e
 2458 017d 01        		.byte	0x1
 2459 017e 47        		.uleb128 0x47
 2460 017f 13        		.uleb128 0x13
 2461 0180 3A        		.uleb128 0x3a
 2462 0181 0B        		.uleb128 0xb
 2463 0182 3B        		.uleb128 0x3b
 2464 0183 0B        		.uleb128 0xb
 2465 0184 20        		.uleb128 0x20
 2466 0185 0B        		.uleb128 0xb
 2467 0186 01        		.uleb128 0x1
 2468 0187 13        		.uleb128 0x13
 2469 0188 00        		.byte	0x0
 2470 0189 00        		.byte	0x0
 2471 018a 1E        		.uleb128 0x1e
 2472 018b 05        		.uleb128 0x5
 2473 018c 00        		.byte	0x0
 2474 018d 03        		.uleb128 0x3
 2475 018e 0E        		.uleb128 0xe
 2476 018f 49        		.uleb128 0x49
 2477 0190 13        		.uleb128 0x13
 2478 0191 34        		.uleb128 0x34
 2479 0192 0C        		.uleb128 0xc
 2480 0193 00        		.byte	0x0
 2481 0194 00        		.byte	0x0
 2482 0195 1F        		.uleb128 0x1f
 2483 0196 2E        		.uleb128 0x2e
 2484 0197 01        		.byte	0x1
 2485 0198 47        		.uleb128 0x47
 2486 0199 13        		.uleb128 0x13
 2487 019a 20        		.uleb128 0x20
 2488 019b 0B        		.uleb128 0xb
 2489 019c 01        		.uleb128 0x1
 2490 019d 13        		.uleb128 0x13
 2491 019e 00        		.byte	0x0
 2492 019f 00        		.byte	0x0
 2493 01a0 20        		.uleb128 0x20
 2494 01a1 05        		.uleb128 0x5
 2495 01a2 00        		.byte	0x0
 2496 01a3 03        		.uleb128 0x3
 2497 01a4 0E        		.uleb128 0xe
 2498 01a5 3A        		.uleb128 0x3a
 2499 01a6 0B        		.uleb128 0xb
 2500 01a7 3B        		.uleb128 0x3b
 2501 01a8 0B        		.uleb128 0xb
 2502 01a9 49        		.uleb128 0x49
 2503 01aa 13        		.uleb128 0x13
 2504 01ab 00        		.byte	0x0
 2505 01ac 00        		.byte	0x0
 2506 01ad 21        		.uleb128 0x21
 2507 01ae 2E        		.uleb128 0x2e
GAS LISTING /var/folders/1s/lqjcb7x5323625d47g9gdgmr0000gp/T//ccJs2JT3.s 			page 45


 2508 01af 01        		.byte	0x1
 2509 01b0 03        		.uleb128 0x3
 2510 01b1 0E        		.uleb128 0xe
 2511 01b2 34        		.uleb128 0x34
 2512 01b3 0C        		.uleb128 0xc
 2513 01b4 20        		.uleb128 0x20
 2514 01b5 0B        		.uleb128 0xb
 2515 01b6 01        		.uleb128 0x1
 2516 01b7 13        		.uleb128 0x13
 2517 01b8 00        		.byte	0x0
 2518 01b9 00        		.byte	0x0
 2519 01ba 22        		.uleb128 0x22
 2520 01bb 0B        		.uleb128 0xb
 2521 01bc 01        		.byte	0x1
 2522 01bd 00        		.byte	0x0
 2523 01be 00        		.byte	0x0
 2524 01bf 23        		.uleb128 0x23
 2525 01c0 05        		.uleb128 0x5
 2526 01c1 00        		.byte	0x0
 2527 01c2 31        		.uleb128 0x31
 2528 01c3 13        		.uleb128 0x13
 2529 01c4 00        		.byte	0x0
 2530 01c5 00        		.byte	0x0
 2531 01c6 24        		.uleb128 0x24
 2532 01c7 2E        		.uleb128 0x2e
 2533 01c8 01        		.byte	0x1
 2534 01c9 31        		.uleb128 0x31
 2535 01ca 13        		.uleb128 0x13
 2536 01cb 11        		.uleb128 0x11
 2537 01cc 01        		.uleb128 0x1
 2538 01cd 12        		.uleb128 0x12
 2539 01ce 01        		.uleb128 0x1
 2540 01cf 40        		.uleb128 0x40
 2541 01d0 0A        		.uleb128 0xa
 2542 01d1 01        		.uleb128 0x1
 2543 01d2 13        		.uleb128 0x13
 2544 01d3 00        		.byte	0x0
 2545 01d4 00        		.byte	0x0
 2546 01d5 25        		.uleb128 0x25
 2547 01d6 05        		.uleb128 0x5
 2548 01d7 00        		.byte	0x0
 2549 01d8 31        		.uleb128 0x31
 2550 01d9 13        		.uleb128 0x13
 2551 01da 02        		.uleb128 0x2
 2552 01db 06        		.uleb128 0x6
 2553 01dc 00        		.byte	0x0
 2554 01dd 00        		.byte	0x0
 2555 01de 26        		.uleb128 0x26
 2556 01df 05        		.uleb128 0x5
 2557 01e0 00        		.byte	0x0
 2558 01e1 31        		.uleb128 0x31
 2559 01e2 13        		.uleb128 0x13
 2560 01e3 02        		.uleb128 0x2
 2561 01e4 0A        		.uleb128 0xa
 2562 01e5 00        		.byte	0x0
 2563 01e6 00        		.byte	0x0
 2564 01e7 27        		.uleb128 0x27
GAS LISTING /var/folders/1s/lqjcb7x5323625d47g9gdgmr0000gp/T//ccJs2JT3.s 			page 46


 2565 01e8 2E        		.uleb128 0x2e
 2566 01e9 01        		.byte	0x1
 2567 01ea 03        		.uleb128 0x3
 2568 01eb 0E        		.uleb128 0xe
 2569 01ec 34        		.uleb128 0x34
 2570 01ed 0C        		.uleb128 0xc
 2571 01ee 11        		.uleb128 0x11
 2572 01ef 01        		.uleb128 0x1
 2573 01f0 12        		.uleb128 0x12
 2574 01f1 01        		.uleb128 0x1
 2575 01f2 40        		.uleb128 0x40
 2576 01f3 0A        		.uleb128 0xa
 2577 01f4 01        		.uleb128 0x1
 2578 01f5 13        		.uleb128 0x13
 2579 01f6 00        		.byte	0x0
 2580 01f7 00        		.byte	0x0
 2581 01f8 28        		.uleb128 0x28
 2582 01f9 1D        		.uleb128 0x1d
 2583 01fa 01        		.byte	0x1
 2584 01fb 31        		.uleb128 0x31
 2585 01fc 13        		.uleb128 0x13
 2586 01fd 11        		.uleb128 0x11
 2587 01fe 01        		.uleb128 0x1
 2588 01ff 12        		.uleb128 0x12
 2589 0200 01        		.uleb128 0x1
 2590 0201 58        		.uleb128 0x58
 2591 0202 0B        		.uleb128 0xb
 2592 0203 59        		.uleb128 0x59
 2593 0204 0B        		.uleb128 0xb
 2594 0205 00        		.byte	0x0
 2595 0206 00        		.byte	0x0
 2596 0207 29        		.uleb128 0x29
 2597 0208 2E        		.uleb128 0x2e
 2598 0209 01        		.byte	0x1
 2599 020a 47        		.uleb128 0x47
 2600 020b 13        		.uleb128 0x13
 2601 020c 11        		.uleb128 0x11
 2602 020d 01        		.uleb128 0x1
 2603 020e 12        		.uleb128 0x12
 2604 020f 01        		.uleb128 0x1
 2605 0210 40        		.uleb128 0x40
 2606 0211 0A        		.uleb128 0xa
 2607 0212 01        		.uleb128 0x1
 2608 0213 13        		.uleb128 0x13
 2609 0214 00        		.byte	0x0
 2610 0215 00        		.byte	0x0
 2611 0216 2A        		.uleb128 0x2a
 2612 0217 05        		.uleb128 0x5
 2613 0218 00        		.byte	0x0
 2614 0219 03        		.uleb128 0x3
 2615 021a 0E        		.uleb128 0xe
 2616 021b 49        		.uleb128 0x49
 2617 021c 13        		.uleb128 0x13
 2618 021d 34        		.uleb128 0x34
 2619 021e 0C        		.uleb128 0xc
 2620 021f 02        		.uleb128 0x2
 2621 0220 06        		.uleb128 0x6
GAS LISTING /var/folders/1s/lqjcb7x5323625d47g9gdgmr0000gp/T//ccJs2JT3.s 			page 47


 2622 0221 00        		.byte	0x0
 2623 0222 00        		.byte	0x0
 2624 0223 2B        		.uleb128 0x2b
 2625 0224 05        		.uleb128 0x5
 2626 0225 00        		.byte	0x0
 2627 0226 03        		.uleb128 0x3
 2628 0227 08        		.uleb128 0x8
 2629 0228 3A        		.uleb128 0x3a
 2630 0229 0B        		.uleb128 0xb
 2631 022a 3B        		.uleb128 0x3b
 2632 022b 0B        		.uleb128 0xb
 2633 022c 49        		.uleb128 0x49
 2634 022d 13        		.uleb128 0x13
 2635 022e 02        		.uleb128 0x2
 2636 022f 06        		.uleb128 0x6
 2637 0230 00        		.byte	0x0
 2638 0231 00        		.byte	0x0
 2639 0232 2C        		.uleb128 0x2c
 2640 0233 34        		.uleb128 0x34
 2641 0234 00        		.byte	0x0
 2642 0235 03        		.uleb128 0x3
 2643 0236 08        		.uleb128 0x8
 2644 0237 3A        		.uleb128 0x3a
 2645 0238 0B        		.uleb128 0xb
 2646 0239 3B        		.uleb128 0x3b
 2647 023a 0B        		.uleb128 0xb
 2648 023b 49        		.uleb128 0x49
 2649 023c 13        		.uleb128 0x13
 2650 023d 02        		.uleb128 0x2
 2651 023e 06        		.uleb128 0x6
 2652 023f 00        		.byte	0x0
 2653 0240 00        		.byte	0x0
 2654 0241 2D        		.uleb128 0x2d
 2655 0242 0B        		.uleb128 0xb
 2656 0243 01        		.byte	0x1
 2657 0244 11        		.uleb128 0x11
 2658 0245 01        		.uleb128 0x1
 2659 0246 12        		.uleb128 0x12
 2660 0247 01        		.uleb128 0x1
 2661 0248 00        		.byte	0x0
 2662 0249 00        		.byte	0x0
 2663 024a 2E        		.uleb128 0x2e
 2664 024b 05        		.uleb128 0x5
 2665 024c 00        		.byte	0x0
 2666 024d 03        		.uleb128 0x3
 2667 024e 0E        		.uleb128 0xe
 2668 024f 3A        		.uleb128 0x3a
 2669 0250 0B        		.uleb128 0xb
 2670 0251 3B        		.uleb128 0x3b
 2671 0252 0B        		.uleb128 0xb
 2672 0253 49        		.uleb128 0x49
 2673 0254 13        		.uleb128 0x13
 2674 0255 02        		.uleb128 0x2
 2675 0256 06        		.uleb128 0x6
 2676 0257 00        		.byte	0x0
 2677 0258 00        		.byte	0x0
 2678 0259 2F        		.uleb128 0x2f
GAS LISTING /var/folders/1s/lqjcb7x5323625d47g9gdgmr0000gp/T//ccJs2JT3.s 			page 48


 2679 025a 05        		.uleb128 0x5
 2680 025b 00        		.byte	0x0
 2681 025c 03        		.uleb128 0x3
 2682 025d 0E        		.uleb128 0xe
 2683 025e 3A        		.uleb128 0x3a
 2684 025f 0B        		.uleb128 0xb
 2685 0260 3B        		.uleb128 0x3b
 2686 0261 0B        		.uleb128 0xb
 2687 0262 49        		.uleb128 0x49
 2688 0263 13        		.uleb128 0x13
 2689 0264 02        		.uleb128 0x2
 2690 0265 0A        		.uleb128 0xa
 2691 0266 00        		.byte	0x0
 2692 0267 00        		.byte	0x0
 2693 0268 30        		.uleb128 0x30
 2694 0269 34        		.uleb128 0x34
 2695 026a 00        		.byte	0x0
 2696 026b 03        		.uleb128 0x3
 2697 026c 08        		.uleb128 0x8
 2698 026d 3A        		.uleb128 0x3a
 2699 026e 0B        		.uleb128 0xb
 2700 026f 3B        		.uleb128 0x3b
 2701 0270 0B        		.uleb128 0xb
 2702 0271 49        		.uleb128 0x49
 2703 0272 13        		.uleb128 0x13
 2704 0273 1C        		.uleb128 0x1c
 2705 0274 0B        		.uleb128 0xb
 2706 0275 00        		.byte	0x0
 2707 0276 00        		.byte	0x0
 2708 0277 31        		.uleb128 0x31
 2709 0278 34        		.uleb128 0x34
 2710 0279 00        		.byte	0x0
 2711 027a 03        		.uleb128 0x3
 2712 027b 0E        		.uleb128 0xe
 2713 027c 3A        		.uleb128 0x3a
 2714 027d 0B        		.uleb128 0xb
 2715 027e 3B        		.uleb128 0x3b
 2716 027f 0B        		.uleb128 0xb
 2717 0280 49        		.uleb128 0x49
 2718 0281 13        		.uleb128 0x13
 2719 0282 1C        		.uleb128 0x1c
 2720 0283 0B        		.uleb128 0xb
 2721 0284 00        		.byte	0x0
 2722 0285 00        		.byte	0x0
 2723 0286 32        		.uleb128 0x32
 2724 0287 34        		.uleb128 0x34
 2725 0288 00        		.byte	0x0
 2726 0289 03        		.uleb128 0x3
 2727 028a 0E        		.uleb128 0xe
 2728 028b 3A        		.uleb128 0x3a
 2729 028c 0B        		.uleb128 0xb
 2730 028d 3B        		.uleb128 0x3b
 2731 028e 0B        		.uleb128 0xb
 2732 028f 49        		.uleb128 0x49
 2733 0290 13        		.uleb128 0x13
 2734 0291 02        		.uleb128 0x2
 2735 0292 0A        		.uleb128 0xa
GAS LISTING /var/folders/1s/lqjcb7x5323625d47g9gdgmr0000gp/T//ccJs2JT3.s 			page 49


 2736 0293 00        		.byte	0x0
 2737 0294 00        		.byte	0x0
 2738 0295 00        		.byte	0x0
 2739               		.section	.debug_pubnames,"",@progbits
 2740 0000 3901 0000 		.long	0x139
 2741 0004 0200      		.word	0x2
 2742 0006 0000 0000 		.long	.Ldebug_info0
 2743 000a 9708 0000 		.long	0x897
 2744 000e 8B04 0000 		.long	0x48b
 2745 0012 4950 4164 		.string	"IPAddress::IPAddress"
 2745      6472 6573 
 2745      733A 3A49 
 2745      5041 6464 
 2745      7265 7373 
 2746 0027 C704 0000 		.long	0x4c7
 2747 002b 4950 4164 		.string	"IPAddress::IPAddress"
 2747      6472 6573 
 2747      733A 3A49 
 2747      5041 6464 
 2747      7265 7373 
 2748 0040 5205 0000 		.long	0x552
 2749 0044 4950 4164 		.string	"IPAddress::printTo"
 2749      6472 6573 
 2749      733A 3A70 
 2749      7269 6E74 
 2749      546F 00
 2750 0057 B005 0000 		.long	0x5b0
 2751 005b 4950 4164 		.string	"IPAddress::operator=="
 2751      6472 6573 
 2751      733A 3A6F 
 2751      7065 7261 
 2751      746F 723D 
 2752 0071 E205 0000 		.long	0x5e2
 2753 0075 4950 4164 		.string	"IPAddress::operator="
 2753      6472 6573 
 2753      733A 3A6F 
 2753      7065 7261 
 2753      746F 723D 
 2754 008a 1406 0000 		.long	0x614
 2755 008e 4950 4164 		.string	"IPAddress::operator="
 2755      6472 6573 
 2755      733A 3A6F 
 2755      7065 7261 
 2755      746F 723D 
 2756 00a3 6906 0000 		.long	0x669
 2757 00a7 4950 4164 		.string	"IPAddress::IPAddress"
 2757      6472 6573 
 2757      733A 3A49 
 2757      5041 6464 
 2757      7265 7373 
 2758 00bc 9306 0000 		.long	0x693
 2759 00c0 4950 4164 		.string	"IPAddress::IPAddress"
 2759      6472 6573 
 2759      733A 3A49 
 2759      5041 6464 
 2759      7265 7373 
 2760 00d5 DD06 0000 		.long	0x6dd
GAS LISTING /var/folders/1s/lqjcb7x5323625d47g9gdgmr0000gp/T//ccJs2JT3.s 			page 50


 2761 00d9 4950 4164 		.string	"IPAddress::IPAddress"
 2761      6472 6573 
 2761      733A 3A49 
 2761      5041 6464 
 2761      7265 7373 
 2762 00ee 0407 0000 		.long	0x704
 2763 00f2 4950 4164 		.string	"IPAddress::IPAddress"
 2763      6472 6573 
 2763      733A 3A49 
 2763      5041 6464 
 2763      7265 7373 
 2764 0107 4007 0000 		.long	0x740
 2765 010b 4950 4164 		.string	"IPAddress::IPAddress"
 2765      6472 6573 
 2765      733A 3A49 
 2765      5041 6464 
 2765      7265 7373 
 2766 0120 5E07 0000 		.long	0x75e
 2767 0124 4950 4164 		.string	"IPAddress::IPAddress"
 2767      6472 6573 
 2767      733A 3A49 
 2767      5041 6464 
 2767      7265 7373 
 2768 0139 0000 0000 		.long	0x0
 2769               		.section	.debug_aranges,"",@progbits
 2770 0000 7C00 0000 		.long	0x7c
 2771 0004 0200      		.word	0x2
 2772 0006 0000 0000 		.long	.Ldebug_info0
 2773 000a 04        		.byte	0x4
 2774 000b 00        		.byte	0x0
 2775 000c 0000      		.word	0x0
 2776 000e 0000      		.word	0x0
 2777 0010 0000 0000 		.long	.LFB87
 2778 0014 1800 0000 		.long	.LFE87-.LFB87
 2779 0018 0000 0000 		.long	.LFB88
 2780 001c 1800 0000 		.long	.LFE88-.LFB88
 2781 0020 0000 0000 		.long	.LFB100
 2782 0024 1E00 0000 		.long	.LFE100-.LFB100
 2783 0028 0000 0000 		.long	.LFB98
 2784 002c 8400 0000 		.long	.LFE98-.LFB98
 2785 0030 0000 0000 		.long	.LFB97
 2786 0034 1E00 0000 		.long	.LFE97-.LFB97
 2787 0038 0000 0000 		.long	.LFB96
 2788 003c 2400 0000 		.long	.LFE96-.LFB96
 2789 0040 0000 0000 		.long	.LFB95
 2790 0044 1A00 0000 		.long	.LFE95-.LFB95
 2791 0048 0000 0000 		.long	.LFB94
 2792 004c 2200 0000 		.long	.LFE94-.LFB94
 2793 0050 0000 0000 		.long	.LFB93
 2794 0054 2200 0000 		.long	.LFE93-.LFB93
 2795 0058 0000 0000 		.long	.LFB91
 2796 005c 2C00 0000 		.long	.LFE91-.LFB91
 2797 0060 0000 0000 		.long	.LFB90
 2798 0064 2C00 0000 		.long	.LFE90-.LFB90
 2799 0068 0000 0000 		.long	.LFB85
 2800 006c 1400 0000 		.long	.LFE85-.LFB85
 2801 0070 0000 0000 		.long	.LFB84
GAS LISTING /var/folders/1s/lqjcb7x5323625d47g9gdgmr0000gp/T//ccJs2JT3.s 			page 51


 2802 0074 1400 0000 		.long	.LFE84-.LFB84
 2803 0078 0000 0000 		.long	0x0
 2804 007c 0000 0000 		.long	0x0
 2805               		.section	.debug_ranges,"",@progbits
 2806               	.Ldebug_ranges0:
 2807 0000 0000 0000 		.long	.Ltext0
 2808 0004 0000 0000 		.long	.Letext0
 2809 0008 0000 0000 		.long	.LFB87
 2810 000c 0000 0000 		.long	.LFE87
 2811 0010 0000 0000 		.long	.LFB88
 2812 0014 0000 0000 		.long	.LFE88
 2813 0018 0000 0000 		.long	.LFB100
 2814 001c 0000 0000 		.long	.LFE100
 2815 0020 0000 0000 		.long	.LFB98
 2816 0024 0000 0000 		.long	.LFE98
 2817 0028 0000 0000 		.long	.LFB97
 2818 002c 0000 0000 		.long	.LFE97
 2819 0030 0000 0000 		.long	.LFB96
 2820 0034 0000 0000 		.long	.LFE96
 2821 0038 0000 0000 		.long	.LFB95
 2822 003c 0000 0000 		.long	.LFE95
 2823 0040 0000 0000 		.long	.LFB94
 2824 0044 0000 0000 		.long	.LFE94
 2825 0048 0000 0000 		.long	.LFB93
 2826 004c 0000 0000 		.long	.LFE93
 2827 0050 0000 0000 		.long	.LFB91
 2828 0054 0000 0000 		.long	.LFE91
 2829 0058 0000 0000 		.long	.LFB90
 2830 005c 0000 0000 		.long	.LFE90
 2831 0060 0000 0000 		.long	.LFB85
 2832 0064 0000 0000 		.long	.LFE85
 2833 0068 0000 0000 		.long	.LFB84
 2834 006c 0000 0000 		.long	.LFE84
 2835 0070 0000 0000 		.long	0x0
 2836 0074 0000 0000 		.long	0x0
 2837               		.section	.debug_line
 2838 0000 9A04 0000 		.long	.LELT0-.LSLT0
 2839               	.LSLT0:
 2840 0004 0200      		.word	0x2
 2841 0006 0E02 0000 		.long	.LELTP0-.LASLTP0
 2842               	.LASLTP0:
 2843 000a 01        		.byte	0x1
 2844 000b 01        		.byte	0x1
 2845 000c F6        		.byte	0xf6
 2846 000d F5        		.byte	0xf5
 2847 000e 0A        		.byte	0xa
 2848 000f 00        		.byte	0x0
 2849 0010 01        		.byte	0x1
 2850 0011 01        		.byte	0x1
 2851 0012 01        		.byte	0x1
 2852 0013 01        		.byte	0x1
 2853 0014 00        		.byte	0x0
 2854 0015 00        		.byte	0x0
 2855 0016 00        		.byte	0x0
 2856 0017 01        		.byte	0x1
 2857 0018 2F41 7070 		.ascii	"/Applications/Arduino.app/Contents/Resources/Java/hardware/a"
 2857      6C69 6361 
GAS LISTING /var/folders/1s/lqjcb7x5323625d47g9gdgmr0000gp/T//ccJs2JT3.s 			page 52


 2857      7469 6F6E 
 2857      732F 4172 
 2857      6475 696E 
 2858 0054 7264 7569 		.ascii	"rduino/avr/cores/arduino"
 2858      6E6F 2F61 
 2858      7672 2F63 
 2858      6F72 6573 
 2858      2F61 7264 
 2859 006c 00        		.byte	0
 2860 006d 2F41 7070 		.ascii	"/Applications/Arduino.app/Contents/Resources/Java/hardware/a"
 2860      6C69 6361 
 2860      7469 6F6E 
 2860      732F 4172 
 2860      6475 696E 
 2861 00a9 7264 7569 		.ascii	"rduino/avr/variants/mega"
 2861      6E6F 2F61 
 2861      7672 2F76 
 2861      6172 6961 
 2861      6E74 732F 
 2862 00c1 00        		.byte	0
 2863 00c2 2F41 7070 		.ascii	"/Applications/Arduino.app/Contents/Resources/Java/hardware/t"
 2863      6C69 6361 
 2863      7469 6F6E 
 2863      732F 4172 
 2863      6475 696E 
 2864 00fe 6F6F 6C73 		.ascii	"ools/avr/bin/../lib/gcc/avr/4.3.2/../../../../avr/include"
 2864      2F61 7672 
 2864      2F62 696E 
 2864      2F2E 2E2F 
 2864      6C69 622F 
 2865 0137 00        		.byte	0
 2866 0138 2F41 7070 		.ascii	"/Applications/Arduino.app/Contents/Resources/Java/hardware/t"
 2866      6C69 6361 
 2866      7469 6F6E 
 2866      732F 4172 
 2866      6475 696E 
 2867 0174 6F6F 6C73 		.ascii	"ools/avr/bin/../lib/gcc/avr/4.3.2/include"
 2867      2F61 7672 
 2867      2F62 696E 
 2867      2F2E 2E2F 
 2867      6C69 622F 
 2868 019d 00        		.byte	0
 2869 019e 00        		.byte	0x0
 2870 019f 4950 4164 		.string	"IPAddress.cpp"
 2870      6472 6573 
 2870      732E 6370 
 2870      7000 
 2871 01ad 01        		.uleb128 0x1
 2872 01ae 00        		.uleb128 0x0
 2873 01af 00        		.uleb128 0x0
 2874 01b0 7374 6464 		.string	"stddef.h"
 2874      6566 2E68 
 2874      00
 2875 01b9 04        		.uleb128 0x4
 2876 01ba 00        		.uleb128 0x0
 2877 01bb 00        		.uleb128 0x0
 2878 01bc 7374 6469 		.string	"stdint.h"
GAS LISTING /var/folders/1s/lqjcb7x5323625d47g9gdgmr0000gp/T//ccJs2JT3.s 			page 53


 2878      6E74 2E68 
 2878      00
 2879 01c5 03        		.uleb128 0x3
 2880 01c6 00        		.uleb128 0x0
 2881 01c7 00        		.uleb128 0x0
 2882 01c8 4950 4164 		.string	"IPAddress.h"
 2882      6472 6573 
 2882      732E 6800 
 2883 01d4 01        		.uleb128 0x1
 2884 01d5 00        		.uleb128 0x0
 2885 01d6 00        		.uleb128 0x0
 2886 01d7 5072 696E 		.string	"Printable.h"
 2886      7461 626C 
 2886      652E 6800 
 2887 01e3 01        		.uleb128 0x1
 2888 01e4 00        		.uleb128 0x0
 2889 01e5 00        		.uleb128 0x0
 2890 01e6 7069 6E73 		.string	"pins_arduino.h"
 2890      5F61 7264 
 2890      7569 6E6F 
 2890      2E68 00
 2891 01f5 02        		.uleb128 0x2
 2892 01f6 00        		.uleb128 0x0
 2893 01f7 00        		.uleb128 0x0
 2894 01f8 5072 696E 		.string	"Print.h"
 2894      742E 6800 
 2895 0200 01        		.uleb128 0x1
 2896 0201 00        		.uleb128 0x0
 2897 0202 00        		.uleb128 0x0
 2898 0203 4861 7264 		.string	"HardwareSerial.h"
 2898      7761 7265 
 2898      5365 7269 
 2898      616C 2E68 
 2898      00
 2899 0214 01        		.uleb128 0x1
 2900 0215 00        		.uleb128 0x0
 2901 0216 00        		.uleb128 0x0
 2902 0217 00        		.byte	0x0
 2903               	.LELTP0:
 2904 0218 00        		.byte	0x0
 2905 0219 05        		.uleb128 0x5
 2906 021a 02        		.byte	0x2
 2907 021b 0000 0000 		.long	.Letext0
 2908 021f 00        		.byte	0x0
 2909 0220 01        		.uleb128 0x1
 2910 0221 01        		.byte	0x1
 2911 0222 00        		.byte	0x0
 2912 0223 05        		.uleb128 0x5
 2913 0224 02        		.byte	0x2
 2914 0225 0000 0000 		.long	.LSM0
 2915 0229 1D        		.byte	0x1d
 2916 022a 00        		.byte	0x0
 2917 022b 05        		.uleb128 0x5
 2918 022c 02        		.byte	0x2
 2919 022d 0000 0000 		.long	.LSM1
 2920 0231 01        		.byte	0x1
 2921 0232 00        		.byte	0x0
GAS LISTING /var/folders/1s/lqjcb7x5323625d47g9gdgmr0000gp/T//ccJs2JT3.s 			page 54


 2922 0233 05        		.uleb128 0x5
 2923 0234 02        		.byte	0x2
 2924 0235 0000 0000 		.long	.LSM2
 2925 0239 16        		.byte	0x16
 2926 023a 00        		.byte	0x0
 2927 023b 05        		.uleb128 0x5
 2928 023c 02        		.byte	0x2
 2929 023d 0000 0000 		.long	.LSM3
 2930 0241 15        		.byte	0x15
 2931 0242 00        		.byte	0x0
 2932 0243 05        		.uleb128 0x5
 2933 0244 02        		.byte	0x2
 2934 0245 0000 0000 		.long	.LSM4
 2935 0249 15        		.byte	0x15
 2936 024a 00        		.byte	0x0
 2937 024b 05        		.uleb128 0x5
 2938 024c 02        		.byte	0x2
 2939 024d 0000 0000 		.long	.LSM5
 2940 0251 15        		.byte	0x15
 2941 0252 00        		.byte	0x0
 2942 0253 05        		.uleb128 0x5
 2943 0254 02        		.byte	0x2
 2944 0255 0000 0000 		.long	.LSM6
 2945 0259 15        		.byte	0x15
 2946 025a 00        		.byte	0x0
 2947 025b 05        		.uleb128 0x5
 2948 025c 02        		.byte	0x2
 2949 025d 0000 0000 		.long	.LFE87
 2950 0261 00        		.byte	0x0
 2951 0262 01        		.uleb128 0x1
 2952 0263 01        		.byte	0x1
 2953 0264 00        		.byte	0x0
 2954 0265 05        		.uleb128 0x5
 2955 0266 02        		.byte	0x2
 2956 0267 0000 0000 		.long	.LSM7
 2957 026b 1D        		.byte	0x1d
 2958 026c 00        		.byte	0x0
 2959 026d 05        		.uleb128 0x5
 2960 026e 02        		.byte	0x2
 2961 026f 0000 0000 		.long	.LSM8
 2962 0273 01        		.byte	0x1
 2963 0274 00        		.byte	0x0
 2964 0275 05        		.uleb128 0x5
 2965 0276 02        		.byte	0x2
 2966 0277 0000 0000 		.long	.LSM9
 2967 027b 16        		.byte	0x16
 2968 027c 00        		.byte	0x0
 2969 027d 05        		.uleb128 0x5
 2970 027e 02        		.byte	0x2
 2971 027f 0000 0000 		.long	.LSM10
 2972 0283 15        		.byte	0x15
 2973 0284 00        		.byte	0x0
 2974 0285 05        		.uleb128 0x5
 2975 0286 02        		.byte	0x2
 2976 0287 0000 0000 		.long	.LSM11
 2977 028b 15        		.byte	0x15
 2978 028c 00        		.byte	0x0
GAS LISTING /var/folders/1s/lqjcb7x5323625d47g9gdgmr0000gp/T//ccJs2JT3.s 			page 55


 2979 028d 05        		.uleb128 0x5
 2980 028e 02        		.byte	0x2
 2981 028f 0000 0000 		.long	.LSM12
 2982 0293 15        		.byte	0x15
 2983 0294 00        		.byte	0x0
 2984 0295 05        		.uleb128 0x5
 2985 0296 02        		.byte	0x2
 2986 0297 0000 0000 		.long	.LSM13
 2987 029b 15        		.byte	0x15
 2988 029c 00        		.byte	0x0
 2989 029d 05        		.uleb128 0x5
 2990 029e 02        		.byte	0x2
 2991 029f 0000 0000 		.long	.LFE88
 2992 02a3 00        		.byte	0x0
 2993 02a4 01        		.uleb128 0x1
 2994 02a5 01        		.byte	0x1
 2995 02a6 00        		.byte	0x0
 2996 02a7 05        		.uleb128 0x5
 2997 02a8 02        		.byte	0x2
 2998 02a9 0000 0000 		.long	.LSM14
 2999 02ad 4A        		.byte	0x4a
 3000 02ae 00        		.byte	0x0
 3001 02af 05        		.uleb128 0x5
 3002 02b0 02        		.byte	0x2
 3003 02b1 0000 0000 		.long	.LSM15
 3004 02b5 03        		.byte	0x3
 3005 02b6 53        		.sleb128 -45
 3006 02b7 01        		.byte	0x1
 3007 02b8 00        		.byte	0x0
 3008 02b9 05        		.uleb128 0x5
 3009 02ba 02        		.byte	0x2
 3010 02bb 0000 0000 		.long	.LSM16
 3011 02bf 16        		.byte	0x16
 3012 02c0 00        		.byte	0x0
 3013 02c1 05        		.uleb128 0x5
 3014 02c2 02        		.byte	0x2
 3015 02c3 0000 0000 		.long	.LSM17
 3016 02c7 15        		.byte	0x15
 3017 02c8 00        		.byte	0x0
 3018 02c9 05        		.uleb128 0x5
 3019 02ca 02        		.byte	0x2
 3020 02cb 0000 0000 		.long	.LSM18
 3021 02cf 15        		.byte	0x15
 3022 02d0 00        		.byte	0x0
 3023 02d1 05        		.uleb128 0x5
 3024 02d2 02        		.byte	0x2
 3025 02d3 0000 0000 		.long	.LSM19
 3026 02d7 15        		.byte	0x15
 3027 02d8 00        		.byte	0x0
 3028 02d9 05        		.uleb128 0x5
 3029 02da 02        		.byte	0x2
 3030 02db 0000 0000 		.long	.LSM20
 3031 02df 3C        		.byte	0x3c
 3032 02e0 00        		.byte	0x0
 3033 02e1 05        		.uleb128 0x5
 3034 02e2 02        		.byte	0x2
 3035 02e3 0000 0000 		.long	.LFE100
GAS LISTING /var/folders/1s/lqjcb7x5323625d47g9gdgmr0000gp/T//ccJs2JT3.s 			page 56


 3036 02e7 00        		.byte	0x0
 3037 02e8 01        		.uleb128 0x1
 3038 02e9 01        		.byte	0x1
 3039 02ea 00        		.byte	0x0
 3040 02eb 05        		.uleb128 0x5
 3041 02ec 02        		.byte	0x2
 3042 02ed 0000 0000 		.long	.LSM21
 3043 02f1 40        		.byte	0x40
 3044 02f2 00        		.byte	0x0
 3045 02f3 05        		.uleb128 0x5
 3046 02f4 02        		.byte	0x2
 3047 02f5 0000 0000 		.long	.LSM22
 3048 02f9 01        		.byte	0x1
 3049 02fa 00        		.byte	0x0
 3050 02fb 05        		.uleb128 0x5
 3051 02fc 02        		.byte	0x2
 3052 02fd 0000 0000 		.long	.LSM23
 3053 0301 19        		.byte	0x19
 3054 0302 00        		.byte	0x0
 3055 0303 05        		.uleb128 0x5
 3056 0304 02        		.byte	0x2
 3057 0305 0000 0000 		.long	.LSM24
 3058 0309 15        		.byte	0x15
 3059 030a 00        		.byte	0x0
 3060 030b 05        		.uleb128 0x5
 3061 030c 02        		.byte	0x2
 3062 030d 0000 0000 		.long	.LSM25
 3063 0311 13        		.byte	0x13
 3064 0312 00        		.byte	0x0
 3065 0313 05        		.uleb128 0x5
 3066 0314 02        		.byte	0x2
 3067 0315 0000 0000 		.long	.LSM26
 3068 0319 15        		.byte	0x15
 3069 031a 00        		.byte	0x0
 3070 031b 05        		.uleb128 0x5
 3071 031c 02        		.byte	0x2
 3072 031d 0000 0000 		.long	.LSM27
 3073 0321 11        		.byte	0x11
 3074 0322 00        		.byte	0x0
 3075 0323 05        		.uleb128 0x5
 3076 0324 02        		.byte	0x2
 3077 0325 0000 0000 		.long	.LSM28
 3078 0329 19        		.byte	0x19
 3079 032a 00        		.byte	0x0
 3080 032b 05        		.uleb128 0x5
 3081 032c 02        		.byte	0x2
 3082 032d 0000 0000 		.long	.LSM29
 3083 0331 16        		.byte	0x16
 3084 0332 00        		.byte	0x0
 3085 0333 05        		.uleb128 0x5
 3086 0334 02        		.byte	0x2
 3087 0335 0000 0000 		.long	.LFE98
 3088 0339 00        		.byte	0x0
 3089 033a 01        		.uleb128 0x1
 3090 033b 01        		.byte	0x1
 3091 033c 00        		.byte	0x0
 3092 033d 05        		.uleb128 0x5
GAS LISTING /var/folders/1s/lqjcb7x5323625d47g9gdgmr0000gp/T//ccJs2JT3.s 			page 57


 3093 033e 02        		.byte	0x2
 3094 033f 0000 0000 		.long	.LSM30
 3095 0343 3B        		.byte	0x3b
 3096 0344 00        		.byte	0x0
 3097 0345 05        		.uleb128 0x5
 3098 0346 02        		.byte	0x2
 3099 0347 0000 0000 		.long	.LSM31
 3100 034b 16        		.byte	0x16
 3101 034c 00        		.byte	0x0
 3102 034d 05        		.uleb128 0x5
 3103 034e 02        		.byte	0x2
 3104 034f 0000 0000 		.long	.LSM32
 3105 0353 15        		.byte	0x15
 3106 0354 00        		.byte	0x0
 3107 0355 05        		.uleb128 0x5
 3108 0356 02        		.byte	0x2
 3109 0357 0000 0000 		.long	.LFE97
 3110 035b 00        		.byte	0x0
 3111 035c 01        		.uleb128 0x1
 3112 035d 01        		.byte	0x1
 3113 035e 00        		.byte	0x0
 3114 035f 05        		.uleb128 0x5
 3115 0360 02        		.byte	0x2
 3116 0361 0000 0000 		.long	.LSM33
 3117 0365 35        		.byte	0x35
 3118 0366 00        		.byte	0x0
 3119 0367 05        		.uleb128 0x5
 3120 0368 02        		.byte	0x2
 3121 0369 0000 0000 		.long	.LSM34
 3122 036d 16        		.byte	0x16
 3123 036e 00        		.byte	0x0
 3124 036f 05        		.uleb128 0x5
 3125 0370 02        		.byte	0x2
 3126 0371 0000 0000 		.long	.LSM35
 3127 0375 16        		.byte	0x16
 3128 0376 00        		.byte	0x0
 3129 0377 05        		.uleb128 0x5
 3130 0378 02        		.byte	0x2
 3131 0379 0000 0000 		.long	.LFE96
 3132 037d 00        		.byte	0x0
 3133 037e 01        		.uleb128 0x1
 3134 037f 01        		.byte	0x1
 3135 0380 00        		.byte	0x0
 3136 0381 05        		.uleb128 0x5
 3137 0382 02        		.byte	0x2
 3138 0383 0000 0000 		.long	.LSM36
 3139 0387 2F        		.byte	0x2f
 3140 0388 00        		.byte	0x0
 3141 0389 05        		.uleb128 0x5
 3142 038a 02        		.byte	0x2
 3143 038b 0000 0000 		.long	.LSM37
 3144 038f 16        		.byte	0x16
 3145 0390 00        		.byte	0x0
 3146 0391 05        		.uleb128 0x5
 3147 0392 02        		.byte	0x2
 3148 0393 0000 0000 		.long	.LSM38
 3149 0397 16        		.byte	0x16
GAS LISTING /var/folders/1s/lqjcb7x5323625d47g9gdgmr0000gp/T//ccJs2JT3.s 			page 58


 3150 0398 00        		.byte	0x0
 3151 0399 05        		.uleb128 0x5
 3152 039a 02        		.byte	0x2
 3153 039b 0000 0000 		.long	.LFE95
 3154 039f 00        		.byte	0x0
 3155 03a0 01        		.uleb128 0x1
 3156 03a1 01        		.byte	0x1
 3157 03a2 00        		.byte	0x0
 3158 03a3 05        		.uleb128 0x5
 3159 03a4 02        		.byte	0x2
 3160 03a5 0000 0000 		.long	.LSM39
 3161 03a9 2A        		.byte	0x2a
 3162 03aa 00        		.byte	0x0
 3163 03ab 05        		.uleb128 0x5
 3164 03ac 02        		.byte	0x2
 3165 03ad 0000 0000 		.long	.LSM40
 3166 03b1 01        		.byte	0x1
 3167 03b2 00        		.byte	0x0
 3168 03b3 05        		.uleb128 0x5
 3169 03b4 02        		.byte	0x2
 3170 03b5 0000 0000 		.long	.LSM41
 3171 03b9 16        		.byte	0x16
 3172 03ba 00        		.byte	0x0
 3173 03bb 05        		.uleb128 0x5
 3174 03bc 02        		.byte	0x2
 3175 03bd 0000 0000 		.long	.LSM42
 3176 03c1 15        		.byte	0x15
 3177 03c2 00        		.byte	0x0
 3178 03c3 05        		.uleb128 0x5
 3179 03c4 02        		.byte	0x2
 3180 03c5 0000 0000 		.long	.LFE94
 3181 03c9 00        		.byte	0x0
 3182 03ca 01        		.uleb128 0x1
 3183 03cb 01        		.byte	0x1
 3184 03cc 00        		.byte	0x0
 3185 03cd 05        		.uleb128 0x5
 3186 03ce 02        		.byte	0x2
 3187 03cf 0000 0000 		.long	.LSM43
 3188 03d3 2A        		.byte	0x2a
 3189 03d4 00        		.byte	0x0
 3190 03d5 05        		.uleb128 0x5
 3191 03d6 02        		.byte	0x2
 3192 03d7 0000 0000 		.long	.LSM44
 3193 03db 01        		.byte	0x1
 3194 03dc 00        		.byte	0x0
 3195 03dd 05        		.uleb128 0x5
 3196 03de 02        		.byte	0x2
 3197 03df 0000 0000 		.long	.LSM45
 3198 03e3 16        		.byte	0x16
 3199 03e4 00        		.byte	0x0
 3200 03e5 05        		.uleb128 0x5
 3201 03e6 02        		.byte	0x2
 3202 03e7 0000 0000 		.long	.LSM46
 3203 03eb 15        		.byte	0x15
 3204 03ec 00        		.byte	0x0
 3205 03ed 05        		.uleb128 0x5
 3206 03ee 02        		.byte	0x2
GAS LISTING /var/folders/1s/lqjcb7x5323625d47g9gdgmr0000gp/T//ccJs2JT3.s 			page 59


 3207 03ef 0000 0000 		.long	.LFE93
 3208 03f3 00        		.byte	0x0
 3209 03f4 01        		.uleb128 0x1
 3210 03f5 01        		.byte	0x1
 3211 03f6 00        		.byte	0x0
 3212 03f7 05        		.uleb128 0x5
 3213 03f8 02        		.byte	0x2
 3214 03f9 0000 0000 		.long	.LSM47
 3215 03fd 25        		.byte	0x25
 3216 03fe 00        		.byte	0x0
 3217 03ff 05        		.uleb128 0x5
 3218 0400 02        		.byte	0x2
 3219 0401 0000 0000 		.long	.LSM48
 3220 0405 01        		.byte	0x1
 3221 0406 00        		.byte	0x0
 3222 0407 05        		.uleb128 0x5
 3223 0408 02        		.byte	0x2
 3224 0409 0000 0000 		.long	.LSM49
 3225 040d 16        		.byte	0x16
 3226 040e 00        		.byte	0x0
 3227 040f 05        		.uleb128 0x5
 3228 0410 02        		.byte	0x2
 3229 0411 0000 0000 		.long	.LSM50
 3230 0415 15        		.byte	0x15
 3231 0416 00        		.byte	0x0
 3232 0417 05        		.uleb128 0x5
 3233 0418 02        		.byte	0x2
 3234 0419 0000 0000 		.long	.LFE91
 3235 041d 00        		.byte	0x0
 3236 041e 01        		.uleb128 0x1
 3237 041f 01        		.byte	0x1
 3238 0420 00        		.byte	0x0
 3239 0421 05        		.uleb128 0x5
 3240 0422 02        		.byte	0x2
 3241 0423 0000 0000 		.long	.LSM51
 3242 0427 25        		.byte	0x25
 3243 0428 00        		.byte	0x0
 3244 0429 05        		.uleb128 0x5
 3245 042a 02        		.byte	0x2
 3246 042b 0000 0000 		.long	.LSM52
 3247 042f 01        		.byte	0x1
 3248 0430 00        		.byte	0x0
 3249 0431 05        		.uleb128 0x5
 3250 0432 02        		.byte	0x2
 3251 0433 0000 0000 		.long	.LSM53
 3252 0437 16        		.byte	0x16
 3253 0438 00        		.byte	0x0
 3254 0439 05        		.uleb128 0x5
 3255 043a 02        		.byte	0x2
 3256 043b 0000 0000 		.long	.LSM54
 3257 043f 15        		.byte	0x15
 3258 0440 00        		.byte	0x0
 3259 0441 05        		.uleb128 0x5
 3260 0442 02        		.byte	0x2
 3261 0443 0000 0000 		.long	.LFE90
 3262 0447 00        		.byte	0x0
 3263 0448 01        		.uleb128 0x1
GAS LISTING /var/folders/1s/lqjcb7x5323625d47g9gdgmr0000gp/T//ccJs2JT3.s 			page 60


 3264 0449 01        		.byte	0x1
 3265 044a 00        		.byte	0x0
 3266 044b 05        		.uleb128 0x5
 3267 044c 02        		.byte	0x2
 3268 044d 0000 0000 		.long	.LSM55
 3269 0451 18        		.byte	0x18
 3270 0452 00        		.byte	0x0
 3271 0453 05        		.uleb128 0x5
 3272 0454 02        		.byte	0x2
 3273 0455 0000 0000 		.long	.LSM56
 3274 0459 01        		.byte	0x1
 3275 045a 00        		.byte	0x0
 3276 045b 05        		.uleb128 0x5
 3277 045c 02        		.byte	0x2
 3278 045d 0000 0000 		.long	.LSM57
 3279 0461 16        		.byte	0x16
 3280 0462 00        		.byte	0x0
 3281 0463 05        		.uleb128 0x5
 3282 0464 02        		.byte	0x2
 3283 0465 0000 0000 		.long	.LSM58
 3284 0469 15        		.byte	0x15
 3285 046a 00        		.byte	0x0
 3286 046b 05        		.uleb128 0x5
 3287 046c 02        		.byte	0x2
 3288 046d 0000 0000 		.long	.LFE85
 3289 0471 00        		.byte	0x0
 3290 0472 01        		.uleb128 0x1
 3291 0473 01        		.byte	0x1
 3292 0474 00        		.byte	0x0
 3293 0475 05        		.uleb128 0x5
 3294 0476 02        		.byte	0x2
 3295 0477 0000 0000 		.long	.LSM59
 3296 047b 18        		.byte	0x18
 3297 047c 00        		.byte	0x0
 3298 047d 05        		.uleb128 0x5
 3299 047e 02        		.byte	0x2
 3300 047f 0000 0000 		.long	.LSM60
 3301 0483 01        		.byte	0x1
 3302 0484 00        		.byte	0x0
 3303 0485 05        		.uleb128 0x5
 3304 0486 02        		.byte	0x2
 3305 0487 0000 0000 		.long	.LSM61
 3306 048b 16        		.byte	0x16
 3307 048c 00        		.byte	0x0
 3308 048d 05        		.uleb128 0x5
 3309 048e 02        		.byte	0x2
 3310 048f 0000 0000 		.long	.LSM62
 3311 0493 15        		.byte	0x15
 3312 0494 00        		.byte	0x0
 3313 0495 05        		.uleb128 0x5
 3314 0496 02        		.byte	0x2
 3315 0497 0000 0000 		.long	.LFE84
 3316 049b 00        		.byte	0x0
 3317 049c 01        		.uleb128 0x1
 3318 049d 01        		.byte	0x1
 3319               	.LELT0:
 3320 049e 1900 0000 		.section	.debug_str,"MS",@progbits,1
GAS LISTING /var/folders/1s/lqjcb7x5323625d47g9gdgmr0000gp/T//ccJs2JT3.s 			page 61


 3320      0200 1300 
 3320      0000 0101 
 3320      FB0E 0D00 
 3320      0101 0101 
 3321               	.LASF3:
 3322 0000 7369 7A65 		.string	"size_t"
 3322      5F74 00
 3323               	.LASF48:
 3324 0007 5F5A 4E35 		.string	"_ZN5Print5writeEPKhj"
 3324      5072 696E 
 3324      7435 7772 
 3324      6974 6545 
 3324      504B 686A 
 3325               	.LASF54:
 3326 001c 5F5F 7374 		.string	"__static_initialization_and_destruction_0"
 3326      6174 6963 
 3326      5F69 6E69 
 3326      7469 616C 
 3326      697A 6174 
 3327               	.LASF9:
 3328 0046 6C6F 6E67 		.string	"long long unsigned int"
 3328      206C 6F6E 
 3328      6720 756E 
 3328      7369 676E 
 3328      6564 2069 
 3329               	.LASF38:
 3330 005d 6164 6472 		.string	"addr"
 3330      00
 3331               	.LASF44:
 3332 0062 474E 5520 		.string	"GNU C++ 4.3.2"
 3332      432B 2B20 
 3332      342E 332E 
 3332      3200 
 3333               	.LASF24:
 3334 0070 5F5A 4E39 		.string	"_ZN9IPAddressaSERKS_"
 3334      4950 4164 
 3334      6472 6573 
 3334      7361 5345 
 3334      524B 535F 
 3335               	.LASF8:
 3336 0085 6C6F 6E67 		.string	"long long int"
 3336      206C 6F6E 
 3336      6720 696E 
 3336      7400 
 3337               	.LASF2:
 3338 0093 7369 676E 		.string	"signed char"
 3338      6564 2063 
 3338      6861 7200 
 3339               	.LASF55:
 3340 009f 5F47 4C4F 		.string	"_GLOBAL__I__ZN9IPAddressC2Ev"
 3340      4241 4C5F 
 3340      5F49 5F5F 
 3340      5A4E 3949 
 3340      5041 6464 
 3341               	.LASF14:
 3342 00bc 5F5A 4E39 		.string	"_ZN9IPAddresscvmEv"
 3342      4950 4164 
GAS LISTING /var/folders/1s/lqjcb7x5323625d47g9gdgmr0000gp/T//ccJs2JT3.s 			page 62


 3342      6472 6573 
 3342      7363 766D 
 3342      4576 00
 3343               	.LASF35:
 3344 00cf 666F 7572 		.string	"fourth_octet"
 3344      7468 5F6F 
 3344      6374 6574 
 3344      00
 3345               	.LASF34:
 3346 00dc 7468 6972 		.string	"third_octet"
 3346      645F 6F63 
 3346      7465 7400 
 3347               	.LASF33:
 3348 00e8 7365 636F 		.string	"second_octet"
 3348      6E64 5F6F 
 3348      6374 6574 
 3348      00
 3349               	.LASF1:
 3350 00f5 6C6F 6E67 		.string	"long int"
 3350      2069 6E74 
 3350      00
 3351               	.LASF50:
 3352 00fe 7261 775F 		.string	"raw_address"
 3352      6164 6472 
 3352      6573 7300 
 3353               	.LASF31:
 3354 010a 7468 6973 		.string	"this"
 3354      00
 3355               	.LASF51:
 3356 010f 5F5A 4E39 		.string	"_ZN9IPAddress11raw_addressEv"
 3356      4950 4164 
 3356      6472 6573 
 3356      7331 3172 
 3356      6177 5F61 
 3357               	.LASF36:
 3358 012c 5F5F 696E 		.string	"__initialize_p"
 3358      6974 6961 
 3358      6C69 7A65 
 3358      5F70 00
 3359               	.LASF53:
 3360 013b 5F5F 7674 		.string	"__vtbl_ptr_type"
 3360      626C 5F70 
 3360      7472 5F74 
 3360      7970 6500 
 3361               	.LASF0:
 3362 014b 756E 7369 		.string	"unsigned int"
 3362      676E 6564 
 3362      2069 6E74 
 3362      00
 3363               	.LASF22:
 3364 0158 5F5A 4E39 		.string	"_ZN9IPAddressaSEm"
 3364      4950 4164 
 3364      6472 6573 
 3364      7361 5345 
 3364      6D00 
 3365               	.LASF7:
 3366 016a 6C6F 6E67 		.string	"long unsigned int"
GAS LISTING /var/folders/1s/lqjcb7x5323625d47g9gdgmr0000gp/T//ccJs2JT3.s 			page 63


 3366      2075 6E73 
 3366      6967 6E65 
 3366      6420 696E 
 3366      7400 
 3367               	.LASF23:
 3368 017c 5072 696E 		.string	"Printable"
 3368      7461 626C 
 3368      6500 
 3369               	.LASF49:
 3370 0186 5F61 6464 		.string	"_address"
 3370      7265 7373 
 3370      00
 3371               	.LASF18:
 3372 018f 5F5A 4E4B 		.string	"_ZNK9IPAddressixEi"
 3372      3949 5041 
 3372      6464 7265 
 3372      7373 6978 
 3372      4569 00
 3373               	.LASF29:
 3374 01a2 626F 6F6C 		.string	"bool"
 3374      00
 3375               	.LASF13:
 3376 01a7 6F70 6572 		.string	"operator=="
 3376      6174 6F72 
 3376      3D3D 00
 3377               	.LASF47:
 3378 01b2 7772 6974 		.string	"write"
 3378      6500 
 3379               	.LASF39:
 3380 01b8 6164 6472 		.string	"address"
 3380      6573 7300 
 3381               	.LASF26:
 3382 01c0 7072 696E 		.string	"printTo"
 3382      7454 6F00 
 3383               	.LASF11:
 3384 01c8 4950 4164 		.string	"IPAddress"
 3384      6472 6573 
 3384      7300 
 3385               	.LASF42:
 3386 01d2 4C45 445F 		.string	"LED_BUILTIN"
 3386      4255 494C 
 3386      5449 4E00 
 3387               	.LASF28:
 3388 01de 5F5A 4E4B 		.string	"_ZNK9Printable7printToER5Print"
 3388      3950 7269 
 3388      6E74 6162 
 3388      6C65 3770 
 3388      7269 6E74 
 3389               	.LASF30:
 3390 01fd 666C 6F61 		.string	"float"
 3390      7400 
 3391               	.LASF41:
 3392 0203 4D49 534F 		.string	"MISO"
 3392      00
 3393               	.LASF5:
 3394 0208 756E 7369 		.string	"unsigned char"
 3394      676E 6564 
GAS LISTING /var/folders/1s/lqjcb7x5323625d47g9gdgmr0000gp/T//ccJs2JT3.s 			page 64


 3394      2063 6861 
 3394      7200 
 3395               	.LASF20:
 3396 0216 6F70 6572 		.string	"operator="
 3396      6174 6F72 
 3396      3D00 
 3397               	.LASF32:
 3398 0220 6669 7273 		.string	"first_octet"
 3398      745F 6F63 
 3398      7465 7400 
 3399               	.LASF12:
 3400 022c 6F70 6572 		.string	"operator uint32_t"
 3400      6174 6F72 
 3400      2075 696E 
 3400      7433 325F 
 3400      7400 
 3401               	.LASF6:
 3402 023e 7569 6E74 		.string	"uint32_t"
 3402      3332 5F74 
 3402      00
 3403               	.LASF10:
 3404 0247 6368 6172 		.string	"char"
 3404      00
 3405               	.LASF43:
 3406 024c 494E 4144 		.string	"INADDR_NONE"
 3406      4452 5F4E 
 3406      4F4E 4500 
 3407               	.LASF52:
 3408 0258 5F76 7074 		.string	"_vptr.Printable"
 3408      722E 5072 
 3408      696E 7461 
 3408      626C 6500 
 3409               	.LASF19:
 3410 0268 5F5A 4E39 		.string	"_ZN9IPAddressixEi"
 3410      4950 4164 
 3410      6472 6573 
 3410      7369 7845 
 3410      6900 
 3411               	.LASF40:
 3412 027a 4D4F 5349 		.string	"MOSI"
 3412      00
 3413               	.LASF27:
 3414 027f 5F5A 4E4B 		.string	"_ZNK9IPAddress7printToER5Print"
 3414      3949 5041 
 3414      6464 7265 
 3414      7373 3770 
 3414      7269 6E74 
 3415               	.LASF21:
 3416 029e 5F5A 4E39 		.string	"_ZN9IPAddressaSEPKh"
 3416      4950 4164 
 3416      6472 6573 
 3416      7361 5345 
 3416      504B 6800 
 3417               	.LASF45:
 3418 02b2 2F41 7070 		.ascii	"/Applications/Arduino.app/Contents"
 3418      6C69 6361 
 3418      7469 6F6E 
GAS LISTING /var/folders/1s/lqjcb7x5323625d47g9gdgmr0000gp/T//ccJs2JT3.s 			page 65


 3418      732F 4172 
 3418      6475 696E 
 3419 02d4 2F52 6573 		.string	"/Resources/Java/hardware/arduino/avr/cores/arduino/IPAddress.cpp"
 3419      6F75 7263 
 3419      6573 2F4A 
 3419      6176 612F 
 3419      6861 7264 
 3420               	.LASF15:
 3421 0315 5F5A 4E39 		.string	"_ZN9IPAddresseqERKS_"
 3421      4950 4164 
 3421      6472 6573 
 3421      7365 7145 
 3421      524B 535F 
 3422               	.LASF46:
 3423 032a 5072 696E 		.string	"Print"
 3423      7400 
 3424               	.LASF4:
 3425 0330 7569 6E74 		.string	"uint8_t"
 3425      385F 7400 
 3426               	.LASF17:
 3427 0338 6F70 6572 		.string	"operator[]"
 3427      6174 6F72 
 3427      5B5D 00
 3428               	.LASF16:
 3429 0343 5F5A 4E39 		.string	"_ZN9IPAddresseqEPKh"
 3429      4950 4164 
 3429      6472 6573 
 3429      7365 7145 
 3429      504B 6800 
 3430               	.LASF37:
 3431 0357 5F5F 7072 		.string	"__priority"
 3431      696F 7269 
 3431      7479 00
 3432               	.LASF25:
 3433 0362 5F5A 4E39 		.string	"_ZN9PrintableaSERKS_"
 3433      5072 696E 
 3433      7461 626C 
 3433      6561 5345 
 3433      524B 535F 
GAS LISTING /var/folders/1s/lqjcb7x5323625d47g9gdgmr0000gp/T//ccJs2JT3.s 			page 66


DEFINED SYMBOLS
                            *ABS*:00000000 IPAddress.cpp
/var/folders/1s/lqjcb7x5323625d47g9gdgmr0000gp/T//ccJs2JT3.s:2      *ABS*:0000003f __SREG__
/var/folders/1s/lqjcb7x5323625d47g9gdgmr0000gp/T//ccJs2JT3.s:3      *ABS*:0000003e __SP_H__
/var/folders/1s/lqjcb7x5323625d47g9gdgmr0000gp/T//ccJs2JT3.s:4      *ABS*:0000003d __SP_L__
/var/folders/1s/lqjcb7x5323625d47g9gdgmr0000gp/T//ccJs2JT3.s:5      *ABS*:00000034 __CCP__
/var/folders/1s/lqjcb7x5323625d47g9gdgmr0000gp/T//ccJs2JT3.s:6      *ABS*:00000000 __tmp_reg__
/var/folders/1s/lqjcb7x5323625d47g9gdgmr0000gp/T//ccJs2JT3.s:7      *ABS*:00000001 __zero_reg__
/var/folders/1s/lqjcb7x5323625d47g9gdgmr0000gp/T//ccJs2JT3.s:21     .text._ZN9IPAddressC2Ehhhh:00000000 _ZN9IPAddressC2Ehhhh
/var/folders/1s/lqjcb7x5323625d47g9gdgmr0000gp/T//ccJs2JT3.s:528    .rodata._ZTV9IPAddress:00000000 _ZTV9IPAddress
/var/folders/1s/lqjcb7x5323625d47g9gdgmr0000gp/T//ccJs2JT3.s:57     .text._ZN9IPAddressC1Ehhhh:00000000 _ZN9IPAddressC1Ehhhh
/var/folders/1s/lqjcb7x5323625d47g9gdgmr0000gp/T//ccJs2JT3.s:92     .text._GLOBAL__I__ZN9IPAddressC2Ev:00000000 _GLOBAL__I__ZN9IPAddressC2Ev
/var/folders/1s/lqjcb7x5323625d47g9gdgmr0000gp/T//ccJs2JT3.s:535    .bss._ZL11INADDR_NONE:00000000 _ZL11INADDR_NONE
/var/folders/1s/lqjcb7x5323625d47g9gdgmr0000gp/T//ccJs2JT3.s:131    .text._ZNK9IPAddress7printToER5Print:00000000 _ZNK9IPAddress7printToER5Print
/var/folders/1s/lqjcb7x5323625d47g9gdgmr0000gp/T//ccJs2JT3.s:226    .text._ZN9IPAddresseqEPKh:00000000 _ZN9IPAddresseqEPKh
/var/folders/1s/lqjcb7x5323625d47g9gdgmr0000gp/T//ccJs2JT3.s:256    .text._ZN9IPAddressaSEm:00000000 _ZN9IPAddressaSEm
/var/folders/1s/lqjcb7x5323625d47g9gdgmr0000gp/T//ccJs2JT3.s:290    .text._ZN9IPAddressaSEPKh:00000000 _ZN9IPAddressaSEPKh
/var/folders/1s/lqjcb7x5323625d47g9gdgmr0000gp/T//ccJs2JT3.s:319    .text._ZN9IPAddressC1EPKh:00000000 _ZN9IPAddressC1EPKh
/var/folders/1s/lqjcb7x5323625d47g9gdgmr0000gp/T//ccJs2JT3.s:354    .text._ZN9IPAddressC2EPKh:00000000 _ZN9IPAddressC2EPKh
/var/folders/1s/lqjcb7x5323625d47g9gdgmr0000gp/T//ccJs2JT3.s:389    .text._ZN9IPAddressC1Em:00000000 _ZN9IPAddressC1Em
/var/folders/1s/lqjcb7x5323625d47g9gdgmr0000gp/T//ccJs2JT3.s:430    .text._ZN9IPAddressC2Em:00000000 _ZN9IPAddressC2Em
/var/folders/1s/lqjcb7x5323625d47g9gdgmr0000gp/T//ccJs2JT3.s:471    .text._ZN9IPAddressC1Ev:00000000 _ZN9IPAddressC1Ev
/var/folders/1s/lqjcb7x5323625d47g9gdgmr0000gp/T//ccJs2JT3.s:499    .text._ZN9IPAddressC2Ev:00000000 _ZN9IPAddressC2Ev
/var/folders/1s/lqjcb7x5323625d47g9gdgmr0000gp/T//ccJs2JT3.s:541    .rodata._ZTV9Printable:00000000 _ZTV9Printable

UNDEFINED SYMBOLS
__do_copy_data
__do_clear_bss
__do_global_ctors
_ZN5Print5printEhi
_ZN5Print5printEc
memcmp
__cxa_pure_virtual
