GAS LISTING /var/folders/1s/lqjcb7x5323625d47g9gdgmr0000gp/T//ccjAkA1o.s 			page 1


   1               		.file	"WInterrupts.c"
   2               	__SREG__ = 0x3f
   3               	__SP_H__ = 0x3e
   4               	__SP_L__ = 0x3d
   5               	__CCP__  = 0x34
   6               	__tmp_reg__ = 0
   7               	__zero_reg__ = 1
   8               		.global __do_copy_data
   9               		.global __do_clear_bss
  10               		.section	.debug_abbrev,"",@progbits
  11               	.Ldebug_abbrev0:
  12               		.section	.debug_info,"",@progbits
  13               	.Ldebug_info0:
  14               		.section	.debug_line,"",@progbits
  15               	.Ldebug_line0:
  16               		.text
  17               	.Ltext0:
  18               		.section	.text.attachInterrupt,"ax",@progbits
  19               	.global	attachInterrupt
  20               		.type	attachInterrupt, @function
  21               	attachInterrupt:
  22               	.LFB75:
  23               	.LSM0:
  24               	.LVL0:
  25               	/* prologue: function */
  26               	/* frame size = 0 */
  27               	.LSM1:
  28 0000 8830      		cpi r24,lo8(8)
  29 0002 00F0      		brlo .+2
  30 0004 00C0      		rjmp .L12
  31               	.LSM2:
  32 0006 E82F      		mov r30,r24
  33 0008 F0E0      		ldi r31,lo8(0)
  34 000a EE0F      		lsl r30
  35 000c FF1F      		rol r31
  36 000e E050      		subi r30,lo8(-(_ZL7intFunc))
  37 0010 F040      		sbci r31,hi8(-(_ZL7intFunc))
  38 0012 7183      		std Z+1,r23
  39 0014 6083      		st Z,r22
  40               	.LSM3:
  41 0016 8330      		cpi r24,lo8(3)
  42 0018 01F0      		breq .L6
  43 001a 8430      		cpi r24,lo8(4)
  44 001c 00F4      		brsh .L11
  45 001e 8130      		cpi r24,lo8(1)
  46 0020 01F4      		brne .+2
  47 0022 00C0      		rjmp .L4
  48 0024 8230      		cpi r24,lo8(2)
  49 0026 00F4      		brsh .L5
  50 0028 00C0      		rjmp .L14
  51               	.L11:
  52 002a 8530      		cpi r24,lo8(5)
  53 002c 01F0      		breq .L8
  54 002e 8530      		cpi r24,lo8(5)
  55 0030 00F0      		brlo .L7
  56 0032 8630      		cpi r24,lo8(6)
  57 0034 01F4      		brne .+2
GAS LISTING /var/folders/1s/lqjcb7x5323625d47g9gdgmr0000gp/T//ccjAkA1o.s 			page 2


  58 0036 00C0      		rjmp .L9
  59 0038 8730      		cpi r24,lo8(7)
  60 003a 01F0      		breq .+2
  61 003c 00C0      		rjmp .L12
  62 003e 00C0      		rjmp .L15
  63               	.L5:
  64               	.LSM4:
  65 0040 8091 6900 		lds r24,105
  66               	.LVL1:
  67 0044 8C7F      		andi r24,lo8(-4)
  68 0046 842B      		or r24,r20
  69 0048 8093 6900 		sts 105,r24
  70               	.LSM5:
  71 004c E89A      		sbi 61-32,0
  72 004e 0895      		ret
  73               	.LVL2:
  74               	.L6:
  75               	.LSM6:
  76 0050 8091 6900 		lds r24,105
  77               	.LVL3:
  78 0054 440F      		lsl r20
  79 0056 551F      		rol r21
  80 0058 440F      		lsl r20
  81 005a 551F      		rol r21
  82               	.LVL4:
  83 005c 837F      		andi r24,lo8(-13)
  84 005e 842B      		or r24,r20
  85 0060 8093 6900 		sts 105,r24
  86               	.LSM7:
  87 0064 E99A      		sbi 61-32,1
  88 0066 0895      		ret
  89               	.LVL5:
  90               	.L7:
  91               	.LSM8:
  92 0068 8091 6900 		lds r24,105
  93               	.LVL6:
  94 006c 74E0      		ldi r23,4
  95 006e 440F      	1:	lsl r20
  96 0070 551F      		rol r21
  97 0072 7A95      		dec r23
  98 0074 01F4      		brne 1b
  99               	.LVL7:
 100 0076 8F7C      		andi r24,lo8(-49)
 101 0078 842B      		or r24,r20
 102 007a 8093 6900 		sts 105,r24
 103               	.LSM9:
 104 007e EA9A      		sbi 61-32,2
 105 0080 0895      		ret
 106               	.LVL8:
 107               	.L8:
 108               	.LSM10:
 109 0082 8091 6900 		lds r24,105
 110               	.LVL9:
 111 0086 66E0      		ldi r22,6
 112 0088 440F      	1:	lsl r20
 113 008a 551F      		rol r21
 114 008c 6A95      		dec r22
GAS LISTING /var/folders/1s/lqjcb7x5323625d47g9gdgmr0000gp/T//ccjAkA1o.s 			page 3


 115 008e 01F4      		brne 1b
 116               	.LVL10:
 117 0090 8F73      		andi r24,lo8(63)
 118 0092 842B      		or r24,r20
 119 0094 8093 6900 		sts 105,r24
 120               	.LSM11:
 121 0098 EB9A      		sbi 61-32,3
 122 009a 0895      		ret
 123               	.LVL11:
 124               	.L14:
 125               	.LSM12:
 126 009c 8091 6A00 		lds r24,106
 127               	.LVL12:
 128 00a0 8C7F      		andi r24,lo8(-4)
 129 00a2 842B      		or r24,r20
 130 00a4 8093 6A00 		sts 106,r24
 131               	.LSM13:
 132 00a8 EC9A      		sbi 61-32,4
 133 00aa 0895      		ret
 134               	.LVL13:
 135               	.L4:
 136               	.LSM14:
 137 00ac 8091 6A00 		lds r24,106
 138               	.LVL14:
 139 00b0 440F      		lsl r20
 140 00b2 551F      		rol r21
 141 00b4 440F      		lsl r20
 142 00b6 551F      		rol r21
 143               	.LVL15:
 144 00b8 837F      		andi r24,lo8(-13)
 145 00ba 842B      		or r24,r20
 146 00bc 8093 6A00 		sts 106,r24
 147               	.LSM15:
 148 00c0 ED9A      		sbi 61-32,5
 149 00c2 0895      		ret
 150               	.LVL16:
 151               	.L9:
 152               	.LSM16:
 153 00c4 8091 6A00 		lds r24,106
 154               	.LVL17:
 155 00c8 24E0      		ldi r18,4
 156 00ca 440F      	1:	lsl r20
 157 00cc 551F      		rol r21
 158 00ce 2A95      		dec r18
 159 00d0 01F4      		brne 1b
 160               	.LVL18:
 161 00d2 8F7C      		andi r24,lo8(-49)
 162 00d4 842B      		or r24,r20
 163 00d6 8093 6A00 		sts 106,r24
 164               	.LSM17:
 165 00da EE9A      		sbi 61-32,6
 166 00dc 0895      		ret
 167               	.LVL19:
 168               	.L15:
 169               	.LSM18:
 170 00de 8091 6A00 		lds r24,106
 171               	.LVL20:
GAS LISTING /var/folders/1s/lqjcb7x5323625d47g9gdgmr0000gp/T//ccjAkA1o.s 			page 4


 172 00e2 96E0      		ldi r25,6
 173 00e4 440F      	1:	lsl r20
 174 00e6 551F      		rol r21
 175 00e8 9A95      		dec r25
 176 00ea 01F4      		brne 1b
 177               	.LVL21:
 178 00ec 8F73      		andi r24,lo8(63)
 179 00ee 842B      		or r24,r20
 180 00f0 8093 6A00 		sts 106,r24
 181               	.LSM19:
 182 00f4 EF9A      		sbi 61-32,7
 183               	.LVL22:
 184               	.L12:
 185 00f6 0895      		ret
 186               	.LFE75:
 187               		.size	attachInterrupt, .-attachInterrupt
 188               		.section	.text.detachInterrupt,"ax",@progbits
 189               	.global	detachInterrupt
 190               		.type	detachInterrupt, @function
 191               	detachInterrupt:
 192               	.LFB76:
 193               	.LSM20:
 194               	.LVL23:
 195               	/* prologue: function */
 196               	/* frame size = 0 */
 197               	.LSM21:
 198 0000 8830      		cpi r24,lo8(8)
 199 0002 00F4      		brsh .L28
 200               	.LSM22:
 201 0004 8330      		cpi r24,lo8(3)
 202 0006 01F0      		breq .L22
 203 0008 8430      		cpi r24,lo8(4)
 204 000a 00F4      		brsh .L27
 205 000c 8130      		cpi r24,lo8(1)
 206 000e 01F0      		breq .L20
 207 0010 8230      		cpi r24,lo8(2)
 208 0012 00F4      		brsh .L21
 209 0014 00C0      		rjmp .L30
 210               	.L27:
 211 0016 8530      		cpi r24,lo8(5)
 212 0018 01F0      		breq .L24
 213 001a 8530      		cpi r24,lo8(5)
 214 001c 00F0      		brlo .L23
 215 001e 8630      		cpi r24,lo8(6)
 216 0020 01F0      		breq .L25
 217 0022 8730      		cpi r24,lo8(7)
 218 0024 01F4      		brne .L18
 219 0026 00C0      		rjmp .L31
 220               	.L21:
 221               	.LSM23:
 222 0028 E898      		cbi 61-32,0
 223 002a 00C0      		rjmp .L18
 224               	.L22:
 225               	.LSM24:
 226 002c E998      		cbi 61-32,1
 227 002e 00C0      		rjmp .L18
 228               	.L23:
GAS LISTING /var/folders/1s/lqjcb7x5323625d47g9gdgmr0000gp/T//ccjAkA1o.s 			page 5


 229               	.LSM25:
 230 0030 EA98      		cbi 61-32,2
 231 0032 00C0      		rjmp .L18
 232               	.L24:
 233               	.LSM26:
 234 0034 EB98      		cbi 61-32,3
 235 0036 00C0      		rjmp .L18
 236               	.L30:
 237               	.LSM27:
 238 0038 EC98      		cbi 61-32,4
 239 003a 00C0      		rjmp .L18
 240               	.L20:
 241               	.LSM28:
 242 003c ED98      		cbi 61-32,5
 243 003e 00C0      		rjmp .L18
 244               	.L25:
 245               	.LSM29:
 246 0040 EE98      		cbi 61-32,6
 247 0042 00C0      		rjmp .L18
 248               	.L31:
 249               	.LSM30:
 250 0044 EF98      		cbi 61-32,7
 251               	.L18:
 252               	.LSM31:
 253 0046 E82F      		mov r30,r24
 254 0048 F0E0      		ldi r31,lo8(0)
 255 004a EE0F      		lsl r30
 256 004c FF1F      		rol r31
 257 004e E050      		subi r30,lo8(-(_ZL7intFunc))
 258 0050 F040      		sbci r31,hi8(-(_ZL7intFunc))
 259 0052 1182      		std Z+1,__zero_reg__
 260 0054 1082      		st Z,__zero_reg__
 261               	.L28:
 262 0056 0895      		ret
 263               	.LFE76:
 264               		.size	detachInterrupt, .-detachInterrupt
 265               		.section	.text.__vector_1,"ax",@progbits
 266               	.global	__vector_1
 267               		.type	__vector_1, @function
 268               	__vector_1:
 269               	.LFB77:
 270               	.LSM32:
 271 0000 1F92      		push __zero_reg__
 272 0002 0F92      		push r0
 273 0004 0FB6      		in r0,__SREG__
 274 0006 0F92      		push r0
 275 0008 0BB6      		in r0,91-32
 276 000a 0F92      		push r0
 277 000c 1124      		clr __zero_reg__
 278 000e 2F93      		push r18
 279 0010 3F93      		push r19
 280 0012 4F93      		push r20
 281 0014 5F93      		push r21
 282 0016 6F93      		push r22
 283 0018 7F93      		push r23
 284 001a 8F93      		push r24
 285 001c 9F93      		push r25
GAS LISTING /var/folders/1s/lqjcb7x5323625d47g9gdgmr0000gp/T//ccjAkA1o.s 			page 6


 286 001e AF93      		push r26
 287 0020 BF93      		push r27
 288 0022 EF93      		push r30
 289 0024 FF93      		push r31
 290               	/* prologue: Signal */
 291               	/* frame size = 0 */
 292               	.LSM33:
 293 0026 8091 0000 		lds r24,_ZL7intFunc+4
 294 002a 9091 0000 		lds r25,(_ZL7intFunc+4)+1
 295 002e 892B      		or r24,r25
 296 0030 01F0      		breq .L34
 297               	.LSM34:
 298 0032 E091 0000 		lds r30,_ZL7intFunc+4
 299 0036 F091 0000 		lds r31,(_ZL7intFunc+4)+1
 300 003a 1995      		eicall
 301               	.L34:
 302               	/* epilogue start */
 303               	.LSM35:
 304 003c FF91      		pop r31
 305 003e EF91      		pop r30
 306 0040 BF91      		pop r27
 307 0042 AF91      		pop r26
 308 0044 9F91      		pop r25
 309 0046 8F91      		pop r24
 310 0048 7F91      		pop r23
 311 004a 6F91      		pop r22
 312 004c 5F91      		pop r21
 313 004e 4F91      		pop r20
 314 0050 3F91      		pop r19
 315 0052 2F91      		pop r18
 316 0054 0F90      		pop r0
 317 0056 0BBE      		out 91-32,r0
 318 0058 0F90      		pop r0
 319 005a 0FBE      		out __SREG__,r0
 320 005c 0F90      		pop r0
 321 005e 1F90      		pop __zero_reg__
 322 0060 1895      		reti
 323               	.LFE77:
 324               		.size	__vector_1, .-__vector_1
 325               		.section	.text.__vector_2,"ax",@progbits
 326               	.global	__vector_2
 327               		.type	__vector_2, @function
 328               	__vector_2:
 329               	.LFB78:
 330               	.LSM36:
 331 0000 1F92      		push __zero_reg__
 332 0002 0F92      		push r0
 333 0004 0FB6      		in r0,__SREG__
 334 0006 0F92      		push r0
 335 0008 0BB6      		in r0,91-32
 336 000a 0F92      		push r0
 337 000c 1124      		clr __zero_reg__
 338 000e 2F93      		push r18
 339 0010 3F93      		push r19
 340 0012 4F93      		push r20
 341 0014 5F93      		push r21
 342 0016 6F93      		push r22
GAS LISTING /var/folders/1s/lqjcb7x5323625d47g9gdgmr0000gp/T//ccjAkA1o.s 			page 7


 343 0018 7F93      		push r23
 344 001a 8F93      		push r24
 345 001c 9F93      		push r25
 346 001e AF93      		push r26
 347 0020 BF93      		push r27
 348 0022 EF93      		push r30
 349 0024 FF93      		push r31
 350               	/* prologue: Signal */
 351               	/* frame size = 0 */
 352               	.LSM37:
 353 0026 8091 0000 		lds r24,_ZL7intFunc+6
 354 002a 9091 0000 		lds r25,(_ZL7intFunc+6)+1
 355 002e 892B      		or r24,r25
 356 0030 01F0      		breq .L37
 357               	.LSM38:
 358 0032 E091 0000 		lds r30,_ZL7intFunc+6
 359 0036 F091 0000 		lds r31,(_ZL7intFunc+6)+1
 360 003a 1995      		eicall
 361               	.L37:
 362               	/* epilogue start */
 363               	.LSM39:
 364 003c FF91      		pop r31
 365 003e EF91      		pop r30
 366 0040 BF91      		pop r27
 367 0042 AF91      		pop r26
 368 0044 9F91      		pop r25
 369 0046 8F91      		pop r24
 370 0048 7F91      		pop r23
 371 004a 6F91      		pop r22
 372 004c 5F91      		pop r21
 373 004e 4F91      		pop r20
 374 0050 3F91      		pop r19
 375 0052 2F91      		pop r18
 376 0054 0F90      		pop r0
 377 0056 0BBE      		out 91-32,r0
 378 0058 0F90      		pop r0
 379 005a 0FBE      		out __SREG__,r0
 380 005c 0F90      		pop r0
 381 005e 1F90      		pop __zero_reg__
 382 0060 1895      		reti
 383               	.LFE78:
 384               		.size	__vector_2, .-__vector_2
 385               		.section	.text.__vector_3,"ax",@progbits
 386               	.global	__vector_3
 387               		.type	__vector_3, @function
 388               	__vector_3:
 389               	.LFB79:
 390               	.LSM40:
 391 0000 1F92      		push __zero_reg__
 392 0002 0F92      		push r0
 393 0004 0FB6      		in r0,__SREG__
 394 0006 0F92      		push r0
 395 0008 0BB6      		in r0,91-32
 396 000a 0F92      		push r0
 397 000c 1124      		clr __zero_reg__
 398 000e 2F93      		push r18
 399 0010 3F93      		push r19
GAS LISTING /var/folders/1s/lqjcb7x5323625d47g9gdgmr0000gp/T//ccjAkA1o.s 			page 8


 400 0012 4F93      		push r20
 401 0014 5F93      		push r21
 402 0016 6F93      		push r22
 403 0018 7F93      		push r23
 404 001a 8F93      		push r24
 405 001c 9F93      		push r25
 406 001e AF93      		push r26
 407 0020 BF93      		push r27
 408 0022 EF93      		push r30
 409 0024 FF93      		push r31
 410               	/* prologue: Signal */
 411               	/* frame size = 0 */
 412               	.LSM41:
 413 0026 8091 0000 		lds r24,_ZL7intFunc+8
 414 002a 9091 0000 		lds r25,(_ZL7intFunc+8)+1
 415 002e 892B      		or r24,r25
 416 0030 01F0      		breq .L40
 417               	.LSM42:
 418 0032 E091 0000 		lds r30,_ZL7intFunc+8
 419 0036 F091 0000 		lds r31,(_ZL7intFunc+8)+1
 420 003a 1995      		eicall
 421               	.L40:
 422               	/* epilogue start */
 423               	.LSM43:
 424 003c FF91      		pop r31
 425 003e EF91      		pop r30
 426 0040 BF91      		pop r27
 427 0042 AF91      		pop r26
 428 0044 9F91      		pop r25
 429 0046 8F91      		pop r24
 430 0048 7F91      		pop r23
 431 004a 6F91      		pop r22
 432 004c 5F91      		pop r21
 433 004e 4F91      		pop r20
 434 0050 3F91      		pop r19
 435 0052 2F91      		pop r18
 436 0054 0F90      		pop r0
 437 0056 0BBE      		out 91-32,r0
 438 0058 0F90      		pop r0
 439 005a 0FBE      		out __SREG__,r0
 440 005c 0F90      		pop r0
 441 005e 1F90      		pop __zero_reg__
 442 0060 1895      		reti
 443               	.LFE79:
 444               		.size	__vector_3, .-__vector_3
 445               		.section	.text.__vector_4,"ax",@progbits
 446               	.global	__vector_4
 447               		.type	__vector_4, @function
 448               	__vector_4:
 449               	.LFB80:
 450               	.LSM44:
 451 0000 1F92      		push __zero_reg__
 452 0002 0F92      		push r0
 453 0004 0FB6      		in r0,__SREG__
 454 0006 0F92      		push r0
 455 0008 0BB6      		in r0,91-32
 456 000a 0F92      		push r0
GAS LISTING /var/folders/1s/lqjcb7x5323625d47g9gdgmr0000gp/T//ccjAkA1o.s 			page 9


 457 000c 1124      		clr __zero_reg__
 458 000e 2F93      		push r18
 459 0010 3F93      		push r19
 460 0012 4F93      		push r20
 461 0014 5F93      		push r21
 462 0016 6F93      		push r22
 463 0018 7F93      		push r23
 464 001a 8F93      		push r24
 465 001c 9F93      		push r25
 466 001e AF93      		push r26
 467 0020 BF93      		push r27
 468 0022 EF93      		push r30
 469 0024 FF93      		push r31
 470               	/* prologue: Signal */
 471               	/* frame size = 0 */
 472               	.LSM45:
 473 0026 8091 0000 		lds r24,_ZL7intFunc+10
 474 002a 9091 0000 		lds r25,(_ZL7intFunc+10)+1
 475 002e 892B      		or r24,r25
 476 0030 01F0      		breq .L43
 477               	.LSM46:
 478 0032 E091 0000 		lds r30,_ZL7intFunc+10
 479 0036 F091 0000 		lds r31,(_ZL7intFunc+10)+1
 480 003a 1995      		eicall
 481               	.L43:
 482               	/* epilogue start */
 483               	.LSM47:
 484 003c FF91      		pop r31
 485 003e EF91      		pop r30
 486 0040 BF91      		pop r27
 487 0042 AF91      		pop r26
 488 0044 9F91      		pop r25
 489 0046 8F91      		pop r24
 490 0048 7F91      		pop r23
 491 004a 6F91      		pop r22
 492 004c 5F91      		pop r21
 493 004e 4F91      		pop r20
 494 0050 3F91      		pop r19
 495 0052 2F91      		pop r18
 496 0054 0F90      		pop r0
 497 0056 0BBE      		out 91-32,r0
 498 0058 0F90      		pop r0
 499 005a 0FBE      		out __SREG__,r0
 500 005c 0F90      		pop r0
 501 005e 1F90      		pop __zero_reg__
 502 0060 1895      		reti
 503               	.LFE80:
 504               		.size	__vector_4, .-__vector_4
 505               		.section	.text.__vector_5,"ax",@progbits
 506               	.global	__vector_5
 507               		.type	__vector_5, @function
 508               	__vector_5:
 509               	.LFB81:
 510               	.LSM48:
 511 0000 1F92      		push __zero_reg__
 512 0002 0F92      		push r0
 513 0004 0FB6      		in r0,__SREG__
GAS LISTING /var/folders/1s/lqjcb7x5323625d47g9gdgmr0000gp/T//ccjAkA1o.s 			page 10


 514 0006 0F92      		push r0
 515 0008 0BB6      		in r0,91-32
 516 000a 0F92      		push r0
 517 000c 1124      		clr __zero_reg__
 518 000e 2F93      		push r18
 519 0010 3F93      		push r19
 520 0012 4F93      		push r20
 521 0014 5F93      		push r21
 522 0016 6F93      		push r22
 523 0018 7F93      		push r23
 524 001a 8F93      		push r24
 525 001c 9F93      		push r25
 526 001e AF93      		push r26
 527 0020 BF93      		push r27
 528 0022 EF93      		push r30
 529 0024 FF93      		push r31
 530               	/* prologue: Signal */
 531               	/* frame size = 0 */
 532               	.LSM49:
 533 0026 8091 0000 		lds r24,_ZL7intFunc
 534 002a 9091 0000 		lds r25,(_ZL7intFunc)+1
 535 002e 892B      		or r24,r25
 536 0030 01F0      		breq .L46
 537               	.LSM50:
 538 0032 E091 0000 		lds r30,_ZL7intFunc
 539 0036 F091 0000 		lds r31,(_ZL7intFunc)+1
 540 003a 1995      		eicall
 541               	.L46:
 542               	/* epilogue start */
 543               	.LSM51:
 544 003c FF91      		pop r31
 545 003e EF91      		pop r30
 546 0040 BF91      		pop r27
 547 0042 AF91      		pop r26
 548 0044 9F91      		pop r25
 549 0046 8F91      		pop r24
 550 0048 7F91      		pop r23
 551 004a 6F91      		pop r22
 552 004c 5F91      		pop r21
 553 004e 4F91      		pop r20
 554 0050 3F91      		pop r19
 555 0052 2F91      		pop r18
 556 0054 0F90      		pop r0
 557 0056 0BBE      		out 91-32,r0
 558 0058 0F90      		pop r0
 559 005a 0FBE      		out __SREG__,r0
 560 005c 0F90      		pop r0
 561 005e 1F90      		pop __zero_reg__
 562 0060 1895      		reti
 563               	.LFE81:
 564               		.size	__vector_5, .-__vector_5
 565               		.section	.text.__vector_6,"ax",@progbits
 566               	.global	__vector_6
 567               		.type	__vector_6, @function
 568               	__vector_6:
 569               	.LFB82:
 570               	.LSM52:
GAS LISTING /var/folders/1s/lqjcb7x5323625d47g9gdgmr0000gp/T//ccjAkA1o.s 			page 11


 571 0000 1F92      		push __zero_reg__
 572 0002 0F92      		push r0
 573 0004 0FB6      		in r0,__SREG__
 574 0006 0F92      		push r0
 575 0008 0BB6      		in r0,91-32
 576 000a 0F92      		push r0
 577 000c 1124      		clr __zero_reg__
 578 000e 2F93      		push r18
 579 0010 3F93      		push r19
 580 0012 4F93      		push r20
 581 0014 5F93      		push r21
 582 0016 6F93      		push r22
 583 0018 7F93      		push r23
 584 001a 8F93      		push r24
 585 001c 9F93      		push r25
 586 001e AF93      		push r26
 587 0020 BF93      		push r27
 588 0022 EF93      		push r30
 589 0024 FF93      		push r31
 590               	/* prologue: Signal */
 591               	/* frame size = 0 */
 592               	.LSM53:
 593 0026 8091 0000 		lds r24,_ZL7intFunc+2
 594 002a 9091 0000 		lds r25,(_ZL7intFunc+2)+1
 595 002e 892B      		or r24,r25
 596 0030 01F0      		breq .L49
 597               	.LSM54:
 598 0032 E091 0000 		lds r30,_ZL7intFunc+2
 599 0036 F091 0000 		lds r31,(_ZL7intFunc+2)+1
 600 003a 1995      		eicall
 601               	.L49:
 602               	/* epilogue start */
 603               	.LSM55:
 604 003c FF91      		pop r31
 605 003e EF91      		pop r30
 606 0040 BF91      		pop r27
 607 0042 AF91      		pop r26
 608 0044 9F91      		pop r25
 609 0046 8F91      		pop r24
 610 0048 7F91      		pop r23
 611 004a 6F91      		pop r22
 612 004c 5F91      		pop r21
 613 004e 4F91      		pop r20
 614 0050 3F91      		pop r19
 615 0052 2F91      		pop r18
 616 0054 0F90      		pop r0
 617 0056 0BBE      		out 91-32,r0
 618 0058 0F90      		pop r0
 619 005a 0FBE      		out __SREG__,r0
 620 005c 0F90      		pop r0
 621 005e 1F90      		pop __zero_reg__
 622 0060 1895      		reti
 623               	.LFE82:
 624               		.size	__vector_6, .-__vector_6
 625               		.section	.text.__vector_7,"ax",@progbits
 626               	.global	__vector_7
 627               		.type	__vector_7, @function
GAS LISTING /var/folders/1s/lqjcb7x5323625d47g9gdgmr0000gp/T//ccjAkA1o.s 			page 12


 628               	__vector_7:
 629               	.LFB83:
 630               	.LSM56:
 631 0000 1F92      		push __zero_reg__
 632 0002 0F92      		push r0
 633 0004 0FB6      		in r0,__SREG__
 634 0006 0F92      		push r0
 635 0008 0BB6      		in r0,91-32
 636 000a 0F92      		push r0
 637 000c 1124      		clr __zero_reg__
 638 000e 2F93      		push r18
 639 0010 3F93      		push r19
 640 0012 4F93      		push r20
 641 0014 5F93      		push r21
 642 0016 6F93      		push r22
 643 0018 7F93      		push r23
 644 001a 8F93      		push r24
 645 001c 9F93      		push r25
 646 001e AF93      		push r26
 647 0020 BF93      		push r27
 648 0022 EF93      		push r30
 649 0024 FF93      		push r31
 650               	/* prologue: Signal */
 651               	/* frame size = 0 */
 652               	.LSM57:
 653 0026 8091 0000 		lds r24,_ZL7intFunc+12
 654 002a 9091 0000 		lds r25,(_ZL7intFunc+12)+1
 655 002e 892B      		or r24,r25
 656 0030 01F0      		breq .L52
 657               	.LSM58:
 658 0032 E091 0000 		lds r30,_ZL7intFunc+12
 659 0036 F091 0000 		lds r31,(_ZL7intFunc+12)+1
 660 003a 1995      		eicall
 661               	.L52:
 662               	/* epilogue start */
 663               	.LSM59:
 664 003c FF91      		pop r31
 665 003e EF91      		pop r30
 666 0040 BF91      		pop r27
 667 0042 AF91      		pop r26
 668 0044 9F91      		pop r25
 669 0046 8F91      		pop r24
 670 0048 7F91      		pop r23
 671 004a 6F91      		pop r22
 672 004c 5F91      		pop r21
 673 004e 4F91      		pop r20
 674 0050 3F91      		pop r19
 675 0052 2F91      		pop r18
 676 0054 0F90      		pop r0
 677 0056 0BBE      		out 91-32,r0
 678 0058 0F90      		pop r0
 679 005a 0FBE      		out __SREG__,r0
 680 005c 0F90      		pop r0
 681 005e 1F90      		pop __zero_reg__
 682 0060 1895      		reti
 683               	.LFE83:
 684               		.size	__vector_7, .-__vector_7
GAS LISTING /var/folders/1s/lqjcb7x5323625d47g9gdgmr0000gp/T//ccjAkA1o.s 			page 13


 685               		.section	.text.__vector_8,"ax",@progbits
 686               	.global	__vector_8
 687               		.type	__vector_8, @function
 688               	__vector_8:
 689               	.LFB84:
 690               	.LSM60:
 691 0000 1F92      		push __zero_reg__
 692 0002 0F92      		push r0
 693 0004 0FB6      		in r0,__SREG__
 694 0006 0F92      		push r0
 695 0008 0BB6      		in r0,91-32
 696 000a 0F92      		push r0
 697 000c 1124      		clr __zero_reg__
 698 000e 2F93      		push r18
 699 0010 3F93      		push r19
 700 0012 4F93      		push r20
 701 0014 5F93      		push r21
 702 0016 6F93      		push r22
 703 0018 7F93      		push r23
 704 001a 8F93      		push r24
 705 001c 9F93      		push r25
 706 001e AF93      		push r26
 707 0020 BF93      		push r27
 708 0022 EF93      		push r30
 709 0024 FF93      		push r31
 710               	/* prologue: Signal */
 711               	/* frame size = 0 */
 712               	.LSM61:
 713 0026 8091 0000 		lds r24,_ZL7intFunc+14
 714 002a 9091 0000 		lds r25,(_ZL7intFunc+14)+1
 715 002e 892B      		or r24,r25
 716 0030 01F0      		breq .L55
 717               	.LSM62:
 718 0032 E091 0000 		lds r30,_ZL7intFunc+14
 719 0036 F091 0000 		lds r31,(_ZL7intFunc+14)+1
 720 003a 1995      		eicall
 721               	.L55:
 722               	/* epilogue start */
 723               	.LSM63:
 724 003c FF91      		pop r31
 725 003e EF91      		pop r30
 726 0040 BF91      		pop r27
 727 0042 AF91      		pop r26
 728 0044 9F91      		pop r25
 729 0046 8F91      		pop r24
 730 0048 7F91      		pop r23
 731 004a 6F91      		pop r22
 732 004c 5F91      		pop r21
 733 004e 4F91      		pop r20
 734 0050 3F91      		pop r19
 735 0052 2F91      		pop r18
 736 0054 0F90      		pop r0
 737 0056 0BBE      		out 91-32,r0
 738 0058 0F90      		pop r0
 739 005a 0FBE      		out __SREG__,r0
 740 005c 0F90      		pop r0
 741 005e 1F90      		pop __zero_reg__
GAS LISTING /var/folders/1s/lqjcb7x5323625d47g9gdgmr0000gp/T//ccjAkA1o.s 			page 14


 742 0060 1895      		reti
 743               	.LFE84:
 744               		.size	__vector_8, .-__vector_8
 745               		.section	.bss._ZL7intFunc,"aw",@nobits
 746               		.type	_ZL7intFunc, @object
 747               		.size	_ZL7intFunc, 16
 748               	_ZL7intFunc:
 749 0000 0000 0000 		.skip 16,0
 749      0000 0000 
 749      0000 0000 
 749      0000 0000 
 750               		.section	.debug_frame,"",@progbits
 751               	.Lframe0:
 752 0000 0C00 0000 		.long	.LECIE0-.LSCIE0
 753               	.LSCIE0:
 754 0004 FFFF FFFF 		.long	0xffffffff
 755 0008 01        		.byte	0x1
 756 0009 00        		.string	""
 757 000a 01        		.uleb128 0x1
 758 000b 7F        		.sleb128 -1
 759 000c 24        		.byte	0x24
 760 000d 0C        		.byte	0xc
 761 000e 20        		.uleb128 0x20
 762 000f 00        		.uleb128 0x0
 763               		.p2align	2
 764               	.LECIE0:
 765               	.LSFDE0:
 766 0010 0C00 0000 		.long	.LEFDE0-.LASFDE0
 767               	.LASFDE0:
 768 0014 0000 0000 		.long	.Lframe0
 769 0018 0000 0000 		.long	.LFB75
 770 001c F800 0000 		.long	.LFE75-.LFB75
 771               		.p2align	2
 772               	.LEFDE0:
 773               	.LSFDE2:
 774 0020 0C00 0000 		.long	.LEFDE2-.LASFDE2
 775               	.LASFDE2:
 776 0024 0000 0000 		.long	.Lframe0
 777 0028 0000 0000 		.long	.LFB76
 778 002c 5800 0000 		.long	.LFE76-.LFB76
 779               		.p2align	2
 780               	.LEFDE2:
 781               	.LSFDE4:
 782 0030 0C00 0000 		.long	.LEFDE4-.LASFDE4
 783               	.LASFDE4:
 784 0034 0000 0000 		.long	.Lframe0
 785 0038 0000 0000 		.long	.LFB77
 786 003c 6200 0000 		.long	.LFE77-.LFB77
 787               		.p2align	2
 788               	.LEFDE4:
 789               	.LSFDE6:
 790 0040 0C00 0000 		.long	.LEFDE6-.LASFDE6
 791               	.LASFDE6:
 792 0044 0000 0000 		.long	.Lframe0
 793 0048 0000 0000 		.long	.LFB78
 794 004c 6200 0000 		.long	.LFE78-.LFB78
 795               		.p2align	2
GAS LISTING /var/folders/1s/lqjcb7x5323625d47g9gdgmr0000gp/T//ccjAkA1o.s 			page 15


 796               	.LEFDE6:
 797               	.LSFDE8:
 798 0050 0C00 0000 		.long	.LEFDE8-.LASFDE8
 799               	.LASFDE8:
 800 0054 0000 0000 		.long	.Lframe0
 801 0058 0000 0000 		.long	.LFB79
 802 005c 6200 0000 		.long	.LFE79-.LFB79
 803               		.p2align	2
 804               	.LEFDE8:
 805               	.LSFDE10:
 806 0060 0C00 0000 		.long	.LEFDE10-.LASFDE10
 807               	.LASFDE10:
 808 0064 0000 0000 		.long	.Lframe0
 809 0068 0000 0000 		.long	.LFB80
 810 006c 6200 0000 		.long	.LFE80-.LFB80
 811               		.p2align	2
 812               	.LEFDE10:
 813               	.LSFDE12:
 814 0070 0C00 0000 		.long	.LEFDE12-.LASFDE12
 815               	.LASFDE12:
 816 0074 0000 0000 		.long	.Lframe0
 817 0078 0000 0000 		.long	.LFB81
 818 007c 6200 0000 		.long	.LFE81-.LFB81
 819               		.p2align	2
 820               	.LEFDE12:
 821               	.LSFDE14:
 822 0080 0C00 0000 		.long	.LEFDE14-.LASFDE14
 823               	.LASFDE14:
 824 0084 0000 0000 		.long	.Lframe0
 825 0088 0000 0000 		.long	.LFB82
 826 008c 6200 0000 		.long	.LFE82-.LFB82
 827               		.p2align	2
 828               	.LEFDE14:
 829               	.LSFDE16:
 830 0090 0C00 0000 		.long	.LEFDE16-.LASFDE16
 831               	.LASFDE16:
 832 0094 0000 0000 		.long	.Lframe0
 833 0098 0000 0000 		.long	.LFB83
 834 009c 6200 0000 		.long	.LFE83-.LFB83
 835               		.p2align	2
 836               	.LEFDE16:
 837               	.LSFDE18:
 838 00a0 0C00 0000 		.long	.LEFDE18-.LASFDE18
 839               	.LASFDE18:
 840 00a4 0000 0000 		.long	.Lframe0
 841 00a8 0000 0000 		.long	.LFB84
 842 00ac 6200 0000 		.long	.LFE84-.LFB84
 843               		.p2align	2
 844               	.LEFDE18:
 845               		.text
 846               	.Letext0:
 847               		.section	.debug_loc,"",@progbits
 848               	.Ldebug_loc0:
 849               	.LLST1:
 850 0000 0000 0000 		.long	.LVL0
 851 0004 0000 0000 		.long	.LVL1
 852 0008 0100      		.word	0x1
GAS LISTING /var/folders/1s/lqjcb7x5323625d47g9gdgmr0000gp/T//ccjAkA1o.s 			page 16


 853 000a 68        		.byte	0x68
 854 000b 0000 0000 		.long	.LVL2
 855 000f 0000 0000 		.long	.LVL3
 856 0013 0100      		.word	0x1
 857 0015 68        		.byte	0x68
 858 0016 0000 0000 		.long	.LVL5
 859 001a 0000 0000 		.long	.LVL6
 860 001e 0100      		.word	0x1
 861 0020 68        		.byte	0x68
 862 0021 0000 0000 		.long	.LVL8
 863 0025 0000 0000 		.long	.LVL9
 864 0029 0100      		.word	0x1
 865 002b 68        		.byte	0x68
 866 002c 0000 0000 		.long	.LVL11
 867 0030 0000 0000 		.long	.LVL12
 868 0034 0100      		.word	0x1
 869 0036 68        		.byte	0x68
 870 0037 0000 0000 		.long	.LVL13
 871 003b 0000 0000 		.long	.LVL14
 872 003f 0100      		.word	0x1
 873 0041 68        		.byte	0x68
 874 0042 0000 0000 		.long	.LVL16
 875 0046 0000 0000 		.long	.LVL17
 876 004a 0100      		.word	0x1
 877 004c 68        		.byte	0x68
 878 004d 0000 0000 		.long	.LVL19
 879 0051 0000 0000 		.long	.LVL20
 880 0055 0100      		.word	0x1
 881 0057 68        		.byte	0x68
 882 0058 0000 0000 		.long	.LVL22
 883 005c 0000 0000 		.long	.LFE75
 884 0060 0100      		.word	0x1
 885 0062 68        		.byte	0x68
 886 0063 0000 0000 		.long	0x0
 887 0067 0000 0000 		.long	0x0
 888               	.LLST2:
 889 006b 0000 0000 		.long	.LVL0
 890 006f 0000 0000 		.long	.LVL10
 891 0073 0600      		.word	0x6
 892 0075 66        		.byte	0x66
 893 0076 93        		.byte	0x93
 894 0077 01        		.uleb128 0x1
 895 0078 67        		.byte	0x67
 896 0079 93        		.byte	0x93
 897 007a 01        		.uleb128 0x1
 898 007b 0000 0000 		.long	.LVL11
 899 007f 0000 0000 		.long	.LFE75
 900 0083 0600      		.word	0x6
 901 0085 66        		.byte	0x66
 902 0086 93        		.byte	0x93
 903 0087 01        		.uleb128 0x1
 904 0088 67        		.byte	0x67
 905 0089 93        		.byte	0x93
 906 008a 01        		.uleb128 0x1
 907 008b 0000 0000 		.long	0x0
 908 008f 0000 0000 		.long	0x0
 909               		.section	.debug_info
GAS LISTING /var/folders/1s/lqjcb7x5323625d47g9gdgmr0000gp/T//ccjAkA1o.s 			page 17


 910 0000 D502 0000 		.long	0x2d5
 911 0004 0200      		.word	0x2
 912 0006 0000 0000 		.long	.Ldebug_abbrev0
 913 000a 04        		.byte	0x4
 914 000b 01        		.uleb128 0x1
 915 000c 0000 0000 		.long	.LASF29
 916 0010 04        		.byte	0x4
 917 0011 0000 0000 		.long	.LASF30
 918 0015 0000 0000 		.long	0x0
 919 0019 0000 0000 		.long	0x0
 920 001d 0000 0000 		.long	.Ldebug_ranges0+0x0
 921 0021 0000 0000 		.long	.Ldebug_line0
 922 0025 02        		.uleb128 0x2
 923 0026 01        		.byte	0x1
 924 0027 06        		.byte	0x6
 925 0028 0000 0000 		.long	.LASF0
 926 002c 03        		.uleb128 0x3
 927 002d 0000 0000 		.long	.LASF8
 928 0031 02        		.byte	0x2
 929 0032 7A        		.byte	0x7a
 930 0033 3700 0000 		.long	0x37
 931 0037 02        		.uleb128 0x2
 932 0038 01        		.byte	0x1
 933 0039 08        		.byte	0x8
 934 003a 0000 0000 		.long	.LASF1
 935 003e 04        		.uleb128 0x4
 936 003f 02        		.byte	0x2
 937 0040 05        		.byte	0x5
 938 0041 696E 7400 		.string	"int"
 939 0045 02        		.uleb128 0x2
 940 0046 02        		.byte	0x2
 941 0047 07        		.byte	0x7
 942 0048 0000 0000 		.long	.LASF2
 943 004c 02        		.uleb128 0x2
 944 004d 04        		.byte	0x4
 945 004e 05        		.byte	0x5
 946 004f 0000 0000 		.long	.LASF3
 947 0053 02        		.uleb128 0x2
 948 0054 04        		.byte	0x4
 949 0055 07        		.byte	0x7
 950 0056 0000 0000 		.long	.LASF4
 951 005a 02        		.uleb128 0x2
 952 005b 08        		.byte	0x8
 953 005c 05        		.byte	0x5
 954 005d 0000 0000 		.long	.LASF5
 955 0061 02        		.uleb128 0x2
 956 0062 08        		.byte	0x8
 957 0063 07        		.byte	0x7
 958 0064 0000 0000 		.long	.LASF6
 959 0068 05        		.uleb128 0x5
 960 0069 01        		.byte	0x1
 961 006a 06        		.byte	0x6
 962 006b 05        		.uleb128 0x5
 963 006c 01        		.byte	0x1
 964 006d 08        		.byte	0x8
 965 006e 02        		.uleb128 0x2
 966 006f 01        		.byte	0x1
GAS LISTING /var/folders/1s/lqjcb7x5323625d47g9gdgmr0000gp/T//ccjAkA1o.s 			page 18


 967 0070 06        		.byte	0x6
 968 0071 0000 0000 		.long	.LASF7
 969 0075 06        		.uleb128 0x6
 970 0076 2C00 0000 		.long	0x2c
 971 007a 03        		.uleb128 0x3
 972 007b 0000 0000 		.long	.LASF9
 973 007f 03        		.byte	0x3
 974 0080 41        		.byte	0x41
 975 0081 8500 0000 		.long	0x85
 976 0085 07        		.uleb128 0x7
 977 0086 02        		.byte	0x2
 978 0087 8B00 0000 		.long	0x8b
 979 008b 08        		.uleb128 0x8
 980 008c 02        		.uleb128 0x2
 981 008d 01        		.byte	0x1
 982 008e 02        		.byte	0x2
 983 008f 0000 0000 		.long	.LASF10
 984 0093 02        		.uleb128 0x2
 985 0094 04        		.byte	0x4
 986 0095 04        		.byte	0x4
 987 0096 0000 0000 		.long	.LASF11
 988 009a 09        		.uleb128 0x9
 989 009b 01        		.byte	0x1
 990 009c 0000 0000 		.long	.LASF15
 991 00a0 01        		.byte	0x1
 992 00a1 26        		.byte	0x26
 993 00a2 0000 0000 		.long	.LFB75
 994 00a6 0000 0000 		.long	.LFE75
 995 00aa 02        		.byte	0x2
 996 00ab 90        		.byte	0x90
 997 00ac 20        		.uleb128 0x20
 998 00ad E200 0000 		.long	0xe2
 999 00b1 0A        		.uleb128 0xa
 1000 00b2 0000 0000 		.long	.LASF12
 1001 00b6 01        		.byte	0x1
 1002 00b7 26        		.byte	0x26
 1003 00b8 2C00 0000 		.long	0x2c
 1004 00bc 0000 0000 		.long	.LLST1
 1005 00c0 0A        		.uleb128 0xa
 1006 00c1 0000 0000 		.long	.LASF13
 1007 00c5 01        		.byte	0x1
 1008 00c6 26        		.byte	0x26
 1009 00c7 8500 0000 		.long	0x85
 1010 00cb 0000 0000 		.long	.LLST2
 1011 00cf 0B        		.uleb128 0xb
 1012 00d0 0000 0000 		.long	.LASF14
 1013 00d4 01        		.byte	0x1
 1014 00d5 26        		.byte	0x26
 1015 00d6 3E00 0000 		.long	0x3e
 1016 00da 06        		.byte	0x6
 1017 00db 64        		.byte	0x64
 1018 00dc 93        		.byte	0x93
 1019 00dd 01        		.uleb128 0x1
 1020 00de 65        		.byte	0x65
 1021 00df 93        		.byte	0x93
 1022 00e0 01        		.uleb128 0x1
 1023 00e1 00        		.byte	0x0
GAS LISTING /var/folders/1s/lqjcb7x5323625d47g9gdgmr0000gp/T//ccjAkA1o.s 			page 19


 1024 00e2 09        		.uleb128 0x9
 1025 00e3 01        		.byte	0x1
 1026 00e4 0000 0000 		.long	.LASF16
 1027 00e8 01        		.byte	0x1
 1028 00e9 97        		.byte	0x97
 1029 00ea 0000 0000 		.long	.LFB76
 1030 00ee 0000 0000 		.long	.LFE76
 1031 00f2 02        		.byte	0x2
 1032 00f3 90        		.byte	0x90
 1033 00f4 20        		.uleb128 0x20
 1034 00f5 0701 0000 		.long	0x107
 1035 00f9 0B        		.uleb128 0xb
 1036 00fa 0000 0000 		.long	.LASF12
 1037 00fe 01        		.byte	0x1
 1038 00ff 97        		.byte	0x97
 1039 0100 2C00 0000 		.long	0x2c
 1040 0104 01        		.byte	0x1
 1041 0105 68        		.byte	0x68
 1042 0106 00        		.byte	0x0
 1043 0107 0C        		.uleb128 0xc
 1044 0108 01        		.byte	0x1
 1045 0109 0000 0000 		.long	.LASF17
 1046 010d 01        		.byte	0x1
 1047 010e FF        		.byte	0xff
 1048 010f 0000 0000 		.long	.LFB77
 1049 0113 0000 0000 		.long	.LFE77
 1050 0117 02        		.byte	0x2
 1051 0118 90        		.byte	0x90
 1052 0119 20        		.uleb128 0x20
 1053 011a 0D        		.uleb128 0xd
 1054 011b 01        		.byte	0x1
 1055 011c 0000 0000 		.long	.LASF18
 1056 0120 01        		.byte	0x1
 1057 0121 0401      		.word	0x104
 1058 0123 0000 0000 		.long	.LFB78
 1059 0127 0000 0000 		.long	.LFE78
 1060 012b 02        		.byte	0x2
 1061 012c 90        		.byte	0x90
 1062 012d 20        		.uleb128 0x20
 1063 012e 0D        		.uleb128 0xd
 1064 012f 01        		.byte	0x1
 1065 0130 0000 0000 		.long	.LASF19
 1066 0134 01        		.byte	0x1
 1067 0135 0901      		.word	0x109
 1068 0137 0000 0000 		.long	.LFB79
 1069 013b 0000 0000 		.long	.LFE79
 1070 013f 02        		.byte	0x2
 1071 0140 90        		.byte	0x90
 1072 0141 20        		.uleb128 0x20
 1073 0142 0D        		.uleb128 0xd
 1074 0143 01        		.byte	0x1
 1075 0144 0000 0000 		.long	.LASF20
 1076 0148 01        		.byte	0x1
 1077 0149 0E01      		.word	0x10e
 1078 014b 0000 0000 		.long	.LFB80
 1079 014f 0000 0000 		.long	.LFE80
 1080 0153 02        		.byte	0x2
GAS LISTING /var/folders/1s/lqjcb7x5323625d47g9gdgmr0000gp/T//ccjAkA1o.s 			page 20


 1081 0154 90        		.byte	0x90
 1082 0155 20        		.uleb128 0x20
 1083 0156 0D        		.uleb128 0xd
 1084 0157 01        		.byte	0x1
 1085 0158 0000 0000 		.long	.LASF21
 1086 015c 01        		.byte	0x1
 1087 015d 1301      		.word	0x113
 1088 015f 0000 0000 		.long	.LFB81
 1089 0163 0000 0000 		.long	.LFE81
 1090 0167 02        		.byte	0x2
 1091 0168 90        		.byte	0x90
 1092 0169 20        		.uleb128 0x20
 1093 016a 0D        		.uleb128 0xd
 1094 016b 01        		.byte	0x1
 1095 016c 0000 0000 		.long	.LASF22
 1096 0170 01        		.byte	0x1
 1097 0171 1801      		.word	0x118
 1098 0173 0000 0000 		.long	.LFB82
 1099 0177 0000 0000 		.long	.LFE82
 1100 017b 02        		.byte	0x2
 1101 017c 90        		.byte	0x90
 1102 017d 20        		.uleb128 0x20
 1103 017e 0D        		.uleb128 0xd
 1104 017f 01        		.byte	0x1
 1105 0180 0000 0000 		.long	.LASF23
 1106 0184 01        		.byte	0x1
 1107 0185 1D01      		.word	0x11d
 1108 0187 0000 0000 		.long	.LFB83
 1109 018b 0000 0000 		.long	.LFE83
 1110 018f 02        		.byte	0x2
 1111 0190 90        		.byte	0x90
 1112 0191 20        		.uleb128 0x20
 1113 0192 0D        		.uleb128 0xd
 1114 0193 01        		.byte	0x1
 1115 0194 0000 0000 		.long	.LASF24
 1116 0198 01        		.byte	0x1
 1117 0199 2201      		.word	0x122
 1118 019b 0000 0000 		.long	.LFB84
 1119 019f 0000 0000 		.long	.LFE84
 1120 01a3 02        		.byte	0x2
 1121 01a4 90        		.byte	0x90
 1122 01a5 20        		.uleb128 0x20
 1123 01a6 0E        		.uleb128 0xe
 1124 01a7 5353 00   		.string	"SS"
 1125 01aa 04        		.byte	0x4
 1126 01ab 23        		.byte	0x23
 1127 01ac 7500 0000 		.long	0x75
 1128 01b0 35        		.byte	0x35
 1129 01b1 0F        		.uleb128 0xf
 1130 01b2 0000 0000 		.long	.LASF25
 1131 01b6 04        		.byte	0x4
 1132 01b7 24        		.byte	0x24
 1133 01b8 7500 0000 		.long	0x75
 1134 01bc 33        		.byte	0x33
 1135 01bd 0F        		.uleb128 0xf
 1136 01be 0000 0000 		.long	.LASF26
 1137 01c2 04        		.byte	0x4
GAS LISTING /var/folders/1s/lqjcb7x5323625d47g9gdgmr0000gp/T//ccjAkA1o.s 			page 21


 1138 01c3 25        		.byte	0x25
 1139 01c4 7500 0000 		.long	0x75
 1140 01c8 32        		.byte	0x32
 1141 01c9 0E        		.uleb128 0xe
 1142 01ca 5343 4B00 		.string	"SCK"
 1143 01ce 04        		.byte	0x4
 1144 01cf 26        		.byte	0x26
 1145 01d0 7500 0000 		.long	0x75
 1146 01d4 34        		.byte	0x34
 1147 01d5 0E        		.uleb128 0xe
 1148 01d6 5344 4100 		.string	"SDA"
 1149 01da 04        		.byte	0x4
 1150 01db 28        		.byte	0x28
 1151 01dc 7500 0000 		.long	0x75
 1152 01e0 14        		.byte	0x14
 1153 01e1 0E        		.uleb128 0xe
 1154 01e2 5343 4C00 		.string	"SCL"
 1155 01e6 04        		.byte	0x4
 1156 01e7 29        		.byte	0x29
 1157 01e8 7500 0000 		.long	0x75
 1158 01ec 15        		.byte	0x15
 1159 01ed 0F        		.uleb128 0xf
 1160 01ee 0000 0000 		.long	.LASF27
 1161 01f2 04        		.byte	0x4
 1162 01f3 2A        		.byte	0x2a
 1163 01f4 7500 0000 		.long	0x75
 1164 01f8 0D        		.byte	0xd
 1165 01f9 0E        		.uleb128 0xe
 1166 01fa 4130 00   		.string	"A0"
 1167 01fd 04        		.byte	0x4
 1168 01fe 2C        		.byte	0x2c
 1169 01ff 7500 0000 		.long	0x75
 1170 0203 36        		.byte	0x36
 1171 0204 0E        		.uleb128 0xe
 1172 0205 4131 00   		.string	"A1"
 1173 0208 04        		.byte	0x4
 1174 0209 2D        		.byte	0x2d
 1175 020a 7500 0000 		.long	0x75
 1176 020e 37        		.byte	0x37
 1177 020f 0E        		.uleb128 0xe
 1178 0210 4132 00   		.string	"A2"
 1179 0213 04        		.byte	0x4
 1180 0214 2E        		.byte	0x2e
 1181 0215 7500 0000 		.long	0x75
 1182 0219 38        		.byte	0x38
 1183 021a 0E        		.uleb128 0xe
 1184 021b 4133 00   		.string	"A3"
 1185 021e 04        		.byte	0x4
 1186 021f 2F        		.byte	0x2f
 1187 0220 7500 0000 		.long	0x75
 1188 0224 39        		.byte	0x39
 1189 0225 0E        		.uleb128 0xe
 1190 0226 4134 00   		.string	"A4"
 1191 0229 04        		.byte	0x4
 1192 022a 30        		.byte	0x30
 1193 022b 7500 0000 		.long	0x75
 1194 022f 3A        		.byte	0x3a
GAS LISTING /var/folders/1s/lqjcb7x5323625d47g9gdgmr0000gp/T//ccjAkA1o.s 			page 22


 1195 0230 0E        		.uleb128 0xe
 1196 0231 4135 00   		.string	"A5"
 1197 0234 04        		.byte	0x4
 1198 0235 31        		.byte	0x31
 1199 0236 7500 0000 		.long	0x75
 1200 023a 3B        		.byte	0x3b
 1201 023b 0E        		.uleb128 0xe
 1202 023c 4136 00   		.string	"A6"
 1203 023f 04        		.byte	0x4
 1204 0240 32        		.byte	0x32
 1205 0241 7500 0000 		.long	0x75
 1206 0245 3C        		.byte	0x3c
 1207 0246 0E        		.uleb128 0xe
 1208 0247 4137 00   		.string	"A7"
 1209 024a 04        		.byte	0x4
 1210 024b 33        		.byte	0x33
 1211 024c 7500 0000 		.long	0x75
 1212 0250 3D        		.byte	0x3d
 1213 0251 0E        		.uleb128 0xe
 1214 0252 4138 00   		.string	"A8"
 1215 0255 04        		.byte	0x4
 1216 0256 34        		.byte	0x34
 1217 0257 7500 0000 		.long	0x75
 1218 025b 3E        		.byte	0x3e
 1219 025c 0E        		.uleb128 0xe
 1220 025d 4139 00   		.string	"A9"
 1221 0260 04        		.byte	0x4
 1222 0261 35        		.byte	0x35
 1223 0262 7500 0000 		.long	0x75
 1224 0266 3F        		.byte	0x3f
 1225 0267 0E        		.uleb128 0xe
 1226 0268 4131 3000 		.string	"A10"
 1227 026c 04        		.byte	0x4
 1228 026d 36        		.byte	0x36
 1229 026e 7500 0000 		.long	0x75
 1230 0272 40        		.byte	0x40
 1231 0273 0E        		.uleb128 0xe
 1232 0274 4131 3100 		.string	"A11"
 1233 0278 04        		.byte	0x4
 1234 0279 37        		.byte	0x37
 1235 027a 7500 0000 		.long	0x75
 1236 027e 41        		.byte	0x41
 1237 027f 0E        		.uleb128 0xe
 1238 0280 4131 3200 		.string	"A12"
 1239 0284 04        		.byte	0x4
 1240 0285 38        		.byte	0x38
 1241 0286 7500 0000 		.long	0x75
 1242 028a 42        		.byte	0x42
 1243 028b 0E        		.uleb128 0xe
 1244 028c 4131 3300 		.string	"A13"
 1245 0290 04        		.byte	0x4
 1246 0291 39        		.byte	0x39
 1247 0292 7500 0000 		.long	0x75
 1248 0296 43        		.byte	0x43
 1249 0297 0E        		.uleb128 0xe
 1250 0298 4131 3400 		.string	"A14"
 1251 029c 04        		.byte	0x4
GAS LISTING /var/folders/1s/lqjcb7x5323625d47g9gdgmr0000gp/T//ccjAkA1o.s 			page 23


 1252 029d 3A        		.byte	0x3a
 1253 029e 7500 0000 		.long	0x75
 1254 02a2 44        		.byte	0x44
 1255 02a3 0E        		.uleb128 0xe
 1256 02a4 4131 3500 		.string	"A15"
 1257 02a8 04        		.byte	0x4
 1258 02a9 3B        		.byte	0x3b
 1259 02aa 7500 0000 		.long	0x75
 1260 02ae 45        		.byte	0x45
 1261 02af 10        		.uleb128 0x10
 1262 02b0 7A00 0000 		.long	0x7a
 1263 02b4 BF02 0000 		.long	0x2bf
 1264 02b8 11        		.uleb128 0x11
 1265 02b9 BF02 0000 		.long	0x2bf
 1266 02bd 07        		.byte	0x7
 1267 02be 00        		.byte	0x0
 1268 02bf 05        		.uleb128 0x5
 1269 02c0 02        		.byte	0x2
 1270 02c1 07        		.byte	0x7
 1271 02c2 12        		.uleb128 0x12
 1272 02c3 0000 0000 		.long	.LASF28
 1273 02c7 01        		.byte	0x1
 1274 02c8 23        		.byte	0x23
 1275 02c9 D302 0000 		.long	0x2d3
 1276 02cd 05        		.byte	0x5
 1277 02ce 03        		.byte	0x3
 1278 02cf 0000 0000 		.long	_ZL7intFunc
 1279 02d3 13        		.uleb128 0x13
 1280 02d4 AF02 0000 		.long	0x2af
 1281 02d8 00        		.byte	0x0
 1282               		.section	.debug_abbrev
 1283 0000 01        		.uleb128 0x1
 1284 0001 11        		.uleb128 0x11
 1285 0002 01        		.byte	0x1
 1286 0003 25        		.uleb128 0x25
 1287 0004 0E        		.uleb128 0xe
 1288 0005 13        		.uleb128 0x13
 1289 0006 0B        		.uleb128 0xb
 1290 0007 03        		.uleb128 0x3
 1291 0008 0E        		.uleb128 0xe
 1292 0009 11        		.uleb128 0x11
 1293 000a 01        		.uleb128 0x1
 1294 000b 52        		.uleb128 0x52
 1295 000c 01        		.uleb128 0x1
 1296 000d 55        		.uleb128 0x55
 1297 000e 06        		.uleb128 0x6
 1298 000f 10        		.uleb128 0x10
 1299 0010 06        		.uleb128 0x6
 1300 0011 00        		.byte	0x0
 1301 0012 00        		.byte	0x0
 1302 0013 02        		.uleb128 0x2
 1303 0014 24        		.uleb128 0x24
 1304 0015 00        		.byte	0x0
 1305 0016 0B        		.uleb128 0xb
 1306 0017 0B        		.uleb128 0xb
 1307 0018 3E        		.uleb128 0x3e
 1308 0019 0B        		.uleb128 0xb
GAS LISTING /var/folders/1s/lqjcb7x5323625d47g9gdgmr0000gp/T//ccjAkA1o.s 			page 24


 1309 001a 03        		.uleb128 0x3
 1310 001b 0E        		.uleb128 0xe
 1311 001c 00        		.byte	0x0
 1312 001d 00        		.byte	0x0
 1313 001e 03        		.uleb128 0x3
 1314 001f 16        		.uleb128 0x16
 1315 0020 00        		.byte	0x0
 1316 0021 03        		.uleb128 0x3
 1317 0022 0E        		.uleb128 0xe
 1318 0023 3A        		.uleb128 0x3a
 1319 0024 0B        		.uleb128 0xb
 1320 0025 3B        		.uleb128 0x3b
 1321 0026 0B        		.uleb128 0xb
 1322 0027 49        		.uleb128 0x49
 1323 0028 13        		.uleb128 0x13
 1324 0029 00        		.byte	0x0
 1325 002a 00        		.byte	0x0
 1326 002b 04        		.uleb128 0x4
 1327 002c 24        		.uleb128 0x24
 1328 002d 00        		.byte	0x0
 1329 002e 0B        		.uleb128 0xb
 1330 002f 0B        		.uleb128 0xb
 1331 0030 3E        		.uleb128 0x3e
 1332 0031 0B        		.uleb128 0xb
 1333 0032 03        		.uleb128 0x3
 1334 0033 08        		.uleb128 0x8
 1335 0034 00        		.byte	0x0
 1336 0035 00        		.byte	0x0
 1337 0036 05        		.uleb128 0x5
 1338 0037 24        		.uleb128 0x24
 1339 0038 00        		.byte	0x0
 1340 0039 0B        		.uleb128 0xb
 1341 003a 0B        		.uleb128 0xb
 1342 003b 3E        		.uleb128 0x3e
 1343 003c 0B        		.uleb128 0xb
 1344 003d 00        		.byte	0x0
 1345 003e 00        		.byte	0x0
 1346 003f 06        		.uleb128 0x6
 1347 0040 26        		.uleb128 0x26
 1348 0041 00        		.byte	0x0
 1349 0042 49        		.uleb128 0x49
 1350 0043 13        		.uleb128 0x13
 1351 0044 00        		.byte	0x0
 1352 0045 00        		.byte	0x0
 1353 0046 07        		.uleb128 0x7
 1354 0047 0F        		.uleb128 0xf
 1355 0048 00        		.byte	0x0
 1356 0049 0B        		.uleb128 0xb
 1357 004a 0B        		.uleb128 0xb
 1358 004b 49        		.uleb128 0x49
 1359 004c 13        		.uleb128 0x13
 1360 004d 00        		.byte	0x0
 1361 004e 00        		.byte	0x0
 1362 004f 08        		.uleb128 0x8
 1363 0050 15        		.uleb128 0x15
 1364 0051 00        		.byte	0x0
 1365 0052 00        		.byte	0x0
GAS LISTING /var/folders/1s/lqjcb7x5323625d47g9gdgmr0000gp/T//ccjAkA1o.s 			page 25


 1366 0053 00        		.byte	0x0
 1367 0054 09        		.uleb128 0x9
 1368 0055 2E        		.uleb128 0x2e
 1369 0056 01        		.byte	0x1
 1370 0057 3F        		.uleb128 0x3f
 1371 0058 0C        		.uleb128 0xc
 1372 0059 03        		.uleb128 0x3
 1373 005a 0E        		.uleb128 0xe
 1374 005b 3A        		.uleb128 0x3a
 1375 005c 0B        		.uleb128 0xb
 1376 005d 3B        		.uleb128 0x3b
 1377 005e 0B        		.uleb128 0xb
 1378 005f 11        		.uleb128 0x11
 1379 0060 01        		.uleb128 0x1
 1380 0061 12        		.uleb128 0x12
 1381 0062 01        		.uleb128 0x1
 1382 0063 40        		.uleb128 0x40
 1383 0064 0A        		.uleb128 0xa
 1384 0065 01        		.uleb128 0x1
 1385 0066 13        		.uleb128 0x13
 1386 0067 00        		.byte	0x0
 1387 0068 00        		.byte	0x0
 1388 0069 0A        		.uleb128 0xa
 1389 006a 05        		.uleb128 0x5
 1390 006b 00        		.byte	0x0
 1391 006c 03        		.uleb128 0x3
 1392 006d 0E        		.uleb128 0xe
 1393 006e 3A        		.uleb128 0x3a
 1394 006f 0B        		.uleb128 0xb
 1395 0070 3B        		.uleb128 0x3b
 1396 0071 0B        		.uleb128 0xb
 1397 0072 49        		.uleb128 0x49
 1398 0073 13        		.uleb128 0x13
 1399 0074 02        		.uleb128 0x2
 1400 0075 06        		.uleb128 0x6
 1401 0076 00        		.byte	0x0
 1402 0077 00        		.byte	0x0
 1403 0078 0B        		.uleb128 0xb
 1404 0079 05        		.uleb128 0x5
 1405 007a 00        		.byte	0x0
 1406 007b 03        		.uleb128 0x3
 1407 007c 0E        		.uleb128 0xe
 1408 007d 3A        		.uleb128 0x3a
 1409 007e 0B        		.uleb128 0xb
 1410 007f 3B        		.uleb128 0x3b
 1411 0080 0B        		.uleb128 0xb
 1412 0081 49        		.uleb128 0x49
 1413 0082 13        		.uleb128 0x13
 1414 0083 02        		.uleb128 0x2
 1415 0084 0A        		.uleb128 0xa
 1416 0085 00        		.byte	0x0
 1417 0086 00        		.byte	0x0
 1418 0087 0C        		.uleb128 0xc
 1419 0088 2E        		.uleb128 0x2e
 1420 0089 00        		.byte	0x0
 1421 008a 3F        		.uleb128 0x3f
 1422 008b 0C        		.uleb128 0xc
GAS LISTING /var/folders/1s/lqjcb7x5323625d47g9gdgmr0000gp/T//ccjAkA1o.s 			page 26


 1423 008c 03        		.uleb128 0x3
 1424 008d 0E        		.uleb128 0xe
 1425 008e 3A        		.uleb128 0x3a
 1426 008f 0B        		.uleb128 0xb
 1427 0090 3B        		.uleb128 0x3b
 1428 0091 0B        		.uleb128 0xb
 1429 0092 11        		.uleb128 0x11
 1430 0093 01        		.uleb128 0x1
 1431 0094 12        		.uleb128 0x12
 1432 0095 01        		.uleb128 0x1
 1433 0096 40        		.uleb128 0x40
 1434 0097 0A        		.uleb128 0xa
 1435 0098 00        		.byte	0x0
 1436 0099 00        		.byte	0x0
 1437 009a 0D        		.uleb128 0xd
 1438 009b 2E        		.uleb128 0x2e
 1439 009c 00        		.byte	0x0
 1440 009d 3F        		.uleb128 0x3f
 1441 009e 0C        		.uleb128 0xc
 1442 009f 03        		.uleb128 0x3
 1443 00a0 0E        		.uleb128 0xe
 1444 00a1 3A        		.uleb128 0x3a
 1445 00a2 0B        		.uleb128 0xb
 1446 00a3 3B        		.uleb128 0x3b
 1447 00a4 05        		.uleb128 0x5
 1448 00a5 11        		.uleb128 0x11
 1449 00a6 01        		.uleb128 0x1
 1450 00a7 12        		.uleb128 0x12
 1451 00a8 01        		.uleb128 0x1
 1452 00a9 40        		.uleb128 0x40
 1453 00aa 0A        		.uleb128 0xa
 1454 00ab 00        		.byte	0x0
 1455 00ac 00        		.byte	0x0
 1456 00ad 0E        		.uleb128 0xe
 1457 00ae 34        		.uleb128 0x34
 1458 00af 00        		.byte	0x0
 1459 00b0 03        		.uleb128 0x3
 1460 00b1 08        		.uleb128 0x8
 1461 00b2 3A        		.uleb128 0x3a
 1462 00b3 0B        		.uleb128 0xb
 1463 00b4 3B        		.uleb128 0x3b
 1464 00b5 0B        		.uleb128 0xb
 1465 00b6 49        		.uleb128 0x49
 1466 00b7 13        		.uleb128 0x13
 1467 00b8 1C        		.uleb128 0x1c
 1468 00b9 0B        		.uleb128 0xb
 1469 00ba 00        		.byte	0x0
 1470 00bb 00        		.byte	0x0
 1471 00bc 0F        		.uleb128 0xf
 1472 00bd 34        		.uleb128 0x34
 1473 00be 00        		.byte	0x0
 1474 00bf 03        		.uleb128 0x3
 1475 00c0 0E        		.uleb128 0xe
 1476 00c1 3A        		.uleb128 0x3a
 1477 00c2 0B        		.uleb128 0xb
 1478 00c3 3B        		.uleb128 0x3b
 1479 00c4 0B        		.uleb128 0xb
GAS LISTING /var/folders/1s/lqjcb7x5323625d47g9gdgmr0000gp/T//ccjAkA1o.s 			page 27


 1480 00c5 49        		.uleb128 0x49
 1481 00c6 13        		.uleb128 0x13
 1482 00c7 1C        		.uleb128 0x1c
 1483 00c8 0B        		.uleb128 0xb
 1484 00c9 00        		.byte	0x0
 1485 00ca 00        		.byte	0x0
 1486 00cb 10        		.uleb128 0x10
 1487 00cc 01        		.uleb128 0x1
 1488 00cd 01        		.byte	0x1
 1489 00ce 49        		.uleb128 0x49
 1490 00cf 13        		.uleb128 0x13
 1491 00d0 01        		.uleb128 0x1
 1492 00d1 13        		.uleb128 0x13
 1493 00d2 00        		.byte	0x0
 1494 00d3 00        		.byte	0x0
 1495 00d4 11        		.uleb128 0x11
 1496 00d5 21        		.uleb128 0x21
 1497 00d6 00        		.byte	0x0
 1498 00d7 49        		.uleb128 0x49
 1499 00d8 13        		.uleb128 0x13
 1500 00d9 2F        		.uleb128 0x2f
 1501 00da 0B        		.uleb128 0xb
 1502 00db 00        		.byte	0x0
 1503 00dc 00        		.byte	0x0
 1504 00dd 12        		.uleb128 0x12
 1505 00de 34        		.uleb128 0x34
 1506 00df 00        		.byte	0x0
 1507 00e0 03        		.uleb128 0x3
 1508 00e1 0E        		.uleb128 0xe
 1509 00e2 3A        		.uleb128 0x3a
 1510 00e3 0B        		.uleb128 0xb
 1511 00e4 3B        		.uleb128 0x3b
 1512 00e5 0B        		.uleb128 0xb
 1513 00e6 49        		.uleb128 0x49
 1514 00e7 13        		.uleb128 0x13
 1515 00e8 02        		.uleb128 0x2
 1516 00e9 0A        		.uleb128 0xa
 1517 00ea 00        		.byte	0x0
 1518 00eb 00        		.byte	0x0
 1519 00ec 13        		.uleb128 0x13
 1520 00ed 35        		.uleb128 0x35
 1521 00ee 00        		.byte	0x0
 1522 00ef 49        		.uleb128 0x49
 1523 00f0 13        		.uleb128 0x13
 1524 00f1 00        		.byte	0x0
 1525 00f2 00        		.byte	0x0
 1526 00f3 00        		.byte	0x0
 1527               		.section	.debug_pubnames,"",@progbits
 1528 0000 AE00 0000 		.long	0xae
 1529 0004 0200      		.word	0x2
 1530 0006 0000 0000 		.long	.Ldebug_info0
 1531 000a D902 0000 		.long	0x2d9
 1532 000e 9A00 0000 		.long	0x9a
 1533 0012 6174 7461 		.string	"attachInterrupt"
 1533      6368 496E 
 1533      7465 7272 
 1533      7570 7400 
GAS LISTING /var/folders/1s/lqjcb7x5323625d47g9gdgmr0000gp/T//ccjAkA1o.s 			page 28


 1534 0022 E200 0000 		.long	0xe2
 1535 0026 6465 7461 		.string	"detachInterrupt"
 1535      6368 496E 
 1535      7465 7272 
 1535      7570 7400 
 1536 0036 0701 0000 		.long	0x107
 1537 003a 5F5F 7665 		.string	"__vector_1"
 1537      6374 6F72 
 1537      5F31 00
 1538 0045 1A01 0000 		.long	0x11a
 1539 0049 5F5F 7665 		.string	"__vector_2"
 1539      6374 6F72 
 1539      5F32 00
 1540 0054 2E01 0000 		.long	0x12e
 1541 0058 5F5F 7665 		.string	"__vector_3"
 1541      6374 6F72 
 1541      5F33 00
 1542 0063 4201 0000 		.long	0x142
 1543 0067 5F5F 7665 		.string	"__vector_4"
 1543      6374 6F72 
 1543      5F34 00
 1544 0072 5601 0000 		.long	0x156
 1545 0076 5F5F 7665 		.string	"__vector_5"
 1545      6374 6F72 
 1545      5F35 00
 1546 0081 6A01 0000 		.long	0x16a
 1547 0085 5F5F 7665 		.string	"__vector_6"
 1547      6374 6F72 
 1547      5F36 00
 1548 0090 7E01 0000 		.long	0x17e
 1549 0094 5F5F 7665 		.string	"__vector_7"
 1549      6374 6F72 
 1549      5F37 00
 1550 009f 9201 0000 		.long	0x192
 1551 00a3 5F5F 7665 		.string	"__vector_8"
 1551      6374 6F72 
 1551      5F38 00
 1552 00ae 0000 0000 		.long	0x0
 1553               		.section	.debug_aranges,"",@progbits
 1554 0000 6400 0000 		.long	0x64
 1555 0004 0200      		.word	0x2
 1556 0006 0000 0000 		.long	.Ldebug_info0
 1557 000a 04        		.byte	0x4
 1558 000b 00        		.byte	0x0
 1559 000c 0000      		.word	0x0
 1560 000e 0000      		.word	0x0
 1561 0010 0000 0000 		.long	.LFB75
 1562 0014 F800 0000 		.long	.LFE75-.LFB75
 1563 0018 0000 0000 		.long	.LFB76
 1564 001c 5800 0000 		.long	.LFE76-.LFB76
 1565 0020 0000 0000 		.long	.LFB77
 1566 0024 6200 0000 		.long	.LFE77-.LFB77
 1567 0028 0000 0000 		.long	.LFB78
 1568 002c 6200 0000 		.long	.LFE78-.LFB78
 1569 0030 0000 0000 		.long	.LFB79
 1570 0034 6200 0000 		.long	.LFE79-.LFB79
 1571 0038 0000 0000 		.long	.LFB80
GAS LISTING /var/folders/1s/lqjcb7x5323625d47g9gdgmr0000gp/T//ccjAkA1o.s 			page 29


 1572 003c 6200 0000 		.long	.LFE80-.LFB80
 1573 0040 0000 0000 		.long	.LFB81
 1574 0044 6200 0000 		.long	.LFE81-.LFB81
 1575 0048 0000 0000 		.long	.LFB82
 1576 004c 6200 0000 		.long	.LFE82-.LFB82
 1577 0050 0000 0000 		.long	.LFB83
 1578 0054 6200 0000 		.long	.LFE83-.LFB83
 1579 0058 0000 0000 		.long	.LFB84
 1580 005c 6200 0000 		.long	.LFE84-.LFB84
 1581 0060 0000 0000 		.long	0x0
 1582 0064 0000 0000 		.long	0x0
 1583               		.section	.debug_ranges,"",@progbits
 1584               	.Ldebug_ranges0:
 1585 0000 0000 0000 		.long	.Ltext0
 1586 0004 0000 0000 		.long	.Letext0
 1587 0008 0000 0000 		.long	.LFB75
 1588 000c 0000 0000 		.long	.LFE75
 1589 0010 0000 0000 		.long	.LFB76
 1590 0014 0000 0000 		.long	.LFE76
 1591 0018 0000 0000 		.long	.LFB77
 1592 001c 0000 0000 		.long	.LFE77
 1593 0020 0000 0000 		.long	.LFB78
 1594 0024 0000 0000 		.long	.LFE78
 1595 0028 0000 0000 		.long	.LFB79
 1596 002c 0000 0000 		.long	.LFE79
 1597 0030 0000 0000 		.long	.LFB80
 1598 0034 0000 0000 		.long	.LFE80
 1599 0038 0000 0000 		.long	.LFB81
 1600 003c 0000 0000 		.long	.LFE81
 1601 0040 0000 0000 		.long	.LFB82
 1602 0044 0000 0000 		.long	.LFE82
 1603 0048 0000 0000 		.long	.LFB83
 1604 004c 0000 0000 		.long	.LFE83
 1605 0050 0000 0000 		.long	.LFB84
 1606 0054 0000 0000 		.long	.LFE84
 1607 0058 0000 0000 		.long	0x0
 1608 005c 0000 0000 		.long	0x0
 1609               		.section	.debug_line
 1610 0000 FF03 0000 		.long	.LELT0-.LSLT0
 1611               	.LSLT0:
 1612 0004 0200      		.word	0x2
 1613 0006 7301 0000 		.long	.LELTP0-.LASLTP0
 1614               	.LASLTP0:
 1615 000a 01        		.byte	0x1
 1616 000b 01        		.byte	0x1
 1617 000c F6        		.byte	0xf6
 1618 000d F5        		.byte	0xf5
 1619 000e 0A        		.byte	0xa
 1620 000f 00        		.byte	0x0
 1621 0010 01        		.byte	0x1
 1622 0011 01        		.byte	0x1
 1623 0012 01        		.byte	0x1
 1624 0013 01        		.byte	0x1
 1625 0014 00        		.byte	0x0
 1626 0015 00        		.byte	0x0
 1627 0016 00        		.byte	0x0
 1628 0017 01        		.byte	0x1
GAS LISTING /var/folders/1s/lqjcb7x5323625d47g9gdgmr0000gp/T//ccjAkA1o.s 			page 30


 1629 0018 2F41 7070 		.ascii	"/Applications/Arduino.app/Contents/Resources/Java/hardware/a"
 1629      6C69 6361 
 1629      7469 6F6E 
 1629      732F 4172 
 1629      6475 696E 
 1630 0054 7264 7569 		.ascii	"rduino/avr/cores/arduino"
 1630      6E6F 2F61 
 1630      7672 2F63 
 1630      6F72 6573 
 1630      2F61 7264 
 1631 006c 00        		.byte	0
 1632 006d 2F41 7070 		.ascii	"/Applications/Arduino.app/Contents/Resources/Java/hardware/a"
 1632      6C69 6361 
 1632      7469 6F6E 
 1632      732F 4172 
 1632      6475 696E 
 1633 00a9 7264 7569 		.ascii	"rduino/avr/variants/mega"
 1633      6E6F 2F61 
 1633      7672 2F76 
 1633      6172 6961 
 1633      6E74 732F 
 1634 00c1 00        		.byte	0
 1635 00c2 2F41 7070 		.ascii	"/Applications/Arduino.app/Contents/Resources/Java/hardware/t"
 1635      6C69 6361 
 1635      7469 6F6E 
 1635      732F 4172 
 1635      6475 696E 
 1636 00fe 6F6F 6C73 		.ascii	"ools/avr/bin/../lib/gcc/avr/4.3.2/../../../../avr/include"
 1636      2F61 7672 
 1636      2F62 696E 
 1636      2F2E 2E2F 
 1636      6C69 622F 
 1637 0137 00        		.byte	0
 1638 0138 00        		.byte	0x0
 1639 0139 5749 6E74 		.string	"WInterrupts.c"
 1639      6572 7275 
 1639      7074 732E 
 1639      6300 
 1640 0147 01        		.uleb128 0x1
 1641 0148 00        		.uleb128 0x0
 1642 0149 00        		.uleb128 0x0
 1643 014a 7374 6469 		.string	"stdint.h"
 1643      6E74 2E68 
 1643      00
 1644 0153 03        		.uleb128 0x3
 1645 0154 00        		.uleb128 0x0
 1646 0155 00        		.uleb128 0x0
 1647 0156 7769 7269 		.string	"wiring_private.h"
 1647      6E67 5F70 
 1647      7269 7661 
 1647      7465 2E68 
 1647      00
 1648 0167 01        		.uleb128 0x1
 1649 0168 00        		.uleb128 0x0
 1650 0169 00        		.uleb128 0x0
 1651 016a 7069 6E73 		.string	"pins_arduino.h"
 1651      5F61 7264 
GAS LISTING /var/folders/1s/lqjcb7x5323625d47g9gdgmr0000gp/T//ccjAkA1o.s 			page 31


 1651      7569 6E6F 
 1651      2E68 00
 1652 0179 02        		.uleb128 0x2
 1653 017a 00        		.uleb128 0x0
 1654 017b 00        		.uleb128 0x0
 1655 017c 00        		.byte	0x0
 1656               	.LELTP0:
 1657 017d 00        		.byte	0x0
 1658 017e 05        		.uleb128 0x5
 1659 017f 02        		.byte	0x2
 1660 0180 0000 0000 		.long	.Letext0
 1661 0184 00        		.byte	0x0
 1662 0185 01        		.uleb128 0x1
 1663 0186 01        		.byte	0x1
 1664 0187 00        		.byte	0x0
 1665 0188 05        		.uleb128 0x5
 1666 0189 02        		.byte	0x2
 1667 018a 0000 0000 		.long	.LSM0
 1668 018e 39        		.byte	0x39
 1669 018f 00        		.byte	0x0
 1670 0190 05        		.uleb128 0x5
 1671 0191 02        		.byte	0x2
 1672 0192 0000 0000 		.long	.LSM1
 1673 0196 15        		.byte	0x15
 1674 0197 00        		.byte	0x0
 1675 0198 05        		.uleb128 0x5
 1676 0199 02        		.byte	0x2
 1677 019a 0000 0000 		.long	.LSM2
 1678 019e 15        		.byte	0x15
 1679 019f 00        		.byte	0x0
 1680 01a0 05        		.uleb128 0x5
 1681 01a1 02        		.byte	0x2
 1682 01a2 0000 0000 		.long	.LSM3
 1683 01a6 1D        		.byte	0x1d
 1684 01a7 00        		.byte	0x0
 1685 01a8 05        		.uleb128 0x5
 1686 01a9 02        		.byte	0x2
 1687 01aa 0000 0000 		.long	.LSM4
 1688 01ae 2B        		.byte	0x2b
 1689 01af 00        		.byte	0x0
 1690 01b0 05        		.uleb128 0x5
 1691 01b1 02        		.byte	0x2
 1692 01b2 0000 0000 		.long	.LSM5
 1693 01b6 15        		.byte	0x15
 1694 01b7 00        		.byte	0x0
 1695 01b8 05        		.uleb128 0x5
 1696 01b9 02        		.byte	0x2
 1697 01ba 0000 0000 		.long	.LSM6
 1698 01be 17        		.byte	0x17
 1699 01bf 00        		.byte	0x0
 1700 01c0 05        		.uleb128 0x5
 1701 01c1 02        		.byte	0x2
 1702 01c2 0000 0000 		.long	.LSM7
 1703 01c6 15        		.byte	0x15
 1704 01c7 00        		.byte	0x0
 1705 01c8 05        		.uleb128 0x5
 1706 01c9 02        		.byte	0x2
GAS LISTING /var/folders/1s/lqjcb7x5323625d47g9gdgmr0000gp/T//ccjAkA1o.s 			page 32


 1707 01ca 0000 0000 		.long	.LSM8
 1708 01ce 17        		.byte	0x17
 1709 01cf 00        		.byte	0x0
 1710 01d0 05        		.uleb128 0x5
 1711 01d1 02        		.byte	0x2
 1712 01d2 0000 0000 		.long	.LSM9
 1713 01d6 15        		.byte	0x15
 1714 01d7 00        		.byte	0x0
 1715 01d8 05        		.uleb128 0x5
 1716 01d9 02        		.byte	0x2
 1717 01da 0000 0000 		.long	.LSM10
 1718 01de 17        		.byte	0x17
 1719 01df 00        		.byte	0x0
 1720 01e0 05        		.uleb128 0x5
 1721 01e1 02        		.byte	0x2
 1722 01e2 0000 0000 		.long	.LSM11
 1723 01e6 15        		.byte	0x15
 1724 01e7 00        		.byte	0x0
 1725 01e8 05        		.uleb128 0x5
 1726 01e9 02        		.byte	0x2
 1727 01ea 0000 0000 		.long	.LSM12
 1728 01ee 17        		.byte	0x17
 1729 01ef 00        		.byte	0x0
 1730 01f0 05        		.uleb128 0x5
 1731 01f1 02        		.byte	0x2
 1732 01f2 0000 0000 		.long	.LSM13
 1733 01f6 15        		.byte	0x15
 1734 01f7 00        		.byte	0x0
 1735 01f8 05        		.uleb128 0x5
 1736 01f9 02        		.byte	0x2
 1737 01fa 0000 0000 		.long	.LSM14
 1738 01fe 17        		.byte	0x17
 1739 01ff 00        		.byte	0x0
 1740 0200 05        		.uleb128 0x5
 1741 0201 02        		.byte	0x2
 1742 0202 0000 0000 		.long	.LSM15
 1743 0206 15        		.byte	0x15
 1744 0207 00        		.byte	0x0
 1745 0208 05        		.uleb128 0x5
 1746 0209 02        		.byte	0x2
 1747 020a 0000 0000 		.long	.LSM16
 1748 020e 17        		.byte	0x17
 1749 020f 00        		.byte	0x0
 1750 0210 05        		.uleb128 0x5
 1751 0211 02        		.byte	0x2
 1752 0212 0000 0000 		.long	.LSM17
 1753 0216 15        		.byte	0x15
 1754 0217 00        		.byte	0x0
 1755 0218 05        		.uleb128 0x5
 1756 0219 02        		.byte	0x2
 1757 021a 0000 0000 		.long	.LSM18
 1758 021e 17        		.byte	0x17
 1759 021f 00        		.byte	0x0
 1760 0220 05        		.uleb128 0x5
 1761 0221 02        		.byte	0x2
 1762 0222 0000 0000 		.long	.LSM19
 1763 0226 15        		.byte	0x15
GAS LISTING /var/folders/1s/lqjcb7x5323625d47g9gdgmr0000gp/T//ccjAkA1o.s 			page 33


 1764 0227 00        		.byte	0x0
 1765 0228 05        		.uleb128 0x5
 1766 0229 02        		.byte	0x2
 1767 022a 0000 0000 		.long	.LFE75
 1768 022e 00        		.byte	0x0
 1769 022f 01        		.uleb128 0x1
 1770 0230 01        		.byte	0x1
 1771 0231 00        		.byte	0x0
 1772 0232 05        		.uleb128 0x5
 1773 0233 02        		.byte	0x2
 1774 0234 0000 0000 		.long	.LSM20
 1775 0238 AA        		.byte	0xaa
 1776 0239 00        		.byte	0x0
 1777 023a 05        		.uleb128 0x5
 1778 023b 02        		.byte	0x2
 1779 023c 0000 0000 		.long	.LSM21
 1780 0240 15        		.byte	0x15
 1781 0241 00        		.byte	0x0
 1782 0242 05        		.uleb128 0x5
 1783 0243 02        		.byte	0x2
 1784 0244 0000 0000 		.long	.LSM22
 1785 0248 18        		.byte	0x18
 1786 0249 00        		.byte	0x0
 1787 024a 05        		.uleb128 0x5
 1788 024b 02        		.byte	0x2
 1789 024c 0000 0000 		.long	.LSM23
 1790 0250 24        		.byte	0x24
 1791 0251 00        		.byte	0x0
 1792 0252 05        		.uleb128 0x5
 1793 0253 02        		.byte	0x2
 1794 0254 0000 0000 		.long	.LSM24
 1795 0258 17        		.byte	0x17
 1796 0259 00        		.byte	0x0
 1797 025a 05        		.uleb128 0x5
 1798 025b 02        		.byte	0x2
 1799 025c 0000 0000 		.long	.LSM25
 1800 0260 17        		.byte	0x17
 1801 0261 00        		.byte	0x0
 1802 0262 05        		.uleb128 0x5
 1803 0263 02        		.byte	0x2
 1804 0264 0000 0000 		.long	.LSM26
 1805 0268 17        		.byte	0x17
 1806 0269 00        		.byte	0x0
 1807 026a 05        		.uleb128 0x5
 1808 026b 02        		.byte	0x2
 1809 026c 0000 0000 		.long	.LSM27
 1810 0270 17        		.byte	0x17
 1811 0271 00        		.byte	0x0
 1812 0272 05        		.uleb128 0x5
 1813 0273 02        		.byte	0x2
 1814 0274 0000 0000 		.long	.LSM28
 1815 0278 17        		.byte	0x17
 1816 0279 00        		.byte	0x0
 1817 027a 05        		.uleb128 0x5
 1818 027b 02        		.byte	0x2
 1819 027c 0000 0000 		.long	.LSM29
 1820 0280 17        		.byte	0x17
GAS LISTING /var/folders/1s/lqjcb7x5323625d47g9gdgmr0000gp/T//ccjAkA1o.s 			page 34


 1821 0281 00        		.byte	0x0
 1822 0282 05        		.uleb128 0x5
 1823 0283 02        		.byte	0x2
 1824 0284 0000 0000 		.long	.LSM30
 1825 0288 17        		.byte	0x17
 1826 0289 00        		.byte	0x0
 1827 028a 05        		.uleb128 0x5
 1828 028b 02        		.byte	0x2
 1829 028c 0000 0000 		.long	.LSM31
 1830 0290 31        		.byte	0x31
 1831 0291 00        		.byte	0x0
 1832 0292 05        		.uleb128 0x5
 1833 0293 02        		.byte	0x2
 1834 0294 0000 0000 		.long	.LFE76
 1835 0298 00        		.byte	0x0
 1836 0299 01        		.uleb128 0x1
 1837 029a 01        		.byte	0x1
 1838 029b 00        		.byte	0x0
 1839 029c 05        		.uleb128 0x5
 1840 029d 02        		.byte	0x2
 1841 029e 0000 0000 		.long	.LSM32
 1842 02a2 03        		.byte	0x3
 1843 02a3 FE01      		.sleb128 254
 1844 02a5 01        		.byte	0x1
 1845 02a6 00        		.byte	0x0
 1846 02a7 05        		.uleb128 0x5
 1847 02a8 02        		.byte	0x2
 1848 02a9 0000 0000 		.long	.LSM33
 1849 02ad 15        		.byte	0x15
 1850 02ae 00        		.byte	0x0
 1851 02af 05        		.uleb128 0x5
 1852 02b0 02        		.byte	0x2
 1853 02b1 0000 0000 		.long	.LSM34
 1854 02b5 15        		.byte	0x15
 1855 02b6 00        		.byte	0x0
 1856 02b7 05        		.uleb128 0x5
 1857 02b8 02        		.byte	0x2
 1858 02b9 0000 0000 		.long	.LSM35
 1859 02bd 15        		.byte	0x15
 1860 02be 00        		.byte	0x0
 1861 02bf 05        		.uleb128 0x5
 1862 02c0 02        		.byte	0x2
 1863 02c1 0000 0000 		.long	.LFE77
 1864 02c5 00        		.byte	0x0
 1865 02c6 01        		.uleb128 0x1
 1866 02c7 01        		.byte	0x1
 1867 02c8 00        		.byte	0x0
 1868 02c9 05        		.uleb128 0x5
 1869 02ca 02        		.byte	0x2
 1870 02cb 0000 0000 		.long	.LSM36
 1871 02cf 03        		.byte	0x3
 1872 02d0 8302      		.sleb128 259
 1873 02d2 01        		.byte	0x1
 1874 02d3 00        		.byte	0x0
 1875 02d4 05        		.uleb128 0x5
 1876 02d5 02        		.byte	0x2
 1877 02d6 0000 0000 		.long	.LSM37
GAS LISTING /var/folders/1s/lqjcb7x5323625d47g9gdgmr0000gp/T//ccjAkA1o.s 			page 35


 1878 02da 15        		.byte	0x15
 1879 02db 00        		.byte	0x0
 1880 02dc 05        		.uleb128 0x5
 1881 02dd 02        		.byte	0x2
 1882 02de 0000 0000 		.long	.LSM38
 1883 02e2 15        		.byte	0x15
 1884 02e3 00        		.byte	0x0
 1885 02e4 05        		.uleb128 0x5
 1886 02e5 02        		.byte	0x2
 1887 02e6 0000 0000 		.long	.LSM39
 1888 02ea 15        		.byte	0x15
 1889 02eb 00        		.byte	0x0
 1890 02ec 05        		.uleb128 0x5
 1891 02ed 02        		.byte	0x2
 1892 02ee 0000 0000 		.long	.LFE78
 1893 02f2 00        		.byte	0x0
 1894 02f3 01        		.uleb128 0x1
 1895 02f4 01        		.byte	0x1
 1896 02f5 00        		.byte	0x0
 1897 02f6 05        		.uleb128 0x5
 1898 02f7 02        		.byte	0x2
 1899 02f8 0000 0000 		.long	.LSM40
 1900 02fc 03        		.byte	0x3
 1901 02fd 8802      		.sleb128 264
 1902 02ff 01        		.byte	0x1
 1903 0300 00        		.byte	0x0
 1904 0301 05        		.uleb128 0x5
 1905 0302 02        		.byte	0x2
 1906 0303 0000 0000 		.long	.LSM41
 1907 0307 15        		.byte	0x15
 1908 0308 00        		.byte	0x0
 1909 0309 05        		.uleb128 0x5
 1910 030a 02        		.byte	0x2
 1911 030b 0000 0000 		.long	.LSM42
 1912 030f 15        		.byte	0x15
 1913 0310 00        		.byte	0x0
 1914 0311 05        		.uleb128 0x5
 1915 0312 02        		.byte	0x2
 1916 0313 0000 0000 		.long	.LSM43
 1917 0317 15        		.byte	0x15
 1918 0318 00        		.byte	0x0
 1919 0319 05        		.uleb128 0x5
 1920 031a 02        		.byte	0x2
 1921 031b 0000 0000 		.long	.LFE79
 1922 031f 00        		.byte	0x0
 1923 0320 01        		.uleb128 0x1
 1924 0321 01        		.byte	0x1
 1925 0322 00        		.byte	0x0
 1926 0323 05        		.uleb128 0x5
 1927 0324 02        		.byte	0x2
 1928 0325 0000 0000 		.long	.LSM44
 1929 0329 03        		.byte	0x3
 1930 032a 8D02      		.sleb128 269
 1931 032c 01        		.byte	0x1
 1932 032d 00        		.byte	0x0
 1933 032e 05        		.uleb128 0x5
 1934 032f 02        		.byte	0x2
GAS LISTING /var/folders/1s/lqjcb7x5323625d47g9gdgmr0000gp/T//ccjAkA1o.s 			page 36


 1935 0330 0000 0000 		.long	.LSM45
 1936 0334 15        		.byte	0x15
 1937 0335 00        		.byte	0x0
 1938 0336 05        		.uleb128 0x5
 1939 0337 02        		.byte	0x2
 1940 0338 0000 0000 		.long	.LSM46
 1941 033c 15        		.byte	0x15
 1942 033d 00        		.byte	0x0
 1943 033e 05        		.uleb128 0x5
 1944 033f 02        		.byte	0x2
 1945 0340 0000 0000 		.long	.LSM47
 1946 0344 15        		.byte	0x15
 1947 0345 00        		.byte	0x0
 1948 0346 05        		.uleb128 0x5
 1949 0347 02        		.byte	0x2
 1950 0348 0000 0000 		.long	.LFE80
 1951 034c 00        		.byte	0x0
 1952 034d 01        		.uleb128 0x1
 1953 034e 01        		.byte	0x1
 1954 034f 00        		.byte	0x0
 1955 0350 05        		.uleb128 0x5
 1956 0351 02        		.byte	0x2
 1957 0352 0000 0000 		.long	.LSM48
 1958 0356 03        		.byte	0x3
 1959 0357 9202      		.sleb128 274
 1960 0359 01        		.byte	0x1
 1961 035a 00        		.byte	0x0
 1962 035b 05        		.uleb128 0x5
 1963 035c 02        		.byte	0x2
 1964 035d 0000 0000 		.long	.LSM49
 1965 0361 15        		.byte	0x15
 1966 0362 00        		.byte	0x0
 1967 0363 05        		.uleb128 0x5
 1968 0364 02        		.byte	0x2
 1969 0365 0000 0000 		.long	.LSM50
 1970 0369 15        		.byte	0x15
 1971 036a 00        		.byte	0x0
 1972 036b 05        		.uleb128 0x5
 1973 036c 02        		.byte	0x2
 1974 036d 0000 0000 		.long	.LSM51
 1975 0371 15        		.byte	0x15
 1976 0372 00        		.byte	0x0
 1977 0373 05        		.uleb128 0x5
 1978 0374 02        		.byte	0x2
 1979 0375 0000 0000 		.long	.LFE81
 1980 0379 00        		.byte	0x0
 1981 037a 01        		.uleb128 0x1
 1982 037b 01        		.byte	0x1
 1983 037c 00        		.byte	0x0
 1984 037d 05        		.uleb128 0x5
 1985 037e 02        		.byte	0x2
 1986 037f 0000 0000 		.long	.LSM52
 1987 0383 03        		.byte	0x3
 1988 0384 9702      		.sleb128 279
 1989 0386 01        		.byte	0x1
 1990 0387 00        		.byte	0x0
 1991 0388 05        		.uleb128 0x5
GAS LISTING /var/folders/1s/lqjcb7x5323625d47g9gdgmr0000gp/T//ccjAkA1o.s 			page 37


 1992 0389 02        		.byte	0x2
 1993 038a 0000 0000 		.long	.LSM53
 1994 038e 15        		.byte	0x15
 1995 038f 00        		.byte	0x0
 1996 0390 05        		.uleb128 0x5
 1997 0391 02        		.byte	0x2
 1998 0392 0000 0000 		.long	.LSM54
 1999 0396 15        		.byte	0x15
 2000 0397 00        		.byte	0x0
 2001 0398 05        		.uleb128 0x5
 2002 0399 02        		.byte	0x2
 2003 039a 0000 0000 		.long	.LSM55
 2004 039e 15        		.byte	0x15
 2005 039f 00        		.byte	0x0
 2006 03a0 05        		.uleb128 0x5
 2007 03a1 02        		.byte	0x2
 2008 03a2 0000 0000 		.long	.LFE82
 2009 03a6 00        		.byte	0x0
 2010 03a7 01        		.uleb128 0x1
 2011 03a8 01        		.byte	0x1
 2012 03a9 00        		.byte	0x0
 2013 03aa 05        		.uleb128 0x5
 2014 03ab 02        		.byte	0x2
 2015 03ac 0000 0000 		.long	.LSM56
 2016 03b0 03        		.byte	0x3
 2017 03b1 9C02      		.sleb128 284
 2018 03b3 01        		.byte	0x1
 2019 03b4 00        		.byte	0x0
 2020 03b5 05        		.uleb128 0x5
 2021 03b6 02        		.byte	0x2
 2022 03b7 0000 0000 		.long	.LSM57
 2023 03bb 15        		.byte	0x15
 2024 03bc 00        		.byte	0x0
 2025 03bd 05        		.uleb128 0x5
 2026 03be 02        		.byte	0x2
 2027 03bf 0000 0000 		.long	.LSM58
 2028 03c3 15        		.byte	0x15
 2029 03c4 00        		.byte	0x0
 2030 03c5 05        		.uleb128 0x5
 2031 03c6 02        		.byte	0x2
 2032 03c7 0000 0000 		.long	.LSM59
 2033 03cb 15        		.byte	0x15
 2034 03cc 00        		.byte	0x0
 2035 03cd 05        		.uleb128 0x5
 2036 03ce 02        		.byte	0x2
 2037 03cf 0000 0000 		.long	.LFE83
 2038 03d3 00        		.byte	0x0
 2039 03d4 01        		.uleb128 0x1
 2040 03d5 01        		.byte	0x1
 2041 03d6 00        		.byte	0x0
 2042 03d7 05        		.uleb128 0x5
 2043 03d8 02        		.byte	0x2
 2044 03d9 0000 0000 		.long	.LSM60
 2045 03dd 03        		.byte	0x3
 2046 03de A102      		.sleb128 289
 2047 03e0 01        		.byte	0x1
 2048 03e1 00        		.byte	0x0
GAS LISTING /var/folders/1s/lqjcb7x5323625d47g9gdgmr0000gp/T//ccjAkA1o.s 			page 38


 2049 03e2 05        		.uleb128 0x5
 2050 03e3 02        		.byte	0x2
 2051 03e4 0000 0000 		.long	.LSM61
 2052 03e8 15        		.byte	0x15
 2053 03e9 00        		.byte	0x0
 2054 03ea 05        		.uleb128 0x5
 2055 03eb 02        		.byte	0x2
 2056 03ec 0000 0000 		.long	.LSM62
 2057 03f0 15        		.byte	0x15
 2058 03f1 00        		.byte	0x0
 2059 03f2 05        		.uleb128 0x5
 2060 03f3 02        		.byte	0x2
 2061 03f4 0000 0000 		.long	.LSM63
 2062 03f8 15        		.byte	0x15
 2063 03f9 00        		.byte	0x0
 2064 03fa 05        		.uleb128 0x5
 2065 03fb 02        		.byte	0x2
 2066 03fc 0000 0000 		.long	.LFE84
 2067 0400 00        		.byte	0x0
 2068 0401 01        		.uleb128 0x1
 2069 0402 01        		.byte	0x1
 2070               	.LELT0:
 2071 0403 1900 0000 		.section	.debug_str,"MS",@progbits,1
 2071      0200 1300 
 2071      0000 0101 
 2071      FB0E 0D00 
 2071      0101 0101 
 2072               	.LASF24:
 2073 0000 5F5F 7665 		.string	"__vector_8"
 2073      6374 6F72 
 2073      5F38 00
 2074               	.LASF16:
 2075 000b 6465 7461 		.string	"detachInterrupt"
 2075      6368 496E 
 2075      7465 7272 
 2075      7570 7400 
 2076               	.LASF27:
 2077 001b 4C45 445F 		.string	"LED_BUILTIN"
 2077      4255 494C 
 2077      5449 4E00 
 2078               	.LASF15:
 2079 0027 6174 7461 		.string	"attachInterrupt"
 2079      6368 496E 
 2079      7465 7272 
 2079      7570 7400 
 2080               	.LASF10:
 2081 0037 626F 6F6C 		.string	"bool"
 2081      00
 2082               	.LASF9:
 2083 003c 766F 6964 		.string	"voidFuncPtr"
 2083      4675 6E63 
 2083      5074 7200 
 2084               	.LASF29:
 2085 0048 474E 5520 		.string	"GNU C++ 4.3.2"
 2085      432B 2B20 
 2085      342E 332E 
 2085      3200 
GAS LISTING /var/folders/1s/lqjcb7x5323625d47g9gdgmr0000gp/T//ccjAkA1o.s 			page 39


 2086               	.LASF28:
 2087 0056 696E 7446 		.string	"intFunc"
 2087      756E 6300 
 2088               	.LASF11:
 2089 005e 666C 6F61 		.string	"float"
 2089      7400 
 2090               	.LASF1:
 2091 0064 756E 7369 		.string	"unsigned char"
 2091      676E 6564 
 2091      2063 6861 
 2091      7200 
 2092               	.LASF4:
 2093 0072 6C6F 6E67 		.string	"long unsigned int"
 2093      2075 6E73 
 2093      6967 6E65 
 2093      6420 696E 
 2093      7400 
 2094               	.LASF26:
 2095 0084 4D49 534F 		.string	"MISO"
 2095      00
 2096               	.LASF13:
 2097 0089 7573 6572 		.string	"userFunc"
 2097      4675 6E63 
 2097      00
 2098               	.LASF25:
 2099 0092 4D4F 5349 		.string	"MOSI"
 2099      00
 2100               	.LASF2:
 2101 0097 756E 7369 		.string	"unsigned int"
 2101      676E 6564 
 2101      2069 6E74 
 2101      00
 2102               	.LASF6:
 2103 00a4 6C6F 6E67 		.string	"long long unsigned int"
 2103      206C 6F6E 
 2103      6720 756E 
 2103      7369 676E 
 2103      6564 2069 
 2104               	.LASF8:
 2105 00bb 7569 6E74 		.string	"uint8_t"
 2105      385F 7400 
 2106               	.LASF14:
 2107 00c3 6D6F 6465 		.string	"mode"
 2107      00
 2108               	.LASF5:
 2109 00c8 6C6F 6E67 		.string	"long long int"
 2109      206C 6F6E 
 2109      6720 696E 
 2109      7400 
 2110               	.LASF7:
 2111 00d6 6368 6172 		.string	"char"
 2111      00
 2112               	.LASF30:
 2113 00db 2F41 7070 		.ascii	"/Applications/Arduino.app/Contents"
 2113      6C69 6361 
 2113      7469 6F6E 
 2113      732F 4172 
GAS LISTING /var/folders/1s/lqjcb7x5323625d47g9gdgmr0000gp/T//ccjAkA1o.s 			page 40


 2113      6475 696E 
 2114 00fd 2F52 6573 		.string	"/Resources/Java/hardware/arduino/avr/cores/arduino/WInterrupts.c"
 2114      6F75 7263 
 2114      6573 2F4A 
 2114      6176 612F 
 2114      6861 7264 
 2115               	.LASF17:
 2116 013e 5F5F 7665 		.string	"__vector_1"
 2116      6374 6F72 
 2116      5F31 00
 2117               	.LASF18:
 2118 0149 5F5F 7665 		.string	"__vector_2"
 2118      6374 6F72 
 2118      5F32 00
 2119               	.LASF19:
 2120 0154 5F5F 7665 		.string	"__vector_3"
 2120      6374 6F72 
 2120      5F33 00
 2121               	.LASF20:
 2122 015f 5F5F 7665 		.string	"__vector_4"
 2122      6374 6F72 
 2122      5F34 00
 2123               	.LASF21:
 2124 016a 5F5F 7665 		.string	"__vector_5"
 2124      6374 6F72 
 2124      5F35 00
 2125               	.LASF22:
 2126 0175 5F5F 7665 		.string	"__vector_6"
 2126      6374 6F72 
 2126      5F36 00
 2127               	.LASF23:
 2128 0180 5F5F 7665 		.string	"__vector_7"
 2128      6374 6F72 
 2128      5F37 00
 2129               	.LASF3:
 2130 018b 6C6F 6E67 		.string	"long int"
 2130      2069 6E74 
 2130      00
 2131               	.LASF0:
 2132 0194 7369 676E 		.string	"signed char"
 2132      6564 2063 
 2132      6861 7200 
 2133               	.LASF12:
 2134 01a0 696E 7465 		.string	"interruptNum"
 2134      7272 7570 
 2134      744E 756D 
 2134      00
GAS LISTING /var/folders/1s/lqjcb7x5323625d47g9gdgmr0000gp/T//ccjAkA1o.s 			page 41


DEFINED SYMBOLS
                            *ABS*:00000000 WInterrupts.c
/var/folders/1s/lqjcb7x5323625d47g9gdgmr0000gp/T//ccjAkA1o.s:2      *ABS*:0000003f __SREG__
/var/folders/1s/lqjcb7x5323625d47g9gdgmr0000gp/T//ccjAkA1o.s:3      *ABS*:0000003e __SP_H__
/var/folders/1s/lqjcb7x5323625d47g9gdgmr0000gp/T//ccjAkA1o.s:4      *ABS*:0000003d __SP_L__
/var/folders/1s/lqjcb7x5323625d47g9gdgmr0000gp/T//ccjAkA1o.s:5      *ABS*:00000034 __CCP__
/var/folders/1s/lqjcb7x5323625d47g9gdgmr0000gp/T//ccjAkA1o.s:6      *ABS*:00000000 __tmp_reg__
/var/folders/1s/lqjcb7x5323625d47g9gdgmr0000gp/T//ccjAkA1o.s:7      *ABS*:00000001 __zero_reg__
/var/folders/1s/lqjcb7x5323625d47g9gdgmr0000gp/T//ccjAkA1o.s:21     .text.attachInterrupt:00000000 attachInterrupt
/var/folders/1s/lqjcb7x5323625d47g9gdgmr0000gp/T//ccjAkA1o.s:748    .bss._ZL7intFunc:00000000 _ZL7intFunc
/var/folders/1s/lqjcb7x5323625d47g9gdgmr0000gp/T//ccjAkA1o.s:191    .text.detachInterrupt:00000000 detachInterrupt
/var/folders/1s/lqjcb7x5323625d47g9gdgmr0000gp/T//ccjAkA1o.s:268    .text.__vector_1:00000000 __vector_1
/var/folders/1s/lqjcb7x5323625d47g9gdgmr0000gp/T//ccjAkA1o.s:328    .text.__vector_2:00000000 __vector_2
/var/folders/1s/lqjcb7x5323625d47g9gdgmr0000gp/T//ccjAkA1o.s:388    .text.__vector_3:00000000 __vector_3
/var/folders/1s/lqjcb7x5323625d47g9gdgmr0000gp/T//ccjAkA1o.s:448    .text.__vector_4:00000000 __vector_4
/var/folders/1s/lqjcb7x5323625d47g9gdgmr0000gp/T//ccjAkA1o.s:508    .text.__vector_5:00000000 __vector_5
/var/folders/1s/lqjcb7x5323625d47g9gdgmr0000gp/T//ccjAkA1o.s:568    .text.__vector_6:00000000 __vector_6
/var/folders/1s/lqjcb7x5323625d47g9gdgmr0000gp/T//ccjAkA1o.s:628    .text.__vector_7:00000000 __vector_7
/var/folders/1s/lqjcb7x5323625d47g9gdgmr0000gp/T//ccjAkA1o.s:688    .text.__vector_8:00000000 __vector_8

UNDEFINED SYMBOLS
__do_copy_data
__do_clear_bss
