GAS LISTING /var/folders/1s/lqjcb7x5323625d47g9gdgmr0000gp/T//ccQa0BNx.s 			page 1


   1               		.file	"wiring_analog.c"
   2               	__SREG__ = 0x3f
   3               	__SP_H__ = 0x3e
   4               	__SP_L__ = 0x3d
   5               	__CCP__  = 0x34
   6               	__tmp_reg__ = 0
   7               	__zero_reg__ = 1
   8               		.global __do_copy_data
   9               		.global __do_clear_bss
  10               		.section	.debug_abbrev,"",@progbits
  11               	.Ldebug_abbrev0:
  12               		.section	.debug_info,"",@progbits
  13               	.Ldebug_info0:
  14               		.section	.debug_line,"",@progbits
  15               	.Ldebug_line0:
  16               		.text
  17               	.Ltext0:
  18               		.section	.text.analogReference,"ax",@progbits
  19               	.global	analogReference
  20               		.type	analogReference, @function
  21               	analogReference:
  22               	.LFB75:
  23               	.LSM0:
  24               	.LVL0:
  25               	/* prologue: function */
  26               	/* frame size = 0 */
  27               	.LSM1:
  28 0000 8093 0000 		sts analog_reference,r24
  29               	/* epilogue start */
  30               	.LSM2:
  31 0004 0895      		ret
  32               	.LFE75:
  33               		.size	analogReference, .-analogReference
  34               		.section	.text.analogRead,"ax",@progbits
  35               	.global	analogRead
  36               		.type	analogRead, @function
  37               	analogRead:
  38               	.LFB76:
  39               	.LSM3:
  40               	.LVL1:
  41               	/* prologue: function */
  42               	/* frame size = 0 */
  43 0000 282F      		mov r18,r24
  44               	.LBB2:
  45               	.LSM4:
  46 0002 8633      		cpi r24,lo8(54)
  47 0004 00F0      		brlo .L4
  48 0006 2653      		subi r18,lo8(-(-54))
  49               	.LVL2:
  50               	.L4:
  51               	.LSM5:
  52 0008 8091 7B00 		lds r24,123
  53 000c 922F      		mov r25,r18
  54 000e 9870      		andi r25,lo8(8)
  55 0010 877F      		andi r24,lo8(-9)
  56 0012 982B      		or r25,r24
  57 0014 9093 7B00 		sts 123,r25
GAS LISTING /var/folders/1s/lqjcb7x5323625d47g9gdgmr0000gp/T//ccQa0BNx.s 			page 2


  58               	.LSM6:
  59 0018 2770      		andi r18,lo8(7)
  60 001a 8091 0000 		lds r24,analog_reference
  61 001e 8295      		swap r24
  62 0020 880F      		lsl r24
  63 0022 880F      		lsl r24
  64 0024 807C      		andi r24,lo8(-64)
  65 0026 822B      		or r24,r18
  66 0028 8093 7C00 		sts 124,r24
  67               	.LSM7:
  68 002c 8091 7A00 		lds r24,122
  69 0030 8064      		ori r24,lo8(64)
  70 0032 8093 7A00 		sts 122,r24
  71               	.L5:
  72               	.LSM8:
  73 0036 8091 7A00 		lds r24,122
  74 003a 86FD      		sbrc r24,6
  75 003c 00C0      		rjmp .L5
  76               	.LSM9:
  77 003e 2091 7800 		lds r18,120
  78               	.LVL3:
  79               	.LSM10:
  80 0042 4091 7900 		lds r20,121
  81               	.LVL4:
  82 0046 942F      		mov r25,r20
  83               	.LVL5:
  84 0048 80E0      		ldi r24,lo8(0)
  85               	.LVL6:
  86 004a 30E0      		ldi r19,lo8(0)
  87 004c 282B      		or r18,r24
  88 004e 392B      		or r19,r25
  89               	.LVL7:
  90               	.LBE2:
  91               	.LSM11:
  92 0050 C901      		movw r24,r18
  93               	.LVL8:
  94               	/* epilogue start */
  95 0052 0895      		ret
  96               	.LFE76:
  97               		.size	analogRead, .-analogRead
  98               		.section	.text.analogWrite,"ax",@progbits
  99               	.global	analogWrite
 100               		.type	analogWrite, @function
 101               	analogWrite:
 102               	.LFB77:
 103               	.LSM12:
 104               	.LVL9:
 105 0000 1F93      		push r17
 106 0002 CF93      		push r28
 107 0004 DF93      		push r29
 108               	/* prologue: function */
 109               	/* frame size = 0 */
 110 0006 182F      		mov r17,r24
 111 0008 EB01      		movw r28,r22
 112               	.LBB5:
 113               	.LSM13:
 114 000a 61E0      		ldi r22,lo8(1)
GAS LISTING /var/folders/1s/lqjcb7x5323625d47g9gdgmr0000gp/T//ccQa0BNx.s 			page 3


 115               	.LVL10:
 116 000c 0E94 0000 		call pinMode
 117               	.LVL11:
 118               	.LSM14:
 119 0010 2097      		sbiw r28,0
 120 0012 01F4      		brne .+2
 121 0014 00C0      		rjmp .L35
 122               	.L9:
 123               	.LSM15:
 124 0016 CF3F      		cpi r28,255
 125 0018 D105      		cpc r29,__zero_reg__
 126 001a 01F4      		brne .+2
 127 001c 00C0      		rjmp .L31
 128               	.L11:
 129               	.LBB6:
 130               	.LSM16:
 131 001e E12F      		mov r30,r17
 132 0020 F0E0      		ldi r31,lo8(0)
 133               	.LVL12:
 134 0022 E050      		subi r30,lo8(-(digital_pin_to_timer_PGM))
 135 0024 F040      		sbci r31,hi8(-(digital_pin_to_timer_PGM))
 136               	.LVL13:
 137               	/* #APP */
 138               	 ;  118 "/Applications/Arduino.app/Contents/Resources/Java/hardware/arduino/avr/cores/arduino/wirin
 139 0026 8491      		lpm r24, Z
 140               		
 141               	 ;  0 "" 2
 142               	.LVL14:
 143               	/* #NOAPP */
 144               	.LBE6:
 145 0028 8930      		cpi r24,lo8(9)
 146 002a 01F4      		brne .+2
 147 002c 00C0      		rjmp .L20
 148 002e 8A30      		cpi r24,lo8(10)
 149 0030 00F4      		brsh .L28
 150 0032 8430      		cpi r24,lo8(4)
 151 0034 01F0      		breq .L16
 152 0036 8530      		cpi r24,lo8(5)
 153 0038 00F4      		brsh .L29
 154 003a 8230      		cpi r24,lo8(2)
 155 003c 01F0      		breq .L14
 156 003e 8330      		cpi r24,lo8(3)
 157 0040 00F4      		brsh .L15
 158 0042 8130      		cpi r24,lo8(1)
 159 0044 01F0      		breq .+2
 160 0046 00C0      		rjmp .L12
 161 0048 00C0      		rjmp .L36
 162               	.L29:
 163 004a 8730      		cpi r24,lo8(7)
 164 004c 01F4      		brne .+2
 165 004e 00C0      		rjmp .L18
 166 0050 8830      		cpi r24,lo8(8)
 167 0052 00F0      		brlo .+2
 168 0054 00C0      		rjmp .L19
 169 0056 8630      		cpi r24,lo8(6)
 170 0058 01F0      		breq .+2
 171 005a 00C0      		rjmp .L12
GAS LISTING /var/folders/1s/lqjcb7x5323625d47g9gdgmr0000gp/T//ccQa0BNx.s 			page 4


 172 005c 00C0      		rjmp .L37
 173               	.L28:
 174 005e 8D30      		cpi r24,lo8(13)
 175 0060 01F4      		brne .+2
 176 0062 00C0      		rjmp .L24
 177 0064 8E30      		cpi r24,lo8(14)
 178 0066 00F4      		brsh .L30
 179 0068 8B30      		cpi r24,lo8(11)
 180 006a 01F4      		brne .+2
 181 006c 00C0      		rjmp .L22
 182 006e 8C30      		cpi r24,lo8(12)
 183 0070 00F0      		brlo .+2
 184 0072 00C0      		rjmp .L23
 185 0074 00C0      		rjmp .L38
 186               	.L30:
 187 0076 8031      		cpi r24,lo8(16)
 188 0078 01F4      		brne .+2
 189 007a 00C0      		rjmp .L26
 190 007c 8131      		cpi r24,lo8(17)
 191 007e 01F4      		brne .+2
 192 0080 00C0      		rjmp .L27
 193 0082 8F30      		cpi r24,lo8(15)
 194 0084 01F0      		breq .+2
 195 0086 00C0      		rjmp .L12
 196 0088 00C0      		rjmp .L39
 197               	.L36:
 198               	.LSM17:
 199 008a 84B5      		in r24,68-32
 200               	.LVL15:
 201 008c 8068      		ori r24,lo8(-128)
 202 008e 84BD      		out 68-32,r24
 203               	.LSM18:
 204 0090 C7BD      		out 71-32,r28
 205 0092 00C0      		rjmp .L32
 206               	.LVL16:
 207               	.L14:
 208               	.LSM19:
 209 0094 84B5      		in r24,68-32
 210               	.LVL17:
 211 0096 8062      		ori r24,lo8(32)
 212 0098 84BD      		out 68-32,r24
 213               	.LSM20:
 214 009a C8BD      		out 72-32,r28
 215 009c 00C0      		rjmp .L32
 216               	.LVL18:
 217               	.L15:
 218               	.LSM21:
 219 009e 8091 8000 		lds r24,128
 220               	.LVL19:
 221 00a2 8068      		ori r24,lo8(-128)
 222 00a4 8093 8000 		sts 128,r24
 223               	.LSM22:
 224 00a8 D093 8900 		sts (136)+1,r29
 225 00ac C093 8800 		sts 136,r28
 226 00b0 00C0      		rjmp .L32
 227               	.LVL20:
 228               	.L16:
GAS LISTING /var/folders/1s/lqjcb7x5323625d47g9gdgmr0000gp/T//ccQa0BNx.s 			page 5


 229               	.LSM23:
 230 00b2 8091 8000 		lds r24,128
 231               	.LVL21:
 232 00b6 8062      		ori r24,lo8(32)
 233 00b8 8093 8000 		sts 128,r24
 234               	.LSM24:
 235 00bc D093 8B00 		sts (138)+1,r29
 236 00c0 C093 8A00 		sts 138,r28
 237 00c4 00C0      		rjmp .L32
 238               	.LVL22:
 239               	.L37:
 240               	.LSM25:
 241 00c6 8091 B000 		lds r24,176
 242               	.LVL23:
 243 00ca 8068      		ori r24,lo8(-128)
 244 00cc 8093 B000 		sts 176,r24
 245               	.LSM26:
 246 00d0 C093 B300 		sts 179,r28
 247 00d4 00C0      		rjmp .L32
 248               	.LVL24:
 249               	.L18:
 250               	.LSM27:
 251 00d6 8091 B000 		lds r24,176
 252               	.LVL25:
 253 00da 8062      		ori r24,lo8(32)
 254 00dc 8093 B000 		sts 176,r24
 255               	.LSM28:
 256 00e0 C093 B400 		sts 180,r28
 257 00e4 00C0      		rjmp .L32
 258               	.LVL26:
 259               	.L19:
 260               	.LSM29:
 261 00e6 8091 9000 		lds r24,144
 262               	.LVL27:
 263 00ea 8068      		ori r24,lo8(-128)
 264 00ec 8093 9000 		sts 144,r24
 265               	.LSM30:
 266 00f0 D093 9900 		sts (152)+1,r29
 267 00f4 C093 9800 		sts 152,r28
 268 00f8 00C0      		rjmp .L32
 269               	.LVL28:
 270               	.L20:
 271               	.LSM31:
 272 00fa 8091 9000 		lds r24,144
 273               	.LVL29:
 274 00fe 8062      		ori r24,lo8(32)
 275 0100 8093 9000 		sts 144,r24
 276               	.LSM32:
 277 0104 D093 9B00 		sts (154)+1,r29
 278 0108 C093 9A00 		sts 154,r28
 279 010c 00C0      		rjmp .L32
 280               	.LVL30:
 281               	.L38:
 282               	.LSM33:
 283 010e 8091 9000 		lds r24,144
 284               	.LVL31:
 285 0112 8860      		ori r24,lo8(8)
GAS LISTING /var/folders/1s/lqjcb7x5323625d47g9gdgmr0000gp/T//ccQa0BNx.s 			page 6


 286 0114 8093 9000 		sts 144,r24
 287               	.LSM34:
 288 0118 D093 9D00 		sts (156)+1,r29
 289 011c C093 9C00 		sts 156,r28
 290 0120 00C0      		rjmp .L32
 291               	.LVL32:
 292               	.L22:
 293               	.LSM35:
 294 0122 8091 A000 		lds r24,160
 295               	.LVL33:
 296 0126 8068      		ori r24,lo8(-128)
 297 0128 8093 A000 		sts 160,r24
 298               	.LSM36:
 299 012c 8091 A000 		lds r24,160
 300 0130 8F7B      		andi r24,lo8(-65)
 301 0132 8093 A000 		sts 160,r24
 302               	.LSM37:
 303 0136 D093 A900 		sts (168)+1,r29
 304 013a C093 A800 		sts 168,r28
 305 013e 00C0      		rjmp .L32
 306               	.LVL34:
 307               	.L23:
 308               	.LSM38:
 309 0140 8091 A000 		lds r24,160
 310               	.LVL35:
 311 0144 8062      		ori r24,lo8(32)
 312 0146 8093 A000 		sts 160,r24
 313               	.LSM39:
 314 014a D093 AB00 		sts (170)+1,r29
 315 014e C093 AA00 		sts 170,r28
 316 0152 00C0      		rjmp .L32
 317               	.LVL36:
 318               	.L24:
 319               	.LSM40:
 320 0154 8091 A000 		lds r24,160
 321               	.LVL37:
 322 0158 8860      		ori r24,lo8(8)
 323 015a 8093 A000 		sts 160,r24
 324               	.LSM41:
 325 015e D093 AD00 		sts (172)+1,r29
 326 0162 C093 AC00 		sts 172,r28
 327 0166 00C0      		rjmp .L32
 328               	.LVL38:
 329               	.L39:
 330               	.LSM42:
 331 0168 8091 2001 		lds r24,288
 332               	.LVL39:
 333 016c 8068      		ori r24,lo8(-128)
 334 016e 8093 2001 		sts 288,r24
 335               	.LSM43:
 336 0172 D093 2901 		sts (296)+1,r29
 337 0176 C093 2801 		sts 296,r28
 338 017a 00C0      		rjmp .L32
 339               	.LVL40:
 340               	.L26:
 341               	.LSM44:
 342 017c 8091 2001 		lds r24,288
GAS LISTING /var/folders/1s/lqjcb7x5323625d47g9gdgmr0000gp/T//ccQa0BNx.s 			page 7


 343               	.LVL41:
 344 0180 8062      		ori r24,lo8(32)
 345 0182 8093 2001 		sts 288,r24
 346               	.LSM45:
 347 0186 D093 2B01 		sts (298)+1,r29
 348 018a C093 2A01 		sts 298,r28
 349 018e 00C0      		rjmp .L32
 350               	.LVL42:
 351               	.L27:
 352               	.LSM46:
 353 0190 8091 2001 		lds r24,288
 354               	.LVL43:
 355 0194 8860      		ori r24,lo8(8)
 356 0196 8093 2001 		sts 288,r24
 357               	.LSM47:
 358 019a D093 2D01 		sts (300)+1,r29
 359 019e C093 2C01 		sts 300,r28
 360 01a2 00C0      		rjmp .L32
 361               	.LVL44:
 362               	.L12:
 363               	.LSM48:
 364 01a4 C038      		cpi r28,128
 365 01a6 D105      		cpc r29,__zero_reg__
 366 01a8 04F4      		brge .L31
 367               	.LVL45:
 368               	.L35:
 369               	.LSM49:
 370 01aa 812F      		mov r24,r17
 371               	.LVL46:
 372 01ac 60E0      		ldi r22,lo8(0)
 373 01ae 00C0      		rjmp .L34
 374               	.LVL47:
 375               	.L31:
 376               	.LSM50:
 377 01b0 812F      		mov r24,r17
 378               	.LVL48:
 379 01b2 61E0      		ldi r22,lo8(1)
 380               	.LVL49:
 381               	.L34:
 382 01b4 0E94 0000 		call digitalWrite
 383               	.LVL50:
 384               	.L32:
 385               	/* epilogue start */
 386               	.LBE5:
 387               	.LSM51:
 388 01b8 DF91      		pop r29
 389 01ba CF91      		pop r28
 390               	.LVL51:
 391 01bc 1F91      		pop r17
 392 01be 0895      		ret
 393               	.LFE77:
 394               		.size	analogWrite, .-analogWrite
 395               	.global	analog_reference
 396               		.section	.data.analog_reference,"aw",@progbits
 397               		.type	analog_reference, @object
 398               		.size	analog_reference, 1
 399               	analog_reference:
GAS LISTING /var/folders/1s/lqjcb7x5323625d47g9gdgmr0000gp/T//ccQa0BNx.s 			page 8


 400 0000 01        		.byte	1
 401               		.section	.debug_frame,"",@progbits
 402               	.Lframe0:
 403 0000 0C00 0000 		.long	.LECIE0-.LSCIE0
 404               	.LSCIE0:
 405 0004 FFFF FFFF 		.long	0xffffffff
 406 0008 01        		.byte	0x1
 407 0009 00        		.string	""
 408 000a 01        		.uleb128 0x1
 409 000b 7F        		.sleb128 -1
 410 000c 24        		.byte	0x24
 411 000d 0C        		.byte	0xc
 412 000e 20        		.uleb128 0x20
 413 000f 00        		.uleb128 0x0
 414               		.p2align	2
 415               	.LECIE0:
 416               	.LSFDE0:
 417 0010 0C00 0000 		.long	.LEFDE0-.LASFDE0
 418               	.LASFDE0:
 419 0014 0000 0000 		.long	.Lframe0
 420 0018 0000 0000 		.long	.LFB75
 421 001c 0600 0000 		.long	.LFE75-.LFB75
 422               		.p2align	2
 423               	.LEFDE0:
 424               	.LSFDE2:
 425 0020 0C00 0000 		.long	.LEFDE2-.LASFDE2
 426               	.LASFDE2:
 427 0024 0000 0000 		.long	.Lframe0
 428 0028 0000 0000 		.long	.LFB76
 429 002c 5400 0000 		.long	.LFE76-.LFB76
 430               		.p2align	2
 431               	.LEFDE2:
 432               	.LSFDE4:
 433 0030 0C00 0000 		.long	.LEFDE4-.LASFDE4
 434               	.LASFDE4:
 435 0034 0000 0000 		.long	.Lframe0
 436 0038 0000 0000 		.long	.LFB77
 437 003c C001 0000 		.long	.LFE77-.LFB77
 438               		.p2align	2
 439               	.LEFDE4:
 440               		.text
 441               	.Letext0:
 442               		.section	.debug_loc,"",@progbits
 443               	.Ldebug_loc0:
 444               	.LLST2:
 445 0000 0000 0000 		.long	.LVL1
 446 0004 0000 0000 		.long	.LVL2
 447 0008 0100      		.word	0x1
 448 000a 68        		.byte	0x68
 449 000b 0000 0000 		.long	.LVL2
 450 000f 0000 0000 		.long	.LVL3
 451 0013 0100      		.word	0x1
 452 0015 62        		.byte	0x62
 453 0016 0000 0000 		.long	0x0
 454 001a 0000 0000 		.long	0x0
 455               	.LLST3:
 456 001e 0000 0000 		.long	.LVL3
GAS LISTING /var/folders/1s/lqjcb7x5323625d47g9gdgmr0000gp/T//ccQa0BNx.s 			page 9


 457 0022 0000 0000 		.long	.LVL7
 458 0026 0100      		.word	0x1
 459 0028 62        		.byte	0x62
 460 0029 0000 0000 		.long	0x0
 461 002d 0000 0000 		.long	0x0
 462               	.LLST4:
 463 0031 0000 0000 		.long	.LVL4
 464 0035 0000 0000 		.long	.LVL5
 465 0039 0100      		.word	0x1
 466 003b 64        		.byte	0x64
 467 003c 0000 0000 		.long	.LVL5
 468 0040 0000 0000 		.long	.LVL6
 469 0044 0600      		.word	0x6
 470 0046 64        		.byte	0x64
 471 0047 93        		.byte	0x93
 472 0048 01        		.uleb128 0x1
 473 0049 69        		.byte	0x69
 474 004a 93        		.byte	0x93
 475 004b 01        		.uleb128 0x1
 476 004c 0000 0000 		.long	.LVL6
 477 0050 0000 0000 		.long	.LVL8
 478 0054 0600      		.word	0x6
 479 0056 68        		.byte	0x68
 480 0057 93        		.byte	0x93
 481 0058 01        		.uleb128 0x1
 482 0059 69        		.byte	0x69
 483 005a 93        		.byte	0x93
 484 005b 01        		.uleb128 0x1
 485 005c 0000 0000 		.long	0x0
 486 0060 0000 0000 		.long	0x0
 487               	.LLST6:
 488 0064 0000 0000 		.long	.LVL9
 489 0068 0000 0000 		.long	.LVL11
 490 006c 0100      		.word	0x1
 491 006e 68        		.byte	0x68
 492 006f 0000 0000 		.long	.LVL11
 493 0073 0000 0000 		.long	.LVL12
 494 0077 0100      		.word	0x1
 495 0079 61        		.byte	0x61
 496 007a 0000 0000 		.long	.LVL12
 497 007e 0000 0000 		.long	.LVL49
 498 0082 0600      		.word	0x6
 499 0084 6E        		.byte	0x6e
 500 0085 93        		.byte	0x93
 501 0086 01        		.uleb128 0x1
 502 0087 6F        		.byte	0x6f
 503 0088 93        		.byte	0x93
 504 0089 01        		.uleb128 0x1
 505 008a 0000 0000 		.long	.LVL49
 506 008e 0000 0000 		.long	.LVL50
 507 0092 0600      		.word	0x6
 508 0094 61        		.byte	0x61
 509 0095 93        		.byte	0x93
 510 0096 01        		.uleb128 0x1
 511 0097 6F        		.byte	0x6f
 512 0098 93        		.byte	0x93
 513 0099 01        		.uleb128 0x1
GAS LISTING /var/folders/1s/lqjcb7x5323625d47g9gdgmr0000gp/T//ccQa0BNx.s 			page 10


 514 009a 0000 0000 		.long	.LVL50
 515 009e 0000 0000 		.long	.LFE77
 516 00a2 0600      		.word	0x6
 517 00a4 6E        		.byte	0x6e
 518 00a5 93        		.byte	0x93
 519 00a6 01        		.uleb128 0x1
 520 00a7 6F        		.byte	0x6f
 521 00a8 93        		.byte	0x93
 522 00a9 01        		.uleb128 0x1
 523 00aa 0000 0000 		.long	0x0
 524 00ae 0000 0000 		.long	0x0
 525               	.LLST7:
 526 00b2 0000 0000 		.long	.LVL9
 527 00b6 0000 0000 		.long	.LVL10
 528 00ba 0600      		.word	0x6
 529 00bc 66        		.byte	0x66
 530 00bd 93        		.byte	0x93
 531 00be 01        		.uleb128 0x1
 532 00bf 67        		.byte	0x67
 533 00c0 93        		.byte	0x93
 534 00c1 01        		.uleb128 0x1
 535 00c2 0000 0000 		.long	.LVL10
 536 00c6 0000 0000 		.long	.LVL51
 537 00ca 0600      		.word	0x6
 538 00cc 6C        		.byte	0x6c
 539 00cd 93        		.byte	0x93
 540 00ce 01        		.uleb128 0x1
 541 00cf 6D        		.byte	0x6d
 542 00d0 93        		.byte	0x93
 543 00d1 01        		.uleb128 0x1
 544 00d2 0000 0000 		.long	0x0
 545 00d6 0000 0000 		.long	0x0
 546               	.LLST8:
 547 00da 0000 0000 		.long	.LVL14
 548 00de 0000 0000 		.long	.LVL15
 549 00e2 0100      		.word	0x1
 550 00e4 68        		.byte	0x68
 551 00e5 0000 0000 		.long	.LVL16
 552 00e9 0000 0000 		.long	.LVL17
 553 00ed 0100      		.word	0x1
 554 00ef 68        		.byte	0x68
 555 00f0 0000 0000 		.long	.LVL18
 556 00f4 0000 0000 		.long	.LVL19
 557 00f8 0100      		.word	0x1
 558 00fa 68        		.byte	0x68
 559 00fb 0000 0000 		.long	.LVL20
 560 00ff 0000 0000 		.long	.LVL21
 561 0103 0100      		.word	0x1
 562 0105 68        		.byte	0x68
 563 0106 0000 0000 		.long	.LVL22
 564 010a 0000 0000 		.long	.LVL23
 565 010e 0100      		.word	0x1
 566 0110 68        		.byte	0x68
 567 0111 0000 0000 		.long	.LVL24
 568 0115 0000 0000 		.long	.LVL25
 569 0119 0100      		.word	0x1
 570 011b 68        		.byte	0x68
GAS LISTING /var/folders/1s/lqjcb7x5323625d47g9gdgmr0000gp/T//ccQa0BNx.s 			page 11


 571 011c 0000 0000 		.long	.LVL26
 572 0120 0000 0000 		.long	.LVL27
 573 0124 0100      		.word	0x1
 574 0126 68        		.byte	0x68
 575 0127 0000 0000 		.long	.LVL28
 576 012b 0000 0000 		.long	.LVL29
 577 012f 0100      		.word	0x1
 578 0131 68        		.byte	0x68
 579 0132 0000 0000 		.long	.LVL30
 580 0136 0000 0000 		.long	.LVL31
 581 013a 0100      		.word	0x1
 582 013c 68        		.byte	0x68
 583 013d 0000 0000 		.long	.LVL32
 584 0141 0000 0000 		.long	.LVL33
 585 0145 0100      		.word	0x1
 586 0147 68        		.byte	0x68
 587 0148 0000 0000 		.long	.LVL34
 588 014c 0000 0000 		.long	.LVL35
 589 0150 0100      		.word	0x1
 590 0152 68        		.byte	0x68
 591 0153 0000 0000 		.long	.LVL36
 592 0157 0000 0000 		.long	.LVL37
 593 015b 0100      		.word	0x1
 594 015d 68        		.byte	0x68
 595 015e 0000 0000 		.long	.LVL38
 596 0162 0000 0000 		.long	.LVL39
 597 0166 0100      		.word	0x1
 598 0168 68        		.byte	0x68
 599 0169 0000 0000 		.long	.LVL40
 600 016d 0000 0000 		.long	.LVL41
 601 0171 0100      		.word	0x1
 602 0173 68        		.byte	0x68
 603 0174 0000 0000 		.long	.LVL42
 604 0178 0000 0000 		.long	.LVL43
 605 017c 0100      		.word	0x1
 606 017e 68        		.byte	0x68
 607 017f 0000 0000 		.long	.LVL44
 608 0183 0000 0000 		.long	.LVL46
 609 0187 0100      		.word	0x1
 610 0189 68        		.byte	0x68
 611 018a 0000 0000 		.long	.LVL47
 612 018e 0000 0000 		.long	.LVL48
 613 0192 0100      		.word	0x1
 614 0194 68        		.byte	0x68
 615 0195 0000 0000 		.long	0x0
 616 0199 0000 0000 		.long	0x0
 617               		.section	.debug_info
 618 0000 9002 0000 		.long	0x290
 619 0004 0200      		.word	0x2
 620 0006 0000 0000 		.long	.Ldebug_abbrev0
 621 000a 04        		.byte	0x4
 622 000b 01        		.uleb128 0x1
 623 000c 0000 0000 		.long	.LASF22
 624 0010 04        		.byte	0x4
 625 0011 0000 0000 		.long	.LASF23
 626 0015 0000 0000 		.long	0x0
 627 0019 0000 0000 		.long	0x0
GAS LISTING /var/folders/1s/lqjcb7x5323625d47g9gdgmr0000gp/T//ccQa0BNx.s 			page 12


 628 001d 0000 0000 		.long	.Ldebug_ranges0+0x0
 629 0021 0000 0000 		.long	.Ldebug_line0
 630 0025 02        		.uleb128 0x2
 631 0026 01        		.byte	0x1
 632 0027 06        		.byte	0x6
 633 0028 0000 0000 		.long	.LASF0
 634 002c 03        		.uleb128 0x3
 635 002d 0000 0000 		.long	.LASF2
 636 0031 02        		.byte	0x2
 637 0032 7A        		.byte	0x7a
 638 0033 3700 0000 		.long	0x37
 639 0037 02        		.uleb128 0x2
 640 0038 01        		.byte	0x1
 641 0039 08        		.byte	0x8
 642 003a 0000 0000 		.long	.LASF1
 643 003e 04        		.uleb128 0x4
 644 003f 02        		.byte	0x2
 645 0040 05        		.byte	0x5
 646 0041 696E 7400 		.string	"int"
 647 0045 03        		.uleb128 0x3
 648 0046 0000 0000 		.long	.LASF3
 649 004a 02        		.byte	0x2
 650 004b 7C        		.byte	0x7c
 651 004c 5000 0000 		.long	0x50
 652 0050 02        		.uleb128 0x2
 653 0051 02        		.byte	0x2
 654 0052 07        		.byte	0x7
 655 0053 0000 0000 		.long	.LASF4
 656 0057 02        		.uleb128 0x2
 657 0058 04        		.byte	0x4
 658 0059 05        		.byte	0x5
 659 005a 0000 0000 		.long	.LASF5
 660 005e 02        		.uleb128 0x2
 661 005f 04        		.byte	0x4
 662 0060 07        		.byte	0x7
 663 0061 0000 0000 		.long	.LASF6
 664 0065 02        		.uleb128 0x2
 665 0066 08        		.byte	0x8
 666 0067 05        		.byte	0x5
 667 0068 0000 0000 		.long	.LASF7
 668 006c 02        		.uleb128 0x2
 669 006d 08        		.byte	0x8
 670 006e 07        		.byte	0x7
 671 006f 0000 0000 		.long	.LASF8
 672 0073 02        		.uleb128 0x2
 673 0074 01        		.byte	0x1
 674 0075 06        		.byte	0x6
 675 0076 0000 0000 		.long	.LASF9
 676 007a 05        		.uleb128 0x5
 677 007b 01        		.byte	0x1
 678 007c 06        		.byte	0x6
 679 007d 05        		.uleb128 0x5
 680 007e 01        		.byte	0x1
 681 007f 08        		.byte	0x8
 682 0080 06        		.uleb128 0x6
 683 0081 2C00 0000 		.long	0x2c
 684 0085 02        		.uleb128 0x2
GAS LISTING /var/folders/1s/lqjcb7x5323625d47g9gdgmr0000gp/T//ccQa0BNx.s 			page 13


 685 0086 01        		.byte	0x1
 686 0087 02        		.byte	0x2
 687 0088 0000 0000 		.long	.LASF10
 688 008c 02        		.uleb128 0x2
 689 008d 04        		.byte	0x4
 690 008e 04        		.byte	0x4
 691 008f 0000 0000 		.long	.LASF11
 692 0093 07        		.uleb128 0x7
 693 0094 01        		.byte	0x1
 694 0095 0000 0000 		.long	.LASF14
 695 0099 01        		.byte	0x1
 696 009a 20        		.byte	0x20
 697 009b 0000 0000 		.long	.LFB75
 698 009f 0000 0000 		.long	.LFE75
 699 00a3 02        		.byte	0x2
 700 00a4 90        		.byte	0x90
 701 00a5 20        		.uleb128 0x20
 702 00a6 B800 0000 		.long	0xb8
 703 00aa 08        		.uleb128 0x8
 704 00ab 0000 0000 		.long	.LASF12
 705 00af 01        		.byte	0x1
 706 00b0 20        		.byte	0x20
 707 00b1 2C00 0000 		.long	0x2c
 708 00b5 01        		.byte	0x1
 709 00b6 68        		.byte	0x68
 710 00b7 00        		.byte	0x0
 711 00b8 09        		.uleb128 0x9
 712 00b9 01        		.byte	0x1
 713 00ba 0000 0000 		.long	.LASF24
 714 00be 01        		.byte	0x1
 715 00bf 28        		.byte	0x28
 716 00c0 3E00 0000 		.long	0x3e
 717 00c4 0000 0000 		.long	.LFB76
 718 00c8 0000 0000 		.long	.LFE76
 719 00cc 02        		.byte	0x2
 720 00cd 90        		.byte	0x90
 721 00ce 20        		.uleb128 0x20
 722 00cf 0101 0000 		.long	0x101
 723 00d3 0A        		.uleb128 0xa
 724 00d4 7069 6E00 		.string	"pin"
 725 00d8 01        		.byte	0x1
 726 00d9 28        		.byte	0x28
 727 00da 2C00 0000 		.long	0x2c
 728 00de 0000 0000 		.long	.LLST2
 729 00e2 0B        		.uleb128 0xb
 730 00e3 6C6F 7700 		.string	"low"
 731 00e7 01        		.byte	0x1
 732 00e8 2A        		.byte	0x2a
 733 00e9 2C00 0000 		.long	0x2c
 734 00ed 0000 0000 		.long	.LLST3
 735 00f1 0C        		.uleb128 0xc
 736 00f2 0000 0000 		.long	.LASF13
 737 00f6 01        		.byte	0x1
 738 00f7 2A        		.byte	0x2a
 739 00f8 2C00 0000 		.long	0x2c
 740 00fc 0000 0000 		.long	.LLST4
 741 0100 00        		.byte	0x0
GAS LISTING /var/folders/1s/lqjcb7x5323625d47g9gdgmr0000gp/T//ccQa0BNx.s 			page 14


 742 0101 07        		.uleb128 0x7
 743 0102 01        		.byte	0x1
 744 0103 0000 0000 		.long	.LASF15
 745 0107 01        		.byte	0x1
 746 0108 64        		.byte	0x64
 747 0109 0000 0000 		.long	.LFB77
 748 010d 0000 0000 		.long	.LFE77
 749 0111 02        		.byte	0x2
 750 0112 90        		.byte	0x90
 751 0113 20        		.uleb128 0x20
 752 0114 5B01 0000 		.long	0x15b
 753 0118 0A        		.uleb128 0xa
 754 0119 7069 6E00 		.string	"pin"
 755 011d 01        		.byte	0x1
 756 011e 64        		.byte	0x64
 757 011f 2C00 0000 		.long	0x2c
 758 0123 0000 0000 		.long	.LLST6
 759 0127 0A        		.uleb128 0xa
 760 0128 7661 6C00 		.string	"val"
 761 012c 01        		.byte	0x1
 762 012d 64        		.byte	0x64
 763 012e 3E00 0000 		.long	0x3e
 764 0132 0000 0000 		.long	.LLST7
 765 0136 0D        		.uleb128 0xd
 766 0137 0000 0000 		.long	.LBB6
 767 013b 0000 0000 		.long	.LBE6
 768 013f 0E        		.uleb128 0xe
 769 0140 0000 0000 		.long	.LASF25
 770 0144 01        		.byte	0x1
 771 0145 76        		.byte	0x76
 772 0146 4500 0000 		.long	0x45
 773 014a 0C        		.uleb128 0xc
 774 014b 0000 0000 		.long	.LASF16
 775 014f 01        		.byte	0x1
 776 0150 76        		.byte	0x76
 777 0151 2C00 0000 		.long	0x2c
 778 0155 0000 0000 		.long	.LLST8
 779 0159 00        		.byte	0x0
 780 015a 00        		.byte	0x0
 781 015b 0F        		.uleb128 0xf
 782 015c 2C00 0000 		.long	0x2c
 783 0160 6601 0000 		.long	0x166
 784 0164 10        		.uleb128 0x10
 785 0165 00        		.byte	0x0
 786 0166 11        		.uleb128 0x11
 787 0167 0000 0000 		.long	.LASF20
 788 016b 04        		.byte	0x4
 789 016c 88        		.byte	0x88
 790 016d 7301 0000 		.long	0x173
 791 0171 01        		.byte	0x1
 792 0172 01        		.byte	0x1
 793 0173 06        		.uleb128 0x6
 794 0174 5B01 0000 		.long	0x15b
 795 0178 12        		.uleb128 0x12
 796 0179 5353 00   		.string	"SS"
 797 017c 03        		.byte	0x3
 798 017d 23        		.byte	0x23
GAS LISTING /var/folders/1s/lqjcb7x5323625d47g9gdgmr0000gp/T//ccQa0BNx.s 			page 15


 799 017e 8000 0000 		.long	0x80
 800 0182 35        		.byte	0x35
 801 0183 13        		.uleb128 0x13
 802 0184 0000 0000 		.long	.LASF17
 803 0188 03        		.byte	0x3
 804 0189 24        		.byte	0x24
 805 018a 8000 0000 		.long	0x80
 806 018e 33        		.byte	0x33
 807 018f 13        		.uleb128 0x13
 808 0190 0000 0000 		.long	.LASF18
 809 0194 03        		.byte	0x3
 810 0195 25        		.byte	0x25
 811 0196 8000 0000 		.long	0x80
 812 019a 32        		.byte	0x32
 813 019b 12        		.uleb128 0x12
 814 019c 5343 4B00 		.string	"SCK"
 815 01a0 03        		.byte	0x3
 816 01a1 26        		.byte	0x26
 817 01a2 8000 0000 		.long	0x80
 818 01a6 34        		.byte	0x34
 819 01a7 12        		.uleb128 0x12
 820 01a8 5344 4100 		.string	"SDA"
 821 01ac 03        		.byte	0x3
 822 01ad 28        		.byte	0x28
 823 01ae 8000 0000 		.long	0x80
 824 01b2 14        		.byte	0x14
 825 01b3 12        		.uleb128 0x12
 826 01b4 5343 4C00 		.string	"SCL"
 827 01b8 03        		.byte	0x3
 828 01b9 29        		.byte	0x29
 829 01ba 8000 0000 		.long	0x80
 830 01be 15        		.byte	0x15
 831 01bf 13        		.uleb128 0x13
 832 01c0 0000 0000 		.long	.LASF19
 833 01c4 03        		.byte	0x3
 834 01c5 2A        		.byte	0x2a
 835 01c6 8000 0000 		.long	0x80
 836 01ca 0D        		.byte	0xd
 837 01cb 12        		.uleb128 0x12
 838 01cc 4130 00   		.string	"A0"
 839 01cf 03        		.byte	0x3
 840 01d0 2C        		.byte	0x2c
 841 01d1 8000 0000 		.long	0x80
 842 01d5 36        		.byte	0x36
 843 01d6 12        		.uleb128 0x12
 844 01d7 4131 00   		.string	"A1"
 845 01da 03        		.byte	0x3
 846 01db 2D        		.byte	0x2d
 847 01dc 8000 0000 		.long	0x80
 848 01e0 37        		.byte	0x37
 849 01e1 12        		.uleb128 0x12
 850 01e2 4132 00   		.string	"A2"
 851 01e5 03        		.byte	0x3
 852 01e6 2E        		.byte	0x2e
 853 01e7 8000 0000 		.long	0x80
 854 01eb 38        		.byte	0x38
 855 01ec 12        		.uleb128 0x12
GAS LISTING /var/folders/1s/lqjcb7x5323625d47g9gdgmr0000gp/T//ccQa0BNx.s 			page 16


 856 01ed 4133 00   		.string	"A3"
 857 01f0 03        		.byte	0x3
 858 01f1 2F        		.byte	0x2f
 859 01f2 8000 0000 		.long	0x80
 860 01f6 39        		.byte	0x39
 861 01f7 12        		.uleb128 0x12
 862 01f8 4134 00   		.string	"A4"
 863 01fb 03        		.byte	0x3
 864 01fc 30        		.byte	0x30
 865 01fd 8000 0000 		.long	0x80
 866 0201 3A        		.byte	0x3a
 867 0202 12        		.uleb128 0x12
 868 0203 4135 00   		.string	"A5"
 869 0206 03        		.byte	0x3
 870 0207 31        		.byte	0x31
 871 0208 8000 0000 		.long	0x80
 872 020c 3B        		.byte	0x3b
 873 020d 12        		.uleb128 0x12
 874 020e 4136 00   		.string	"A6"
 875 0211 03        		.byte	0x3
 876 0212 32        		.byte	0x32
 877 0213 8000 0000 		.long	0x80
 878 0217 3C        		.byte	0x3c
 879 0218 12        		.uleb128 0x12
 880 0219 4137 00   		.string	"A7"
 881 021c 03        		.byte	0x3
 882 021d 33        		.byte	0x33
 883 021e 8000 0000 		.long	0x80
 884 0222 3D        		.byte	0x3d
 885 0223 12        		.uleb128 0x12
 886 0224 4138 00   		.string	"A8"
 887 0227 03        		.byte	0x3
 888 0228 34        		.byte	0x34
 889 0229 8000 0000 		.long	0x80
 890 022d 3E        		.byte	0x3e
 891 022e 12        		.uleb128 0x12
 892 022f 4139 00   		.string	"A9"
 893 0232 03        		.byte	0x3
 894 0233 35        		.byte	0x35
 895 0234 8000 0000 		.long	0x80
 896 0238 3F        		.byte	0x3f
 897 0239 12        		.uleb128 0x12
 898 023a 4131 3000 		.string	"A10"
 899 023e 03        		.byte	0x3
 900 023f 36        		.byte	0x36
 901 0240 8000 0000 		.long	0x80
 902 0244 40        		.byte	0x40
 903 0245 12        		.uleb128 0x12
 904 0246 4131 3100 		.string	"A11"
 905 024a 03        		.byte	0x3
 906 024b 37        		.byte	0x37
 907 024c 8000 0000 		.long	0x80
 908 0250 41        		.byte	0x41
 909 0251 12        		.uleb128 0x12
 910 0252 4131 3200 		.string	"A12"
 911 0256 03        		.byte	0x3
 912 0257 38        		.byte	0x38
GAS LISTING /var/folders/1s/lqjcb7x5323625d47g9gdgmr0000gp/T//ccQa0BNx.s 			page 17


 913 0258 8000 0000 		.long	0x80
 914 025c 42        		.byte	0x42
 915 025d 12        		.uleb128 0x12
 916 025e 4131 3300 		.string	"A13"
 917 0262 03        		.byte	0x3
 918 0263 39        		.byte	0x39
 919 0264 8000 0000 		.long	0x80
 920 0268 43        		.byte	0x43
 921 0269 12        		.uleb128 0x12
 922 026a 4131 3400 		.string	"A14"
 923 026e 03        		.byte	0x3
 924 026f 3A        		.byte	0x3a
 925 0270 8000 0000 		.long	0x80
 926 0274 44        		.byte	0x44
 927 0275 12        		.uleb128 0x12
 928 0276 4131 3500 		.string	"A15"
 929 027a 03        		.byte	0x3
 930 027b 3B        		.byte	0x3b
 931 027c 8000 0000 		.long	0x80
 932 0280 45        		.byte	0x45
 933 0281 14        		.uleb128 0x14
 934 0282 0000 0000 		.long	.LASF21
 935 0286 01        		.byte	0x1
 936 0287 1E        		.byte	0x1e
 937 0288 2C00 0000 		.long	0x2c
 938 028c 01        		.byte	0x1
 939 028d 05        		.byte	0x5
 940 028e 03        		.byte	0x3
 941 028f 0000 0000 		.long	analog_reference
 942 0293 00        		.byte	0x0
 943               		.section	.debug_abbrev
 944 0000 01        		.uleb128 0x1
 945 0001 11        		.uleb128 0x11
 946 0002 01        		.byte	0x1
 947 0003 25        		.uleb128 0x25
 948 0004 0E        		.uleb128 0xe
 949 0005 13        		.uleb128 0x13
 950 0006 0B        		.uleb128 0xb
 951 0007 03        		.uleb128 0x3
 952 0008 0E        		.uleb128 0xe
 953 0009 11        		.uleb128 0x11
 954 000a 01        		.uleb128 0x1
 955 000b 52        		.uleb128 0x52
 956 000c 01        		.uleb128 0x1
 957 000d 55        		.uleb128 0x55
 958 000e 06        		.uleb128 0x6
 959 000f 10        		.uleb128 0x10
 960 0010 06        		.uleb128 0x6
 961 0011 00        		.byte	0x0
 962 0012 00        		.byte	0x0
 963 0013 02        		.uleb128 0x2
 964 0014 24        		.uleb128 0x24
 965 0015 00        		.byte	0x0
 966 0016 0B        		.uleb128 0xb
 967 0017 0B        		.uleb128 0xb
 968 0018 3E        		.uleb128 0x3e
 969 0019 0B        		.uleb128 0xb
GAS LISTING /var/folders/1s/lqjcb7x5323625d47g9gdgmr0000gp/T//ccQa0BNx.s 			page 18


 970 001a 03        		.uleb128 0x3
 971 001b 0E        		.uleb128 0xe
 972 001c 00        		.byte	0x0
 973 001d 00        		.byte	0x0
 974 001e 03        		.uleb128 0x3
 975 001f 16        		.uleb128 0x16
 976 0020 00        		.byte	0x0
 977 0021 03        		.uleb128 0x3
 978 0022 0E        		.uleb128 0xe
 979 0023 3A        		.uleb128 0x3a
 980 0024 0B        		.uleb128 0xb
 981 0025 3B        		.uleb128 0x3b
 982 0026 0B        		.uleb128 0xb
 983 0027 49        		.uleb128 0x49
 984 0028 13        		.uleb128 0x13
 985 0029 00        		.byte	0x0
 986 002a 00        		.byte	0x0
 987 002b 04        		.uleb128 0x4
 988 002c 24        		.uleb128 0x24
 989 002d 00        		.byte	0x0
 990 002e 0B        		.uleb128 0xb
 991 002f 0B        		.uleb128 0xb
 992 0030 3E        		.uleb128 0x3e
 993 0031 0B        		.uleb128 0xb
 994 0032 03        		.uleb128 0x3
 995 0033 08        		.uleb128 0x8
 996 0034 00        		.byte	0x0
 997 0035 00        		.byte	0x0
 998 0036 05        		.uleb128 0x5
 999 0037 24        		.uleb128 0x24
 1000 0038 00        		.byte	0x0
 1001 0039 0B        		.uleb128 0xb
 1002 003a 0B        		.uleb128 0xb
 1003 003b 3E        		.uleb128 0x3e
 1004 003c 0B        		.uleb128 0xb
 1005 003d 00        		.byte	0x0
 1006 003e 00        		.byte	0x0
 1007 003f 06        		.uleb128 0x6
 1008 0040 26        		.uleb128 0x26
 1009 0041 00        		.byte	0x0
 1010 0042 49        		.uleb128 0x49
 1011 0043 13        		.uleb128 0x13
 1012 0044 00        		.byte	0x0
 1013 0045 00        		.byte	0x0
 1014 0046 07        		.uleb128 0x7
 1015 0047 2E        		.uleb128 0x2e
 1016 0048 01        		.byte	0x1
 1017 0049 3F        		.uleb128 0x3f
 1018 004a 0C        		.uleb128 0xc
 1019 004b 03        		.uleb128 0x3
 1020 004c 0E        		.uleb128 0xe
 1021 004d 3A        		.uleb128 0x3a
 1022 004e 0B        		.uleb128 0xb
 1023 004f 3B        		.uleb128 0x3b
 1024 0050 0B        		.uleb128 0xb
 1025 0051 11        		.uleb128 0x11
 1026 0052 01        		.uleb128 0x1
GAS LISTING /var/folders/1s/lqjcb7x5323625d47g9gdgmr0000gp/T//ccQa0BNx.s 			page 19


 1027 0053 12        		.uleb128 0x12
 1028 0054 01        		.uleb128 0x1
 1029 0055 40        		.uleb128 0x40
 1030 0056 0A        		.uleb128 0xa
 1031 0057 01        		.uleb128 0x1
 1032 0058 13        		.uleb128 0x13
 1033 0059 00        		.byte	0x0
 1034 005a 00        		.byte	0x0
 1035 005b 08        		.uleb128 0x8
 1036 005c 05        		.uleb128 0x5
 1037 005d 00        		.byte	0x0
 1038 005e 03        		.uleb128 0x3
 1039 005f 0E        		.uleb128 0xe
 1040 0060 3A        		.uleb128 0x3a
 1041 0061 0B        		.uleb128 0xb
 1042 0062 3B        		.uleb128 0x3b
 1043 0063 0B        		.uleb128 0xb
 1044 0064 49        		.uleb128 0x49
 1045 0065 13        		.uleb128 0x13
 1046 0066 02        		.uleb128 0x2
 1047 0067 0A        		.uleb128 0xa
 1048 0068 00        		.byte	0x0
 1049 0069 00        		.byte	0x0
 1050 006a 09        		.uleb128 0x9
 1051 006b 2E        		.uleb128 0x2e
 1052 006c 01        		.byte	0x1
 1053 006d 3F        		.uleb128 0x3f
 1054 006e 0C        		.uleb128 0xc
 1055 006f 03        		.uleb128 0x3
 1056 0070 0E        		.uleb128 0xe
 1057 0071 3A        		.uleb128 0x3a
 1058 0072 0B        		.uleb128 0xb
 1059 0073 3B        		.uleb128 0x3b
 1060 0074 0B        		.uleb128 0xb
 1061 0075 49        		.uleb128 0x49
 1062 0076 13        		.uleb128 0x13
 1063 0077 11        		.uleb128 0x11
 1064 0078 01        		.uleb128 0x1
 1065 0079 12        		.uleb128 0x12
 1066 007a 01        		.uleb128 0x1
 1067 007b 40        		.uleb128 0x40
 1068 007c 0A        		.uleb128 0xa
 1069 007d 01        		.uleb128 0x1
 1070 007e 13        		.uleb128 0x13
 1071 007f 00        		.byte	0x0
 1072 0080 00        		.byte	0x0
 1073 0081 0A        		.uleb128 0xa
 1074 0082 05        		.uleb128 0x5
 1075 0083 00        		.byte	0x0
 1076 0084 03        		.uleb128 0x3
 1077 0085 08        		.uleb128 0x8
 1078 0086 3A        		.uleb128 0x3a
 1079 0087 0B        		.uleb128 0xb
 1080 0088 3B        		.uleb128 0x3b
 1081 0089 0B        		.uleb128 0xb
 1082 008a 49        		.uleb128 0x49
 1083 008b 13        		.uleb128 0x13
GAS LISTING /var/folders/1s/lqjcb7x5323625d47g9gdgmr0000gp/T//ccQa0BNx.s 			page 20


 1084 008c 02        		.uleb128 0x2
 1085 008d 06        		.uleb128 0x6
 1086 008e 00        		.byte	0x0
 1087 008f 00        		.byte	0x0
 1088 0090 0B        		.uleb128 0xb
 1089 0091 34        		.uleb128 0x34
 1090 0092 00        		.byte	0x0
 1091 0093 03        		.uleb128 0x3
 1092 0094 08        		.uleb128 0x8
 1093 0095 3A        		.uleb128 0x3a
 1094 0096 0B        		.uleb128 0xb
 1095 0097 3B        		.uleb128 0x3b
 1096 0098 0B        		.uleb128 0xb
 1097 0099 49        		.uleb128 0x49
 1098 009a 13        		.uleb128 0x13
 1099 009b 02        		.uleb128 0x2
 1100 009c 06        		.uleb128 0x6
 1101 009d 00        		.byte	0x0
 1102 009e 00        		.byte	0x0
 1103 009f 0C        		.uleb128 0xc
 1104 00a0 34        		.uleb128 0x34
 1105 00a1 00        		.byte	0x0
 1106 00a2 03        		.uleb128 0x3
 1107 00a3 0E        		.uleb128 0xe
 1108 00a4 3A        		.uleb128 0x3a
 1109 00a5 0B        		.uleb128 0xb
 1110 00a6 3B        		.uleb128 0x3b
 1111 00a7 0B        		.uleb128 0xb
 1112 00a8 49        		.uleb128 0x49
 1113 00a9 13        		.uleb128 0x13
 1114 00aa 02        		.uleb128 0x2
 1115 00ab 06        		.uleb128 0x6
 1116 00ac 00        		.byte	0x0
 1117 00ad 00        		.byte	0x0
 1118 00ae 0D        		.uleb128 0xd
 1119 00af 0B        		.uleb128 0xb
 1120 00b0 01        		.byte	0x1
 1121 00b1 11        		.uleb128 0x11
 1122 00b2 01        		.uleb128 0x1
 1123 00b3 12        		.uleb128 0x12
 1124 00b4 01        		.uleb128 0x1
 1125 00b5 00        		.byte	0x0
 1126 00b6 00        		.byte	0x0
 1127 00b7 0E        		.uleb128 0xe
 1128 00b8 34        		.uleb128 0x34
 1129 00b9 00        		.byte	0x0
 1130 00ba 03        		.uleb128 0x3
 1131 00bb 0E        		.uleb128 0xe
 1132 00bc 3A        		.uleb128 0x3a
 1133 00bd 0B        		.uleb128 0xb
 1134 00be 3B        		.uleb128 0x3b
 1135 00bf 0B        		.uleb128 0xb
 1136 00c0 49        		.uleb128 0x49
 1137 00c1 13        		.uleb128 0x13
 1138 00c2 00        		.byte	0x0
 1139 00c3 00        		.byte	0x0
 1140 00c4 0F        		.uleb128 0xf
GAS LISTING /var/folders/1s/lqjcb7x5323625d47g9gdgmr0000gp/T//ccQa0BNx.s 			page 21


 1141 00c5 01        		.uleb128 0x1
 1142 00c6 01        		.byte	0x1
 1143 00c7 49        		.uleb128 0x49
 1144 00c8 13        		.uleb128 0x13
 1145 00c9 01        		.uleb128 0x1
 1146 00ca 13        		.uleb128 0x13
 1147 00cb 00        		.byte	0x0
 1148 00cc 00        		.byte	0x0
 1149 00cd 10        		.uleb128 0x10
 1150 00ce 21        		.uleb128 0x21
 1151 00cf 00        		.byte	0x0
 1152 00d0 00        		.byte	0x0
 1153 00d1 00        		.byte	0x0
 1154 00d2 11        		.uleb128 0x11
 1155 00d3 34        		.uleb128 0x34
 1156 00d4 00        		.byte	0x0
 1157 00d5 03        		.uleb128 0x3
 1158 00d6 0E        		.uleb128 0xe
 1159 00d7 3A        		.uleb128 0x3a
 1160 00d8 0B        		.uleb128 0xb
 1161 00d9 3B        		.uleb128 0x3b
 1162 00da 0B        		.uleb128 0xb
 1163 00db 49        		.uleb128 0x49
 1164 00dc 13        		.uleb128 0x13
 1165 00dd 3F        		.uleb128 0x3f
 1166 00de 0C        		.uleb128 0xc
 1167 00df 3C        		.uleb128 0x3c
 1168 00e0 0C        		.uleb128 0xc
 1169 00e1 00        		.byte	0x0
 1170 00e2 00        		.byte	0x0
 1171 00e3 12        		.uleb128 0x12
 1172 00e4 34        		.uleb128 0x34
 1173 00e5 00        		.byte	0x0
 1174 00e6 03        		.uleb128 0x3
 1175 00e7 08        		.uleb128 0x8
 1176 00e8 3A        		.uleb128 0x3a
 1177 00e9 0B        		.uleb128 0xb
 1178 00ea 3B        		.uleb128 0x3b
 1179 00eb 0B        		.uleb128 0xb
 1180 00ec 49        		.uleb128 0x49
 1181 00ed 13        		.uleb128 0x13
 1182 00ee 1C        		.uleb128 0x1c
 1183 00ef 0B        		.uleb128 0xb
 1184 00f0 00        		.byte	0x0
 1185 00f1 00        		.byte	0x0
 1186 00f2 13        		.uleb128 0x13
 1187 00f3 34        		.uleb128 0x34
 1188 00f4 00        		.byte	0x0
 1189 00f5 03        		.uleb128 0x3
 1190 00f6 0E        		.uleb128 0xe
 1191 00f7 3A        		.uleb128 0x3a
 1192 00f8 0B        		.uleb128 0xb
 1193 00f9 3B        		.uleb128 0x3b
 1194 00fa 0B        		.uleb128 0xb
 1195 00fb 49        		.uleb128 0x49
 1196 00fc 13        		.uleb128 0x13
 1197 00fd 1C        		.uleb128 0x1c
GAS LISTING /var/folders/1s/lqjcb7x5323625d47g9gdgmr0000gp/T//ccQa0BNx.s 			page 22


 1198 00fe 0B        		.uleb128 0xb
 1199 00ff 00        		.byte	0x0
 1200 0100 00        		.byte	0x0
 1201 0101 14        		.uleb128 0x14
 1202 0102 34        		.uleb128 0x34
 1203 0103 00        		.byte	0x0
 1204 0104 03        		.uleb128 0x3
 1205 0105 0E        		.uleb128 0xe
 1206 0106 3A        		.uleb128 0x3a
 1207 0107 0B        		.uleb128 0xb
 1208 0108 3B        		.uleb128 0x3b
 1209 0109 0B        		.uleb128 0xb
 1210 010a 49        		.uleb128 0x49
 1211 010b 13        		.uleb128 0x13
 1212 010c 3F        		.uleb128 0x3f
 1213 010d 0C        		.uleb128 0xc
 1214 010e 02        		.uleb128 0x2
 1215 010f 0A        		.uleb128 0xa
 1216 0110 00        		.byte	0x0
 1217 0111 00        		.byte	0x0
 1218 0112 00        		.byte	0x0
 1219               		.section	.debug_pubnames,"",@progbits
 1220 0000 5600 0000 		.long	0x56
 1221 0004 0200      		.word	0x2
 1222 0006 0000 0000 		.long	.Ldebug_info0
 1223 000a 9402 0000 		.long	0x294
 1224 000e 9300 0000 		.long	0x93
 1225 0012 616E 616C 		.string	"analogReference"
 1225      6F67 5265 
 1225      6665 7265 
 1225      6E63 6500 
 1226 0022 B800 0000 		.long	0xb8
 1227 0026 616E 616C 		.string	"analogRead"
 1227      6F67 5265 
 1227      6164 00
 1228 0031 0101 0000 		.long	0x101
 1229 0035 616E 616C 		.string	"analogWrite"
 1229      6F67 5772 
 1229      6974 6500 
 1230 0041 8102 0000 		.long	0x281
 1231 0045 616E 616C 		.string	"analog_reference"
 1231      6F67 5F72 
 1231      6566 6572 
 1231      656E 6365 
 1231      00
 1232 0056 0000 0000 		.long	0x0
 1233               		.section	.debug_aranges,"",@progbits
 1234 0000 2C00 0000 		.long	0x2c
 1235 0004 0200      		.word	0x2
 1236 0006 0000 0000 		.long	.Ldebug_info0
 1237 000a 04        		.byte	0x4
 1238 000b 00        		.byte	0x0
 1239 000c 0000      		.word	0x0
 1240 000e 0000      		.word	0x0
 1241 0010 0000 0000 		.long	.LFB75
 1242 0014 0600 0000 		.long	.LFE75-.LFB75
 1243 0018 0000 0000 		.long	.LFB76
GAS LISTING /var/folders/1s/lqjcb7x5323625d47g9gdgmr0000gp/T//ccQa0BNx.s 			page 23


 1244 001c 5400 0000 		.long	.LFE76-.LFB76
 1245 0020 0000 0000 		.long	.LFB77
 1246 0024 C001 0000 		.long	.LFE77-.LFB77
 1247 0028 0000 0000 		.long	0x0
 1248 002c 0000 0000 		.long	0x0
 1249               		.section	.debug_ranges,"",@progbits
 1250               	.Ldebug_ranges0:
 1251 0000 0000 0000 		.long	.Ltext0
 1252 0004 0000 0000 		.long	.Letext0
 1253 0008 0000 0000 		.long	.LFB75
 1254 000c 0000 0000 		.long	.LFE75
 1255 0010 0000 0000 		.long	.LFB76
 1256 0014 0000 0000 		.long	.LFE76
 1257 0018 0000 0000 		.long	.LFB77
 1258 001c 0000 0000 		.long	.LFE77
 1259 0020 0000 0000 		.long	0x0
 1260 0024 0000 0000 		.long	0x0
 1261               		.section	.debug_line
 1262 0000 3C03 0000 		.long	.LELT0-.LSLT0
 1263               	.LSLT0:
 1264 0004 0200      		.word	0x2
 1265 0006 6E01 0000 		.long	.LELTP0-.LASLTP0
 1266               	.LASLTP0:
 1267 000a 01        		.byte	0x1
 1268 000b 01        		.byte	0x1
 1269 000c F6        		.byte	0xf6
 1270 000d F5        		.byte	0xf5
 1271 000e 0A        		.byte	0xa
 1272 000f 00        		.byte	0x0
 1273 0010 01        		.byte	0x1
 1274 0011 01        		.byte	0x1
 1275 0012 01        		.byte	0x1
 1276 0013 01        		.byte	0x1
 1277 0014 00        		.byte	0x0
 1278 0015 00        		.byte	0x0
 1279 0016 00        		.byte	0x0
 1280 0017 01        		.byte	0x1
 1281 0018 2F41 7070 		.ascii	"/Applications/Arduino.app/Contents/Resources/Java/hardware/a"
 1281      6C69 6361 
 1281      7469 6F6E 
 1281      732F 4172 
 1281      6475 696E 
 1282 0054 7264 7569 		.ascii	"rduino/avr/cores/arduino"
 1282      6E6F 2F61 
 1282      7672 2F63 
 1282      6F72 6573 
 1282      2F61 7264 
 1283 006c 00        		.byte	0
 1284 006d 2F41 7070 		.ascii	"/Applications/Arduino.app/Contents/Resources/Java/hardware/a"
 1284      6C69 6361 
 1284      7469 6F6E 
 1284      732F 4172 
 1284      6475 696E 
 1285 00a9 7264 7569 		.ascii	"rduino/avr/variants/mega"
 1285      6E6F 2F61 
 1285      7672 2F76 
 1285      6172 6961 
GAS LISTING /var/folders/1s/lqjcb7x5323625d47g9gdgmr0000gp/T//ccQa0BNx.s 			page 24


 1285      6E74 732F 
 1286 00c1 00        		.byte	0
 1287 00c2 2F41 7070 		.ascii	"/Applications/Arduino.app/Contents/Resources/Java/hardware/t"
 1287      6C69 6361 
 1287      7469 6F6E 
 1287      732F 4172 
 1287      6475 696E 
 1288 00fe 6F6F 6C73 		.ascii	"ools/avr/bin/../lib/gcc/avr/4.3.2/../../../../avr/include"
 1288      2F61 7672 
 1288      2F62 696E 
 1288      2F2E 2E2F 
 1288      6C69 622F 
 1289 0137 00        		.byte	0
 1290 0138 00        		.byte	0x0
 1291 0139 7769 7269 		.string	"wiring_analog.c"
 1291      6E67 5F61 
 1291      6E61 6C6F 
 1291      672E 6300 
 1292 0149 01        		.uleb128 0x1
 1293 014a 00        		.uleb128 0x0
 1294 014b 00        		.uleb128 0x0
 1295 014c 7374 6469 		.string	"stdint.h"
 1295      6E74 2E68 
 1295      00
 1296 0155 03        		.uleb128 0x3
 1297 0156 00        		.uleb128 0x0
 1298 0157 00        		.uleb128 0x0
 1299 0158 7069 6E73 		.string	"pins_arduino.h"
 1299      5F61 7264 
 1299      7569 6E6F 
 1299      2E68 00
 1300 0167 02        		.uleb128 0x2
 1301 0168 00        		.uleb128 0x0
 1302 0169 00        		.uleb128 0x0
 1303 016a 4172 6475 		.string	"Arduino.h"
 1303      696E 6F2E 
 1303      6800 
 1304 0174 01        		.uleb128 0x1
 1305 0175 00        		.uleb128 0x0
 1306 0176 00        		.uleb128 0x0
 1307 0177 00        		.byte	0x0
 1308               	.LELTP0:
 1309 0178 00        		.byte	0x0
 1310 0179 05        		.uleb128 0x5
 1311 017a 02        		.byte	0x2
 1312 017b 0000 0000 		.long	.Letext0
 1313 017f 00        		.byte	0x0
 1314 0180 01        		.uleb128 0x1
 1315 0181 01        		.byte	0x1
 1316 0182 00        		.byte	0x0
 1317 0183 05        		.uleb128 0x5
 1318 0184 02        		.byte	0x2
 1319 0185 0000 0000 		.long	.LSM0
 1320 0189 33        		.byte	0x33
 1321 018a 00        		.byte	0x0
 1322 018b 05        		.uleb128 0x5
 1323 018c 02        		.byte	0x2
GAS LISTING /var/folders/1s/lqjcb7x5323625d47g9gdgmr0000gp/T//ccQa0BNx.s 			page 25


 1324 018d 0000 0000 		.long	.LSM1
 1325 0191 19        		.byte	0x19
 1326 0192 00        		.byte	0x0
 1327 0193 05        		.uleb128 0x5
 1328 0194 02        		.byte	0x2
 1329 0195 0000 0000 		.long	.LSM2
 1330 0199 15        		.byte	0x15
 1331 019a 00        		.byte	0x0
 1332 019b 05        		.uleb128 0x5
 1333 019c 02        		.byte	0x2
 1334 019d 0000 0000 		.long	.LFE75
 1335 01a1 00        		.byte	0x0
 1336 01a2 01        		.uleb128 0x1
 1337 01a3 01        		.byte	0x1
 1338 01a4 00        		.byte	0x0
 1339 01a5 05        		.uleb128 0x5
 1340 01a6 02        		.byte	0x2
 1341 01a7 0000 0000 		.long	.LSM3
 1342 01ab 3B        		.byte	0x3b
 1343 01ac 00        		.byte	0x0
 1344 01ad 05        		.uleb128 0x5
 1345 01ae 02        		.byte	0x2
 1346 01af 0000 0000 		.long	.LSM4
 1347 01b3 19        		.byte	0x19
 1348 01b4 00        		.byte	0x0
 1349 01b5 05        		.uleb128 0x5
 1350 01b6 02        		.byte	0x2
 1351 01b7 0000 0000 		.long	.LSM5
 1352 01bb 23        		.byte	0x23
 1353 01bc 00        		.byte	0x0
 1354 01bd 05        		.uleb128 0x5
 1355 01be 02        		.byte	0x2
 1356 01bf 0000 0000 		.long	.LSM6
 1357 01c3 1B        		.byte	0x1b
 1358 01c4 00        		.byte	0x0
 1359 01c5 05        		.uleb128 0x5
 1360 01c6 02        		.byte	0x2
 1361 01c7 0000 0000 		.long	.LSM7
 1362 01cb 1C        		.byte	0x1c
 1363 01cc 00        		.byte	0x0
 1364 01cd 05        		.uleb128 0x5
 1365 01ce 02        		.byte	0x2
 1366 01cf 0000 0000 		.long	.LSM8
 1367 01d3 17        		.byte	0x17
 1368 01d4 00        		.byte	0x0
 1369 01d5 05        		.uleb128 0x5
 1370 01d6 02        		.byte	0x2
 1371 01d7 0000 0000 		.long	.LSM9
 1372 01db 1A        		.byte	0x1a
 1373 01dc 00        		.byte	0x0
 1374 01dd 05        		.uleb128 0x5
 1375 01de 02        		.byte	0x2
 1376 01df 0000 0000 		.long	.LSM10
 1377 01e3 15        		.byte	0x15
 1378 01e4 00        		.byte	0x0
 1379 01e5 05        		.uleb128 0x5
 1380 01e6 02        		.byte	0x2
GAS LISTING /var/folders/1s/lqjcb7x5323625d47g9gdgmr0000gp/T//ccQa0BNx.s 			page 26


 1381 01e7 0000 0000 		.long	.LSM11
 1382 01eb 1D        		.byte	0x1d
 1383 01ec 00        		.byte	0x0
 1384 01ed 05        		.uleb128 0x5
 1385 01ee 02        		.byte	0x2
 1386 01ef 0000 0000 		.long	.LFE76
 1387 01f3 00        		.byte	0x0
 1388 01f4 01        		.uleb128 0x1
 1389 01f5 01        		.byte	0x1
 1390 01f6 00        		.byte	0x0
 1391 01f7 05        		.uleb128 0x5
 1392 01f8 02        		.byte	0x2
 1393 01f9 0000 0000 		.long	.LSM12
 1394 01fd 77        		.byte	0x77
 1395 01fe 00        		.byte	0x0
 1396 01ff 05        		.uleb128 0x5
 1397 0200 02        		.byte	0x2
 1398 0201 0000 0000 		.long	.LSM13
 1399 0205 1B        		.byte	0x1b
 1400 0206 00        		.byte	0x0
 1401 0207 05        		.uleb128 0x5
 1402 0208 02        		.byte	0x2
 1403 0209 0000 0000 		.long	.LSM14
 1404 020d 15        		.byte	0x15
 1405 020e 00        		.byte	0x0
 1406 020f 05        		.uleb128 0x5
 1407 0210 02        		.byte	0x2
 1408 0211 0000 0000 		.long	.LSM15
 1409 0215 18        		.byte	0x18
 1410 0216 00        		.byte	0x0
 1411 0217 05        		.uleb128 0x5
 1412 0218 02        		.byte	0x2
 1413 0219 0000 0000 		.long	.LSM16
 1414 021d 1A        		.byte	0x1a
 1415 021e 00        		.byte	0x0
 1416 021f 05        		.uleb128 0x5
 1417 0220 02        		.byte	0x2
 1418 0221 0000 0000 		.long	.LSM17
 1419 0225 22        		.byte	0x22
 1420 0226 00        		.byte	0x0
 1421 0227 05        		.uleb128 0x5
 1422 0228 02        		.byte	0x2
 1423 0229 0000 0000 		.long	.LSM18
 1424 022d 15        		.byte	0x15
 1425 022e 00        		.byte	0x0
 1426 022f 05        		.uleb128 0x5
 1427 0230 02        		.byte	0x2
 1428 0231 0000 0000 		.long	.LSM19
 1429 0235 1B        		.byte	0x1b
 1430 0236 00        		.byte	0x0
 1431 0237 05        		.uleb128 0x5
 1432 0238 02        		.byte	0x2
 1433 0239 0000 0000 		.long	.LSM20
 1434 023d 15        		.byte	0x15
 1435 023e 00        		.byte	0x0
 1436 023f 05        		.uleb128 0x5
 1437 0240 02        		.byte	0x2
GAS LISTING /var/folders/1s/lqjcb7x5323625d47g9gdgmr0000gp/T//ccQa0BNx.s 			page 27


 1438 0241 0000 0000 		.long	.LSM21
 1439 0245 1B        		.byte	0x1b
 1440 0246 00        		.byte	0x0
 1441 0247 05        		.uleb128 0x5
 1442 0248 02        		.byte	0x2
 1443 0249 0000 0000 		.long	.LSM22
 1444 024d 15        		.byte	0x15
 1445 024e 00        		.byte	0x0
 1446 024f 05        		.uleb128 0x5
 1447 0250 02        		.byte	0x2
 1448 0251 0000 0000 		.long	.LSM23
 1449 0255 1B        		.byte	0x1b
 1450 0256 00        		.byte	0x0
 1451 0257 05        		.uleb128 0x5
 1452 0258 02        		.byte	0x2
 1453 0259 0000 0000 		.long	.LSM24
 1454 025d 15        		.byte	0x15
 1455 025e 00        		.byte	0x0
 1456 025f 05        		.uleb128 0x5
 1457 0260 02        		.byte	0x2
 1458 0261 0000 0000 		.long	.LSM25
 1459 0265 23        		.byte	0x23
 1460 0266 00        		.byte	0x0
 1461 0267 05        		.uleb128 0x5
 1462 0268 02        		.byte	0x2
 1463 0269 0000 0000 		.long	.LSM26
 1464 026d 15        		.byte	0x15
 1465 026e 00        		.byte	0x0
 1466 026f 05        		.uleb128 0x5
 1467 0270 02        		.byte	0x2
 1468 0271 0000 0000 		.long	.LSM27
 1469 0275 1B        		.byte	0x1b
 1470 0276 00        		.byte	0x0
 1471 0277 05        		.uleb128 0x5
 1472 0278 02        		.byte	0x2
 1473 0279 0000 0000 		.long	.LSM28
 1474 027d 15        		.byte	0x15
 1475 027e 00        		.byte	0x0
 1476 027f 05        		.uleb128 0x5
 1477 0280 02        		.byte	0x2
 1478 0281 0000 0000 		.long	.LSM29
 1479 0285 1B        		.byte	0x1b
 1480 0286 00        		.byte	0x0
 1481 0287 05        		.uleb128 0x5
 1482 0288 02        		.byte	0x2
 1483 0289 0000 0000 		.long	.LSM30
 1484 028d 15        		.byte	0x15
 1485 028e 00        		.byte	0x0
 1486 028f 05        		.uleb128 0x5
 1487 0290 02        		.byte	0x2
 1488 0291 0000 0000 		.long	.LSM31
 1489 0295 1B        		.byte	0x1b
 1490 0296 00        		.byte	0x0
 1491 0297 05        		.uleb128 0x5
 1492 0298 02        		.byte	0x2
 1493 0299 0000 0000 		.long	.LSM32
 1494 029d 15        		.byte	0x15
GAS LISTING /var/folders/1s/lqjcb7x5323625d47g9gdgmr0000gp/T//ccQa0BNx.s 			page 28


 1495 029e 00        		.byte	0x0
 1496 029f 05        		.uleb128 0x5
 1497 02a0 02        		.byte	0x2
 1498 02a1 0000 0000 		.long	.LSM33
 1499 02a5 1B        		.byte	0x1b
 1500 02a6 00        		.byte	0x0
 1501 02a7 05        		.uleb128 0x5
 1502 02a8 02        		.byte	0x2
 1503 02a9 0000 0000 		.long	.LSM34
 1504 02ad 15        		.byte	0x15
 1505 02ae 00        		.byte	0x0
 1506 02af 05        		.uleb128 0x5
 1507 02b0 02        		.byte	0x2
 1508 02b1 0000 0000 		.long	.LSM35
 1509 02b5 1B        		.byte	0x1b
 1510 02b6 00        		.byte	0x0
 1511 02b7 05        		.uleb128 0x5
 1512 02b8 02        		.byte	0x2
 1513 02b9 0000 0000 		.long	.LSM36
 1514 02bd 16        		.byte	0x16
 1515 02be 00        		.byte	0x0
 1516 02bf 05        		.uleb128 0x5
 1517 02c0 02        		.byte	0x2
 1518 02c1 0000 0000 		.long	.LSM37
 1519 02c5 16        		.byte	0x16
 1520 02c6 00        		.byte	0x0
 1521 02c7 05        		.uleb128 0x5
 1522 02c8 02        		.byte	0x2
 1523 02c9 0000 0000 		.long	.LSM38
 1524 02cd 1B        		.byte	0x1b
 1525 02ce 00        		.byte	0x0
 1526 02cf 05        		.uleb128 0x5
 1527 02d0 02        		.byte	0x2
 1528 02d1 0000 0000 		.long	.LSM39
 1529 02d5 15        		.byte	0x15
 1530 02d6 00        		.byte	0x0
 1531 02d7 05        		.uleb128 0x5
 1532 02d8 02        		.byte	0x2
 1533 02d9 0000 0000 		.long	.LSM40
 1534 02dd 1B        		.byte	0x1b
 1535 02de 00        		.byte	0x0
 1536 02df 05        		.uleb128 0x5
 1537 02e0 02        		.byte	0x2
 1538 02e1 0000 0000 		.long	.LSM41
 1539 02e5 15        		.byte	0x15
 1540 02e6 00        		.byte	0x0
 1541 02e7 05        		.uleb128 0x5
 1542 02e8 02        		.byte	0x2
 1543 02e9 0000 0000 		.long	.LSM42
 1544 02ed 27        		.byte	0x27
 1545 02ee 00        		.byte	0x0
 1546 02ef 05        		.uleb128 0x5
 1547 02f0 02        		.byte	0x2
 1548 02f1 0000 0000 		.long	.LSM43
 1549 02f5 15        		.byte	0x15
 1550 02f6 00        		.byte	0x0
 1551 02f7 05        		.uleb128 0x5
GAS LISTING /var/folders/1s/lqjcb7x5323625d47g9gdgmr0000gp/T//ccQa0BNx.s 			page 29


 1552 02f8 02        		.byte	0x2
 1553 02f9 0000 0000 		.long	.LSM44
 1554 02fd 1B        		.byte	0x1b
 1555 02fe 00        		.byte	0x0
 1556 02ff 05        		.uleb128 0x5
 1557 0300 02        		.byte	0x2
 1558 0301 0000 0000 		.long	.LSM45
 1559 0305 15        		.byte	0x15
 1560 0306 00        		.byte	0x0
 1561 0307 05        		.uleb128 0x5
 1562 0308 02        		.byte	0x2
 1563 0309 0000 0000 		.long	.LSM46
 1564 030d 1B        		.byte	0x1b
 1565 030e 00        		.byte	0x0
 1566 030f 05        		.uleb128 0x5
 1567 0310 02        		.byte	0x2
 1568 0311 0000 0000 		.long	.LSM47
 1569 0315 15        		.byte	0x15
 1570 0316 00        		.byte	0x0
 1571 0317 05        		.uleb128 0x5
 1572 0318 02        		.byte	0x2
 1573 0319 0000 0000 		.long	.LSM48
 1574 031d 1A        		.byte	0x1a
 1575 031e 00        		.byte	0x0
 1576 031f 05        		.uleb128 0x5
 1577 0320 02        		.byte	0x2
 1578 0321 0000 0000 		.long	.LSM49
 1579 0325 15        		.byte	0x15
 1580 0326 00        		.byte	0x0
 1581 0327 05        		.uleb128 0x5
 1582 0328 02        		.byte	0x2
 1583 0329 0000 0000 		.long	.LSM50
 1584 032d 16        		.byte	0x16
 1585 032e 00        		.byte	0x0
 1586 032f 05        		.uleb128 0x5
 1587 0330 02        		.byte	0x2
 1588 0331 0000 0000 		.long	.LSM51
 1589 0335 18        		.byte	0x18
 1590 0336 00        		.byte	0x0
 1591 0337 05        		.uleb128 0x5
 1592 0338 02        		.byte	0x2
 1593 0339 0000 0000 		.long	.LFE77
 1594 033d 00        		.byte	0x0
 1595 033e 01        		.uleb128 0x1
 1596 033f 01        		.byte	0x1
 1597               	.LELT0:
 1598 0340 1900 0000 		.section	.debug_str,"MS",@progbits,1
 1598      0200 1300 
 1598      0000 0101 
 1598      FB0E 0D00 
 1598      0101 0101 
 1599               	.LASF25:
 1600 0000 5F5F 6164 		.string	"__addr16"
 1600      6472 3136 
 1600      00
 1601               	.LASF19:
 1602 0009 4C45 445F 		.string	"LED_BUILTIN"
GAS LISTING /var/folders/1s/lqjcb7x5323625d47g9gdgmr0000gp/T//ccQa0BNx.s 			page 30


 1602      4255 494C 
 1602      5449 4E00 
 1603               	.LASF14:
 1604 0015 616E 616C 		.string	"analogReference"
 1604      6F67 5265 
 1604      6665 7265 
 1604      6E63 6500 
 1605               	.LASF13:
 1606 0025 6869 6768 		.string	"high"
 1606      00
 1607               	.LASF21:
 1608 002a 616E 616C 		.string	"analog_reference"
 1608      6F67 5F72 
 1608      6566 6572 
 1608      656E 6365 
 1608      00
 1609               	.LASF10:
 1610 003b 626F 6F6C 		.string	"bool"
 1610      00
 1611               	.LASF22:
 1612 0040 474E 5520 		.string	"GNU C++ 4.3.2"
 1612      432B 2B20 
 1612      342E 332E 
 1612      3200 
 1613               	.LASF20:
 1614 004e 6469 6769 		.string	"digital_pin_to_timer_PGM"
 1614      7461 6C5F 
 1614      7069 6E5F 
 1614      746F 5F74 
 1614      696D 6572 
 1615               	.LASF11:
 1616 0067 666C 6F61 		.string	"float"
 1616      7400 
 1617               	.LASF1:
 1618 006d 756E 7369 		.string	"unsigned char"
 1618      676E 6564 
 1618      2063 6861 
 1618      7200 
 1619               	.LASF24:
 1620 007b 616E 616C 		.string	"analogRead"
 1620      6F67 5265 
 1620      6164 00
 1621               	.LASF15:
 1622 0086 616E 616C 		.string	"analogWrite"
 1622      6F67 5772 
 1622      6974 6500 
 1623               	.LASF16:
 1624 0092 5F5F 7265 		.string	"__result"
 1624      7375 6C74 
 1624      00
 1625               	.LASF6:
 1626 009b 6C6F 6E67 		.string	"long unsigned int"
 1626      2075 6E73 
 1626      6967 6E65 
 1626      6420 696E 
 1626      7400 
 1627               	.LASF18:
GAS LISTING /var/folders/1s/lqjcb7x5323625d47g9gdgmr0000gp/T//ccQa0BNx.s 			page 31


 1628 00ad 4D49 534F 		.string	"MISO"
 1628      00
 1629               	.LASF17:
 1630 00b2 4D4F 5349 		.string	"MOSI"
 1630      00
 1631               	.LASF4:
 1632 00b7 756E 7369 		.string	"unsigned int"
 1632      676E 6564 
 1632      2069 6E74 
 1632      00
 1633               	.LASF8:
 1634 00c4 6C6F 6E67 		.string	"long long unsigned int"
 1634      206C 6F6E 
 1634      6720 756E 
 1634      7369 676E 
 1634      6564 2069 
 1635               	.LASF2:
 1636 00db 7569 6E74 		.string	"uint8_t"
 1636      385F 7400 
 1637               	.LASF12:
 1638 00e3 6D6F 6465 		.string	"mode"
 1638      00
 1639               	.LASF7:
 1640 00e8 6C6F 6E67 		.string	"long long int"
 1640      206C 6F6E 
 1640      6720 696E 
 1640      7400 
 1641               	.LASF9:
 1642 00f6 6368 6172 		.string	"char"
 1642      00
 1643               	.LASF23:
 1644 00fb 2F41 7070 		.ascii	"/Applications/Arduino.app/Contents/R"
 1644      6C69 6361 
 1644      7469 6F6E 
 1644      732F 4172 
 1644      6475 696E 
 1645 011f 6573 6F75 		.string	"esources/Java/hardware/arduino/avr/cores/arduino/wiring_analog.c"
 1645      7263 6573 
 1645      2F4A 6176 
 1645      612F 6861 
 1645      7264 7761 
 1646               	.LASF3:
 1647 0160 7569 6E74 		.string	"uint16_t"
 1647      3136 5F74 
 1647      00
 1648               	.LASF5:
 1649 0169 6C6F 6E67 		.string	"long int"
 1649      2069 6E74 
 1649      00
 1650               	.LASF0:
 1651 0172 7369 676E 		.string	"signed char"
 1651      6564 2063 
 1651      6861 7200 
GAS LISTING /var/folders/1s/lqjcb7x5323625d47g9gdgmr0000gp/T//ccQa0BNx.s 			page 32


DEFINED SYMBOLS
                            *ABS*:00000000 wiring_analog.c
/var/folders/1s/lqjcb7x5323625d47g9gdgmr0000gp/T//ccQa0BNx.s:2      *ABS*:0000003f __SREG__
/var/folders/1s/lqjcb7x5323625d47g9gdgmr0000gp/T//ccQa0BNx.s:3      *ABS*:0000003e __SP_H__
/var/folders/1s/lqjcb7x5323625d47g9gdgmr0000gp/T//ccQa0BNx.s:4      *ABS*:0000003d __SP_L__
/var/folders/1s/lqjcb7x5323625d47g9gdgmr0000gp/T//ccQa0BNx.s:5      *ABS*:00000034 __CCP__
/var/folders/1s/lqjcb7x5323625d47g9gdgmr0000gp/T//ccQa0BNx.s:6      *ABS*:00000000 __tmp_reg__
/var/folders/1s/lqjcb7x5323625d47g9gdgmr0000gp/T//ccQa0BNx.s:7      *ABS*:00000001 __zero_reg__
/var/folders/1s/lqjcb7x5323625d47g9gdgmr0000gp/T//ccQa0BNx.s:21     .text.analogReference:00000000 analogReference
/var/folders/1s/lqjcb7x5323625d47g9gdgmr0000gp/T//ccQa0BNx.s:399    .data.analog_reference:00000000 analog_reference
/var/folders/1s/lqjcb7x5323625d47g9gdgmr0000gp/T//ccQa0BNx.s:37     .text.analogRead:00000000 analogRead
/var/folders/1s/lqjcb7x5323625d47g9gdgmr0000gp/T//ccQa0BNx.s:101    .text.analogWrite:00000000 analogWrite

UNDEFINED SYMBOLS
__do_copy_data
__do_clear_bss
pinMode
digital_pin_to_timer_PGM
digitalWrite
