GAS LISTING /var/folders/1s/lqjcb7x5323625d47g9gdgmr0000gp/T//ccbjwlOH.s 			page 1


   1               		.file	"WString.cpp"
   2               	__SREG__ = 0x3f
   3               	__SP_H__ = 0x3e
   4               	__SP_L__ = 0x3d
   5               	__CCP__  = 0x34
   6               	__tmp_reg__ = 0
   7               	__zero_reg__ = 1
   8               		.global __do_copy_data
   9               		.global __do_clear_bss
  10               		.section	.debug_abbrev,"",@progbits
  11               	.Ldebug_abbrev0:
  12               		.section	.debug_info,"",@progbits
  13               	.Ldebug_info0:
  14               		.section	.debug_line,"",@progbits
  15               	.Ldebug_line0:
  16               		.text
  17               	.Ltext0:
  18               		.section	.text._ZNK6String6charAtEj,"ax",@progbits
  19               	.global	_ZNK6String6charAtEj
  20               		.type	_ZNK6String6charAtEj, @function
  21               	_ZNK6String6charAtEj:
  22               	.LFB104:
  23               	.LSM0:
  24               	.LVL0:
  25               	/* prologue: function */
  26               	/* frame size = 0 */
  27 0000 FC01      		movw r30,r24
  28               	.LBB64:
  29               	.LBB65:
  30               	.LSM1:
  31 0002 8481      		ldd r24,Z+4
  32 0004 9581      		ldd r25,Z+5
  33               	.LVL1:
  34 0006 6817      		cp r22,r24
  35 0008 7907      		cpc r23,r25
  36 000a 00F4      		brsh .L2
  37 000c 0190      		ld __tmp_reg__,Z+
  38 000e F081      		ld r31,Z
  39 0010 E02D      		mov r30,__tmp_reg__
  40               	.LVL2:
  41 0012 3097      		sbiw r30,0
  42 0014 01F0      		breq .L2
  43               	.LSM2:
  44 0016 E60F      		add r30,r22
  45 0018 F71F      		adc r31,r23
  46 001a 8081      		ld r24,Z
  47 001c 0895      		ret
  48               	.LVL3:
  49               	.L2:
  50 001e 80E0      		ldi r24,lo8(0)
  51               	.LBE65:
  52               	.LBE64:
  53               	.LSM3:
  54 0020 0895      		ret
  55               	.LFE104:
  56               		.size	_ZNK6String6charAtEj, .-_ZNK6String6charAtEj
  57               		.section	.text._ZN6String9setCharAtEjc,"ax",@progbits
GAS LISTING /var/folders/1s/lqjcb7x5323625d47g9gdgmr0000gp/T//ccbjwlOH.s 			page 2


  58               	.global	_ZN6String9setCharAtEjc
  59               		.type	_ZN6String9setCharAtEjc, @function
  60               	_ZN6String9setCharAtEjc:
  61               	.LFB105:
  62               	.LSM4:
  63               	.LVL4:
  64               	/* prologue: function */
  65               	/* frame size = 0 */
  66 0000 FC01      		movw r30,r24
  67               	.LSM5:
  68 0002 8481      		ldd r24,Z+4
  69 0004 9581      		ldd r25,Z+5
  70               	.LVL5:
  71 0006 6817      		cp r22,r24
  72 0008 7907      		cpc r23,r25
  73 000a 00F4      		brsh .L7
  74 000c 0190      		ld __tmp_reg__,Z+
  75 000e F081      		ld r31,Z
  76 0010 E02D      		mov r30,__tmp_reg__
  77               	.LVL6:
  78 0012 E60F      		add r30,r22
  79 0014 F71F      		adc r31,r23
  80 0016 4083      		st Z,r20
  81               	.LVL7:
  82               	.L7:
  83 0018 0895      		ret
  84               	.LFE105:
  85               		.size	_ZN6String9setCharAtEjc, .-_ZN6String9setCharAtEjc
  86               		.section	.text._ZN6StringixEj,"ax",@progbits
  87               	.global	_ZN6StringixEj
  88               		.type	_ZN6StringixEj, @function
  89               	_ZN6StringixEj:
  90               	.LFB106:
  91               	.LSM6:
  92               	.LVL8:
  93               	/* prologue: function */
  94               	/* frame size = 0 */
  95 0000 FC01      		movw r30,r24
  96 0002 9B01      		movw r18,r22
  97               	.LBB66:
  98               	.LSM7:
  99 0004 8481      		ldd r24,Z+4
 100 0006 9581      		ldd r25,Z+5
 101               	.LVL9:
 102 0008 6817      		cp r22,r24
 103 000a 7907      		cpc r23,r25
 104 000c 00F4      		brsh .L9
 105 000e 6081      		ld r22,Z
 106 0010 7181      		ldd r23,Z+1
 107               	.LVL10:
 108 0012 6115      		cp r22,__zero_reg__
 109 0014 7105      		cpc r23,__zero_reg__
 110 0016 01F4      		brne .L10
 111               	.LVL11:
 112               	.L9:
 113               	.LSM8:
 114 0018 1092 0000 		sts _ZZN6StringixEjE19dummy_writable_char,__zero_reg__
GAS LISTING /var/folders/1s/lqjcb7x5323625d47g9gdgmr0000gp/T//ccbjwlOH.s 			page 3


 115 001c 60E0      		ldi r22,lo8(_ZZN6StringixEjE19dummy_writable_char)
 116 001e 70E0      		ldi r23,hi8(_ZZN6StringixEjE19dummy_writable_char)
 117 0020 00C0      		rjmp .L11
 118               	.L10:
 119               	.LSM9:
 120 0022 620F      		add r22,r18
 121 0024 731F      		adc r23,r19
 122               	.L11:
 123               	.LBE66:
 124               	.LSM10:
 125 0026 CB01      		movw r24,r22
 126               	/* epilogue start */
 127 0028 0895      		ret
 128               	.LFE106:
 129               		.size	_ZN6StringixEj, .-_ZN6StringixEj
 130               		.section	.text._ZNK6StringixEj,"ax",@progbits
 131               	.global	_ZNK6StringixEj
 132               		.type	_ZNK6StringixEj, @function
 133               	_ZNK6StringixEj:
 134               	.LFB107:
 135               	.LSM11:
 136               	.LVL12:
 137               	/* prologue: function */
 138               	/* frame size = 0 */
 139 0000 FC01      		movw r30,r24
 140               	.LSM12:
 141 0002 8481      		ldd r24,Z+4
 142 0004 9581      		ldd r25,Z+5
 143               	.LVL13:
 144 0006 6817      		cp r22,r24
 145 0008 7907      		cpc r23,r25
 146 000a 00F4      		brsh .L14
 147 000c 0190      		ld __tmp_reg__,Z+
 148 000e F081      		ld r31,Z
 149 0010 E02D      		mov r30,__tmp_reg__
 150               	.LVL14:
 151 0012 3097      		sbiw r30,0
 152 0014 01F0      		breq .L14
 153               	.LSM13:
 154 0016 E60F      		add r30,r22
 155 0018 F71F      		adc r31,r23
 156 001a 8081      		ld r24,Z
 157 001c 0895      		ret
 158               	.LVL15:
 159               	.L14:
 160 001e 80E0      		ldi r24,lo8(0)
 161               	.LSM14:
 162 0020 0895      		ret
 163               	.LFE107:
 164               		.size	_ZNK6StringixEj, .-_ZNK6StringixEj
 165               		.section	.text._ZN6String7replaceEcc,"ax",@progbits
 166               	.global	_ZN6String7replaceEcc
 167               		.type	_ZN6String7replaceEcc, @function
 168               	_ZN6String7replaceEcc:
 169               	.LFB119:
 170               	.LSM15:
 171               	.LVL16:
GAS LISTING /var/folders/1s/lqjcb7x5323625d47g9gdgmr0000gp/T//ccbjwlOH.s 			page 4


 172               	/* prologue: function */
 173               	/* frame size = 0 */
 174 0000 FC01      		movw r30,r24
 175               	.LBB67:
 176               	.LSM16:
 177 0002 0190      		ld __tmp_reg__,Z+
 178 0004 F081      		ld r31,Z
 179 0006 E02D      		mov r30,__tmp_reg__
 180               	.LVL17:
 181 0008 3097      		sbiw r30,0
 182 000a 01F4      		brne .L23
 183 000c 0895      		ret
 184               	.LVL18:
 185               	.L21:
 186               	.LBB68:
 187               	.LSM17:
 188 000e 8617      		cp r24,r22
 189 0010 01F4      		brne .L20
 190 0012 4083      		st Z,r20
 191               	.L20:
 192               	.LSM18:
 193 0014 3196      		adiw r30,1
 194               	.LVL19:
 195               	.L23:
 196 0016 8081      		ld r24,Z
 197               	.LVL20:
 198 0018 8823      		tst r24
 199 001a 01F4      		brne .L21
 200 001c 0895      		ret
 201               	.LBE68:
 202               	.LBE67:
 203               	.LFE119:
 204               		.size	_ZN6String7replaceEcc, .-_ZN6String7replaceEcc
 205               		.section	.text._ZNK6String5toIntEv,"ax",@progbits
 206               	.global	_ZNK6String5toIntEv
 207               		.type	_ZNK6String5toIntEv, @function
 208               	_ZNK6String5toIntEv:
 209               	.LFB124:
 210               	.LSM19:
 211               	.LVL21:
 212               	/* prologue: function */
 213               	/* frame size = 0 */
 214 0000 FC01      		movw r30,r24
 215               	.LSM20:
 216 0002 8081      		ld r24,Z
 217 0004 9181      		ldd r25,Z+1
 218               	.LVL22:
 219 0006 0097      		sbiw r24,0
 220 0008 01F4      		brne .L25
 221 000a 20E0      		ldi r18,lo8(0)
 222 000c 30E0      		ldi r19,hi8(0)
 223 000e 40E0      		ldi r20,hlo8(0)
 224 0010 50E0      		ldi r21,hhi8(0)
 225 0012 00C0      		rjmp .L26
 226               	.L25:
 227 0014 0E94 0000 		call atol
 228               	.LVL23:
GAS LISTING /var/folders/1s/lqjcb7x5323625d47g9gdgmr0000gp/T//ccbjwlOH.s 			page 5


 229 0018 9B01      		movw r18,r22
 230 001a AC01      		movw r20,r24
 231               	.LVL24:
 232               	.L26:
 233               	.LSM21:
 234 001c B901      		movw r22,r18
 235 001e CA01      		movw r24,r20
 236               	/* epilogue start */
 237 0020 0895      		ret
 238               	.LFE124:
 239               		.size	_ZNK6String5toIntEv, .-_ZNK6String5toIntEv
 240               		.section	.text._ZN6String4trimEv,"ax",@progbits
 241               	.global	_ZN6String4trimEv
 242               		.type	_ZN6String4trimEv, @function
 243               	_ZN6String4trimEv:
 244               	.LFB123:
 245               	.LSM22:
 246               	.LVL25:
 247 0000 CF92      		push r12
 248 0002 DF92      		push r13
 249 0004 EF92      		push r14
 250 0006 FF92      		push r15
 251 0008 0F93      		push r16
 252 000a 1F93      		push r17
 253 000c CF93      		push r28
 254 000e DF93      		push r29
 255               	/* prologue: function */
 256               	/* frame size = 0 */
 257 0010 6C01      		movw r12,r24
 258               	.LBB70:
 259               	.LSM23:
 260 0012 DC01      		movw r26,r24
 261 0014 ED90      		ld r14,X+
 262 0016 FC90      		ld r15,X
 263 0018 1197      		sbiw r26,1
 264               	.LVL26:
 265 001a E114      		cp r14,__zero_reg__
 266 001c F104      		cpc r15,__zero_reg__
 267 001e 01F4      		brne .+2
 268 0020 00C0      		rjmp .L37
 269 0022 1496      		adiw r26,4
 270 0024 CD91      		ld r28,X+
 271 0026 DC91      		ld r29,X
 272 0028 1597      		sbiw r26,4+1
 273 002a 2097      		sbiw r28,0
 274 002c 01F0      		breq .L37
 275 002e 8701      		movw r16,r14
 276 0030 00C0      		rjmp .L30
 277               	.LVL27:
 278               	.L31:
 279               	.LSM24:
 280 0032 0F5F      		subi r16,lo8(-(1))
 281 0034 1F4F      		sbci r17,hi8(-(1))
 282               	.LVL28:
 283               	.L30:
 284 0036 F801      		movw r30,r16
 285 0038 8081      		ld r24,Z
GAS LISTING /var/folders/1s/lqjcb7x5323625d47g9gdgmr0000gp/T//ccbjwlOH.s 			page 6


 286 003a 9927      		clr r25
 287 003c 87FD      		sbrc r24,7
 288 003e 9095      		com r25
 289 0040 0E94 0000 		call isspace
 290 0044 892B      		or r24,r25
 291 0046 01F4      		brne .L31
 292               	.LSM25:
 293 0048 2197      		sbiw r28,1
 294               	.LVL29:
 295 004a CE0D      		add r28,r14
 296 004c DF1D      		adc r29,r15
 297 004e 00C0      		rjmp .L32
 298               	.L34:
 299               	.LSM26:
 300 0050 2197      		sbiw r28,1
 301               	.L32:
 302 0052 8881      		ld r24,Y
 303 0054 9927      		clr r25
 304 0056 87FD      		sbrc r24,7
 305 0058 9095      		com r25
 306 005a 0E94 0000 		call isspace
 307 005e 892B      		or r24,r25
 308 0060 01F0      		breq .L33
 309               	.LVL30:
 310 0062 C017      		cp r28,r16
 311 0064 D107      		cpc r29,r17
 312 0066 00F4      		brsh .L34
 313               	.L33:
 314               	.LSM27:
 315 0068 FE01      		movw r30,r28
 316 006a 3196      		adiw r30,1
 317 006c E01B      		sub r30,r16
 318 006e F10B      		sbc r31,r17
 319 0070 D601      		movw r26,r12
 320 0072 1596      		adiw r26,4+1
 321 0074 FC93      		st X,r31
 322 0076 EE93      		st -X,r30
 323 0078 1497      		sbiw r26,4
 324               	.LSM28:
 325 007a 2D91      		ld r18,X+
 326 007c 3C91      		ld r19,X
 327 007e 2017      		cp r18,r16
 328 0080 3107      		cpc r19,r17
 329 0082 00F4      		brsh .L35
 330               	.LVL31:
 331 0084 C901      		movw r24,r18
 332 0086 B801      		movw r22,r16
 333               	.LVL32:
 334 0088 AF01      		movw r20,r30
 335 008a 0E94 0000 		call memcpy
 336               	.LVL33:
 337               	.L35:
 338               	.LSM29:
 339 008e D601      		movw r26,r12
 340 0090 ED91      		ld r30,X+
 341 0092 FC91      		ld r31,X
 342 0094 1197      		sbiw r26,1
GAS LISTING /var/folders/1s/lqjcb7x5323625d47g9gdgmr0000gp/T//ccbjwlOH.s 			page 7


 343 0096 1496      		adiw r26,4
 344 0098 8D91      		ld r24,X+
 345 009a 9C91      		ld r25,X
 346 009c 1597      		sbiw r26,4+1
 347 009e E80F      		add r30,r24
 348 00a0 F91F      		adc r31,r25
 349 00a2 1082      		st Z,__zero_reg__
 350               	.LVL34:
 351               	.L37:
 352               	/* epilogue start */
 353               	.LBE70:
 354               	.LSM30:
 355 00a4 DF91      		pop r29
 356 00a6 CF91      		pop r28
 357               	.LVL35:
 358 00a8 1F91      		pop r17
 359 00aa 0F91      		pop r16
 360 00ac FF90      		pop r15
 361 00ae EF90      		pop r14
 362               	.LVL36:
 363 00b0 DF90      		pop r13
 364 00b2 CF90      		pop r12
 365               	.LVL37:
 366 00b4 0895      		ret
 367               	.LFE123:
 368               		.size	_ZN6String4trimEv, .-_ZN6String4trimEv
 369               		.section	.text._ZN6String11toUpperCaseEv,"ax",@progbits
 370               	.global	_ZN6String11toUpperCaseEv
 371               		.type	_ZN6String11toUpperCaseEv, @function
 372               	_ZN6String11toUpperCaseEv:
 373               	.LFB122:
 374               	.LSM31:
 375               	.LVL38:
 376 0000 CF93      		push r28
 377 0002 DF93      		push r29
 378               	/* prologue: function */
 379               	/* frame size = 0 */
 380 0004 FC01      		movw r30,r24
 381               	.LBB73:
 382               	.LSM32:
 383 0006 C081      		ld r28,Z
 384 0008 D181      		ldd r29,Z+1
 385               	.LVL39:
 386 000a 2097      		sbiw r28,0
 387 000c 01F4      		brne .L43
 388               	.LVL40:
 389 000e 00C0      		rjmp .L42
 390               	.LVL41:
 391               	.L41:
 392               	.LBB74:
 393               	.LSM33:
 394 0010 9927      		clr r25
 395 0012 87FD      		sbrc r24,7
 396 0014 9095      		com r25
 397 0016 0E94 0000 		call toupper
 398               	.LVL42:
 399 001a 8993      		st Y+,r24
GAS LISTING /var/folders/1s/lqjcb7x5323625d47g9gdgmr0000gp/T//ccbjwlOH.s 			page 8


 400               	.LVL43:
 401               	.L43:
 402               	.LSM34:
 403 001c 8881      		ld r24,Y
 404 001e 8823      		tst r24
 405 0020 01F4      		brne .L41
 406               	.LVL44:
 407               	.L42:
 408               	/* epilogue start */
 409               	.LBE74:
 410               	.LBE73:
 411               	.LSM35:
 412 0022 DF91      		pop r29
 413 0024 CF91      		pop r28
 414               	.LVL45:
 415 0026 0895      		ret
 416               	.LFE122:
 417               		.size	_ZN6String11toUpperCaseEv, .-_ZN6String11toUpperCaseEv
 418               		.section	.text._ZN6String11toLowerCaseEv,"ax",@progbits
 419               	.global	_ZN6String11toLowerCaseEv
 420               		.type	_ZN6String11toLowerCaseEv, @function
 421               	_ZN6String11toLowerCaseEv:
 422               	.LFB121:
 423               	.LSM36:
 424               	.LVL46:
 425 0000 CF93      		push r28
 426 0002 DF93      		push r29
 427               	/* prologue: function */
 428               	/* frame size = 0 */
 429 0004 FC01      		movw r30,r24
 430               	.LBB77:
 431               	.LSM37:
 432 0006 C081      		ld r28,Z
 433 0008 D181      		ldd r29,Z+1
 434               	.LVL47:
 435 000a 2097      		sbiw r28,0
 436 000c 01F4      		brne .L49
 437               	.LVL48:
 438 000e 00C0      		rjmp .L48
 439               	.LVL49:
 440               	.L47:
 441               	.LBB78:
 442               	.LSM38:
 443 0010 9927      		clr r25
 444 0012 87FD      		sbrc r24,7
 445 0014 9095      		com r25
 446 0016 0E94 0000 		call tolower
 447               	.LVL50:
 448 001a 8993      		st Y+,r24
 449               	.LVL51:
 450               	.L49:
 451               	.LSM39:
 452 001c 8881      		ld r24,Y
 453 001e 8823      		tst r24
 454 0020 01F4      		brne .L47
 455               	.LVL52:
 456               	.L48:
GAS LISTING /var/folders/1s/lqjcb7x5323625d47g9gdgmr0000gp/T//ccbjwlOH.s 			page 9


 457               	/* epilogue start */
 458               	.LBE78:
 459               	.LBE77:
 460               	.LSM40:
 461 0022 DF91      		pop r29
 462 0024 CF91      		pop r28
 463               	.LVL53:
 464 0026 0895      		ret
 465               	.LFE121:
 466               		.size	_ZN6String11toLowerCaseEv, .-_ZN6String11toLowerCaseEv
 467               		.section	.text._ZNK6String16equalsIgnoreCaseERKS_,"ax",@progbits
 468               	.global	_ZNK6String16equalsIgnoreCaseERKS_
 469               		.type	_ZNK6String16equalsIgnoreCaseERKS_, @function
 470               	_ZNK6String16equalsIgnoreCaseERKS_:
 471               	.LFB100:
 472               	.LSM41:
 473               	.LVL54:
 474 0000 EF92      		push r14
 475 0002 FF92      		push r15
 476 0004 0F93      		push r16
 477 0006 1F93      		push r17
 478 0008 CF93      		push r28
 479 000a DF93      		push r29
 480               	/* prologue: function */
 481               	/* frame size = 0 */
 482 000c FC01      		movw r30,r24
 483 000e DB01      		movw r26,r22
 484               	.LBB80:
 485               	.LSM42:
 486 0010 8617      		cp r24,r22
 487 0012 9707      		cpc r25,r23
 488 0014 01F0      		breq .L51
 489               	.LSM43:
 490 0016 2481      		ldd r18,Z+4
 491 0018 3581      		ldd r19,Z+5
 492 001a 1496      		adiw r26,4
 493 001c 8D91      		ld r24,X+
 494 001e 9C91      		ld r25,X
 495 0020 1597      		sbiw r26,4+1
 496               	.LVL55:
 497 0022 2817      		cp r18,r24
 498 0024 3907      		cpc r19,r25
 499 0026 01F4      		brne .L52
 500               	.LVL56:
 501               	.LSM44:
 502 0028 232B      		or r18,r19
 503 002a 01F0      		breq .L51
 504               	.LSM45:
 505 002c E080      		ld r14,Z
 506 002e F180      		ldd r15,Z+1
 507               	.LVL57:
 508               	.LSM46:
 509 0030 CD91      		ld r28,X+
 510 0032 DC91      		ld r29,X
 511               	.LVL58:
 512 0034 00C0      		rjmp .L53
 513               	.LVL59:
GAS LISTING /var/folders/1s/lqjcb7x5323625d47g9gdgmr0000gp/T//ccbjwlOH.s 			page 10


 514               	.L54:
 515               	.LSM47:
 516 0036 9927      		clr r25
 517 0038 87FD      		sbrc r24,7
 518 003a 9095      		com r25
 519 003c 0E94 0000 		call tolower
 520               	.LVL60:
 521 0040 8C01      		movw r16,r24
 522 0042 8881      		ld r24,Y
 523 0044 9927      		clr r25
 524 0046 87FD      		sbrc r24,7
 525 0048 9095      		com r25
 526 004a 0E94 0000 		call tolower
 527 004e 0817      		cp r16,r24
 528 0050 1907      		cpc r17,r25
 529 0052 01F4      		brne .L52
 530 0054 0894      		sec
 531 0056 E11C      		adc r14,__zero_reg__
 532 0058 F11C      		adc r15,__zero_reg__
 533 005a 2196      		adiw r28,1
 534               	.LVL61:
 535               	.L53:
 536               	.LSM48:
 537 005c F701      		movw r30,r14
 538               	.LVL62:
 539 005e 8081      		ld r24,Z
 540 0060 8823      		tst r24
 541 0062 01F4      		brne .L54
 542               	.LVL63:
 543               	.L51:
 544 0064 81E0      		ldi r24,lo8(1)
 545 0066 00C0      		rjmp .L55
 546               	.LVL64:
 547               	.L52:
 548 0068 80E0      		ldi r24,lo8(0)
 549               	.L55:
 550               	/* epilogue start */
 551               	.LBE80:
 552               	.LSM49:
 553 006a DF91      		pop r29
 554 006c CF91      		pop r28
 555               	.LVL65:
 556 006e 1F91      		pop r17
 557 0070 0F91      		pop r16
 558 0072 FF90      		pop r15
 559 0074 EF90      		pop r14
 560               	.LVL66:
 561 0076 0895      		ret
 562               	.LFE100:
 563               		.size	_ZNK6String16equalsIgnoreCaseERKS_, .-_ZNK6String16equalsIgnoreCaseERKS_
 564               		.section	.text._ZNK6String11lastIndexOfERKS_j,"ax",@progbits
 565               	.global	_ZNK6String11lastIndexOfERKS_j
 566               		.type	_ZNK6String11lastIndexOfERKS_j, @function
 567               	_ZNK6String11lastIndexOfERKS_j:
 568               	.LFB116:
 569               	.LSM50:
 570               	.LVL67:
GAS LISTING /var/folders/1s/lqjcb7x5323625d47g9gdgmr0000gp/T//ccbjwlOH.s 			page 11


 571 0000 AF92      		push r10
 572 0002 BF92      		push r11
 573 0004 CF92      		push r12
 574 0006 DF92      		push r13
 575 0008 EF92      		push r14
 576 000a FF92      		push r15
 577 000c 0F93      		push r16
 578 000e 1F93      		push r17
 579 0010 CF93      		push r28
 580 0012 DF93      		push r29
 581               	/* prologue: function */
 582               	/* frame size = 0 */
 583 0014 FC01      		movw r30,r24
 584 0016 5B01      		movw r10,r22
 585 0018 7A01      		movw r14,r20
 586               	.LBB83:
 587               	.LSM51:
 588 001a DB01      		movw r26,r22
 589 001c 1496      		adiw r26,4
 590 001e 2D91      		ld r18,X+
 591 0020 3C91      		ld r19,X
 592 0022 1597      		sbiw r26,4+1
 593 0024 2115      		cp r18,__zero_reg__
 594 0026 3105      		cpc r19,__zero_reg__
 595 0028 01F0      		breq .L58
 596               	.LVL68:
 597 002a 8481      		ldd r24,Z+4
 598 002c 9581      		ldd r25,Z+5
 599 002e 0097      		sbiw r24,0
 600 0030 01F0      		breq .L58
 601 0032 8217      		cp r24,r18
 602 0034 9307      		cpc r25,r19
 603 0036 00F0      		brlo .L58
 604               	.LSM52:
 605 0038 4817      		cp r20,r24
 606 003a 5907      		cpc r21,r25
 607 003c 00F0      		brlo .L59
 608               	.LVL69:
 609 003e 7C01      		movw r14,r24
 610               	.LVL70:
 611 0040 0894      		sec
 612 0042 E108      		sbc r14,__zero_reg__
 613 0044 F108      		sbc r15,__zero_reg__
 614               	.LVL71:
 615               	.L59:
 616               	.LBB84:
 617               	.LSM53:
 618 0046 0081      		ld r16,Z
 619 0048 1181      		ldd r17,Z+1
 620               	.LVL72:
 621 004a C801      		movw r24,r16
 622 004c CFEF      		ldi r28,lo8(-1)
 623 004e DFEF      		ldi r29,hi8(-1)
 624               	.LVL73:
 625 0050 6801      		movw r12,r16
 626 0052 CE0C      		add r12,r14
 627 0054 DF1C      		adc r13,r15
GAS LISTING /var/folders/1s/lqjcb7x5323625d47g9gdgmr0000gp/T//ccbjwlOH.s 			page 12


 628 0056 00C0      		rjmp .L60
 629               	.LVL74:
 630               	.L63:
 631               	.LSM54:
 632 0058 F501      		movw r30,r10
 633               	.LVL75:
 634 005a 6081      		ld r22,Z
 635 005c 7181      		ldd r23,Z+1
 636               	.LVL76:
 637 005e 0E94 0000 		call strstr
 638               	.LVL77:
 639 0062 9C01      		movw r18,r24
 640               	.LSM55:
 641 0064 0097      		sbiw r24,0
 642 0066 01F0      		breq .L61
 643               	.LVL78:
 644               	.LSM56:
 645 0068 801B      		sub r24,r16
 646 006a 910B      		sbc r25,r17
 647               	.LVL79:
 648 006c E816      		cp r14,r24
 649 006e F906      		cpc r15,r25
 650 0070 00F0      		brlo .L62
 651 0072 EC01      		movw r28,r24
 652               	.L62:
 653               	.LSM57:
 654 0074 C901      		movw r24,r18
 655               	.LVL80:
 656 0076 0196      		adiw r24,1
 657               	.LVL81:
 658               	.L60:
 659 0078 C816      		cp r12,r24
 660 007a D906      		cpc r13,r25
 661 007c 00F4      		brsh .L63
 662               	.LVL82:
 663 007e 00C0      		rjmp .L61
 664               	.LVL83:
 665               	.L58:
 666 0080 CFEF      		ldi r28,lo8(-1)
 667 0082 DFEF      		ldi r29,hi8(-1)
 668               	.LVL84:
 669               	.L61:
 670               	.LBE84:
 671               	.LBE83:
 672               	.LSM58:
 673 0084 CE01      		movw r24,r28
 674               	.LVL85:
 675               	/* epilogue start */
 676 0086 DF91      		pop r29
 677 0088 CF91      		pop r28
 678 008a 1F91      		pop r17
 679 008c 0F91      		pop r16
 680               	.LVL86:
 681 008e FF90      		pop r15
 682 0090 EF90      		pop r14
 683               	.LVL87:
 684 0092 DF90      		pop r13
GAS LISTING /var/folders/1s/lqjcb7x5323625d47g9gdgmr0000gp/T//ccbjwlOH.s 			page 13


 685 0094 CF90      		pop r12
 686 0096 BF90      		pop r11
 687 0098 AF90      		pop r10
 688               	.LVL88:
 689 009a 0895      		ret
 690               	.LFE116:
 691               		.size	_ZNK6String11lastIndexOfERKS_j, .-_ZNK6String11lastIndexOfERKS_j
 692               		.section	.text._ZNK6String11lastIndexOfERKS_,"ax",@progbits
 693               	.global	_ZNK6String11lastIndexOfERKS_
 694               		.type	_ZNK6String11lastIndexOfERKS_, @function
 695               	_ZNK6String11lastIndexOfERKS_:
 696               	.LFB115:
 697               	.LSM59:
 698               	.LVL89:
 699               	/* prologue: function */
 700               	/* frame size = 0 */
 701 0000 FC01      		movw r30,r24
 702 0002 DB01      		movw r26,r22
 703               	.LSM60:
 704 0004 4481      		ldd r20,Z+4
 705 0006 5581      		ldd r21,Z+5
 706 0008 1496      		adiw r26,4
 707 000a 8D91      		ld r24,X+
 708 000c 9C91      		ld r25,X
 709 000e 1597      		sbiw r26,4+1
 710               	.LVL90:
 711 0010 481B      		sub r20,r24
 712 0012 590B      		sbc r21,r25
 713 0014 CF01      		movw r24,r30
 714 0016 0E94 0000 		call _ZNK6String11lastIndexOfERKS_j
 715               	.LVL91:
 716               	/* epilogue start */
 717               	.LSM61:
 718 001a 0895      		ret
 719               	.LFE115:
 720               		.size	_ZNK6String11lastIndexOfERKS_, .-_ZNK6String11lastIndexOfERKS_
 721               		.section	.text._ZNK6String7indexOfERKS_j,"ax",@progbits
 722               	.global	_ZNK6String7indexOfERKS_j
 723               		.type	_ZNK6String7indexOfERKS_j, @function
 724               	_ZNK6String7indexOfERKS_j:
 725               	.LFB112:
 726               	.LSM62:
 727               	.LVL92:
 728 0000 CF93      		push r28
 729 0002 DF93      		push r29
 730               	/* prologue: function */
 731               	/* frame size = 0 */
 732 0004 FC01      		movw r30,r24
 733 0006 DB01      		movw r26,r22
 734               	.LBB86:
 735               	.LSM63:
 736 0008 8481      		ldd r24,Z+4
 737 000a 9581      		ldd r25,Z+5
 738               	.LVL93:
 739 000c 4817      		cp r20,r24
 740 000e 5907      		cpc r21,r25
 741 0010 00F4      		brsh .L72
GAS LISTING /var/folders/1s/lqjcb7x5323625d47g9gdgmr0000gp/T//ccbjwlOH.s 			page 14


 742               	.LVL94:
 743               	.L68:
 744               	.LSM64:
 745 0012 C081      		ld r28,Z
 746 0014 D181      		ldd r29,Z+1
 747 0016 6D91      		ld r22,X+
 748 0018 7C91      		ld r23,X
 749 001a CE01      		movw r24,r28
 750 001c 840F      		add r24,r20
 751 001e 951F      		adc r25,r21
 752 0020 0E94 0000 		call strstr
 753               	.LVL95:
 754 0024 9C01      		movw r18,r24
 755               	.LSM65:
 756 0026 0097      		sbiw r24,0
 757               	.LVL96:
 758 0028 01F4      		brne .L70
 759               	.LVL97:
 760               	.L72:
 761 002a 2FEF      		ldi r18,lo8(-1)
 762 002c 3FEF      		ldi r19,hi8(-1)
 763 002e 00C0      		rjmp .L69
 764               	.LVL98:
 765               	.L70:
 766               	.LSM66:
 767 0030 2C1B      		sub r18,r28
 768 0032 3D0B      		sbc r19,r29
 769               	.LVL99:
 770               	.L69:
 771               	.LBE86:
 772               	.LSM67:
 773 0034 C901      		movw r24,r18
 774               	.LVL100:
 775               	/* epilogue start */
 776 0036 DF91      		pop r29
 777 0038 CF91      		pop r28
 778 003a 0895      		ret
 779               	.LFE112:
 780               		.size	_ZNK6String7indexOfERKS_j, .-_ZNK6String7indexOfERKS_j
 781               		.section	.text._ZNK6String7indexOfERKS_,"ax",@progbits
 782               	.global	_ZNK6String7indexOfERKS_
 783               		.type	_ZNK6String7indexOfERKS_, @function
 784               	_ZNK6String7indexOfERKS_:
 785               	.LFB111:
 786               	.LSM68:
 787               	.LVL101:
 788               	/* prologue: function */
 789               	/* frame size = 0 */
 790               	.LSM69:
 791 0000 40E0      		ldi r20,lo8(0)
 792 0002 50E0      		ldi r21,hi8(0)
 793 0004 0E94 0000 		call _ZNK6String7indexOfERKS_j
 794               	.LVL102:
 795               	/* epilogue start */
 796               	.LSM70:
 797 0008 0895      		ret
 798               	.LFE111:
GAS LISTING /var/folders/1s/lqjcb7x5323625d47g9gdgmr0000gp/T//ccbjwlOH.s 			page 15


 799               		.size	_ZNK6String7indexOfERKS_, .-_ZNK6String7indexOfERKS_
 800               		.section	.text._ZNK6String11lastIndexOfEcj,"ax",@progbits
 801               	.global	_ZNK6String11lastIndexOfEcj
 802               		.type	_ZNK6String11lastIndexOfEcj, @function
 803               	_ZNK6String11lastIndexOfEcj:
 804               	.LFB114:
 805               	.LSM71:
 806               	.LVL103:
 807 0000 DF92      		push r13
 808 0002 EF92      		push r14
 809 0004 FF92      		push r15
 810 0006 0F93      		push r16
 811 0008 1F93      		push r17
 812 000a CF93      		push r28
 813 000c DF93      		push r29
 814               	/* prologue: function */
 815               	/* frame size = 0 */
 816 000e EC01      		movw r28,r24
 817               	.LBB88:
 818               	.LSM72:
 819 0010 8C81      		ldd r24,Y+4
 820 0012 9D81      		ldd r25,Y+5
 821               	.LVL104:
 822 0014 4817      		cp r20,r24
 823 0016 5907      		cpc r21,r25
 824 0018 00F4      		brsh .L80
 825               	.L76:
 826               	.LSM73:
 827 001a 7A01      		movw r14,r20
 828 001c 0894      		sec
 829 001e E11C      		adc r14,__zero_reg__
 830 0020 F11C      		adc r15,__zero_reg__
 831 0022 E881      		ld r30,Y
 832 0024 F981      		ldd r31,Y+1
 833 0026 EE0D      		add r30,r14
 834 0028 FF1D      		adc r31,r15
 835 002a D080      		ld r13,Z
 836               	.LVL105:
 837               	.LSM74:
 838 002c 1082      		st Z,__zero_reg__
 839               	.LSM75:
 840 002e 0881      		ld r16,Y
 841 0030 1981      		ldd r17,Y+1
 842 0032 7727      		clr r23
 843 0034 67FD      		sbrc r22,7
 844 0036 7095      		com r23
 845               	.LVL106:
 846 0038 C801      		movw r24,r16
 847 003a 0E94 0000 		call strrchr
 848               	.LVL107:
 849 003e 9C01      		movw r18,r24
 850               	.LSM76:
 851 0040 0E0D      		add r16,r14
 852 0042 1F1D      		adc r17,r15
 853 0044 F801      		movw r30,r16
 854 0046 D082      		st Z,r13
 855               	.LSM77:
GAS LISTING /var/folders/1s/lqjcb7x5323625d47g9gdgmr0000gp/T//ccbjwlOH.s 			page 16


 856 0048 0097      		sbiw r24,0
 857               	.LVL108:
 858 004a 01F4      		brne .L78
 859               	.LVL109:
 860               	.L80:
 861 004c EFEF      		ldi r30,lo8(-1)
 862 004e FFEF      		ldi r31,hi8(-1)
 863 0050 00C0      		rjmp .L77
 864               	.LVL110:
 865               	.L78:
 866               	.LSM78:
 867 0052 8881      		ld r24,Y
 868 0054 9981      		ldd r25,Y+1
 869               	.LVL111:
 870 0056 F901      		movw r30,r18
 871               	.LVL112:
 872 0058 E81B      		sub r30,r24
 873 005a F90B      		sbc r31,r25
 874               	.LVL113:
 875               	.L77:
 876               	.LBE88:
 877               	.LSM79:
 878 005c CF01      		movw r24,r30
 879               	/* epilogue start */
 880 005e DF91      		pop r29
 881 0060 CF91      		pop r28
 882               	.LVL114:
 883 0062 1F91      		pop r17
 884 0064 0F91      		pop r16
 885 0066 FF90      		pop r15
 886 0068 EF90      		pop r14
 887 006a DF90      		pop r13
 888               	.LVL115:
 889 006c 0895      		ret
 890               	.LFE114:
 891               		.size	_ZNK6String11lastIndexOfEcj, .-_ZNK6String11lastIndexOfEcj
 892               		.section	.text._ZNK6String11lastIndexOfEc,"ax",@progbits
 893               	.global	_ZNK6String11lastIndexOfEc
 894               		.type	_ZNK6String11lastIndexOfEc, @function
 895               	_ZNK6String11lastIndexOfEc:
 896               	.LFB113:
 897               	.LSM80:
 898               	.LVL116:
 899               	/* prologue: function */
 900               	/* frame size = 0 */
 901 0000 FC01      		movw r30,r24
 902               	.LSM81:
 903 0002 4481      		ldd r20,Z+4
 904 0004 5581      		ldd r21,Z+5
 905 0006 4150      		subi r20,lo8(-(-1))
 906 0008 5040      		sbci r21,hi8(-(-1))
 907 000a 0E94 0000 		call _ZNK6String11lastIndexOfEcj
 908               	.LVL117:
 909               	/* epilogue start */
 910               	.LSM82:
 911 000e 0895      		ret
 912               	.LFE113:
GAS LISTING /var/folders/1s/lqjcb7x5323625d47g9gdgmr0000gp/T//ccbjwlOH.s 			page 17


 913               		.size	_ZNK6String11lastIndexOfEc, .-_ZNK6String11lastIndexOfEc
 914               		.section	.text._ZNK6String7indexOfEcj,"ax",@progbits
 915               	.global	_ZNK6String7indexOfEcj
 916               		.type	_ZNK6String7indexOfEcj, @function
 917               	_ZNK6String7indexOfEcj:
 918               	.LFB110:
 919               	.LSM83:
 920               	.LVL118:
 921 0000 CF93      		push r28
 922 0002 DF93      		push r29
 923               	/* prologue: function */
 924               	/* frame size = 0 */
 925 0004 FC01      		movw r30,r24
 926               	.LBB90:
 927               	.LSM84:
 928 0006 8481      		ldd r24,Z+4
 929 0008 9581      		ldd r25,Z+5
 930               	.LVL119:
 931 000a 4817      		cp r20,r24
 932 000c 5907      		cpc r21,r25
 933 000e 00F4      		brsh .L88
 934               	.L84:
 935               	.LSM85:
 936 0010 C081      		ld r28,Z
 937 0012 D181      		ldd r29,Z+1
 938 0014 7727      		clr r23
 939 0016 67FD      		sbrc r22,7
 940 0018 7095      		com r23
 941               	.LVL120:
 942 001a CE01      		movw r24,r28
 943 001c 840F      		add r24,r20
 944 001e 951F      		adc r25,r21
 945 0020 0E94 0000 		call strchr
 946               	.LVL121:
 947 0024 9C01      		movw r18,r24
 948               	.LSM86:
 949 0026 0097      		sbiw r24,0
 950               	.LVL122:
 951 0028 01F4      		brne .L86
 952               	.LVL123:
 953               	.L88:
 954 002a 2FEF      		ldi r18,lo8(-1)
 955 002c 3FEF      		ldi r19,hi8(-1)
 956 002e 00C0      		rjmp .L85
 957               	.LVL124:
 958               	.L86:
 959               	.LSM87:
 960 0030 2C1B      		sub r18,r28
 961 0032 3D0B      		sbc r19,r29
 962               	.LVL125:
 963               	.L85:
 964               	.LBE90:
 965               	.LSM88:
 966 0034 C901      		movw r24,r18
 967               	.LVL126:
 968               	/* epilogue start */
 969 0036 DF91      		pop r29
GAS LISTING /var/folders/1s/lqjcb7x5323625d47g9gdgmr0000gp/T//ccbjwlOH.s 			page 18


 970 0038 CF91      		pop r28
 971 003a 0895      		ret
 972               	.LFE110:
 973               		.size	_ZNK6String7indexOfEcj, .-_ZNK6String7indexOfEcj
 974               		.section	.text._ZNK6String7indexOfEc,"ax",@progbits
 975               	.global	_ZNK6String7indexOfEc
 976               		.type	_ZNK6String7indexOfEc, @function
 977               	_ZNK6String7indexOfEc:
 978               	.LFB109:
 979               	.LSM89:
 980               	.LVL127:
 981               	/* prologue: function */
 982               	/* frame size = 0 */
 983               	.LSM90:
 984 0000 40E0      		ldi r20,lo8(0)
 985 0002 50E0      		ldi r21,hi8(0)
 986 0004 0E94 0000 		call _ZNK6String7indexOfEcj
 987               	.LVL128:
 988               	/* epilogue start */
 989               	.LSM91:
 990 0008 0895      		ret
 991               	.LFE109:
 992               		.size	_ZNK6String7indexOfEc, .-_ZNK6String7indexOfEc
 993               		.section	.text._ZNK6String8getBytesEPhjj,"ax",@progbits
 994               	.global	_ZNK6String8getBytesEPhjj
 995               		.type	_ZNK6String8getBytesEPhjj, @function
 996               	_ZNK6String8getBytesEPhjj:
 997               	.LFB108:
 998               	.LSM92:
 999               	.LVL129:
 1000 0000 0F93      		push r16
 1001 0002 1F93      		push r17
 1002 0004 CF93      		push r28
 1003 0006 DF93      		push r29
 1004               	/* prologue: function */
 1005               	/* frame size = 0 */
 1006 0008 FC01      		movw r30,r24
 1007 000a 8B01      		movw r16,r22
 1008               	.LBB92:
 1009               	.LSM93:
 1010 000c 4115      		cp r20,__zero_reg__
 1011 000e 5105      		cpc r21,__zero_reg__
 1012 0010 01F0      		breq .L95
 1013               	.LVL130:
 1014 0012 6115      		cp r22,__zero_reg__
 1015 0014 7105      		cpc r23,__zero_reg__
 1016 0016 01F0      		breq .L95
 1017               	.LVL131:
 1018               	.LSM94:
 1019 0018 8481      		ldd r24,Z+4
 1020 001a 9581      		ldd r25,Z+5
 1021 001c 2817      		cp r18,r24
 1022 001e 3907      		cpc r19,r25
 1023 0020 00F0      		brlo .L93
 1024               	.LSM95:
 1025 0022 FB01      		movw r30,r22
 1026               	.LVL132:
GAS LISTING /var/folders/1s/lqjcb7x5323625d47g9gdgmr0000gp/T//ccbjwlOH.s 			page 19


 1027 0024 1082      		st Z,__zero_reg__
 1028 0026 00C0      		rjmp .L95
 1029               	.LVL133:
 1030               	.L93:
 1031               	.LSM96:
 1032 0028 4150      		subi r20,lo8(-(-1))
 1033 002a 5040      		sbci r21,hi8(-(-1))
 1034               	.LVL134:
 1035 002c EC01      		movw r28,r24
 1036               	.LVL135:
 1037 002e C21B      		sub r28,r18
 1038 0030 D30B      		sbc r29,r19
 1039 0032 4C17      		cp r20,r28
 1040 0034 5D07      		cpc r21,r29
 1041 0036 00F4      		brsh .L94
 1042               	.LVL136:
 1043 0038 EA01      		movw r28,r20
 1044               	.L94:
 1045               	.LSM97:
 1046 003a 6081      		ld r22,Z
 1047 003c 7181      		ldd r23,Z+1
 1048               	.LVL137:
 1049 003e 620F      		add r22,r18
 1050 0040 731F      		adc r23,r19
 1051 0042 C801      		movw r24,r16
 1052 0044 AE01      		movw r20,r28
 1053               	.LVL138:
 1054 0046 0E94 0000 		call strncpy
 1055               	.LVL139:
 1056               	.LSM98:
 1057 004a C00F      		add r28,r16
 1058 004c D11F      		adc r29,r17
 1059 004e 1882      		st Y,__zero_reg__
 1060               	.LVL140:
 1061               	.L95:
 1062               	/* epilogue start */
 1063               	.LBE92:
 1064               	.LSM99:
 1065 0050 DF91      		pop r29
 1066 0052 CF91      		pop r28
 1067               	.LVL141:
 1068 0054 1F91      		pop r17
 1069 0056 0F91      		pop r16
 1070               	.LVL142:
 1071 0058 0895      		ret
 1072               	.LFE108:
 1073               		.size	_ZNK6String8getBytesEPhjj, .-_ZNK6String8getBytesEPhjj
 1074               		.section	.text._ZNK6String8endsWithERKS_,"ax",@progbits
 1075               	.global	_ZNK6String8endsWithERKS_
 1076               		.type	_ZNK6String8endsWithERKS_, @function
 1077               	_ZNK6String8endsWithERKS_:
 1078               	.LFB103:
 1079               	.LSM100:
 1080               	.LVL143:
 1081               	/* prologue: function */
 1082               	/* frame size = 0 */
 1083 0000 FC01      		movw r30,r24
GAS LISTING /var/folders/1s/lqjcb7x5323625d47g9gdgmr0000gp/T//ccbjwlOH.s 			page 20


 1084 0002 DB01      		movw r26,r22
 1085               	.LSM101:
 1086 0004 2481      		ldd r18,Z+4
 1087 0006 3581      		ldd r19,Z+5
 1088 0008 1496      		adiw r26,4
 1089 000a 4D91      		ld r20,X+
 1090 000c 5C91      		ld r21,X
 1091 000e 1597      		sbiw r26,4+1
 1092 0010 2417      		cp r18,r20
 1093 0012 3507      		cpc r19,r21
 1094 0014 00F0      		brlo .L97
 1095               	.LVL144:
 1096 0016 8081      		ld r24,Z
 1097 0018 9181      		ldd r25,Z+1
 1098 001a 0097      		sbiw r24,0
 1099 001c 01F0      		breq .L97
 1100 001e 6D91      		ld r22,X+
 1101 0020 7C91      		ld r23,X
 1102 0022 6115      		cp r22,__zero_reg__
 1103 0024 7105      		cpc r23,__zero_reg__
 1104 0026 01F0      		breq .L97
 1105               	.LSM102:
 1106 0028 241B      		sub r18,r20
 1107 002a 350B      		sbc r19,r21
 1108 002c 820F      		add r24,r18
 1109 002e 931F      		adc r25,r19
 1110 0030 0E94 0000 		call strcmp
 1111               	.LVL145:
 1112 0034 9C01      		movw r18,r24
 1113 0036 80E0      		ldi r24,lo8(0)
 1114 0038 232B      		or r18,r19
 1115 003a 01F4      		brne .L99
 1116 003c 81E0      		ldi r24,lo8(1)
 1117 003e 0895      		ret
 1118               	.LVL146:
 1119               	.L97:
 1120 0040 80E0      		ldi r24,lo8(0)
 1121               	.L99:
 1122               	.LSM103:
 1123 0042 0895      		ret
 1124               	.LFE103:
 1125               		.size	_ZNK6String8endsWithERKS_, .-_ZNK6String8endsWithERKS_
 1126               		.section	.text._ZNK6String6equalsEPKc,"ax",@progbits
 1127               	.global	_ZNK6String6equalsEPKc
 1128               		.type	_ZNK6String6equalsEPKc, @function
 1129               	_ZNK6String6equalsEPKc:
 1130               	.LFB95:
 1131               	.LSM104:
 1132               	.LVL147:
 1133               	/* prologue: function */
 1134               	/* frame size = 0 */
 1135 0000 DC01      		movw r26,r24
 1136 0002 FB01      		movw r30,r22
 1137               	.LSM105:
 1138 0004 1496      		adiw r26,4
 1139 0006 8D91      		ld r24,X+
 1140 0008 9C91      		ld r25,X
GAS LISTING /var/folders/1s/lqjcb7x5323625d47g9gdgmr0000gp/T//ccbjwlOH.s 			page 21


 1141 000a 1597      		sbiw r26,4+1
 1142               	.LVL148:
 1143 000c 892B      		or r24,r25
 1144 000e 01F4      		brne .L102
 1145               	.LVL149:
 1146 0010 6115      		cp r22,__zero_reg__
 1147 0012 7105      		cpc r23,__zero_reg__
 1148 0014 01F0      		breq .L111
 1149               	.LVL150:
 1150               	.L103:
 1151 0016 90E0      		ldi r25,lo8(0)
 1152 0018 8081      		ld r24,Z
 1153 001a 00C0      		rjmp .L112
 1154               	.LVL151:
 1155               	.L102:
 1156 001c 0D90      		ld __tmp_reg__,X+
 1157 001e BC91      		ld r27,X
 1158 0020 A02D      		mov r26,__tmp_reg__
 1159               	.LVL152:
 1160               	.LSM106:
 1161 0022 6115      		cp r22,__zero_reg__
 1162 0024 7105      		cpc r23,__zero_reg__
 1163 0026 01F4      		brne .L107
 1164               	.LVL153:
 1165 0028 90E0      		ldi r25,lo8(0)
 1166 002a 8C91      		ld r24,X
 1167               	.LVL154:
 1168               	.L112:
 1169 002c 8823      		tst r24
 1170 002e 01F4      		brne .L106
 1171 0030 00C0      		rjmp .L111
 1172               	.LVL155:
 1173               	.L107:
 1174               	.LSM107:
 1175 0032 CD01      		movw r24,r26
 1176 0034 0E94 0000 		call strcmp
 1177               	.LVL156:
 1178 0038 9C01      		movw r18,r24
 1179 003a 90E0      		ldi r25,lo8(0)
 1180 003c 232B      		or r18,r19
 1181 003e 01F4      		brne .L106
 1182               	.LVL157:
 1183               	.L111:
 1184 0040 91E0      		ldi r25,lo8(1)
 1185               	.L106:
 1186               	.LSM108:
 1187 0042 892F      		mov r24,r25
 1188               	/* epilogue start */
 1189 0044 0895      		ret
 1190               	.LFE95:
 1191               		.size	_ZNK6String6equalsEPKc, .-_ZNK6String6equalsEPKc
 1192               		.section	.text._ZNK6String9compareToERKS_,"ax",@progbits
 1193               	.global	_ZNK6String9compareToERKS_
 1194               		.type	_ZNK6String9compareToERKS_, @function
 1195               	_ZNK6String9compareToERKS_:
 1196               	.LFB93:
 1197               	.LSM109:
GAS LISTING /var/folders/1s/lqjcb7x5323625d47g9gdgmr0000gp/T//ccbjwlOH.s 			page 22


 1198               	.LVL158:
 1199 0000 CF93      		push r28
 1200 0002 DF93      		push r29
 1201               	/* prologue: function */
 1202               	/* frame size = 0 */
 1203 0004 9C01      		movw r18,r24
 1204 0006 FB01      		movw r30,r22
 1205               	.LSM110:
 1206 0008 EC01      		movw r28,r24
 1207 000a A881      		ld r26,Y
 1208 000c B981      		ldd r27,Y+1
 1209 000e 1097      		sbiw r26,0
 1210 0010 01F0      		breq .L114
 1211               	.LVL159:
 1212 0012 6081      		ld r22,Z
 1213 0014 7181      		ldd r23,Z+1
 1214 0016 6115      		cp r22,__zero_reg__
 1215 0018 7105      		cpc r23,__zero_reg__
 1216 001a 01F4      		brne .L115
 1217               	.LVL160:
 1218               	.L114:
 1219               	.LSM111:
 1220 001c C081      		ld r28,Z
 1221 001e D181      		ldd r29,Z+1
 1222 0020 2097      		sbiw r28,0
 1223 0022 01F0      		breq .L116
 1224 0024 8481      		ldd r24,Z+4
 1225 0026 9581      		ldd r25,Z+5
 1226               	.LVL161:
 1227 0028 892B      		or r24,r25
 1228 002a 01F0      		breq .L116
 1229 002c 8881      		ld r24,Y
 1230 002e 90E0      		ldi r25,lo8(0)
 1231 0030 2227      		clr r18
 1232 0032 3327      		clr r19
 1233 0034 281B      		sub r18,r24
 1234 0036 390B      		sbc r19,r25
 1235               	.LVL162:
 1236 0038 00C0      		rjmp .L117
 1237               	.LVL163:
 1238               	.L116:
 1239               	.LSM112:
 1240 003a 1097      		sbiw r26,0
 1241 003c 01F0      		breq .L118
 1242 003e F901      		movw r30,r18
 1243               	.LVL164:
 1244 0040 8481      		ldd r24,Z+4
 1245 0042 9581      		ldd r25,Z+5
 1246 0044 892B      		or r24,r25
 1247 0046 01F0      		breq .L118
 1248 0048 8C91      		ld r24,X
 1249 004a 282F      		mov r18,r24
 1250               	.LVL165:
 1251 004c 30E0      		ldi r19,lo8(0)
 1252 004e 00C0      		rjmp .L117
 1253               	.LVL166:
 1254               	.L115:
GAS LISTING /var/folders/1s/lqjcb7x5323625d47g9gdgmr0000gp/T//ccbjwlOH.s 			page 23


 1255               	.LSM113:
 1256 0050 CD01      		movw r24,r26
 1257               	.LVL167:
 1258 0052 0E94 0000 		call strcmp
 1259               	.LVL168:
 1260 0056 9C01      		movw r18,r24
 1261 0058 00C0      		rjmp .L117
 1262               	.LVL169:
 1263               	.L118:
 1264 005a 20E0      		ldi r18,lo8(0)
 1265 005c 30E0      		ldi r19,hi8(0)
 1266               	.LVL170:
 1267               	.L117:
 1268               	.LSM114:
 1269 005e C901      		movw r24,r18
 1270               	.LVL171:
 1271               	/* epilogue start */
 1272 0060 DF91      		pop r29
 1273 0062 CF91      		pop r28
 1274 0064 0895      		ret
 1275               	.LFE93:
 1276               		.size	_ZNK6String9compareToERKS_, .-_ZNK6String9compareToERKS_
 1277               		.section	.text._ZNK6StringgeERKS_,"ax",@progbits
 1278               	.global	_ZNK6StringgeERKS_
 1279               		.type	_ZNK6StringgeERKS_, @function
 1280               	_ZNK6StringgeERKS_:
 1281               	.LFB99:
 1282               	.LSM115:
 1283               	.LVL172:
 1284               	/* prologue: function */
 1285               	/* frame size = 0 */
 1286               	.LSM116:
 1287 0000 0E94 0000 		call _ZNK6String9compareToERKS_
 1288               	.LVL173:
 1289 0004 892F      		mov r24,r25
 1290 0006 8095      		com r24
 1291               	.LSM117:
 1292 0008 881F      		rol r24
 1293 000a 8827      		clr r24
 1294 000c 881F      		rol r24
 1295               	/* epilogue start */
 1296 000e 0895      		ret
 1297               	.LFE99:
 1298               		.size	_ZNK6StringgeERKS_, .-_ZNK6StringgeERKS_
 1299               		.section	.text._ZNK6StringleERKS_,"ax",@progbits
 1300               	.global	_ZNK6StringleERKS_
 1301               		.type	_ZNK6StringleERKS_, @function
 1302               	_ZNK6StringleERKS_:
 1303               	.LFB98:
 1304               	.LSM118:
 1305               	.LVL174:
 1306               	/* prologue: function */
 1307               	/* frame size = 0 */
 1308               	.LSM119:
 1309 0000 0E94 0000 		call _ZNK6String9compareToERKS_
 1310               	.LVL175:
 1311 0004 20E0      		ldi r18,lo8(0)
GAS LISTING /var/folders/1s/lqjcb7x5323625d47g9gdgmr0000gp/T//ccbjwlOH.s 			page 24


 1312 0006 1816      		cp __zero_reg__,r24
 1313 0008 1906      		cpc __zero_reg__,r25
 1314 000a 04F0      		brlt .L124
 1315 000c 21E0      		ldi r18,lo8(1)
 1316               	.L124:
 1317               	.LSM120:
 1318 000e 822F      		mov r24,r18
 1319               	/* epilogue start */
 1320 0010 0895      		ret
 1321               	.LFE98:
 1322               		.size	_ZNK6StringleERKS_, .-_ZNK6StringleERKS_
 1323               		.section	.text._ZNK6StringgtERKS_,"ax",@progbits
 1324               	.global	_ZNK6StringgtERKS_
 1325               		.type	_ZNK6StringgtERKS_, @function
 1326               	_ZNK6StringgtERKS_:
 1327               	.LFB97:
 1328               	.LSM121:
 1329               	.LVL176:
 1330               	/* prologue: function */
 1331               	/* frame size = 0 */
 1332               	.LSM122:
 1333 0000 0E94 0000 		call _ZNK6String9compareToERKS_
 1334               	.LVL177:
 1335 0004 20E0      		ldi r18,lo8(0)
 1336 0006 1816      		cp __zero_reg__,r24
 1337 0008 1906      		cpc __zero_reg__,r25
 1338 000a 04F4      		brge .L127
 1339 000c 21E0      		ldi r18,lo8(1)
 1340               	.L127:
 1341               	.LSM123:
 1342 000e 822F      		mov r24,r18
 1343               	/* epilogue start */
 1344 0010 0895      		ret
 1345               	.LFE97:
 1346               		.size	_ZNK6StringgtERKS_, .-_ZNK6StringgtERKS_
 1347               		.section	.text._ZNK6StringltERKS_,"ax",@progbits
 1348               	.global	_ZNK6StringltERKS_
 1349               		.type	_ZNK6StringltERKS_, @function
 1350               	_ZNK6StringltERKS_:
 1351               	.LFB96:
 1352               	.LSM124:
 1353               	.LVL178:
 1354               	/* prologue: function */
 1355               	/* frame size = 0 */
 1356               	.LSM125:
 1357 0000 0E94 0000 		call _ZNK6String9compareToERKS_
 1358               	.LVL179:
 1359               	.LSM126:
 1360 0004 892F      		mov r24,r25
 1361 0006 881F      		rol r24
 1362 0008 8827      		clr r24
 1363 000a 881F      		rol r24
 1364               	/* epilogue start */
 1365 000c 0895      		ret
 1366               	.LFE96:
 1367               		.size	_ZNK6StringltERKS_, .-_ZNK6StringltERKS_
 1368               		.section	.text._ZNK6String6equalsERKS_,"ax",@progbits
GAS LISTING /var/folders/1s/lqjcb7x5323625d47g9gdgmr0000gp/T//ccbjwlOH.s 			page 25


 1369               	.global	_ZNK6String6equalsERKS_
 1370               		.type	_ZNK6String6equalsERKS_, @function
 1371               	_ZNK6String6equalsERKS_:
 1372               	.LFB94:
 1373               	.LSM127:
 1374               	.LVL180:
 1375               	/* prologue: function */
 1376               	/* frame size = 0 */
 1377 0000 FC01      		movw r30,r24
 1378 0002 DB01      		movw r26,r22
 1379               	.LSM128:
 1380 0004 2481      		ldd r18,Z+4
 1381 0006 3581      		ldd r19,Z+5
 1382 0008 1496      		adiw r26,4
 1383 000a 8D91      		ld r24,X+
 1384 000c 9C91      		ld r25,X
 1385 000e 1597      		sbiw r26,4+1
 1386               	.LVL181:
 1387 0010 2817      		cp r18,r24
 1388 0012 3907      		cpc r19,r25
 1389 0014 01F0      		breq .L133
 1390               	.LVL182:
 1391 0016 20E0      		ldi r18,lo8(0)
 1392 0018 00C0      		rjmp .L134
 1393               	.L133:
 1394 001a CF01      		movw r24,r30
 1395 001c 0E94 0000 		call _ZNK6String9compareToERKS_
 1396               	.LVL183:
 1397 0020 20E0      		ldi r18,lo8(0)
 1398 0022 892B      		or r24,r25
 1399 0024 01F4      		brne .L134
 1400 0026 21E0      		ldi r18,lo8(1)
 1401               	.LVL184:
 1402               	.L134:
 1403               	.LSM129:
 1404 0028 822F      		mov r24,r18
 1405               	/* epilogue start */
 1406 002a 0895      		ret
 1407               	.LFE94:
 1408               		.size	_ZNK6String6equalsERKS_, .-_ZNK6String6equalsERKS_
 1409               		.section	.text._ZNK6String10startsWithERKS_j,"ax",@progbits
 1410               	.global	_ZNK6String10startsWithERKS_j
 1411               		.type	_ZNK6String10startsWithERKS_j, @function
 1412               	_ZNK6String10startsWithERKS_j:
 1413               	.LFB102:
 1414               	.LSM130:
 1415               	.LVL185:
 1416               	/* prologue: function */
 1417               	/* frame size = 0 */
 1418 0000 FC01      		movw r30,r24
 1419 0002 DB01      		movw r26,r22
 1420               	.LSM131:
 1421 0004 1496      		adiw r26,4
 1422 0006 2D91      		ld r18,X+
 1423 0008 3C91      		ld r19,X
 1424 000a 1597      		sbiw r26,4+1
 1425 000c 8481      		ldd r24,Z+4
GAS LISTING /var/folders/1s/lqjcb7x5323625d47g9gdgmr0000gp/T//ccbjwlOH.s 			page 26


 1426 000e 9581      		ldd r25,Z+5
 1427               	.LVL186:
 1428 0010 821B      		sub r24,r18
 1429 0012 930B      		sbc r25,r19
 1430 0014 8417      		cp r24,r20
 1431 0016 9507      		cpc r25,r21
 1432 0018 00F0      		brlo .L138
 1433               	.LVL187:
 1434 001a 8081      		ld r24,Z
 1435 001c 9181      		ldd r25,Z+1
 1436 001e 0097      		sbiw r24,0
 1437 0020 01F0      		breq .L138
 1438 0022 6D91      		ld r22,X+
 1439 0024 7C91      		ld r23,X
 1440 0026 6115      		cp r22,__zero_reg__
 1441 0028 7105      		cpc r23,__zero_reg__
 1442 002a 01F0      		breq .L138
 1443               	.LSM132:
 1444 002c 840F      		add r24,r20
 1445 002e 951F      		adc r25,r21
 1446 0030 A901      		movw r20,r18
 1447               	.LVL188:
 1448 0032 0E94 0000 		call strncmp
 1449               	.LVL189:
 1450 0036 9C01      		movw r18,r24
 1451 0038 80E0      		ldi r24,lo8(0)
 1452 003a 232B      		or r18,r19
 1453 003c 01F4      		brne .L140
 1454 003e 81E0      		ldi r24,lo8(1)
 1455 0040 0895      		ret
 1456               	.LVL190:
 1457               	.L138:
 1458 0042 80E0      		ldi r24,lo8(0)
 1459               	.L140:
 1460               	.LSM133:
 1461 0044 0895      		ret
 1462               	.LFE102:
 1463               		.size	_ZNK6String10startsWithERKS_j, .-_ZNK6String10startsWithERKS_j
 1464               		.section	.text._ZNK6String10startsWithERKS_,"ax",@progbits
 1465               	.global	_ZNK6String10startsWithERKS_
 1466               		.type	_ZNK6String10startsWithERKS_, @function
 1467               	_ZNK6String10startsWithERKS_:
 1468               	.LFB101:
 1469               	.LSM134:
 1470               	.LVL191:
 1471               	/* prologue: function */
 1472               	/* frame size = 0 */
 1473 0000 FC01      		movw r30,r24
 1474 0002 DB01      		movw r26,r22
 1475               	.LSM135:
 1476 0004 2481      		ldd r18,Z+4
 1477 0006 3581      		ldd r19,Z+5
 1478 0008 1496      		adiw r26,4
 1479 000a 8D91      		ld r24,X+
 1480 000c 9C91      		ld r25,X
 1481 000e 1597      		sbiw r26,4+1
 1482               	.LVL192:
GAS LISTING /var/folders/1s/lqjcb7x5323625d47g9gdgmr0000gp/T//ccbjwlOH.s 			page 27


 1483 0010 2817      		cp r18,r24
 1484 0012 3907      		cpc r19,r25
 1485 0014 00F4      		brsh .L143
 1486               	.LVL193:
 1487 0016 80E0      		ldi r24,lo8(0)
 1488 0018 0895      		ret
 1489               	.L143:
 1490               	.LSM136:
 1491 001a CF01      		movw r24,r30
 1492 001c 40E0      		ldi r20,lo8(0)
 1493 001e 50E0      		ldi r21,hi8(0)
 1494 0020 0E94 0000 		call _ZNK6String10startsWithERKS_j
 1495               	.LVL194:
 1496               	.LSM137:
 1497 0024 0895      		ret
 1498               	.LFE101:
 1499               		.size	_ZNK6String10startsWithERKS_, .-_ZNK6String10startsWithERKS_
 1500               		.section	.text._ZN6String12changeBufferEj,"ax",@progbits
 1501               	.global	_ZN6String12changeBufferEj
 1502               		.type	_ZN6String12changeBufferEj, @function
 1503               	_ZN6String12changeBufferEj:
 1504               	.LFB72:
 1505               	.LSM138:
 1506               	.LVL195:
 1507 0000 0F93      		push r16
 1508 0002 1F93      		push r17
 1509 0004 CF93      		push r28
 1510 0006 DF93      		push r29
 1511               	/* prologue: function */
 1512               	/* frame size = 0 */
 1513 0008 EC01      		movw r28,r24
 1514 000a 8B01      		movw r16,r22
 1515               	.LBB94:
 1516               	.LSM139:
 1517 000c 6F5F      		subi r22,lo8(-(1))
 1518 000e 7F4F      		sbci r23,hi8(-(1))
 1519               	.LVL196:
 1520 0010 8881      		ld r24,Y
 1521 0012 9981      		ldd r25,Y+1
 1522               	.LVL197:
 1523 0014 0E94 0000 		call realloc
 1524               	.LSM140:
 1525 0018 0097      		sbiw r24,0
 1526               	.LVL198:
 1527 001a 01F4      		brne .L147
 1528 001c 80E0      		ldi r24,lo8(0)
 1529               	.LVL199:
 1530 001e 00C0      		rjmp .L148
 1531               	.LVL200:
 1532               	.L147:
 1533               	.LSM141:
 1534 0020 9983      		std Y+1,r25
 1535 0022 8883      		st Y,r24
 1536               	.LSM142:
 1537 0024 1B83      		std Y+3,r17
 1538 0026 0A83      		std Y+2,r16
 1539 0028 81E0      		ldi r24,lo8(1)
GAS LISTING /var/folders/1s/lqjcb7x5323625d47g9gdgmr0000gp/T//ccbjwlOH.s 			page 28


 1540               	.LVL201:
 1541               	.L148:
 1542               	/* epilogue start */
 1543               	.LBE94:
 1544               	.LSM143:
 1545 002a DF91      		pop r29
 1546 002c CF91      		pop r28
 1547               	.LVL202:
 1548 002e 1F91      		pop r17
 1549 0030 0F91      		pop r16
 1550               	.LVL203:
 1551 0032 0895      		ret
 1552               	.LFE72:
 1553               		.size	_ZN6String12changeBufferEj, .-_ZN6String12changeBufferEj
 1554               		.section	.text._ZN6String7replaceERKS_S1_,"ax",@progbits
 1555               	.global	_ZN6String7replaceERKS_S1_
 1556               		.type	_ZN6String7replaceERKS_S1_, @function
 1557               	_ZN6String7replaceERKS_S1_:
 1558               	.LFB120:
 1559               	.LSM144:
 1560               	.LVL204:
 1561 0000 2F92      		push r2
 1562 0002 3F92      		push r3
 1563 0004 4F92      		push r4
 1564 0006 5F92      		push r5
 1565 0008 6F92      		push r6
 1566 000a 7F92      		push r7
 1567 000c 8F92      		push r8
 1568 000e 9F92      		push r9
 1569 0010 AF92      		push r10
 1570 0012 BF92      		push r11
 1571 0014 CF92      		push r12
 1572 0016 DF92      		push r13
 1573 0018 EF92      		push r14
 1574 001a FF92      		push r15
 1575 001c 0F93      		push r16
 1576 001e 1F93      		push r17
 1577 0020 CF93      		push r28
 1578 0022 DF93      		push r29
 1579               	/* prologue: function */
 1580               	/* frame size = 0 */
 1581 0024 5C01      		movw r10,r24
 1582 0026 2B01      		movw r4,r22
 1583 0028 4A01      		movw r8,r20
 1584               	.LBB99:
 1585               	.LSM145:
 1586 002a DC01      		movw r26,r24
 1587 002c 1496      		adiw r26,4
 1588 002e 0D91      		ld r16,X+
 1589 0030 1C91      		ld r17,X
 1590 0032 1597      		sbiw r26,4+1
 1591               	.LVL205:
 1592 0034 0115      		cp r16,__zero_reg__
 1593 0036 1105      		cpc r17,__zero_reg__
 1594 0038 01F4      		brne .+2
 1595 003a 00C0      		rjmp .L166
 1596               	.LVL206:
GAS LISTING /var/folders/1s/lqjcb7x5323625d47g9gdgmr0000gp/T//ccbjwlOH.s 			page 29


 1597 003c FB01      		movw r30,r22
 1598 003e C480      		ldd r12,Z+4
 1599 0040 D580      		ldd r13,Z+5
 1600 0042 C114      		cp r12,__zero_reg__
 1601 0044 D104      		cpc r13,__zero_reg__
 1602 0046 01F4      		brne .+2
 1603 0048 00C0      		rjmp .L166
 1604               	.LVL207:
 1605               	.LSM146:
 1606 004a DA01      		movw r26,r20
 1607 004c 1496      		adiw r26,4
 1608 004e 6D90      		ld r6,X+
 1609 0050 7C90      		ld r7,X
 1610 0052 1597      		sbiw r26,4+1
 1611 0054 6C18      		sub r6,r12
 1612 0056 7D08      		sbc r7,r13
 1613               	.LSM147:
 1614 0058 FC01      		movw r30,r24
 1615 005a E080      		ld r14,Z
 1616 005c F180      		ldd r15,Z+1
 1617               	.LVL208:
 1618               	.LSM148:
 1619 005e 6114      		cp r6,__zero_reg__
 1620 0060 7104      		cpc r7,__zero_reg__
 1621 0062 01F0      		breq .L167
 1622               	.LVL209:
 1623 0064 00C0      		rjmp .L170
 1624               	.LVL210:
 1625               	.L155:
 1626               	.LSM149:
 1627 0066 D401      		movw r26,r8
 1628 0068 6C91      		ld r22,X
 1629 006a 1196      		adiw r26,1
 1630 006c 7C91      		ld r23,X
 1631 006e 1197      		sbiw r26,1
 1632 0070 1496      		adiw r26,4
 1633 0072 4D91      		ld r20,X+
 1634 0074 5C91      		ld r21,X
 1635 0076 1597      		sbiw r26,4+1
 1636 0078 8C2F      		mov r24,r28
 1637               	.LVL211:
 1638 007a 0E94 0000 		call memcpy
 1639               	.LSM150:
 1640 007e F401      		movw r30,r8
 1641 0080 E480      		ldd r14,Z+4
 1642 0082 F580      		ldd r15,Z+5
 1643 0084 EC0E      		add r14,r28
 1644 0086 FD1E      		adc r15,r29
 1645               	.LVL212:
 1646               	.L167:
 1647               	.LSM151:
 1648 0088 D201      		movw r26,r4
 1649 008a 6D91      		ld r22,X+
 1650 008c 7C91      		ld r23,X
 1651 008e C701      		movw r24,r14
 1652 0090 0E94 0000 		call strstr
 1653 0094 EC01      		movw r28,r24
GAS LISTING /var/folders/1s/lqjcb7x5323625d47g9gdgmr0000gp/T//ccbjwlOH.s 			page 30


 1654               	.LVL213:
 1655 0096 0097      		sbiw r24,0
 1656               	.LVL214:
 1657 0098 01F4      		brne .L155
 1658 009a 00C0      		rjmp .L166
 1659               	.LVL215:
 1660               	.L170:
 1661               	.LSM152:
 1662 009c 77FE      		sbrs r7,7
 1663 009e 00C0      		rjmp .L156
 1664 00a0 6701      		movw r12,r14
 1665               	.LVL216:
 1666 00a2 00C0      		rjmp .L157
 1667               	.LVL217:
 1668               	.L156:
 1669               	.LBB100:
 1670               	.LSM153:
 1671 00a4 FB01      		movw r30,r22
 1672 00a6 2080      		ld r2,Z
 1673 00a8 3180      		ldd r3,Z+1
 1674 00aa E801      		movw r28,r16
 1675 00ac 00C0      		rjmp .L158
 1676               	.LVL218:
 1677               	.L161:
 1678               	.LBE100:
 1679               	.LBB101:
 1680               	.LBB102:
 1681               	.LSM154:
 1682 00ae 8E01      		movw r16,r28
 1683               	.LVL219:
 1684 00b0 0E19      		sub r16,r14
 1685 00b2 1F09      		sbc r17,r15
 1686               	.LSM155:
 1687 00b4 C601      		movw r24,r12
 1688               	.LVL220:
 1689 00b6 B701      		movw r22,r14
 1690               	.LVL221:
 1691 00b8 A801      		movw r20,r16
 1692               	.LVL222:
 1693 00ba 0E94 0000 		call memcpy
 1694               	.LSM156:
 1695 00be 0C0D      		add r16,r12
 1696 00c0 1D1D      		adc r17,r13
 1697               	.LVL223:
 1698               	.LSM157:
 1699 00c2 D401      		movw r26,r8
 1700 00c4 6C91      		ld r22,X
 1701 00c6 1196      		adiw r26,1
 1702 00c8 7C91      		ld r23,X
 1703 00ca 1197      		sbiw r26,1
 1704 00cc 1496      		adiw r26,4
 1705 00ce 4D91      		ld r20,X+
 1706 00d0 5C91      		ld r21,X
 1707 00d2 1597      		sbiw r26,4+1
 1708 00d4 C801      		movw r24,r16
 1709               	.LVL224:
 1710 00d6 0E94 0000 		call memcpy
GAS LISTING /var/folders/1s/lqjcb7x5323625d47g9gdgmr0000gp/T//ccbjwlOH.s 			page 31


 1711               	.LSM158:
 1712 00da F401      		movw r30,r8
 1713 00dc C480      		ldd r12,Z+4
 1714 00de D580      		ldd r13,Z+5
 1715               	.LVL225:
 1716 00e0 C00E      		add r12,r16
 1717 00e2 D11E      		adc r13,r17
 1718               	.LSM159:
 1719 00e4 D201      		movw r26,r4
 1720 00e6 1496      		adiw r26,4
 1721 00e8 ED90      		ld r14,X+
 1722 00ea FC90      		ld r15,X
 1723 00ec 1597      		sbiw r26,4+1
 1724               	.LVL226:
 1725 00ee EC0E      		add r14,r28
 1726 00f0 FD1E      		adc r15,r29
 1727               	.LSM160:
 1728 00f2 F501      		movw r30,r10
 1729 00f4 8481      		ldd r24,Z+4
 1730 00f6 9581      		ldd r25,Z+5
 1731 00f8 860D      		add r24,r6
 1732 00fa 971D      		adc r25,r7
 1733 00fc 9583      		std Z+5,r25
 1734 00fe 8483      		std Z+4,r24
 1735               	.LVL227:
 1736               	.L157:
 1737               	.LBE102:
 1738               	.LSM161:
 1739 0100 D201      		movw r26,r4
 1740 0102 6D91      		ld r22,X+
 1741 0104 7C91      		ld r23,X
 1742 0106 C701      		movw r24,r14
 1743 0108 0E94 0000 		call strstr
 1744 010c EC01      		movw r28,r24
 1745               	.LVL228:
 1746 010e 0097      		sbiw r24,0
 1747               	.LVL229:
 1748 0110 01F4      		brne .L161
 1749               	.LSM162:
 1750 0112 C601      		movw r24,r12
 1751               	.LVL230:
 1752 0114 B701      		movw r22,r14
 1753 0116 0E94 0000 		call strcpy
 1754 011a 00C0      		rjmp .L166
 1755               	.LVL231:
 1756               	.L162:
 1757               	.LBE101:
 1758               	.LBB103:
 1759               	.LSM163:
 1760 011c 7B01      		movw r14,r22
 1761 011e EC0C      		add r14,r12
 1762 0120 FD1C      		adc r15,r13
 1763               	.LSM164:
 1764 0122 C60D      		add r28,r6
 1765 0124 D71D      		adc r29,r7
 1766               	.LVL232:
 1767               	.L158:
GAS LISTING /var/folders/1s/lqjcb7x5323625d47g9gdgmr0000gp/T//ccbjwlOH.s 			page 32


 1768               	.LSM165:
 1769 0126 C701      		movw r24,r14
 1770 0128 B101      		movw r22,r2
 1771               	.LVL233:
 1772 012a 0E94 0000 		call strstr
 1773 012e BC01      		movw r22,r24
 1774 0130 0097      		sbiw r24,0
 1775               	.LVL234:
 1776 0132 01F4      		brne .L162
 1777               	.LSM166:
 1778 0134 C017      		cp r28,r16
 1779 0136 D107      		cpc r29,r17
 1780 0138 01F4      		brne .+2
 1781 013a 00C0      		rjmp .L166
 1782               	.LVL235:
 1783               	.LSM167:
 1784 013c F501      		movw r30,r10
 1785 013e 8281      		ldd r24,Z+2
 1786 0140 9381      		ldd r25,Z+3
 1787               	.LVL236:
 1788 0142 8C17      		cp r24,r28
 1789 0144 9D07      		cpc r25,r29
 1790 0146 00F0      		brlo .+2
 1791 0148 00C0      		rjmp .L163
 1792               	.LVL237:
 1793 014a C501      		movw r24,r10
 1794 014c BE01      		movw r22,r28
 1795 014e 0E94 0000 		call _ZN6String12changeBufferEj
 1796 0152 8823      		tst r24
 1797 0154 01F4      		brne .L163
 1798 0156 00C0      		rjmp .L166
 1799               	.LVL238:
 1800               	.L171:
 1801               	.LSM168:
 1802 0158 C501      		movw r24,r10
 1803 015a B201      		movw r22,r4
 1804 015c A901      		movw r20,r18
 1805               	.LVL239:
 1806 015e 0E94 0000 		call _ZNK6String11lastIndexOfERKS_j
 1807 0162 EC01      		movw r28,r24
 1808               	.LVL240:
 1809 0164 97FD      		sbrc r25,7
 1810 0166 00C0      		rjmp .L166
 1811               	.LVL241:
 1812               	.LSM169:
 1813 0168 D501      		movw r26,r10
 1814 016a 6D91      		ld r22,X+
 1815 016c 7C91      		ld r23,X
 1816 016e 1197      		sbiw r26,1
 1817               	.LVL242:
 1818 0170 F201      		movw r30,r4
 1819 0172 8481      		ldd r24,Z+4
 1820 0174 9581      		ldd r25,Z+5
 1821               	.LVL243:
 1822 0176 8C0F      		add r24,r28
 1823 0178 9D1F      		adc r25,r29
 1824               	.LSM170:
GAS LISTING /var/folders/1s/lqjcb7x5323625d47g9gdgmr0000gp/T//ccbjwlOH.s 			page 33


 1825 017a 680F      		add r22,r24
 1826 017c 791F      		adc r23,r25
 1827 017e 1496      		adiw r26,4
 1828 0180 4D91      		ld r20,X+
 1829 0182 5C91      		ld r21,X
 1830 0184 1597      		sbiw r26,4+1
 1831 0186 481B      		sub r20,r24
 1832 0188 590B      		sbc r21,r25
 1833 018a CB01      		movw r24,r22
 1834 018c 860D      		add r24,r6
 1835 018e 971D      		adc r25,r7
 1836 0190 0E94 0000 		call memmove
 1837               	.LVL244:
 1838               	.LSM171:
 1839 0194 D501      		movw r26,r10
 1840 0196 1496      		adiw r26,4
 1841 0198 8D91      		ld r24,X+
 1842 019a 9C91      		ld r25,X
 1843 019c 1597      		sbiw r26,4+1
 1844 019e 860D      		add r24,r6
 1845 01a0 971D      		adc r25,r7
 1846 01a2 1596      		adiw r26,4+1
 1847 01a4 9C93      		st X,r25
 1848 01a6 8E93      		st -X,r24
 1849 01a8 1497      		sbiw r26,4
 1850               	.LSM172:
 1851 01aa ED91      		ld r30,X+
 1852 01ac FC91      		ld r31,X
 1853 01ae 1197      		sbiw r26,1
 1854 01b0 E80F      		add r30,r24
 1855 01b2 F91F      		adc r31,r25
 1856 01b4 1082      		st Z,__zero_reg__
 1857               	.LSM173:
 1858 01b6 2D91      		ld r18,X+
 1859 01b8 3C91      		ld r19,X
 1860 01ba 2C0F      		add r18,r28
 1861 01bc 3D1F      		adc r19,r29
 1862 01be F401      		movw r30,r8
 1863 01c0 6081      		ld r22,Z
 1864 01c2 7181      		ldd r23,Z+1
 1865 01c4 4481      		ldd r20,Z+4
 1866 01c6 5581      		ldd r21,Z+5
 1867 01c8 C901      		movw r24,r18
 1868 01ca 0E94 0000 		call memcpy
 1869               	.LSM174:
 1870 01ce 9E01      		movw r18,r28
 1871 01d0 00C0      		rjmp .L169
 1872               	.LVL245:
 1873               	.L163:
 1874               	.LSM175:
 1875 01d2 D501      		movw r26,r10
 1876 01d4 1496      		adiw r26,4
 1877 01d6 2D91      		ld r18,X+
 1878 01d8 3C91      		ld r19,X
 1879 01da 1597      		sbiw r26,4+1
 1880               	.LVL246:
 1881               	.L169:
GAS LISTING /var/folders/1s/lqjcb7x5323625d47g9gdgmr0000gp/T//ccbjwlOH.s 			page 34


 1882 01dc 2150      		subi r18,lo8(-(-1))
 1883 01de 3040      		sbci r19,hi8(-(-1))
 1884               	.LSM176:
 1885 01e0 37FF      		sbrs r19,7
 1886 01e2 00C0      		rjmp .L171
 1887               	.LVL247:
 1888               	.L166:
 1889               	/* epilogue start */
 1890               	.LBE103:
 1891               	.LBE99:
 1892               	.LSM177:
 1893 01e4 DF91      		pop r29
 1894 01e6 CF91      		pop r28
 1895 01e8 1F91      		pop r17
 1896 01ea 0F91      		pop r16
 1897               	.LVL248:
 1898 01ec FF90      		pop r15
 1899 01ee EF90      		pop r14
 1900               	.LVL249:
 1901 01f0 DF90      		pop r13
 1902 01f2 CF90      		pop r12
 1903               	.LVL250:
 1904 01f4 BF90      		pop r11
 1905 01f6 AF90      		pop r10
 1906               	.LVL251:
 1907 01f8 9F90      		pop r9
 1908 01fa 8F90      		pop r8
 1909               	.LVL252:
 1910 01fc 7F90      		pop r7
 1911 01fe 6F90      		pop r6
 1912 0200 5F90      		pop r5
 1913 0202 4F90      		pop r4
 1914               	.LVL253:
 1915 0204 3F90      		pop r3
 1916 0206 2F90      		pop r2
 1917 0208 0895      		ret
 1918               	.LFE120:
 1919               		.size	_ZN6String7replaceERKS_S1_, .-_ZN6String7replaceERKS_S1_
 1920               		.section	.text._ZN6String7reserveEj,"ax",@progbits
 1921               	.global	_ZN6String7reserveEj
 1922               		.type	_ZN6String7reserveEj, @function
 1923               	_ZN6String7reserveEj:
 1924               	.LFB71:
 1925               	.LSM178:
 1926               	.LVL254:
 1927 0000 CF93      		push r28
 1928 0002 DF93      		push r29
 1929               	/* prologue: function */
 1930               	/* frame size = 0 */
 1931 0004 EC01      		movw r28,r24
 1932               	.LSM179:
 1933 0006 8881      		ld r24,Y
 1934 0008 9981      		ldd r25,Y+1
 1935               	.LVL255:
 1936 000a 892B      		or r24,r25
 1937 000c 01F0      		breq .L173
 1938 000e 8A81      		ldd r24,Y+2
GAS LISTING /var/folders/1s/lqjcb7x5323625d47g9gdgmr0000gp/T//ccbjwlOH.s 			page 35


 1939 0010 9B81      		ldd r25,Y+3
 1940 0012 8617      		cp r24,r22
 1941 0014 9707      		cpc r25,r23
 1942 0016 00F4      		brsh .L174
 1943               	.L173:
 1944               	.LSM180:
 1945 0018 CE01      		movw r24,r28
 1946 001a 0E94 0000 		call _ZN6String12changeBufferEj
 1947               	.LVL256:
 1948 001e 8823      		tst r24
 1949 0020 01F0      		breq .L176
 1950               	.LSM181:
 1951 0022 8C81      		ldd r24,Y+4
 1952 0024 9D81      		ldd r25,Y+5
 1953 0026 892B      		or r24,r25
 1954 0028 01F4      		brne .L174
 1955 002a E881      		ld r30,Y
 1956 002c F981      		ldd r31,Y+1
 1957 002e 1082      		st Z,__zero_reg__
 1958               	.LVL257:
 1959               	.L174:
 1960 0030 81E0      		ldi r24,lo8(1)
 1961               	.L176:
 1962               	/* epilogue start */
 1963               	.LSM182:
 1964 0032 DF91      		pop r29
 1965 0034 CF91      		pop r28
 1966               	.LVL258:
 1967 0036 0895      		ret
 1968               	.LFE71:
 1969               		.size	_ZN6String7reserveEj, .-_ZN6String7reserveEj
 1970               		.section	.text._ZN6String6concatEPKcj,"ax",@progbits
 1971               	.global	_ZN6String6concatEPKcj
 1972               		.type	_ZN6String6concatEPKcj, @function
 1973               	_ZN6String6concatEPKcj:
 1974               	.LFB77:
 1975               	.LSM183:
 1976               	.LVL259:
 1977 0000 EF92      		push r14
 1978 0002 FF92      		push r15
 1979 0004 0F93      		push r16
 1980 0006 1F93      		push r17
 1981 0008 CF93      		push r28
 1982 000a DF93      		push r29
 1983               	/* prologue: function */
 1984               	/* frame size = 0 */
 1985 000c EC01      		movw r28,r24
 1986 000e 7B01      		movw r14,r22
 1987               	.LBB105:
 1988               	.LSM184:
 1989 0010 6C81      		ldd r22,Y+4
 1990 0012 7D81      		ldd r23,Y+5
 1991               	.LVL260:
 1992               	.LSM185:
 1993 0014 E114      		cp r14,__zero_reg__
 1994 0016 F104      		cpc r15,__zero_reg__
 1995 0018 01F0      		breq .L179
GAS LISTING /var/folders/1s/lqjcb7x5323625d47g9gdgmr0000gp/T//ccbjwlOH.s 			page 36


 1996               	.LVL261:
 1997               	.LSM186:
 1998 001a 4115      		cp r20,__zero_reg__
 1999 001c 5105      		cpc r21,__zero_reg__
 2000 001e 01F0      		breq .L183
 2001               	.L180:
 2002               	.LSM187:
 2003 0020 8A01      		movw r16,r20
 2004               	.LVL262:
 2005 0022 060F      		add r16,r22
 2006 0024 171F      		adc r17,r23
 2007               	.LSM188:
 2008 0026 B801      		movw r22,r16
 2009 0028 0E94 0000 		call _ZN6String7reserveEj
 2010               	.LVL263:
 2011 002c 8823      		tst r24
 2012 002e 01F0      		breq .L179
 2013               	.LSM189:
 2014 0030 8881      		ld r24,Y
 2015 0032 9981      		ldd r25,Y+1
 2016 0034 2C81      		ldd r18,Y+4
 2017 0036 3D81      		ldd r19,Y+5
 2018 0038 820F      		add r24,r18
 2019 003a 931F      		adc r25,r19
 2020 003c B701      		movw r22,r14
 2021 003e 0E94 0000 		call strcpy
 2022               	.LSM190:
 2023 0042 1D83      		std Y+5,r17
 2024 0044 0C83      		std Y+4,r16
 2025               	.LVL264:
 2026               	.L183:
 2027 0046 81E0      		ldi r24,lo8(1)
 2028 0048 00C0      		rjmp .L181
 2029               	.LVL265:
 2030               	.L179:
 2031               	.LSM191:
 2032 004a 80E0      		ldi r24,lo8(0)
 2033               	.L181:
 2034               	/* epilogue start */
 2035               	.LBE105:
 2036               	.LSM192:
 2037 004c DF91      		pop r29
 2038 004e CF91      		pop r28
 2039               	.LVL266:
 2040 0050 1F91      		pop r17
 2041 0052 0F91      		pop r16
 2042               	.LVL267:
 2043 0054 FF90      		pop r15
 2044 0056 EF90      		pop r14
 2045               	.LVL268:
 2046 0058 0895      		ret
 2047               	.LFE77:
 2048               		.size	_ZN6String6concatEPKcj, .-_ZN6String6concatEPKcj
 2049               		.section	.text._ZN6String6concatEm,"ax",@progbits
 2050               	.global	_ZN6String6concatEm
 2051               		.type	_ZN6String6concatEm, @function
 2052               	_ZN6String6concatEm:
GAS LISTING /var/folders/1s/lqjcb7x5323625d47g9gdgmr0000gp/T//ccbjwlOH.s 			page 37


 2053               	.LFB84:
 2054               	.LSM193:
 2055               	.LVL269:
 2056 0000 EF92      		push r14
 2057 0002 FF92      		push r15
 2058 0004 0F93      		push r16
 2059 0006 1F93      		push r17
 2060 0008 DF93      		push r29
 2061 000a CF93      		push r28
 2062 000c CDB7      		in r28,__SP_L__
 2063 000e DEB7      		in r29,__SP_H__
 2064 0010 2B97      		sbiw r28,11
 2065 0012 0FB6      		in __tmp_reg__,__SREG__
 2066 0014 F894      		cli
 2067 0016 DEBF      		out __SP_H__,r29
 2068 0018 0FBE      		out __SREG__,__tmp_reg__
 2069 001a CDBF      		out __SP_L__,r28
 2070               	/* prologue: function */
 2071               	/* frame size = 11 */
 2072 001c 7C01      		movw r14,r24
 2073               	.LBB107:
 2074               	.LSM194:
 2075 001e CB01      		movw r24,r22
 2076 0020 BA01      		movw r22,r20
 2077 0022 8E01      		movw r16,r28
 2078 0024 0F5F      		subi r16,lo8(-(1))
 2079 0026 1F4F      		sbci r17,hi8(-(1))
 2080 0028 A801      		movw r20,r16
 2081               	.LVL270:
 2082 002a 2AE0      		ldi r18,lo8(10)
 2083 002c 30E0      		ldi r19,hi8(10)
 2084 002e 0E94 0000 		call ultoa
 2085               	.LVL271:
 2086               	.LSM195:
 2087 0032 F801      		movw r30,r16
 2088 0034 0190      		ld __tmp_reg__,Z+
 2089 0036 0020      		tst __tmp_reg__
 2090 0038 01F4      		brne .-6
 2091 003a 3197      		sbiw r30,1
 2092 003c E01B      		sub r30,r16
 2093 003e F10B      		sbc r31,r17
 2094 0040 C701      		movw r24,r14
 2095 0042 B801      		movw r22,r16
 2096 0044 AF01      		movw r20,r30
 2097 0046 0E94 0000 		call _ZN6String6concatEPKcj
 2098               	/* epilogue start */
 2099               	.LBE107:
 2100               	.LSM196:
 2101 004a 2B96      		adiw r28,11
 2102 004c 0FB6      		in __tmp_reg__,__SREG__
 2103 004e F894      		cli
 2104 0050 DEBF      		out __SP_H__,r29
 2105 0052 0FBE      		out __SREG__,__tmp_reg__
 2106 0054 CDBF      		out __SP_L__,r28
 2107 0056 CF91      		pop r28
 2108 0058 DF91      		pop r29
 2109 005a 1F91      		pop r17
GAS LISTING /var/folders/1s/lqjcb7x5323625d47g9gdgmr0000gp/T//ccbjwlOH.s 			page 38


 2110 005c 0F91      		pop r16
 2111 005e FF90      		pop r15
 2112 0060 EF90      		pop r14
 2113               	.LVL272:
 2114 0062 0895      		ret
 2115               	.LFE84:
 2116               		.size	_ZN6String6concatEm, .-_ZN6String6concatEm
 2117               		.section	.text._ZN6String6concatEl,"ax",@progbits
 2118               	.global	_ZN6String6concatEl
 2119               		.type	_ZN6String6concatEl, @function
 2120               	_ZN6String6concatEl:
 2121               	.LFB83:
 2122               	.LSM197:
 2123               	.LVL273:
 2124 0000 EF92      		push r14
 2125 0002 FF92      		push r15
 2126 0004 0F93      		push r16
 2127 0006 1F93      		push r17
 2128 0008 DF93      		push r29
 2129 000a CF93      		push r28
 2130 000c CDB7      		in r28,__SP_L__
 2131 000e DEB7      		in r29,__SP_H__
 2132 0010 2C97      		sbiw r28,12
 2133 0012 0FB6      		in __tmp_reg__,__SREG__
 2134 0014 F894      		cli
 2135 0016 DEBF      		out __SP_H__,r29
 2136 0018 0FBE      		out __SREG__,__tmp_reg__
 2137 001a CDBF      		out __SP_L__,r28
 2138               	/* prologue: function */
 2139               	/* frame size = 12 */
 2140 001c 7C01      		movw r14,r24
 2141               	.LBB109:
 2142               	.LSM198:
 2143 001e CB01      		movw r24,r22
 2144 0020 BA01      		movw r22,r20
 2145 0022 8E01      		movw r16,r28
 2146 0024 0F5F      		subi r16,lo8(-(1))
 2147 0026 1F4F      		sbci r17,hi8(-(1))
 2148 0028 A801      		movw r20,r16
 2149               	.LVL274:
 2150 002a 2AE0      		ldi r18,lo8(10)
 2151 002c 30E0      		ldi r19,hi8(10)
 2152 002e 0E94 0000 		call ltoa
 2153               	.LVL275:
 2154               	.LSM199:
 2155 0032 F801      		movw r30,r16
 2156 0034 0190      		ld __tmp_reg__,Z+
 2157 0036 0020      		tst __tmp_reg__
 2158 0038 01F4      		brne .-6
 2159 003a 3197      		sbiw r30,1
 2160 003c E01B      		sub r30,r16
 2161 003e F10B      		sbc r31,r17
 2162 0040 C701      		movw r24,r14
 2163 0042 B801      		movw r22,r16
 2164 0044 AF01      		movw r20,r30
 2165 0046 0E94 0000 		call _ZN6String6concatEPKcj
 2166               	/* epilogue start */
GAS LISTING /var/folders/1s/lqjcb7x5323625d47g9gdgmr0000gp/T//ccbjwlOH.s 			page 39


 2167               	.LBE109:
 2168               	.LSM200:
 2169 004a 2C96      		adiw r28,12
 2170 004c 0FB6      		in __tmp_reg__,__SREG__
 2171 004e F894      		cli
 2172 0050 DEBF      		out __SP_H__,r29
 2173 0052 0FBE      		out __SREG__,__tmp_reg__
 2174 0054 CDBF      		out __SP_L__,r28
 2175 0056 CF91      		pop r28
 2176 0058 DF91      		pop r29
 2177 005a 1F91      		pop r17
 2178 005c 0F91      		pop r16
 2179 005e FF90      		pop r15
 2180 0060 EF90      		pop r14
 2181               	.LVL276:
 2182 0062 0895      		ret
 2183               	.LFE83:
 2184               		.size	_ZN6String6concatEl, .-_ZN6String6concatEl
 2185               		.section	.text._ZN6String6concatEj,"ax",@progbits
 2186               	.global	_ZN6String6concatEj
 2187               		.type	_ZN6String6concatEj, @function
 2188               	_ZN6String6concatEj:
 2189               	.LFB82:
 2190               	.LSM201:
 2191               	.LVL277:
 2192 0000 EF92      		push r14
 2193 0002 FF92      		push r15
 2194 0004 0F93      		push r16
 2195 0006 1F93      		push r17
 2196 0008 DF93      		push r29
 2197 000a CF93      		push r28
 2198 000c 00D0      		rcall .
 2199 000e 00D0      		rcall .
 2200 0010 CDB7      		in r28,__SP_L__
 2201 0012 DEB7      		in r29,__SP_H__
 2202               	/* prologue: function */
 2203               	/* frame size = 6 */
 2204 0014 7C01      		movw r14,r24
 2205 0016 CB01      		movw r24,r22
 2206               	.LVL278:
 2207               	.LBB111:
 2208               	.LSM202:
 2209 0018 8E01      		movw r16,r28
 2210 001a 0F5F      		subi r16,lo8(-(1))
 2211 001c 1F4F      		sbci r17,hi8(-(1))
 2212 001e B801      		movw r22,r16
 2213               	.LVL279:
 2214 0020 4AE0      		ldi r20,lo8(10)
 2215 0022 50E0      		ldi r21,hi8(10)
 2216 0024 0E94 0000 		call utoa
 2217               	.LVL280:
 2218               	.LSM203:
 2219 0028 F801      		movw r30,r16
 2220 002a 0190      		ld __tmp_reg__,Z+
 2221 002c 0020      		tst __tmp_reg__
 2222 002e 01F4      		brne .-6
 2223 0030 3197      		sbiw r30,1
GAS LISTING /var/folders/1s/lqjcb7x5323625d47g9gdgmr0000gp/T//ccbjwlOH.s 			page 40


 2224 0032 E01B      		sub r30,r16
 2225 0034 F10B      		sbc r31,r17
 2226 0036 C701      		movw r24,r14
 2227 0038 B801      		movw r22,r16
 2228 003a AF01      		movw r20,r30
 2229 003c 0E94 0000 		call _ZN6String6concatEPKcj
 2230               	/* epilogue start */
 2231               	.LBE111:
 2232               	.LSM204:
 2233 0040 2696      		adiw r28,6
 2234 0042 0FB6      		in __tmp_reg__,__SREG__
 2235 0044 F894      		cli
 2236 0046 DEBF      		out __SP_H__,r29
 2237 0048 0FBE      		out __SREG__,__tmp_reg__
 2238 004a CDBF      		out __SP_L__,r28
 2239 004c CF91      		pop r28
 2240 004e DF91      		pop r29
 2241 0050 1F91      		pop r17
 2242 0052 0F91      		pop r16
 2243 0054 FF90      		pop r15
 2244 0056 EF90      		pop r14
 2245               	.LVL281:
 2246 0058 0895      		ret
 2247               	.LFE82:
 2248               		.size	_ZN6String6concatEj, .-_ZN6String6concatEj
 2249               		.section	.text._ZN6String6concatEi,"ax",@progbits
 2250               	.global	_ZN6String6concatEi
 2251               		.type	_ZN6String6concatEi, @function
 2252               	_ZN6String6concatEi:
 2253               	.LFB81:
 2254               	.LSM205:
 2255               	.LVL282:
 2256 0000 EF92      		push r14
 2257 0002 FF92      		push r15
 2258 0004 0F93      		push r16
 2259 0006 1F93      		push r17
 2260 0008 DF93      		push r29
 2261 000a CF93      		push r28
 2262 000c CDB7      		in r28,__SP_L__
 2263 000e DEB7      		in r29,__SP_H__
 2264 0010 2797      		sbiw r28,7
 2265 0012 0FB6      		in __tmp_reg__,__SREG__
 2266 0014 F894      		cli
 2267 0016 DEBF      		out __SP_H__,r29
 2268 0018 0FBE      		out __SREG__,__tmp_reg__
 2269 001a CDBF      		out __SP_L__,r28
 2270               	/* prologue: function */
 2271               	/* frame size = 7 */
 2272 001c 7C01      		movw r14,r24
 2273 001e CB01      		movw r24,r22
 2274               	.LVL283:
 2275               	.LBB113:
 2276               	.LSM206:
 2277 0020 8E01      		movw r16,r28
 2278 0022 0F5F      		subi r16,lo8(-(1))
 2279 0024 1F4F      		sbci r17,hi8(-(1))
 2280 0026 B801      		movw r22,r16
GAS LISTING /var/folders/1s/lqjcb7x5323625d47g9gdgmr0000gp/T//ccbjwlOH.s 			page 41


 2281               	.LVL284:
 2282 0028 4AE0      		ldi r20,lo8(10)
 2283 002a 50E0      		ldi r21,hi8(10)
 2284 002c 0E94 0000 		call itoa
 2285               	.LVL285:
 2286               	.LSM207:
 2287 0030 F801      		movw r30,r16
 2288 0032 0190      		ld __tmp_reg__,Z+
 2289 0034 0020      		tst __tmp_reg__
 2290 0036 01F4      		brne .-6
 2291 0038 3197      		sbiw r30,1
 2292 003a E01B      		sub r30,r16
 2293 003c F10B      		sbc r31,r17
 2294 003e C701      		movw r24,r14
 2295 0040 B801      		movw r22,r16
 2296 0042 AF01      		movw r20,r30
 2297 0044 0E94 0000 		call _ZN6String6concatEPKcj
 2298               	/* epilogue start */
 2299               	.LBE113:
 2300               	.LSM208:
 2301 0048 2796      		adiw r28,7
 2302 004a 0FB6      		in __tmp_reg__,__SREG__
 2303 004c F894      		cli
 2304 004e DEBF      		out __SP_H__,r29
 2305 0050 0FBE      		out __SREG__,__tmp_reg__
 2306 0052 CDBF      		out __SP_L__,r28
 2307 0054 CF91      		pop r28
 2308 0056 DF91      		pop r29
 2309 0058 1F91      		pop r17
 2310 005a 0F91      		pop r16
 2311 005c FF90      		pop r15
 2312 005e EF90      		pop r14
 2313               	.LVL286:
 2314 0060 0895      		ret
 2315               	.LFE81:
 2316               		.size	_ZN6String6concatEi, .-_ZN6String6concatEi
 2317               		.section	.text._ZN6String6concatEh,"ax",@progbits
 2318               	.global	_ZN6String6concatEh
 2319               		.type	_ZN6String6concatEh, @function
 2320               	_ZN6String6concatEh:
 2321               	.LFB80:
 2322               	.LSM209:
 2323               	.LVL287:
 2324 0000 EF92      		push r14
 2325 0002 FF92      		push r15
 2326 0004 0F93      		push r16
 2327 0006 1F93      		push r17
 2328 0008 DF93      		push r29
 2329 000a CF93      		push r28
 2330 000c 00D0      		rcall .
 2331 000e 0F92      		push __tmp_reg__
 2332 0010 CDB7      		in r28,__SP_L__
 2333 0012 DEB7      		in r29,__SP_H__
 2334               	/* prologue: function */
 2335               	/* frame size = 4 */
 2336 0014 7C01      		movw r14,r24
 2337 0016 862F      		mov r24,r22
GAS LISTING /var/folders/1s/lqjcb7x5323625d47g9gdgmr0000gp/T//ccbjwlOH.s 			page 42


 2338               	.LVL288:
 2339               	.LBB115:
 2340               	.LSM210:
 2341 0018 90E0      		ldi r25,lo8(0)
 2342 001a 8E01      		movw r16,r28
 2343 001c 0F5F      		subi r16,lo8(-(1))
 2344 001e 1F4F      		sbci r17,hi8(-(1))
 2345 0020 B801      		movw r22,r16
 2346               	.LVL289:
 2347 0022 4AE0      		ldi r20,lo8(10)
 2348 0024 50E0      		ldi r21,hi8(10)
 2349 0026 0E94 0000 		call itoa
 2350               	.LVL290:
 2351               	.LSM211:
 2352 002a F801      		movw r30,r16
 2353 002c 0190      		ld __tmp_reg__,Z+
 2354 002e 0020      		tst __tmp_reg__
 2355 0030 01F4      		brne .-6
 2356 0032 3197      		sbiw r30,1
 2357 0034 E01B      		sub r30,r16
 2358 0036 F10B      		sbc r31,r17
 2359 0038 C701      		movw r24,r14
 2360 003a B801      		movw r22,r16
 2361 003c AF01      		movw r20,r30
 2362 003e 0E94 0000 		call _ZN6String6concatEPKcj
 2363               	/* epilogue start */
 2364               	.LBE115:
 2365               	.LSM212:
 2366 0042 0F90      		pop __tmp_reg__
 2367 0044 0F90      		pop __tmp_reg__
 2368 0046 0F90      		pop __tmp_reg__
 2369 0048 0F90      		pop __tmp_reg__
 2370 004a CF91      		pop r28
 2371 004c DF91      		pop r29
 2372 004e 1F91      		pop r17
 2373 0050 0F91      		pop r16
 2374 0052 FF90      		pop r15
 2375 0054 EF90      		pop r14
 2376               	.LVL291:
 2377 0056 0895      		ret
 2378               	.LFE80:
 2379               		.size	_ZN6String6concatEh, .-_ZN6String6concatEh
 2380               		.section	.text._ZN6String6concatEc,"ax",@progbits
 2381               	.global	_ZN6String6concatEc
 2382               		.type	_ZN6String6concatEc, @function
 2383               	_ZN6String6concatEc:
 2384               	.LFB79:
 2385               	.LSM213:
 2386               	.LVL292:
 2387 0000 DF93      		push r29
 2388 0002 CF93      		push r28
 2389 0004 0F92      		push __tmp_reg__
 2390 0006 0F92      		push __tmp_reg__
 2391 0008 CDB7      		in r28,__SP_L__
 2392 000a DEB7      		in r29,__SP_H__
 2393               	/* prologue: function */
 2394               	/* frame size = 2 */
GAS LISTING /var/folders/1s/lqjcb7x5323625d47g9gdgmr0000gp/T//ccbjwlOH.s 			page 43


 2395               	.LBB117:
 2396               	.LSM214:
 2397 000c 6983      		std Y+1,r22
 2398               	.LSM215:
 2399 000e 1A82      		std Y+2,__zero_reg__
 2400               	.LSM216:
 2401 0010 BE01      		movw r22,r28
 2402               	.LVL293:
 2403 0012 6F5F      		subi r22,lo8(-(1))
 2404 0014 7F4F      		sbci r23,hi8(-(1))
 2405 0016 41E0      		ldi r20,lo8(1)
 2406 0018 50E0      		ldi r21,hi8(1)
 2407 001a 0E94 0000 		call _ZN6String6concatEPKcj
 2408               	.LVL294:
 2409               	/* epilogue start */
 2410               	.LBE117:
 2411               	.LSM217:
 2412 001e 0F90      		pop __tmp_reg__
 2413 0020 0F90      		pop __tmp_reg__
 2414 0022 CF91      		pop r28
 2415 0024 DF91      		pop r29
 2416 0026 0895      		ret
 2417               	.LFE79:
 2418               		.size	_ZN6String6concatEc, .-_ZN6String6concatEc
 2419               		.section	.text._ZN6String6concatEPKc,"ax",@progbits
 2420               	.global	_ZN6String6concatEPKc
 2421               		.type	_ZN6String6concatEPKc, @function
 2422               	_ZN6String6concatEPKc:
 2423               	.LFB78:
 2424               	.LSM218:
 2425               	.LVL295:
 2426               	/* prologue: function */
 2427               	/* frame size = 0 */
 2428               	.LSM219:
 2429 0000 6115      		cp r22,__zero_reg__
 2430 0002 7105      		cpc r23,__zero_reg__
 2431 0004 01F4      		brne .L197
 2432 0006 80E0      		ldi r24,lo8(0)
 2433               	.LVL296:
 2434 0008 0895      		ret
 2435               	.LVL297:
 2436               	.L197:
 2437               	.LSM220:
 2438 000a DB01      		movw r26,r22
 2439 000c 0D90      		ld __tmp_reg__,X+
 2440 000e 0020      		tst __tmp_reg__
 2441 0010 01F4      		brne .-6
 2442 0012 1197      		sbiw r26,1
 2443 0014 A61B      		sub r26,r22
 2444 0016 B70B      		sbc r27,r23
 2445 0018 AD01      		movw r20,r26
 2446 001a 0E94 0000 		call _ZN6String6concatEPKcj
 2447               	.LVL298:
 2448               	.LSM221:
 2449 001e 0895      		ret
 2450               	.LFE78:
 2451               		.size	_ZN6String6concatEPKc, .-_ZN6String6concatEPKc
GAS LISTING /var/folders/1s/lqjcb7x5323625d47g9gdgmr0000gp/T//ccbjwlOH.s 			page 44


 2452               		.section	.text._ZN6String6concatERKS_,"ax",@progbits
 2453               	.global	_ZN6String6concatERKS_
 2454               		.type	_ZN6String6concatERKS_, @function
 2455               	_ZN6String6concatERKS_:
 2456               	.LFB76:
 2457               	.LSM222:
 2458               	.LVL299:
 2459               	/* prologue: function */
 2460               	/* frame size = 0 */
 2461 0000 FB01      		movw r30,r22
 2462               	.LSM223:
 2463 0002 6081      		ld r22,Z
 2464 0004 7181      		ldd r23,Z+1
 2465               	.LVL300:
 2466 0006 4481      		ldd r20,Z+4
 2467 0008 5581      		ldd r21,Z+5
 2468 000a 0E94 0000 		call _ZN6String6concatEPKcj
 2469               	.LVL301:
 2470               	/* epilogue start */
 2471               	.LSM224:
 2472 000e 0895      		ret
 2473               	.LFE76:
 2474               		.size	_ZN6String6concatERKS_, .-_ZN6String6concatERKS_
 2475               		.section	.text._ZN6String10invalidateEv,"ax",@progbits
 2476               	.global	_ZN6String10invalidateEv
 2477               		.type	_ZN6String10invalidateEv, @function
 2478               	_ZN6String10invalidateEv:
 2479               	.LFB70:
 2480               	.LSM225:
 2481               	.LVL302:
 2482 0000 CF93      		push r28
 2483 0002 DF93      		push r29
 2484               	/* prologue: function */
 2485               	/* frame size = 0 */
 2486 0004 EC01      		movw r28,r24
 2487               	.LSM226:
 2488 0006 8881      		ld r24,Y
 2489 0008 9981      		ldd r25,Y+1
 2490               	.LVL303:
 2491 000a 0097      		sbiw r24,0
 2492 000c 01F0      		breq .L203
 2493 000e 0E94 0000 		call free
 2494               	.L203:
 2495               	.LSM227:
 2496 0012 1982      		std Y+1,__zero_reg__
 2497 0014 1882      		st Y,__zero_reg__
 2498               	.LSM228:
 2499 0016 1D82      		std Y+5,__zero_reg__
 2500 0018 1C82      		std Y+4,__zero_reg__
 2501 001a 1B82      		std Y+3,__zero_reg__
 2502 001c 1A82      		std Y+2,__zero_reg__
 2503               	/* epilogue start */
 2504               	.LSM229:
 2505 001e DF91      		pop r29
 2506 0020 CF91      		pop r28
 2507               	.LVL304:
 2508 0022 0895      		ret
GAS LISTING /var/folders/1s/lqjcb7x5323625d47g9gdgmr0000gp/T//ccbjwlOH.s 			page 45


 2509               	.LFE70:
 2510               		.size	_ZN6String10invalidateEv, .-_ZN6String10invalidateEv
 2511               		.section	.text._ZplRK15StringSumHelperm,"ax",@progbits
 2512               	.global	_ZplRK15StringSumHelperm
 2513               		.type	_ZplRK15StringSumHelperm, @function
 2514               	_ZplRK15StringSumHelperm:
 2515               	.LFB92:
 2516               	.LSM230:
 2517               	.LVL305:
 2518 0000 0F93      		push r16
 2519 0002 1F93      		push r17
 2520               	/* prologue: function */
 2521               	/* frame size = 0 */
 2522 0004 182F      		mov r17,r24
 2523 0006 092F      		mov r16,r25
 2524               	.LVL306:
 2525               	.LBB119:
 2526               	.LSM231:
 2527 0008 0E94 0000 		call _ZN6String6concatEm
 2528               	.LVL307:
 2529 000c 8823      		tst r24
 2530 000e 01F4      		brne .L206
 2531 0010 812F      		mov r24,r17
 2532 0012 902F      		mov r25,r16
 2533 0014 0E94 0000 		call _ZN6String10invalidateEv
 2534               	.L206:
 2535               	.LBE119:
 2536               	.LSM232:
 2537 0018 812F      		mov r24,r17
 2538 001a 902F      		mov r25,r16
 2539               	/* epilogue start */
 2540 001c 1F91      		pop r17
 2541               	.LVL308:
 2542 001e 0F91      		pop r16
 2543               	.LVL309:
 2544 0020 0895      		ret
 2545               	.LFE92:
 2546               		.size	_ZplRK15StringSumHelperm, .-_ZplRK15StringSumHelperm
 2547               		.section	.text._ZplRK15StringSumHelperl,"ax",@progbits
 2548               	.global	_ZplRK15StringSumHelperl
 2549               		.type	_ZplRK15StringSumHelperl, @function
 2550               	_ZplRK15StringSumHelperl:
 2551               	.LFB91:
 2552               	.LSM233:
 2553               	.LVL310:
 2554 0000 0F93      		push r16
 2555 0002 1F93      		push r17
 2556               	/* prologue: function */
 2557               	/* frame size = 0 */
 2558 0004 182F      		mov r17,r24
 2559 0006 092F      		mov r16,r25
 2560               	.LVL311:
 2561               	.LBB121:
 2562               	.LSM234:
 2563 0008 0E94 0000 		call _ZN6String6concatEl
 2564               	.LVL312:
 2565 000c 8823      		tst r24
GAS LISTING /var/folders/1s/lqjcb7x5323625d47g9gdgmr0000gp/T//ccbjwlOH.s 			page 46


 2566 000e 01F4      		brne .L209
 2567 0010 812F      		mov r24,r17
 2568 0012 902F      		mov r25,r16
 2569 0014 0E94 0000 		call _ZN6String10invalidateEv
 2570               	.L209:
 2571               	.LBE121:
 2572               	.LSM235:
 2573 0018 812F      		mov r24,r17
 2574 001a 902F      		mov r25,r16
 2575               	/* epilogue start */
 2576 001c 1F91      		pop r17
 2577               	.LVL313:
 2578 001e 0F91      		pop r16
 2579               	.LVL314:
 2580 0020 0895      		ret
 2581               	.LFE91:
 2582               		.size	_ZplRK15StringSumHelperl, .-_ZplRK15StringSumHelperl
 2583               		.section	.text._ZplRK15StringSumHelperj,"ax",@progbits
 2584               	.global	_ZplRK15StringSumHelperj
 2585               		.type	_ZplRK15StringSumHelperj, @function
 2586               	_ZplRK15StringSumHelperj:
 2587               	.LFB90:
 2588               	.LSM236:
 2589               	.LVL315:
 2590 0000 0F93      		push r16
 2591 0002 1F93      		push r17
 2592               	/* prologue: function */
 2593               	/* frame size = 0 */
 2594 0004 182F      		mov r17,r24
 2595 0006 092F      		mov r16,r25
 2596               	.LVL316:
 2597               	.LBB123:
 2598               	.LSM237:
 2599 0008 0E94 0000 		call _ZN6String6concatEj
 2600               	.LVL317:
 2601 000c 8823      		tst r24
 2602 000e 01F4      		brne .L212
 2603 0010 812F      		mov r24,r17
 2604 0012 902F      		mov r25,r16
 2605 0014 0E94 0000 		call _ZN6String10invalidateEv
 2606               	.L212:
 2607               	.LBE123:
 2608               	.LSM238:
 2609 0018 812F      		mov r24,r17
 2610 001a 902F      		mov r25,r16
 2611               	/* epilogue start */
 2612 001c 1F91      		pop r17
 2613               	.LVL318:
 2614 001e 0F91      		pop r16
 2615               	.LVL319:
 2616 0020 0895      		ret
 2617               	.LFE90:
 2618               		.size	_ZplRK15StringSumHelperj, .-_ZplRK15StringSumHelperj
 2619               		.section	.text._ZplRK15StringSumHelperi,"ax",@progbits
 2620               	.global	_ZplRK15StringSumHelperi
 2621               		.type	_ZplRK15StringSumHelperi, @function
 2622               	_ZplRK15StringSumHelperi:
GAS LISTING /var/folders/1s/lqjcb7x5323625d47g9gdgmr0000gp/T//ccbjwlOH.s 			page 47


 2623               	.LFB89:
 2624               	.LSM239:
 2625               	.LVL320:
 2626 0000 0F93      		push r16
 2627 0002 1F93      		push r17
 2628               	/* prologue: function */
 2629               	/* frame size = 0 */
 2630 0004 182F      		mov r17,r24
 2631 0006 092F      		mov r16,r25
 2632               	.LVL321:
 2633               	.LBB125:
 2634               	.LSM240:
 2635 0008 0E94 0000 		call _ZN6String6concatEi
 2636               	.LVL322:
 2637 000c 8823      		tst r24
 2638 000e 01F4      		brne .L215
 2639 0010 812F      		mov r24,r17
 2640 0012 902F      		mov r25,r16
 2641 0014 0E94 0000 		call _ZN6String10invalidateEv
 2642               	.L215:
 2643               	.LBE125:
 2644               	.LSM241:
 2645 0018 812F      		mov r24,r17
 2646 001a 902F      		mov r25,r16
 2647               	/* epilogue start */
 2648 001c 1F91      		pop r17
 2649               	.LVL323:
 2650 001e 0F91      		pop r16
 2651               	.LVL324:
 2652 0020 0895      		ret
 2653               	.LFE89:
 2654               		.size	_ZplRK15StringSumHelperi, .-_ZplRK15StringSumHelperi
 2655               		.section	.text._ZplRK15StringSumHelperh,"ax",@progbits
 2656               	.global	_ZplRK15StringSumHelperh
 2657               		.type	_ZplRK15StringSumHelperh, @function
 2658               	_ZplRK15StringSumHelperh:
 2659               	.LFB88:
 2660               	.LSM242:
 2661               	.LVL325:
 2662 0000 0F93      		push r16
 2663 0002 1F93      		push r17
 2664               	/* prologue: function */
 2665               	/* frame size = 0 */
 2666 0004 182F      		mov r17,r24
 2667 0006 092F      		mov r16,r25
 2668               	.LVL326:
 2669               	.LBB127:
 2670               	.LSM243:
 2671 0008 0E94 0000 		call _ZN6String6concatEh
 2672               	.LVL327:
 2673 000c 8823      		tst r24
 2674 000e 01F4      		brne .L218
 2675 0010 812F      		mov r24,r17
 2676 0012 902F      		mov r25,r16
 2677 0014 0E94 0000 		call _ZN6String10invalidateEv
 2678               	.L218:
 2679               	.LBE127:
GAS LISTING /var/folders/1s/lqjcb7x5323625d47g9gdgmr0000gp/T//ccbjwlOH.s 			page 48


 2680               	.LSM244:
 2681 0018 812F      		mov r24,r17
 2682 001a 902F      		mov r25,r16
 2683               	/* epilogue start */
 2684 001c 1F91      		pop r17
 2685               	.LVL328:
 2686 001e 0F91      		pop r16
 2687               	.LVL329:
 2688 0020 0895      		ret
 2689               	.LFE88:
 2690               		.size	_ZplRK15StringSumHelperh, .-_ZplRK15StringSumHelperh
 2691               		.section	.text._ZplRK15StringSumHelperc,"ax",@progbits
 2692               	.global	_ZplRK15StringSumHelperc
 2693               		.type	_ZplRK15StringSumHelperc, @function
 2694               	_ZplRK15StringSumHelperc:
 2695               	.LFB87:
 2696               	.LSM245:
 2697               	.LVL330:
 2698 0000 0F93      		push r16
 2699 0002 1F93      		push r17
 2700               	/* prologue: function */
 2701               	/* frame size = 0 */
 2702 0004 182F      		mov r17,r24
 2703 0006 092F      		mov r16,r25
 2704               	.LVL331:
 2705               	.LBB129:
 2706               	.LSM246:
 2707 0008 0E94 0000 		call _ZN6String6concatEc
 2708               	.LVL332:
 2709 000c 8823      		tst r24
 2710 000e 01F4      		brne .L221
 2711 0010 812F      		mov r24,r17
 2712 0012 902F      		mov r25,r16
 2713 0014 0E94 0000 		call _ZN6String10invalidateEv
 2714               	.L221:
 2715               	.LBE129:
 2716               	.LSM247:
 2717 0018 812F      		mov r24,r17
 2718 001a 902F      		mov r25,r16
 2719               	/* epilogue start */
 2720 001c 1F91      		pop r17
 2721               	.LVL333:
 2722 001e 0F91      		pop r16
 2723               	.LVL334:
 2724 0020 0895      		ret
 2725               	.LFE87:
 2726               		.size	_ZplRK15StringSumHelperc, .-_ZplRK15StringSumHelperc
 2727               		.section	.text._ZplRK15StringSumHelperPKc,"ax",@progbits
 2728               	.global	_ZplRK15StringSumHelperPKc
 2729               		.type	_ZplRK15StringSumHelperPKc, @function
 2730               	_ZplRK15StringSumHelperPKc:
 2731               	.LFB86:
 2732               	.LSM248:
 2733               	.LVL335:
 2734 0000 0F93      		push r16
 2735 0002 1F93      		push r17
 2736               	/* prologue: function */
GAS LISTING /var/folders/1s/lqjcb7x5323625d47g9gdgmr0000gp/T//ccbjwlOH.s 			page 49


 2737               	/* frame size = 0 */
 2738 0004 182F      		mov r17,r24
 2739 0006 092F      		mov r16,r25
 2740               	.LVL336:
 2741               	.LBB131:
 2742               	.LSM249:
 2743 0008 6115      		cp r22,__zero_reg__
 2744 000a 7105      		cpc r23,__zero_reg__
 2745 000c 01F0      		breq .L224
 2746               	.LVL337:
 2747 000e DB01      		movw r26,r22
 2748 0010 0D90      		ld __tmp_reg__,X+
 2749 0012 0020      		tst __tmp_reg__
 2750 0014 01F4      		brne .-6
 2751 0016 1197      		sbiw r26,1
 2752 0018 A61B      		sub r26,r22
 2753 001a B70B      		sbc r27,r23
 2754 001c AD01      		movw r20,r26
 2755 001e 0E94 0000 		call _ZN6String6concatEPKcj
 2756               	.LVL338:
 2757 0022 8823      		tst r24
 2758 0024 01F4      		brne .L225
 2759               	.LVL339:
 2760               	.L224:
 2761 0026 812F      		mov r24,r17
 2762 0028 902F      		mov r25,r16
 2763 002a 0E94 0000 		call _ZN6String10invalidateEv
 2764               	.LVL340:
 2765               	.L225:
 2766               	.LBE131:
 2767               	.LSM250:
 2768 002e 812F      		mov r24,r17
 2769 0030 902F      		mov r25,r16
 2770               	/* epilogue start */
 2771 0032 1F91      		pop r17
 2772               	.LVL341:
 2773 0034 0F91      		pop r16
 2774               	.LVL342:
 2775 0036 0895      		ret
 2776               	.LFE86:
 2777               		.size	_ZplRK15StringSumHelperPKc, .-_ZplRK15StringSumHelperPKc
 2778               		.section	.text._ZplRK15StringSumHelperRK6String,"ax",@progbits
 2779               	.global	_ZplRK15StringSumHelperRK6String
 2780               		.type	_ZplRK15StringSumHelperRK6String, @function
 2781               	_ZplRK15StringSumHelperRK6String:
 2782               	.LFB85:
 2783               	.LSM251:
 2784               	.LVL343:
 2785 0000 0F93      		push r16
 2786 0002 1F93      		push r17
 2787               	/* prologue: function */
 2788               	/* frame size = 0 */
 2789 0004 182F      		mov r17,r24
 2790 0006 092F      		mov r16,r25
 2791               	.LVL344:
 2792 0008 FB01      		movw r30,r22
 2793               	.LBB133:
GAS LISTING /var/folders/1s/lqjcb7x5323625d47g9gdgmr0000gp/T//ccbjwlOH.s 			page 50


 2794               	.LSM252:
 2795 000a 6081      		ld r22,Z
 2796 000c 7181      		ldd r23,Z+1
 2797               	.LVL345:
 2798 000e 4481      		ldd r20,Z+4
 2799 0010 5581      		ldd r21,Z+5
 2800 0012 0E94 0000 		call _ZN6String6concatEPKcj
 2801               	.LVL346:
 2802 0016 8823      		tst r24
 2803 0018 01F4      		brne .L228
 2804 001a 812F      		mov r24,r17
 2805 001c 902F      		mov r25,r16
 2806 001e 0E94 0000 		call _ZN6String10invalidateEv
 2807               	.L228:
 2808               	.LBE133:
 2809               	.LSM253:
 2810 0022 812F      		mov r24,r17
 2811 0024 902F      		mov r25,r16
 2812               	/* epilogue start */
 2813 0026 1F91      		pop r17
 2814               	.LVL347:
 2815 0028 0F91      		pop r16
 2816               	.LVL348:
 2817 002a 0895      		ret
 2818               	.LFE85:
 2819               		.size	_ZplRK15StringSumHelperRK6String, .-_ZplRK15StringSumHelperRK6String
 2820               		.section	.text._ZN6String4copyEPKcj,"ax",@progbits
 2821               	.global	_ZN6String4copyEPKcj
 2822               		.type	_ZN6String4copyEPKcj, @function
 2823               	_ZN6String4copyEPKcj:
 2824               	.LFB73:
 2825               	.LSM254:
 2826               	.LVL349:
 2827 0000 EF92      		push r14
 2828 0002 FF92      		push r15
 2829 0004 0F93      		push r16
 2830 0006 1F93      		push r17
 2831 0008 CF93      		push r28
 2832 000a DF93      		push r29
 2833               	/* prologue: function */
 2834               	/* frame size = 0 */
 2835 000c EC01      		movw r28,r24
 2836 000e 7B01      		movw r14,r22
 2837 0010 8A01      		movw r16,r20
 2838               	.LSM255:
 2839 0012 BA01      		movw r22,r20
 2840               	.LVL350:
 2841 0014 0E94 0000 		call _ZN6String7reserveEj
 2842               	.LVL351:
 2843 0018 8823      		tst r24
 2844 001a 01F4      		brne .L231
 2845               	.LSM256:
 2846 001c CE01      		movw r24,r28
 2847 001e 0E94 0000 		call _ZN6String10invalidateEv
 2848 0022 00C0      		rjmp .L232
 2849               	.L231:
 2850               	.LSM257:
GAS LISTING /var/folders/1s/lqjcb7x5323625d47g9gdgmr0000gp/T//ccbjwlOH.s 			page 51


 2851 0024 1D83      		std Y+5,r17
 2852 0026 0C83      		std Y+4,r16
 2853               	.LSM258:
 2854 0028 8881      		ld r24,Y
 2855 002a 9981      		ldd r25,Y+1
 2856 002c B701      		movw r22,r14
 2857 002e 0E94 0000 		call strcpy
 2858               	.L232:
 2859               	.LSM259:
 2860 0032 CE01      		movw r24,r28
 2861               	.LVL352:
 2862               	/* epilogue start */
 2863 0034 DF91      		pop r29
 2864 0036 CF91      		pop r28
 2865 0038 1F91      		pop r17
 2866 003a 0F91      		pop r16
 2867               	.LVL353:
 2868 003c FF90      		pop r15
 2869 003e EF90      		pop r14
 2870               	.LVL354:
 2871 0040 0895      		ret
 2872               	.LFE73:
 2873               		.size	_ZN6String4copyEPKcj, .-_ZN6String4copyEPKcj
 2874               		.section	.text._ZN6StringC1EPKc,"ax",@progbits
 2875               	.global	_ZN6StringC1EPKc
 2876               		.type	_ZN6StringC1EPKc, @function
 2877               	_ZN6StringC1EPKc:
 2878               	.LFB44:
 2879               	.LSM260:
 2880               	.LVL355:
 2881 0000 CF93      		push r28
 2882 0002 DF93      		push r29
 2883               	/* prologue: function */
 2884               	/* frame size = 0 */
 2885 0004 EC01      		movw r28,r24
 2886               	.LBB137:
 2887               	.LBB138:
 2888               	.LBB139:
 2889               	.LSM261:
 2890 0006 1982      		std Y+1,__zero_reg__
 2891 0008 1882      		st Y,__zero_reg__
 2892               	.LSM262:
 2893 000a 1B82      		std Y+3,__zero_reg__
 2894 000c 1A82      		std Y+2,__zero_reg__
 2895               	.LSM263:
 2896 000e 1D82      		std Y+5,__zero_reg__
 2897 0010 1C82      		std Y+4,__zero_reg__
 2898               	.LSM264:
 2899 0012 1E82      		std Y+6,__zero_reg__
 2900               	.LBE139:
 2901               	.LBE138:
 2902               	.LSM265:
 2903 0014 6115      		cp r22,__zero_reg__
 2904 0016 7105      		cpc r23,__zero_reg__
 2905 0018 01F0      		breq .L236
 2906               	.LVL356:
 2907 001a DB01      		movw r26,r22
GAS LISTING /var/folders/1s/lqjcb7x5323625d47g9gdgmr0000gp/T//ccbjwlOH.s 			page 52


 2908 001c 0D90      		ld __tmp_reg__,X+
 2909 001e 0020      		tst __tmp_reg__
 2910 0020 01F4      		brne .-6
 2911 0022 1197      		sbiw r26,1
 2912 0024 A61B      		sub r26,r22
 2913 0026 B70B      		sbc r27,r23
 2914 0028 AD01      		movw r20,r26
 2915 002a 0E94 0000 		call _ZN6String4copyEPKcj
 2916               	.LVL357:
 2917               	.L236:
 2918               	/* epilogue start */
 2919               	.LBE137:
 2920               	.LSM266:
 2921 002e DF91      		pop r29
 2922 0030 CF91      		pop r28
 2923               	.LVL358:
 2924 0032 0895      		ret
 2925               	.LFE44:
 2926               		.size	_ZN6StringC1EPKc, .-_ZN6StringC1EPKc
 2927               		.section	.text._ZN6StringC2EPKc,"ax",@progbits
 2928               	.global	_ZN6StringC2EPKc
 2929               		.type	_ZN6StringC2EPKc, @function
 2930               	_ZN6StringC2EPKc:
 2931               	.LFB43:
 2932               	.LSM267:
 2933               	.LVL359:
 2934 0000 CF93      		push r28
 2935 0002 DF93      		push r29
 2936               	/* prologue: function */
 2937               	/* frame size = 0 */
 2938 0004 EC01      		movw r28,r24
 2939               	.LBB143:
 2940               	.LBB144:
 2941               	.LBB145:
 2942               	.LSM268:
 2943 0006 1982      		std Y+1,__zero_reg__
 2944 0008 1882      		st Y,__zero_reg__
 2945               	.LSM269:
 2946 000a 1B82      		std Y+3,__zero_reg__
 2947 000c 1A82      		std Y+2,__zero_reg__
 2948               	.LSM270:
 2949 000e 1D82      		std Y+5,__zero_reg__
 2950 0010 1C82      		std Y+4,__zero_reg__
 2951               	.LSM271:
 2952 0012 1E82      		std Y+6,__zero_reg__
 2953               	.LBE145:
 2954               	.LBE144:
 2955               	.LSM272:
 2956 0014 6115      		cp r22,__zero_reg__
 2957 0016 7105      		cpc r23,__zero_reg__
 2958 0018 01F0      		breq .L239
 2959               	.LVL360:
 2960 001a DB01      		movw r26,r22
 2961 001c 0D90      		ld __tmp_reg__,X+
 2962 001e 0020      		tst __tmp_reg__
 2963 0020 01F4      		brne .-6
 2964 0022 1197      		sbiw r26,1
GAS LISTING /var/folders/1s/lqjcb7x5323625d47g9gdgmr0000gp/T//ccbjwlOH.s 			page 53


 2965 0024 A61B      		sub r26,r22
 2966 0026 B70B      		sbc r27,r23
 2967 0028 AD01      		movw r20,r26
 2968 002a 0E94 0000 		call _ZN6String4copyEPKcj
 2969               	.LVL361:
 2970               	.L239:
 2971               	/* epilogue start */
 2972               	.LBE143:
 2973               	.LSM273:
 2974 002e DF91      		pop r29
 2975 0030 CF91      		pop r28
 2976               	.LVL362:
 2977 0032 0895      		ret
 2978               	.LFE43:
 2979               		.size	_ZN6StringC2EPKc, .-_ZN6StringC2EPKc
 2980               		.section	.text._ZN6StringaSEPKc,"ax",@progbits
 2981               	.global	_ZN6StringaSEPKc
 2982               		.type	_ZN6StringaSEPKc, @function
 2983               	_ZN6StringaSEPKc:
 2984               	.LFB75:
 2985               	.LSM274:
 2986               	.LVL363:
 2987 0000 0F93      		push r16
 2988 0002 1F93      		push r17
 2989               	/* prologue: function */
 2990               	/* frame size = 0 */
 2991 0004 182F      		mov r17,r24
 2992 0006 092F      		mov r16,r25
 2993               	.LVL364:
 2994               	.LSM275:
 2995 0008 6115      		cp r22,__zero_reg__
 2996 000a 7105      		cpc r23,__zero_reg__
 2997 000c 01F0      		breq .L241
 2998               	.LVL365:
 2999 000e DB01      		movw r26,r22
 3000 0010 0D90      		ld __tmp_reg__,X+
 3001 0012 0020      		tst __tmp_reg__
 3002 0014 01F4      		brne .-6
 3003 0016 1197      		sbiw r26,1
 3004 0018 A61B      		sub r26,r22
 3005 001a B70B      		sbc r27,r23
 3006 001c AD01      		movw r20,r26
 3007 001e 0E94 0000 		call _ZN6String4copyEPKcj
 3008               	.LVL366:
 3009 0022 00C0      		rjmp .L242
 3010               	.LVL367:
 3011               	.L241:
 3012               	.LSM276:
 3013 0024 0E94 0000 		call _ZN6String10invalidateEv
 3014               	.LVL368:
 3015               	.L242:
 3016               	.LSM277:
 3017 0028 812F      		mov r24,r17
 3018 002a 902F      		mov r25,r16
 3019               	/* epilogue start */
 3020 002c 1F91      		pop r17
 3021               	.LVL369:
GAS LISTING /var/folders/1s/lqjcb7x5323625d47g9gdgmr0000gp/T//ccbjwlOH.s 			page 54


 3022 002e 0F91      		pop r16
 3023               	.LVL370:
 3024 0030 0895      		ret
 3025               	.LFE75:
 3026               		.size	_ZN6StringaSEPKc, .-_ZN6StringaSEPKc
 3027               		.section	.text._ZN6StringC1Emh,"ax",@progbits
 3028               	.global	_ZN6StringC1Emh
 3029               		.type	_ZN6StringC1Emh, @function
 3030               	_ZN6StringC1Emh:
 3031               	.LFB65:
 3032               	.LSM278:
 3033               	.LVL371:
 3034 0000 EF92      		push r14
 3035 0002 FF92      		push r15
 3036 0004 0F93      		push r16
 3037 0006 1F93      		push r17
 3038 0008 DF93      		push r29
 3039 000a CF93      		push r28
 3040 000c CDB7      		in r28,__SP_L__
 3041 000e DEB7      		in r29,__SP_H__
 3042 0010 A197      		sbiw r28,33
 3043 0012 0FB6      		in __tmp_reg__,__SREG__
 3044 0014 F894      		cli
 3045 0016 DEBF      		out __SP_H__,r29
 3046 0018 0FBE      		out __SREG__,__tmp_reg__
 3047 001a CDBF      		out __SP_L__,r28
 3048               	/* prologue: function */
 3049               	/* frame size = 33 */
 3050 001c 8C01      		movw r16,r24
 3051               	.LBB150:
 3052               	.LBB151:
 3053               	.LBB152:
 3054               	.LBB153:
 3055               	.LSM279:
 3056 001e FC01      		movw r30,r24
 3057 0020 1182      		std Z+1,__zero_reg__
 3058 0022 1082      		st Z,__zero_reg__
 3059               	.LSM280:
 3060 0024 1382      		std Z+3,__zero_reg__
 3061 0026 1282      		std Z+2,__zero_reg__
 3062               	.LSM281:
 3063 0028 1582      		std Z+5,__zero_reg__
 3064 002a 1482      		std Z+4,__zero_reg__
 3065               	.LSM282:
 3066 002c 1682      		std Z+6,__zero_reg__
 3067               	.LBE153:
 3068               	.LBE152:
 3069               	.LSM283:
 3070 002e CB01      		movw r24,r22
 3071 0030 BA01      		movw r22,r20
 3072 0032 7E01      		movw r14,r28
 3073 0034 0894      		sec
 3074 0036 E11C      		adc r14,__zero_reg__
 3075 0038 F11C      		adc r15,__zero_reg__
 3076 003a A701      		movw r20,r14
 3077               	.LVL372:
 3078 003c 30E0      		ldi r19,lo8(0)
GAS LISTING /var/folders/1s/lqjcb7x5323625d47g9gdgmr0000gp/T//ccbjwlOH.s 			page 55


 3079 003e 0E94 0000 		call ultoa
 3080               	.LVL373:
 3081               	.LSM284:
 3082 0042 C801      		movw r24,r16
 3083 0044 B701      		movw r22,r14
 3084 0046 0E94 0000 		call _ZN6StringaSEPKc
 3085               	/* epilogue start */
 3086               	.LBE151:
 3087               	.LBE150:
 3088               	.LSM285:
 3089 004a A196      		adiw r28,33
 3090 004c 0FB6      		in __tmp_reg__,__SREG__
 3091 004e F894      		cli
 3092 0050 DEBF      		out __SP_H__,r29
 3093 0052 0FBE      		out __SREG__,__tmp_reg__
 3094 0054 CDBF      		out __SP_L__,r28
 3095 0056 CF91      		pop r28
 3096 0058 DF91      		pop r29
 3097 005a 1F91      		pop r17
 3098 005c 0F91      		pop r16
 3099               	.LVL374:
 3100 005e FF90      		pop r15
 3101 0060 EF90      		pop r14
 3102 0062 0895      		ret
 3103               	.LFE65:
 3104               		.size	_ZN6StringC1Emh, .-_ZN6StringC1Emh
 3105               		.section	.text._ZN6StringC2Emh,"ax",@progbits
 3106               	.global	_ZN6StringC2Emh
 3107               		.type	_ZN6StringC2Emh, @function
 3108               	_ZN6StringC2Emh:
 3109               	.LFB64:
 3110               	.LSM286:
 3111               	.LVL375:
 3112 0000 EF92      		push r14
 3113 0002 FF92      		push r15
 3114 0004 0F93      		push r16
 3115 0006 1F93      		push r17
 3116 0008 DF93      		push r29
 3117 000a CF93      		push r28
 3118 000c CDB7      		in r28,__SP_L__
 3119 000e DEB7      		in r29,__SP_H__
 3120 0010 A197      		sbiw r28,33
 3121 0012 0FB6      		in __tmp_reg__,__SREG__
 3122 0014 F894      		cli
 3123 0016 DEBF      		out __SP_H__,r29
 3124 0018 0FBE      		out __SREG__,__tmp_reg__
 3125 001a CDBF      		out __SP_L__,r28
 3126               	/* prologue: function */
 3127               	/* frame size = 33 */
 3128 001c 8C01      		movw r16,r24
 3129               	.LBB158:
 3130               	.LBB159:
 3131               	.LBB160:
 3132               	.LBB161:
 3133               	.LSM287:
 3134 001e FC01      		movw r30,r24
 3135 0020 1182      		std Z+1,__zero_reg__
GAS LISTING /var/folders/1s/lqjcb7x5323625d47g9gdgmr0000gp/T//ccbjwlOH.s 			page 56


 3136 0022 1082      		st Z,__zero_reg__
 3137               	.LSM288:
 3138 0024 1382      		std Z+3,__zero_reg__
 3139 0026 1282      		std Z+2,__zero_reg__
 3140               	.LSM289:
 3141 0028 1582      		std Z+5,__zero_reg__
 3142 002a 1482      		std Z+4,__zero_reg__
 3143               	.LSM290:
 3144 002c 1682      		std Z+6,__zero_reg__
 3145               	.LBE161:
 3146               	.LBE160:
 3147               	.LSM291:
 3148 002e CB01      		movw r24,r22
 3149 0030 BA01      		movw r22,r20
 3150 0032 7E01      		movw r14,r28
 3151 0034 0894      		sec
 3152 0036 E11C      		adc r14,__zero_reg__
 3153 0038 F11C      		adc r15,__zero_reg__
 3154 003a A701      		movw r20,r14
 3155               	.LVL376:
 3156 003c 30E0      		ldi r19,lo8(0)
 3157 003e 0E94 0000 		call ultoa
 3158               	.LVL377:
 3159               	.LSM292:
 3160 0042 C801      		movw r24,r16
 3161 0044 B701      		movw r22,r14
 3162 0046 0E94 0000 		call _ZN6StringaSEPKc
 3163               	/* epilogue start */
 3164               	.LBE159:
 3165               	.LBE158:
 3166               	.LSM293:
 3167 004a A196      		adiw r28,33
 3168 004c 0FB6      		in __tmp_reg__,__SREG__
 3169 004e F894      		cli
 3170 0050 DEBF      		out __SP_H__,r29
 3171 0052 0FBE      		out __SREG__,__tmp_reg__
 3172 0054 CDBF      		out __SP_L__,r28
 3173 0056 CF91      		pop r28
 3174 0058 DF91      		pop r29
 3175 005a 1F91      		pop r17
 3176 005c 0F91      		pop r16
 3177               	.LVL378:
 3178 005e FF90      		pop r15
 3179 0060 EF90      		pop r14
 3180 0062 0895      		ret
 3181               	.LFE64:
 3182               		.size	_ZN6StringC2Emh, .-_ZN6StringC2Emh
 3183               		.section	.text._ZN6StringC1Elh,"ax",@progbits
 3184               	.global	_ZN6StringC1Elh
 3185               		.type	_ZN6StringC1Elh, @function
 3186               	_ZN6StringC1Elh:
 3187               	.LFB62:
 3188               	.LSM294:
 3189               	.LVL379:
 3190 0000 EF92      		push r14
 3191 0002 FF92      		push r15
 3192 0004 0F93      		push r16
GAS LISTING /var/folders/1s/lqjcb7x5323625d47g9gdgmr0000gp/T//ccbjwlOH.s 			page 57


 3193 0006 1F93      		push r17
 3194 0008 DF93      		push r29
 3195 000a CF93      		push r28
 3196 000c CDB7      		in r28,__SP_L__
 3197 000e DEB7      		in r29,__SP_H__
 3198 0010 A297      		sbiw r28,34
 3199 0012 0FB6      		in __tmp_reg__,__SREG__
 3200 0014 F894      		cli
 3201 0016 DEBF      		out __SP_H__,r29
 3202 0018 0FBE      		out __SREG__,__tmp_reg__
 3203 001a CDBF      		out __SP_L__,r28
 3204               	/* prologue: function */
 3205               	/* frame size = 34 */
 3206 001c 8C01      		movw r16,r24
 3207               	.LBB166:
 3208               	.LBB167:
 3209               	.LBB168:
 3210               	.LBB169:
 3211               	.LSM295:
 3212 001e FC01      		movw r30,r24
 3213 0020 1182      		std Z+1,__zero_reg__
 3214 0022 1082      		st Z,__zero_reg__
 3215               	.LSM296:
 3216 0024 1382      		std Z+3,__zero_reg__
 3217 0026 1282      		std Z+2,__zero_reg__
 3218               	.LSM297:
 3219 0028 1582      		std Z+5,__zero_reg__
 3220 002a 1482      		std Z+4,__zero_reg__
 3221               	.LSM298:
 3222 002c 1682      		std Z+6,__zero_reg__
 3223               	.LBE169:
 3224               	.LBE168:
 3225               	.LSM299:
 3226 002e CB01      		movw r24,r22
 3227 0030 BA01      		movw r22,r20
 3228 0032 7E01      		movw r14,r28
 3229 0034 0894      		sec
 3230 0036 E11C      		adc r14,__zero_reg__
 3231 0038 F11C      		adc r15,__zero_reg__
 3232 003a A701      		movw r20,r14
 3233               	.LVL380:
 3234 003c 30E0      		ldi r19,lo8(0)
 3235 003e 0E94 0000 		call ltoa
 3236               	.LVL381:
 3237               	.LSM300:
 3238 0042 C801      		movw r24,r16
 3239 0044 B701      		movw r22,r14
 3240 0046 0E94 0000 		call _ZN6StringaSEPKc
 3241               	/* epilogue start */
 3242               	.LBE167:
 3243               	.LBE166:
 3244               	.LSM301:
 3245 004a A296      		adiw r28,34
 3246 004c 0FB6      		in __tmp_reg__,__SREG__
 3247 004e F894      		cli
 3248 0050 DEBF      		out __SP_H__,r29
 3249 0052 0FBE      		out __SREG__,__tmp_reg__
GAS LISTING /var/folders/1s/lqjcb7x5323625d47g9gdgmr0000gp/T//ccbjwlOH.s 			page 58


 3250 0054 CDBF      		out __SP_L__,r28
 3251 0056 CF91      		pop r28
 3252 0058 DF91      		pop r29
 3253 005a 1F91      		pop r17
 3254 005c 0F91      		pop r16
 3255               	.LVL382:
 3256 005e FF90      		pop r15
 3257 0060 EF90      		pop r14
 3258 0062 0895      		ret
 3259               	.LFE62:
 3260               		.size	_ZN6StringC1Elh, .-_ZN6StringC1Elh
 3261               		.section	.text._ZN6StringC2Elh,"ax",@progbits
 3262               	.global	_ZN6StringC2Elh
 3263               		.type	_ZN6StringC2Elh, @function
 3264               	_ZN6StringC2Elh:
 3265               	.LFB61:
 3266               	.LSM302:
 3267               	.LVL383:
 3268 0000 EF92      		push r14
 3269 0002 FF92      		push r15
 3270 0004 0F93      		push r16
 3271 0006 1F93      		push r17
 3272 0008 DF93      		push r29
 3273 000a CF93      		push r28
 3274 000c CDB7      		in r28,__SP_L__
 3275 000e DEB7      		in r29,__SP_H__
 3276 0010 A297      		sbiw r28,34
 3277 0012 0FB6      		in __tmp_reg__,__SREG__
 3278 0014 F894      		cli
 3279 0016 DEBF      		out __SP_H__,r29
 3280 0018 0FBE      		out __SREG__,__tmp_reg__
 3281 001a CDBF      		out __SP_L__,r28
 3282               	/* prologue: function */
 3283               	/* frame size = 34 */
 3284 001c 8C01      		movw r16,r24
 3285               	.LBB174:
 3286               	.LBB175:
 3287               	.LBB176:
 3288               	.LBB177:
 3289               	.LSM303:
 3290 001e FC01      		movw r30,r24
 3291 0020 1182      		std Z+1,__zero_reg__
 3292 0022 1082      		st Z,__zero_reg__
 3293               	.LSM304:
 3294 0024 1382      		std Z+3,__zero_reg__
 3295 0026 1282      		std Z+2,__zero_reg__
 3296               	.LSM305:
 3297 0028 1582      		std Z+5,__zero_reg__
 3298 002a 1482      		std Z+4,__zero_reg__
 3299               	.LSM306:
 3300 002c 1682      		std Z+6,__zero_reg__
 3301               	.LBE177:
 3302               	.LBE176:
 3303               	.LSM307:
 3304 002e CB01      		movw r24,r22
 3305 0030 BA01      		movw r22,r20
 3306 0032 7E01      		movw r14,r28
GAS LISTING /var/folders/1s/lqjcb7x5323625d47g9gdgmr0000gp/T//ccbjwlOH.s 			page 59


 3307 0034 0894      		sec
 3308 0036 E11C      		adc r14,__zero_reg__
 3309 0038 F11C      		adc r15,__zero_reg__
 3310 003a A701      		movw r20,r14
 3311               	.LVL384:
 3312 003c 30E0      		ldi r19,lo8(0)
 3313 003e 0E94 0000 		call ltoa
 3314               	.LVL385:
 3315               	.LSM308:
 3316 0042 C801      		movw r24,r16
 3317 0044 B701      		movw r22,r14
 3318 0046 0E94 0000 		call _ZN6StringaSEPKc
 3319               	/* epilogue start */
 3320               	.LBE175:
 3321               	.LBE174:
 3322               	.LSM309:
 3323 004a A296      		adiw r28,34
 3324 004c 0FB6      		in __tmp_reg__,__SREG__
 3325 004e F894      		cli
 3326 0050 DEBF      		out __SP_H__,r29
 3327 0052 0FBE      		out __SREG__,__tmp_reg__
 3328 0054 CDBF      		out __SP_L__,r28
 3329 0056 CF91      		pop r28
 3330 0058 DF91      		pop r29
 3331 005a 1F91      		pop r17
 3332 005c 0F91      		pop r16
 3333               	.LVL386:
 3334 005e FF90      		pop r15
 3335 0060 EF90      		pop r14
 3336 0062 0895      		ret
 3337               	.LFE61:
 3338               		.size	_ZN6StringC2Elh, .-_ZN6StringC2Elh
 3339               		.section	.text._ZN6StringC1Ejh,"ax",@progbits
 3340               	.global	_ZN6StringC1Ejh
 3341               		.type	_ZN6StringC1Ejh, @function
 3342               	_ZN6StringC1Ejh:
 3343               	.LFB59:
 3344               	.LSM310:
 3345               	.LVL387:
 3346 0000 EF92      		push r14
 3347 0002 FF92      		push r15
 3348 0004 0F93      		push r16
 3349 0006 1F93      		push r17
 3350 0008 DF93      		push r29
 3351 000a CF93      		push r28
 3352 000c CDB7      		in r28,__SP_L__
 3353 000e DEB7      		in r29,__SP_H__
 3354 0010 6197      		sbiw r28,17
 3355 0012 0FB6      		in __tmp_reg__,__SREG__
 3356 0014 F894      		cli
 3357 0016 DEBF      		out __SP_H__,r29
 3358 0018 0FBE      		out __SREG__,__tmp_reg__
 3359 001a CDBF      		out __SP_L__,r28
 3360               	/* prologue: function */
 3361               	/* frame size = 17 */
 3362 001c 8C01      		movw r16,r24
 3363 001e CB01      		movw r24,r22
GAS LISTING /var/folders/1s/lqjcb7x5323625d47g9gdgmr0000gp/T//ccbjwlOH.s 			page 60


 3364               	.LVL388:
 3365               	.LBB182:
 3366               	.LBB183:
 3367               	.LBB184:
 3368               	.LBB185:
 3369               	.LSM311:
 3370 0020 F801      		movw r30,r16
 3371 0022 1182      		std Z+1,__zero_reg__
 3372 0024 1082      		st Z,__zero_reg__
 3373               	.LSM312:
 3374 0026 1382      		std Z+3,__zero_reg__
 3375 0028 1282      		std Z+2,__zero_reg__
 3376               	.LSM313:
 3377 002a 1582      		std Z+5,__zero_reg__
 3378 002c 1482      		std Z+4,__zero_reg__
 3379               	.LSM314:
 3380 002e 1682      		std Z+6,__zero_reg__
 3381               	.LBE185:
 3382               	.LBE184:
 3383               	.LSM315:
 3384 0030 7E01      		movw r14,r28
 3385 0032 0894      		sec
 3386 0034 E11C      		adc r14,__zero_reg__
 3387 0036 F11C      		adc r15,__zero_reg__
 3388 0038 B701      		movw r22,r14
 3389               	.LVL389:
 3390 003a 50E0      		ldi r21,lo8(0)
 3391 003c 0E94 0000 		call utoa
 3392               	.LVL390:
 3393               	.LSM316:
 3394 0040 C801      		movw r24,r16
 3395 0042 B701      		movw r22,r14
 3396 0044 0E94 0000 		call _ZN6StringaSEPKc
 3397               	/* epilogue start */
 3398               	.LBE183:
 3399               	.LBE182:
 3400               	.LSM317:
 3401 0048 6196      		adiw r28,17
 3402 004a 0FB6      		in __tmp_reg__,__SREG__
 3403 004c F894      		cli
 3404 004e DEBF      		out __SP_H__,r29
 3405 0050 0FBE      		out __SREG__,__tmp_reg__
 3406 0052 CDBF      		out __SP_L__,r28
 3407 0054 CF91      		pop r28
 3408 0056 DF91      		pop r29
 3409 0058 1F91      		pop r17
 3410 005a 0F91      		pop r16
 3411               	.LVL391:
 3412 005c FF90      		pop r15
 3413 005e EF90      		pop r14
 3414 0060 0895      		ret
 3415               	.LFE59:
 3416               		.size	_ZN6StringC1Ejh, .-_ZN6StringC1Ejh
 3417               		.section	.text._ZN6StringC2Ejh,"ax",@progbits
 3418               	.global	_ZN6StringC2Ejh
 3419               		.type	_ZN6StringC2Ejh, @function
 3420               	_ZN6StringC2Ejh:
GAS LISTING /var/folders/1s/lqjcb7x5323625d47g9gdgmr0000gp/T//ccbjwlOH.s 			page 61


 3421               	.LFB58:
 3422               	.LSM318:
 3423               	.LVL392:
 3424 0000 EF92      		push r14
 3425 0002 FF92      		push r15
 3426 0004 0F93      		push r16
 3427 0006 1F93      		push r17
 3428 0008 DF93      		push r29
 3429 000a CF93      		push r28
 3430 000c CDB7      		in r28,__SP_L__
 3431 000e DEB7      		in r29,__SP_H__
 3432 0010 6197      		sbiw r28,17
 3433 0012 0FB6      		in __tmp_reg__,__SREG__
 3434 0014 F894      		cli
 3435 0016 DEBF      		out __SP_H__,r29
 3436 0018 0FBE      		out __SREG__,__tmp_reg__
 3437 001a CDBF      		out __SP_L__,r28
 3438               	/* prologue: function */
 3439               	/* frame size = 17 */
 3440 001c 8C01      		movw r16,r24
 3441 001e CB01      		movw r24,r22
 3442               	.LVL393:
 3443               	.LBB190:
 3444               	.LBB191:
 3445               	.LBB192:
 3446               	.LBB193:
 3447               	.LSM319:
 3448 0020 F801      		movw r30,r16
 3449 0022 1182      		std Z+1,__zero_reg__
 3450 0024 1082      		st Z,__zero_reg__
 3451               	.LSM320:
 3452 0026 1382      		std Z+3,__zero_reg__
 3453 0028 1282      		std Z+2,__zero_reg__
 3454               	.LSM321:
 3455 002a 1582      		std Z+5,__zero_reg__
 3456 002c 1482      		std Z+4,__zero_reg__
 3457               	.LSM322:
 3458 002e 1682      		std Z+6,__zero_reg__
 3459               	.LBE193:
 3460               	.LBE192:
 3461               	.LSM323:
 3462 0030 7E01      		movw r14,r28
 3463 0032 0894      		sec
 3464 0034 E11C      		adc r14,__zero_reg__
 3465 0036 F11C      		adc r15,__zero_reg__
 3466 0038 B701      		movw r22,r14
 3467               	.LVL394:
 3468 003a 50E0      		ldi r21,lo8(0)
 3469 003c 0E94 0000 		call utoa
 3470               	.LVL395:
 3471               	.LSM324:
 3472 0040 C801      		movw r24,r16
 3473 0042 B701      		movw r22,r14
 3474 0044 0E94 0000 		call _ZN6StringaSEPKc
 3475               	/* epilogue start */
 3476               	.LBE191:
 3477               	.LBE190:
GAS LISTING /var/folders/1s/lqjcb7x5323625d47g9gdgmr0000gp/T//ccbjwlOH.s 			page 62


 3478               	.LSM325:
 3479 0048 6196      		adiw r28,17
 3480 004a 0FB6      		in __tmp_reg__,__SREG__
 3481 004c F894      		cli
 3482 004e DEBF      		out __SP_H__,r29
 3483 0050 0FBE      		out __SREG__,__tmp_reg__
 3484 0052 CDBF      		out __SP_L__,r28
 3485 0054 CF91      		pop r28
 3486 0056 DF91      		pop r29
 3487 0058 1F91      		pop r17
 3488 005a 0F91      		pop r16
 3489               	.LVL396:
 3490 005c FF90      		pop r15
 3491 005e EF90      		pop r14
 3492 0060 0895      		ret
 3493               	.LFE58:
 3494               		.size	_ZN6StringC2Ejh, .-_ZN6StringC2Ejh
 3495               		.section	.text._ZN6StringC1Eih,"ax",@progbits
 3496               	.global	_ZN6StringC1Eih
 3497               		.type	_ZN6StringC1Eih, @function
 3498               	_ZN6StringC1Eih:
 3499               	.LFB56:
 3500               	.LSM326:
 3501               	.LVL397:
 3502 0000 EF92      		push r14
 3503 0002 FF92      		push r15
 3504 0004 0F93      		push r16
 3505 0006 1F93      		push r17
 3506 0008 DF93      		push r29
 3507 000a CF93      		push r28
 3508 000c CDB7      		in r28,__SP_L__
 3509 000e DEB7      		in r29,__SP_H__
 3510 0010 6297      		sbiw r28,18
 3511 0012 0FB6      		in __tmp_reg__,__SREG__
 3512 0014 F894      		cli
 3513 0016 DEBF      		out __SP_H__,r29
 3514 0018 0FBE      		out __SREG__,__tmp_reg__
 3515 001a CDBF      		out __SP_L__,r28
 3516               	/* prologue: function */
 3517               	/* frame size = 18 */
 3518 001c 8C01      		movw r16,r24
 3519 001e CB01      		movw r24,r22
 3520               	.LVL398:
 3521               	.LBB198:
 3522               	.LBB199:
 3523               	.LBB200:
 3524               	.LBB201:
 3525               	.LSM327:
 3526 0020 F801      		movw r30,r16
 3527 0022 1182      		std Z+1,__zero_reg__
 3528 0024 1082      		st Z,__zero_reg__
 3529               	.LSM328:
 3530 0026 1382      		std Z+3,__zero_reg__
 3531 0028 1282      		std Z+2,__zero_reg__
 3532               	.LSM329:
 3533 002a 1582      		std Z+5,__zero_reg__
 3534 002c 1482      		std Z+4,__zero_reg__
GAS LISTING /var/folders/1s/lqjcb7x5323625d47g9gdgmr0000gp/T//ccbjwlOH.s 			page 63


 3535               	.LSM330:
 3536 002e 1682      		std Z+6,__zero_reg__
 3537               	.LBE201:
 3538               	.LBE200:
 3539               	.LSM331:
 3540 0030 7E01      		movw r14,r28
 3541 0032 0894      		sec
 3542 0034 E11C      		adc r14,__zero_reg__
 3543 0036 F11C      		adc r15,__zero_reg__
 3544 0038 B701      		movw r22,r14
 3545               	.LVL399:
 3546 003a 50E0      		ldi r21,lo8(0)
 3547 003c 0E94 0000 		call itoa
 3548               	.LVL400:
 3549               	.LSM332:
 3550 0040 C801      		movw r24,r16
 3551 0042 B701      		movw r22,r14
 3552 0044 0E94 0000 		call _ZN6StringaSEPKc
 3553               	/* epilogue start */
 3554               	.LBE199:
 3555               	.LBE198:
 3556               	.LSM333:
 3557 0048 6296      		adiw r28,18
 3558 004a 0FB6      		in __tmp_reg__,__SREG__
 3559 004c F894      		cli
 3560 004e DEBF      		out __SP_H__,r29
 3561 0050 0FBE      		out __SREG__,__tmp_reg__
 3562 0052 CDBF      		out __SP_L__,r28
 3563 0054 CF91      		pop r28
 3564 0056 DF91      		pop r29
 3565 0058 1F91      		pop r17
 3566 005a 0F91      		pop r16
 3567               	.LVL401:
 3568 005c FF90      		pop r15
 3569 005e EF90      		pop r14
 3570 0060 0895      		ret
 3571               	.LFE56:
 3572               		.size	_ZN6StringC1Eih, .-_ZN6StringC1Eih
 3573               		.section	.text._ZN6StringC2Eih,"ax",@progbits
 3574               	.global	_ZN6StringC2Eih
 3575               		.type	_ZN6StringC2Eih, @function
 3576               	_ZN6StringC2Eih:
 3577               	.LFB55:
 3578               	.LSM334:
 3579               	.LVL402:
 3580 0000 EF92      		push r14
 3581 0002 FF92      		push r15
 3582 0004 0F93      		push r16
 3583 0006 1F93      		push r17
 3584 0008 DF93      		push r29
 3585 000a CF93      		push r28
 3586 000c CDB7      		in r28,__SP_L__
 3587 000e DEB7      		in r29,__SP_H__
 3588 0010 6297      		sbiw r28,18
 3589 0012 0FB6      		in __tmp_reg__,__SREG__
 3590 0014 F894      		cli
 3591 0016 DEBF      		out __SP_H__,r29
GAS LISTING /var/folders/1s/lqjcb7x5323625d47g9gdgmr0000gp/T//ccbjwlOH.s 			page 64


 3592 0018 0FBE      		out __SREG__,__tmp_reg__
 3593 001a CDBF      		out __SP_L__,r28
 3594               	/* prologue: function */
 3595               	/* frame size = 18 */
 3596 001c 8C01      		movw r16,r24
 3597 001e CB01      		movw r24,r22
 3598               	.LVL403:
 3599               	.LBB206:
 3600               	.LBB207:
 3601               	.LBB208:
 3602               	.LBB209:
 3603               	.LSM335:
 3604 0020 F801      		movw r30,r16
 3605 0022 1182      		std Z+1,__zero_reg__
 3606 0024 1082      		st Z,__zero_reg__
 3607               	.LSM336:
 3608 0026 1382      		std Z+3,__zero_reg__
 3609 0028 1282      		std Z+2,__zero_reg__
 3610               	.LSM337:
 3611 002a 1582      		std Z+5,__zero_reg__
 3612 002c 1482      		std Z+4,__zero_reg__
 3613               	.LSM338:
 3614 002e 1682      		std Z+6,__zero_reg__
 3615               	.LBE209:
 3616               	.LBE208:
 3617               	.LSM339:
 3618 0030 7E01      		movw r14,r28
 3619 0032 0894      		sec
 3620 0034 E11C      		adc r14,__zero_reg__
 3621 0036 F11C      		adc r15,__zero_reg__
 3622 0038 B701      		movw r22,r14
 3623               	.LVL404:
 3624 003a 50E0      		ldi r21,lo8(0)
 3625 003c 0E94 0000 		call itoa
 3626               	.LVL405:
 3627               	.LSM340:
 3628 0040 C801      		movw r24,r16
 3629 0042 B701      		movw r22,r14
 3630 0044 0E94 0000 		call _ZN6StringaSEPKc
 3631               	/* epilogue start */
 3632               	.LBE207:
 3633               	.LBE206:
 3634               	.LSM341:
 3635 0048 6296      		adiw r28,18
 3636 004a 0FB6      		in __tmp_reg__,__SREG__
 3637 004c F894      		cli
 3638 004e DEBF      		out __SP_H__,r29
 3639 0050 0FBE      		out __SREG__,__tmp_reg__
 3640 0052 CDBF      		out __SP_L__,r28
 3641 0054 CF91      		pop r28
 3642 0056 DF91      		pop r29
 3643 0058 1F91      		pop r17
 3644 005a 0F91      		pop r16
 3645               	.LVL406:
 3646 005c FF90      		pop r15
 3647 005e EF90      		pop r14
 3648 0060 0895      		ret
GAS LISTING /var/folders/1s/lqjcb7x5323625d47g9gdgmr0000gp/T//ccbjwlOH.s 			page 65


 3649               	.LFE55:
 3650               		.size	_ZN6StringC2Eih, .-_ZN6StringC2Eih
 3651               		.section	.text._ZN6StringC1Ehh,"ax",@progbits
 3652               	.global	_ZN6StringC1Ehh
 3653               		.type	_ZN6StringC1Ehh, @function
 3654               	_ZN6StringC1Ehh:
 3655               	.LFB53:
 3656               	.LSM342:
 3657               	.LVL407:
 3658 0000 EF92      		push r14
 3659 0002 FF92      		push r15
 3660 0004 0F93      		push r16
 3661 0006 1F93      		push r17
 3662 0008 DF93      		push r29
 3663 000a CF93      		push r28
 3664 000c CDB7      		in r28,__SP_L__
 3665 000e DEB7      		in r29,__SP_H__
 3666 0010 2997      		sbiw r28,9
 3667 0012 0FB6      		in __tmp_reg__,__SREG__
 3668 0014 F894      		cli
 3669 0016 DEBF      		out __SP_H__,r29
 3670 0018 0FBE      		out __SREG__,__tmp_reg__
 3671 001a CDBF      		out __SP_L__,r28
 3672               	/* prologue: function */
 3673               	/* frame size = 9 */
 3674 001c 8C01      		movw r16,r24
 3675 001e 862F      		mov r24,r22
 3676               	.LVL408:
 3677               	.LBB214:
 3678               	.LBB215:
 3679               	.LBB216:
 3680               	.LBB217:
 3681               	.LSM343:
 3682 0020 F801      		movw r30,r16
 3683 0022 1182      		std Z+1,__zero_reg__
 3684 0024 1082      		st Z,__zero_reg__
 3685               	.LSM344:
 3686 0026 1382      		std Z+3,__zero_reg__
 3687 0028 1282      		std Z+2,__zero_reg__
 3688               	.LSM345:
 3689 002a 1582      		std Z+5,__zero_reg__
 3690 002c 1482      		std Z+4,__zero_reg__
 3691               	.LSM346:
 3692 002e 1682      		std Z+6,__zero_reg__
 3693               	.LBE217:
 3694               	.LBE216:
 3695               	.LSM347:
 3696 0030 90E0      		ldi r25,lo8(0)
 3697 0032 7E01      		movw r14,r28
 3698 0034 0894      		sec
 3699 0036 E11C      		adc r14,__zero_reg__
 3700 0038 F11C      		adc r15,__zero_reg__
 3701 003a B701      		movw r22,r14
 3702               	.LVL409:
 3703 003c 50E0      		ldi r21,lo8(0)
 3704 003e 0E94 0000 		call utoa
 3705               	.LVL410:
GAS LISTING /var/folders/1s/lqjcb7x5323625d47g9gdgmr0000gp/T//ccbjwlOH.s 			page 66


 3706               	.LSM348:
 3707 0042 C801      		movw r24,r16
 3708 0044 B701      		movw r22,r14
 3709 0046 0E94 0000 		call _ZN6StringaSEPKc
 3710               	/* epilogue start */
 3711               	.LBE215:
 3712               	.LBE214:
 3713               	.LSM349:
 3714 004a 2996      		adiw r28,9
 3715 004c 0FB6      		in __tmp_reg__,__SREG__
 3716 004e F894      		cli
 3717 0050 DEBF      		out __SP_H__,r29
 3718 0052 0FBE      		out __SREG__,__tmp_reg__
 3719 0054 CDBF      		out __SP_L__,r28
 3720 0056 CF91      		pop r28
 3721 0058 DF91      		pop r29
 3722 005a 1F91      		pop r17
 3723 005c 0F91      		pop r16
 3724               	.LVL411:
 3725 005e FF90      		pop r15
 3726 0060 EF90      		pop r14
 3727 0062 0895      		ret
 3728               	.LFE53:
 3729               		.size	_ZN6StringC1Ehh, .-_ZN6StringC1Ehh
 3730               		.section	.text._ZN6StringC2Ehh,"ax",@progbits
 3731               	.global	_ZN6StringC2Ehh
 3732               		.type	_ZN6StringC2Ehh, @function
 3733               	_ZN6StringC2Ehh:
 3734               	.LFB52:
 3735               	.LSM350:
 3736               	.LVL412:
 3737 0000 EF92      		push r14
 3738 0002 FF92      		push r15
 3739 0004 0F93      		push r16
 3740 0006 1F93      		push r17
 3741 0008 DF93      		push r29
 3742 000a CF93      		push r28
 3743 000c CDB7      		in r28,__SP_L__
 3744 000e DEB7      		in r29,__SP_H__
 3745 0010 2997      		sbiw r28,9
 3746 0012 0FB6      		in __tmp_reg__,__SREG__
 3747 0014 F894      		cli
 3748 0016 DEBF      		out __SP_H__,r29
 3749 0018 0FBE      		out __SREG__,__tmp_reg__
 3750 001a CDBF      		out __SP_L__,r28
 3751               	/* prologue: function */
 3752               	/* frame size = 9 */
 3753 001c 8C01      		movw r16,r24
 3754 001e 862F      		mov r24,r22
 3755               	.LVL413:
 3756               	.LBB222:
 3757               	.LBB223:
 3758               	.LBB224:
 3759               	.LBB225:
 3760               	.LSM351:
 3761 0020 F801      		movw r30,r16
 3762 0022 1182      		std Z+1,__zero_reg__
GAS LISTING /var/folders/1s/lqjcb7x5323625d47g9gdgmr0000gp/T//ccbjwlOH.s 			page 67


 3763 0024 1082      		st Z,__zero_reg__
 3764               	.LSM352:
 3765 0026 1382      		std Z+3,__zero_reg__
 3766 0028 1282      		std Z+2,__zero_reg__
 3767               	.LSM353:
 3768 002a 1582      		std Z+5,__zero_reg__
 3769 002c 1482      		std Z+4,__zero_reg__
 3770               	.LSM354:
 3771 002e 1682      		std Z+6,__zero_reg__
 3772               	.LBE225:
 3773               	.LBE224:
 3774               	.LSM355:
 3775 0030 90E0      		ldi r25,lo8(0)
 3776 0032 7E01      		movw r14,r28
 3777 0034 0894      		sec
 3778 0036 E11C      		adc r14,__zero_reg__
 3779 0038 F11C      		adc r15,__zero_reg__
 3780 003a B701      		movw r22,r14
 3781               	.LVL414:
 3782 003c 50E0      		ldi r21,lo8(0)
 3783 003e 0E94 0000 		call utoa
 3784               	.LVL415:
 3785               	.LSM356:
 3786 0042 C801      		movw r24,r16
 3787 0044 B701      		movw r22,r14
 3788 0046 0E94 0000 		call _ZN6StringaSEPKc
 3789               	/* epilogue start */
 3790               	.LBE223:
 3791               	.LBE222:
 3792               	.LSM357:
 3793 004a 2996      		adiw r28,9
 3794 004c 0FB6      		in __tmp_reg__,__SREG__
 3795 004e F894      		cli
 3796 0050 DEBF      		out __SP_H__,r29
 3797 0052 0FBE      		out __SREG__,__tmp_reg__
 3798 0054 CDBF      		out __SP_L__,r28
 3799 0056 CF91      		pop r28
 3800 0058 DF91      		pop r29
 3801 005a 1F91      		pop r17
 3802 005c 0F91      		pop r16
 3803               	.LVL416:
 3804 005e FF90      		pop r15
 3805 0060 EF90      		pop r14
 3806 0062 0895      		ret
 3807               	.LFE52:
 3808               		.size	_ZN6StringC2Ehh, .-_ZN6StringC2Ehh
 3809               		.section	.text._ZN6StringC1Ec,"ax",@progbits
 3810               	.global	_ZN6StringC1Ec
 3811               		.type	_ZN6StringC1Ec, @function
 3812               	_ZN6StringC1Ec:
 3813               	.LFB50:
 3814               	.LSM358:
 3815               	.LVL417:
 3816 0000 DF93      		push r29
 3817 0002 CF93      		push r28
 3818 0004 0F92      		push __tmp_reg__
 3819 0006 0F92      		push __tmp_reg__
GAS LISTING /var/folders/1s/lqjcb7x5323625d47g9gdgmr0000gp/T//ccbjwlOH.s 			page 68


 3820 0008 CDB7      		in r28,__SP_L__
 3821 000a DEB7      		in r29,__SP_H__
 3822               	/* prologue: function */
 3823               	/* frame size = 2 */
 3824 000c FC01      		movw r30,r24
 3825               	.LBB230:
 3826               	.LBB231:
 3827               	.LBB232:
 3828               	.LBB233:
 3829               	.LSM359:
 3830 000e 1182      		std Z+1,__zero_reg__
 3831 0010 1082      		st Z,__zero_reg__
 3832               	.LSM360:
 3833 0012 1382      		std Z+3,__zero_reg__
 3834 0014 1282      		std Z+2,__zero_reg__
 3835               	.LSM361:
 3836 0016 1582      		std Z+5,__zero_reg__
 3837 0018 1482      		std Z+4,__zero_reg__
 3838               	.LSM362:
 3839 001a 1682      		std Z+6,__zero_reg__
 3840               	.LBE233:
 3841               	.LBE232:
 3842               	.LSM363:
 3843 001c 6983      		std Y+1,r22
 3844               	.LSM364:
 3845 001e 1A82      		std Y+2,__zero_reg__
 3846               	.LSM365:
 3847 0020 BE01      		movw r22,r28
 3848               	.LVL418:
 3849 0022 6F5F      		subi r22,lo8(-(1))
 3850 0024 7F4F      		sbci r23,hi8(-(1))
 3851 0026 0E94 0000 		call _ZN6StringaSEPKc
 3852               	.LVL419:
 3853               	/* epilogue start */
 3854               	.LBE231:
 3855               	.LBE230:
 3856               	.LSM366:
 3857 002a 0F90      		pop __tmp_reg__
 3858 002c 0F90      		pop __tmp_reg__
 3859 002e CF91      		pop r28
 3860 0030 DF91      		pop r29
 3861 0032 0895      		ret
 3862               	.LFE50:
 3863               		.size	_ZN6StringC1Ec, .-_ZN6StringC1Ec
 3864               		.section	.text._ZN6StringC2Ec,"ax",@progbits
 3865               	.global	_ZN6StringC2Ec
 3866               		.type	_ZN6StringC2Ec, @function
 3867               	_ZN6StringC2Ec:
 3868               	.LFB49:
 3869               	.LSM367:
 3870               	.LVL420:
 3871 0000 DF93      		push r29
 3872 0002 CF93      		push r28
 3873 0004 0F92      		push __tmp_reg__
 3874 0006 0F92      		push __tmp_reg__
 3875 0008 CDB7      		in r28,__SP_L__
 3876 000a DEB7      		in r29,__SP_H__
GAS LISTING /var/folders/1s/lqjcb7x5323625d47g9gdgmr0000gp/T//ccbjwlOH.s 			page 69


 3877               	/* prologue: function */
 3878               	/* frame size = 2 */
 3879 000c FC01      		movw r30,r24
 3880               	.LBB238:
 3881               	.LBB239:
 3882               	.LBB240:
 3883               	.LBB241:
 3884               	.LSM368:
 3885 000e 1182      		std Z+1,__zero_reg__
 3886 0010 1082      		st Z,__zero_reg__
 3887               	.LSM369:
 3888 0012 1382      		std Z+3,__zero_reg__
 3889 0014 1282      		std Z+2,__zero_reg__
 3890               	.LSM370:
 3891 0016 1582      		std Z+5,__zero_reg__
 3892 0018 1482      		std Z+4,__zero_reg__
 3893               	.LSM371:
 3894 001a 1682      		std Z+6,__zero_reg__
 3895               	.LBE241:
 3896               	.LBE240:
 3897               	.LSM372:
 3898 001c 6983      		std Y+1,r22
 3899               	.LSM373:
 3900 001e 1A82      		std Y+2,__zero_reg__
 3901               	.LSM374:
 3902 0020 BE01      		movw r22,r28
 3903               	.LVL421:
 3904 0022 6F5F      		subi r22,lo8(-(1))
 3905 0024 7F4F      		sbci r23,hi8(-(1))
 3906 0026 0E94 0000 		call _ZN6StringaSEPKc
 3907               	.LVL422:
 3908               	/* epilogue start */
 3909               	.LBE239:
 3910               	.LBE238:
 3911               	.LSM375:
 3912 002a 0F90      		pop __tmp_reg__
 3913 002c 0F90      		pop __tmp_reg__
 3914 002e CF91      		pop r28
 3915 0030 DF91      		pop r29
 3916 0032 0895      		ret
 3917               	.LFE49:
 3918               		.size	_ZN6StringC2Ec, .-_ZN6StringC2Ec
 3919               		.data
 3920               	.LC0:
 3921 0000 00        		.string	""
 3922               		.section	.text._ZNK6String9substringEjj,"ax",@progbits
 3923               	.global	_ZNK6String9substringEjj
 3924               		.type	_ZNK6String9substringEjj, @function
 3925               	_ZNK6String9substringEjj:
 3926               	.LFB118:
 3927               	.LSM376:
 3928               	.LVL423:
 3929 0000 BF92      		push r11
 3930 0002 CF92      		push r12
 3931 0004 DF92      		push r13
 3932 0006 EF92      		push r14
 3933 0008 FF92      		push r15
GAS LISTING /var/folders/1s/lqjcb7x5323625d47g9gdgmr0000gp/T//ccbjwlOH.s 			page 70


 3934 000a 0F93      		push r16
 3935 000c 1F93      		push r17
 3936 000e CF93      		push r28
 3937 0010 DF93      		push r29
 3938               	/* prologue: function */
 3939               	/* frame size = 0 */
 3940 0012 082F      		mov r16,r24
 3941 0014 B92E      		mov r11,r25
 3942 0016 6B01      		movw r12,r22
 3943 0018 7A01      		movw r14,r20
 3944 001a E901      		movw r28,r18
 3945               	.LBB244:
 3946               	.LSM377:
 3947 001c 2417      		cp r18,r20
 3948 001e 3507      		cpc r19,r21
 3949 0020 00F4      		brsh .L269
 3950               	.LVL424:
 3951 0022 EA01      		movw r28,r20
 3952               	.LVL425:
 3953 0024 7901      		movw r14,r18
 3954               	.LVL426:
 3955               	.L269:
 3956               	.LSM378:
 3957 0026 802F      		mov r24,r16
 3958 0028 9B2D      		mov r25,r11
 3959 002a 60E0      		ldi r22,lo8(.LC0)
 3960 002c 70E0      		ldi r23,hi8(.LC0)
 3961 002e 0E94 0000 		call _ZN6StringC1EPKc
 3962               	.LSM379:
 3963 0032 D601      		movw r26,r12
 3964 0034 1496      		adiw r26,4
 3965 0036 8D91      		ld r24,X+
 3966 0038 9C91      		ld r25,X
 3967 003a 1597      		sbiw r26,4+1
 3968 003c 8E15      		cp r24,r14
 3969 003e 9F05      		cpc r25,r15
 3970 0040 00F0      		brlo .L268
 3971 0042 8C17      		cp r24,r28
 3972 0044 9D07      		cpc r25,r29
 3973 0046 00F4      		brsh .L271
 3974 0048 EC01      		movw r28,r24
 3975               	.LVL427:
 3976               	.L271:
 3977               	.LSM380:
 3978 004a D601      		movw r26,r12
 3979 004c ED91      		ld r30,X+
 3980 004e FC91      		ld r31,X
 3981 0050 1197      		sbiw r26,1
 3982 0052 EC0F      		add r30,r28
 3983 0054 FD1F      		adc r31,r29
 3984 0056 1081      		ld r17,Z
 3985               	.LVL428:
 3986               	.LSM381:
 3987 0058 1082      		st Z,__zero_reg__
 3988               	.LSM382:
 3989 005a 6D91      		ld r22,X+
 3990 005c 7C91      		ld r23,X
GAS LISTING /var/folders/1s/lqjcb7x5323625d47g9gdgmr0000gp/T//ccbjwlOH.s 			page 71


 3991 005e 6E0D      		add r22,r14
 3992 0060 7F1D      		adc r23,r15
 3993 0062 802F      		mov r24,r16
 3994 0064 9B2D      		mov r25,r11
 3995 0066 0E94 0000 		call _ZN6StringaSEPKc
 3996               	.LSM383:
 3997 006a D601      		movw r26,r12
 3998 006c ED91      		ld r30,X+
 3999 006e FC91      		ld r31,X
 4000 0070 EC0F      		add r30,r28
 4001 0072 FD1F      		adc r31,r29
 4002 0074 1083      		st Z,r17
 4003               	.L268:
 4004               	.LBE244:
 4005               	.LSM384:
 4006 0076 802F      		mov r24,r16
 4007 0078 9B2D      		mov r25,r11
 4008               	/* epilogue start */
 4009 007a DF91      		pop r29
 4010 007c CF91      		pop r28
 4011               	.LVL429:
 4012 007e 1F91      		pop r17
 4013               	.LVL430:
 4014 0080 0F91      		pop r16
 4015 0082 FF90      		pop r15
 4016 0084 EF90      		pop r14
 4017               	.LVL431:
 4018 0086 DF90      		pop r13
 4019 0088 CF90      		pop r12
 4020               	.LVL432:
 4021 008a BF90      		pop r11
 4022 008c 0895      		ret
 4023               	.LFE118:
 4024               		.size	_ZNK6String9substringEjj, .-_ZNK6String9substringEjj
 4025               		.section	.text._ZNK6String9substringEj,"ax",@progbits
 4026               	.global	_ZNK6String9substringEj
 4027               		.type	_ZNK6String9substringEj, @function
 4028               	_ZNK6String9substringEj:
 4029               	.LFB117:
 4030               	.LSM385:
 4031               	.LVL433:
 4032 0000 0F93      		push r16
 4033 0002 1F93      		push r17
 4034               	/* prologue: function */
 4035               	/* frame size = 0 */
 4036 0004 8C01      		movw r16,r24
 4037 0006 FB01      		movw r30,r22
 4038               	.LSM386:
 4039 0008 2481      		ldd r18,Z+4
 4040 000a 3581      		ldd r19,Z+5
 4041 000c 0E94 0000 		call _ZNK6String9substringEjj
 4042               	.LVL434:
 4043               	.LSM387:
 4044 0010 C801      		movw r24,r16
 4045               	/* epilogue start */
 4046 0012 1F91      		pop r17
 4047 0014 0F91      		pop r16
GAS LISTING /var/folders/1s/lqjcb7x5323625d47g9gdgmr0000gp/T//ccbjwlOH.s 			page 72


 4048 0016 0895      		ret
 4049               	.LFE117:
 4050               		.size	_ZNK6String9substringEj, .-_ZNK6String9substringEj
 4051               		.section	.text._ZN6StringaSERKS_,"ax",@progbits
 4052               	.global	_ZN6StringaSERKS_
 4053               		.type	_ZN6StringaSERKS_, @function
 4054               	_ZN6StringaSERKS_:
 4055               	.LFB74:
 4056               	.LSM388:
 4057               	.LVL435:
 4058 0000 CF93      		push r28
 4059 0002 DF93      		push r29
 4060               	/* prologue: function */
 4061               	/* frame size = 0 */
 4062 0004 EC01      		movw r28,r24
 4063 0006 FB01      		movw r30,r22
 4064               	.LSM389:
 4065 0008 8617      		cp r24,r22
 4066 000a 9707      		cpc r25,r23
 4067 000c 01F0      		breq .L276
 4068               	.LSM390:
 4069 000e 6081      		ld r22,Z
 4070 0010 7181      		ldd r23,Z+1
 4071               	.LVL436:
 4072 0012 6115      		cp r22,__zero_reg__
 4073 0014 7105      		cpc r23,__zero_reg__
 4074 0016 01F0      		breq .L277
 4075 0018 4481      		ldd r20,Z+4
 4076 001a 5581      		ldd r21,Z+5
 4077 001c 0E94 0000 		call _ZN6String4copyEPKcj
 4078               	.LVL437:
 4079 0020 00C0      		rjmp .L276
 4080               	.LVL438:
 4081               	.L277:
 4082               	.LSM391:
 4083 0022 0E94 0000 		call _ZN6String10invalidateEv
 4084               	.LVL439:
 4085               	.L276:
 4086               	.LSM392:
 4087 0026 CE01      		movw r24,r28
 4088               	.LVL440:
 4089               	/* epilogue start */
 4090 0028 DF91      		pop r29
 4091 002a CF91      		pop r28
 4092 002c 0895      		ret
 4093               	.LFE74:
 4094               		.size	_ZN6StringaSERKS_, .-_ZN6StringaSERKS_
 4095               		.section	.text._ZN6StringC1ERKS_,"ax",@progbits
 4096               	.global	_ZN6StringC1ERKS_
 4097               		.type	_ZN6StringC1ERKS_, @function
 4098               	_ZN6StringC1ERKS_:
 4099               	.LFB47:
 4100               	.LSM393:
 4101               	.LVL441:
 4102               	/* prologue: function */
 4103               	/* frame size = 0 */
 4104 0000 FC01      		movw r30,r24
GAS LISTING /var/folders/1s/lqjcb7x5323625d47g9gdgmr0000gp/T//ccbjwlOH.s 			page 73


 4105               	.LBB248:
 4106               	.LBB249:
 4107               	.LBB250:
 4108               	.LSM394:
 4109 0002 1182      		std Z+1,__zero_reg__
 4110 0004 1082      		st Z,__zero_reg__
 4111               	.LSM395:
 4112 0006 1382      		std Z+3,__zero_reg__
 4113 0008 1282      		std Z+2,__zero_reg__
 4114               	.LSM396:
 4115 000a 1582      		std Z+5,__zero_reg__
 4116 000c 1482      		std Z+4,__zero_reg__
 4117               	.LSM397:
 4118 000e 1682      		std Z+6,__zero_reg__
 4119               	.LBE250:
 4120               	.LBE249:
 4121               	.LSM398:
 4122 0010 0E94 0000 		call _ZN6StringaSERKS_
 4123               	.LVL442:
 4124               	/* epilogue start */
 4125               	.LBE248:
 4126               	.LSM399:
 4127 0014 0895      		ret
 4128               	.LFE47:
 4129               		.size	_ZN6StringC1ERKS_, .-_ZN6StringC1ERKS_
 4130               		.section	.text._ZN6StringC2ERKS_,"ax",@progbits
 4131               	.global	_ZN6StringC2ERKS_
 4132               		.type	_ZN6StringC2ERKS_, @function
 4133               	_ZN6StringC2ERKS_:
 4134               	.LFB46:
 4135               	.LSM400:
 4136               	.LVL443:
 4137               	/* prologue: function */
 4138               	/* frame size = 0 */
 4139 0000 FC01      		movw r30,r24
 4140               	.LBB254:
 4141               	.LBB255:
 4142               	.LBB256:
 4143               	.LSM401:
 4144 0002 1182      		std Z+1,__zero_reg__
 4145 0004 1082      		st Z,__zero_reg__
 4146               	.LSM402:
 4147 0006 1382      		std Z+3,__zero_reg__
 4148 0008 1282      		std Z+2,__zero_reg__
 4149               	.LSM403:
 4150 000a 1582      		std Z+5,__zero_reg__
 4151 000c 1482      		std Z+4,__zero_reg__
 4152               	.LSM404:
 4153 000e 1682      		std Z+6,__zero_reg__
 4154               	.LBE256:
 4155               	.LBE255:
 4156               	.LSM405:
 4157 0010 0E94 0000 		call _ZN6StringaSERKS_
 4158               	.LVL444:
 4159               	/* epilogue start */
 4160               	.LBE254:
 4161               	.LSM406:
GAS LISTING /var/folders/1s/lqjcb7x5323625d47g9gdgmr0000gp/T//ccbjwlOH.s 			page 74


 4162 0014 0895      		ret
 4163               	.LFE46:
 4164               		.size	_ZN6StringC2ERKS_, .-_ZN6StringC2ERKS_
 4165               		.section	.text._ZN6StringD1Ev,"ax",@progbits
 4166               	.global	_ZN6StringD1Ev
 4167               		.type	_ZN6StringD1Ev, @function
 4168               	_ZN6StringD1Ev:
 4169               	.LFB68:
 4170               	.LSM407:
 4171               	.LVL445:
 4172               	/* prologue: function */
 4173               	/* frame size = 0 */
 4174 0000 FC01      		movw r30,r24
 4175               	.LSM408:
 4176 0002 8081      		ld r24,Z
 4177 0004 9181      		ldd r25,Z+1
 4178               	.LVL446:
 4179 0006 0E94 0000 		call free
 4180               	.LVL447:
 4181               	/* epilogue start */
 4182               	.LSM409:
 4183 000a 0895      		ret
 4184               	.LFE68:
 4185               		.size	_ZN6StringD1Ev, .-_ZN6StringD1Ev
 4186               		.section	.text._ZN6StringD2Ev,"ax",@progbits
 4187               	.global	_ZN6StringD2Ev
 4188               		.type	_ZN6StringD2Ev, @function
 4189               	_ZN6StringD2Ev:
 4190               	.LFB67:
 4191               	.LSM410:
 4192               	.LVL448:
 4193               	/* prologue: function */
 4194               	/* frame size = 0 */
 4195 0000 FC01      		movw r30,r24
 4196               	.LSM411:
 4197 0002 8081      		ld r24,Z
 4198 0004 9181      		ldd r25,Z+1
 4199               	.LVL449:
 4200 0006 0E94 0000 		call free
 4201               	.LVL450:
 4202               	/* epilogue start */
 4203               	.LSM412:
 4204 000a 0895      		ret
 4205               	.LFE67:
 4206               		.size	_ZN6StringD2Ev, .-_ZN6StringD2Ev
 4207               		.section	.bss._ZZN6StringixEjE19dummy_writable_char,"aw",@nobits
 4208               		.type	_ZZN6StringixEjE19dummy_writable_char, @object
 4209               		.size	_ZZN6StringixEjE19dummy_writable_char, 1
 4210               	_ZZN6StringixEjE19dummy_writable_char:
 4211 0000 00        		.skip 1,0
 4212               		.section	.debug_frame,"",@progbits
 4213               	.Lframe0:
 4214 0000 0C00 0000 		.long	.LECIE0-.LSCIE0
 4215               	.LSCIE0:
 4216 0004 FFFF FFFF 		.long	0xffffffff
 4217 0008 01        		.byte	0x1
 4218 0009 00        		.string	""
GAS LISTING /var/folders/1s/lqjcb7x5323625d47g9gdgmr0000gp/T//ccbjwlOH.s 			page 75


 4219 000a 01        		.uleb128 0x1
 4220 000b 7F        		.sleb128 -1
 4221 000c 24        		.byte	0x24
 4222 000d 0C        		.byte	0xc
 4223 000e 20        		.uleb128 0x20
 4224 000f 00        		.uleb128 0x0
 4225               		.p2align	2
 4226               	.LECIE0:
 4227               	.LSFDE0:
 4228 0010 0C00 0000 		.long	.LEFDE0-.LASFDE0
 4229               	.LASFDE0:
 4230 0014 0000 0000 		.long	.Lframe0
 4231 0018 0000 0000 		.long	.LFB104
 4232 001c 2200 0000 		.long	.LFE104-.LFB104
 4233               		.p2align	2
 4234               	.LEFDE0:
 4235               	.LSFDE2:
 4236 0020 0C00 0000 		.long	.LEFDE2-.LASFDE2
 4237               	.LASFDE2:
 4238 0024 0000 0000 		.long	.Lframe0
 4239 0028 0000 0000 		.long	.LFB105
 4240 002c 1A00 0000 		.long	.LFE105-.LFB105
 4241               		.p2align	2
 4242               	.LEFDE2:
 4243               	.LSFDE4:
 4244 0030 0C00 0000 		.long	.LEFDE4-.LASFDE4
 4245               	.LASFDE4:
 4246 0034 0000 0000 		.long	.Lframe0
 4247 0038 0000 0000 		.long	.LFB106
 4248 003c 2A00 0000 		.long	.LFE106-.LFB106
 4249               		.p2align	2
 4250               	.LEFDE4:
 4251               	.LSFDE6:
 4252 0040 0C00 0000 		.long	.LEFDE6-.LASFDE6
 4253               	.LASFDE6:
 4254 0044 0000 0000 		.long	.Lframe0
 4255 0048 0000 0000 		.long	.LFB107
 4256 004c 2200 0000 		.long	.LFE107-.LFB107
 4257               		.p2align	2
 4258               	.LEFDE6:
 4259               	.LSFDE8:
 4260 0050 0C00 0000 		.long	.LEFDE8-.LASFDE8
 4261               	.LASFDE8:
 4262 0054 0000 0000 		.long	.Lframe0
 4263 0058 0000 0000 		.long	.LFB119
 4264 005c 1E00 0000 		.long	.LFE119-.LFB119
 4265               		.p2align	2
 4266               	.LEFDE8:
 4267               	.LSFDE10:
 4268 0060 0C00 0000 		.long	.LEFDE10-.LASFDE10
 4269               	.LASFDE10:
 4270 0064 0000 0000 		.long	.Lframe0
 4271 0068 0000 0000 		.long	.LFB124
 4272 006c 2200 0000 		.long	.LFE124-.LFB124
 4273               		.p2align	2
 4274               	.LEFDE10:
 4275               	.LSFDE12:
GAS LISTING /var/folders/1s/lqjcb7x5323625d47g9gdgmr0000gp/T//ccbjwlOH.s 			page 76


 4276 0070 0C00 0000 		.long	.LEFDE12-.LASFDE12
 4277               	.LASFDE12:
 4278 0074 0000 0000 		.long	.Lframe0
 4279 0078 0000 0000 		.long	.LFB123
 4280 007c B600 0000 		.long	.LFE123-.LFB123
 4281               		.p2align	2
 4282               	.LEFDE12:
 4283               	.LSFDE14:
 4284 0080 0C00 0000 		.long	.LEFDE14-.LASFDE14
 4285               	.LASFDE14:
 4286 0084 0000 0000 		.long	.Lframe0
 4287 0088 0000 0000 		.long	.LFB122
 4288 008c 2800 0000 		.long	.LFE122-.LFB122
 4289               		.p2align	2
 4290               	.LEFDE14:
 4291               	.LSFDE16:
 4292 0090 0C00 0000 		.long	.LEFDE16-.LASFDE16
 4293               	.LASFDE16:
 4294 0094 0000 0000 		.long	.Lframe0
 4295 0098 0000 0000 		.long	.LFB121
 4296 009c 2800 0000 		.long	.LFE121-.LFB121
 4297               		.p2align	2
 4298               	.LEFDE16:
 4299               	.LSFDE18:
 4300 00a0 0C00 0000 		.long	.LEFDE18-.LASFDE18
 4301               	.LASFDE18:
 4302 00a4 0000 0000 		.long	.Lframe0
 4303 00a8 0000 0000 		.long	.LFB100
 4304 00ac 7800 0000 		.long	.LFE100-.LFB100
 4305               		.p2align	2
 4306               	.LEFDE18:
 4307               	.LSFDE20:
 4308 00b0 0C00 0000 		.long	.LEFDE20-.LASFDE20
 4309               	.LASFDE20:
 4310 00b4 0000 0000 		.long	.Lframe0
 4311 00b8 0000 0000 		.long	.LFB116
 4312 00bc 9C00 0000 		.long	.LFE116-.LFB116
 4313               		.p2align	2
 4314               	.LEFDE20:
 4315               	.LSFDE22:
 4316 00c0 0C00 0000 		.long	.LEFDE22-.LASFDE22
 4317               	.LASFDE22:
 4318 00c4 0000 0000 		.long	.Lframe0
 4319 00c8 0000 0000 		.long	.LFB115
 4320 00cc 1C00 0000 		.long	.LFE115-.LFB115
 4321               		.p2align	2
 4322               	.LEFDE22:
 4323               	.LSFDE24:
 4324 00d0 0C00 0000 		.long	.LEFDE24-.LASFDE24
 4325               	.LASFDE24:
 4326 00d4 0000 0000 		.long	.Lframe0
 4327 00d8 0000 0000 		.long	.LFB112
 4328 00dc 3C00 0000 		.long	.LFE112-.LFB112
 4329               		.p2align	2
 4330               	.LEFDE24:
 4331               	.LSFDE26:
 4332 00e0 0C00 0000 		.long	.LEFDE26-.LASFDE26
GAS LISTING /var/folders/1s/lqjcb7x5323625d47g9gdgmr0000gp/T//ccbjwlOH.s 			page 77


 4333               	.LASFDE26:
 4334 00e4 0000 0000 		.long	.Lframe0
 4335 00e8 0000 0000 		.long	.LFB111
 4336 00ec 0A00 0000 		.long	.LFE111-.LFB111
 4337               		.p2align	2
 4338               	.LEFDE26:
 4339               	.LSFDE28:
 4340 00f0 0C00 0000 		.long	.LEFDE28-.LASFDE28
 4341               	.LASFDE28:
 4342 00f4 0000 0000 		.long	.Lframe0
 4343 00f8 0000 0000 		.long	.LFB114
 4344 00fc 6E00 0000 		.long	.LFE114-.LFB114
 4345               		.p2align	2
 4346               	.LEFDE28:
 4347               	.LSFDE30:
 4348 0100 0C00 0000 		.long	.LEFDE30-.LASFDE30
 4349               	.LASFDE30:
 4350 0104 0000 0000 		.long	.Lframe0
 4351 0108 0000 0000 		.long	.LFB113
 4352 010c 1000 0000 		.long	.LFE113-.LFB113
 4353               		.p2align	2
 4354               	.LEFDE30:
 4355               	.LSFDE32:
 4356 0110 0C00 0000 		.long	.LEFDE32-.LASFDE32
 4357               	.LASFDE32:
 4358 0114 0000 0000 		.long	.Lframe0
 4359 0118 0000 0000 		.long	.LFB110
 4360 011c 3C00 0000 		.long	.LFE110-.LFB110
 4361               		.p2align	2
 4362               	.LEFDE32:
 4363               	.LSFDE34:
 4364 0120 0C00 0000 		.long	.LEFDE34-.LASFDE34
 4365               	.LASFDE34:
 4366 0124 0000 0000 		.long	.Lframe0
 4367 0128 0000 0000 		.long	.LFB109
 4368 012c 0A00 0000 		.long	.LFE109-.LFB109
 4369               		.p2align	2
 4370               	.LEFDE34:
 4371               	.LSFDE36:
 4372 0130 0C00 0000 		.long	.LEFDE36-.LASFDE36
 4373               	.LASFDE36:
 4374 0134 0000 0000 		.long	.Lframe0
 4375 0138 0000 0000 		.long	.LFB108
 4376 013c 5A00 0000 		.long	.LFE108-.LFB108
 4377               		.p2align	2
 4378               	.LEFDE36:
 4379               	.LSFDE38:
 4380 0140 0C00 0000 		.long	.LEFDE38-.LASFDE38
 4381               	.LASFDE38:
 4382 0144 0000 0000 		.long	.Lframe0
 4383 0148 0000 0000 		.long	.LFB103
 4384 014c 4400 0000 		.long	.LFE103-.LFB103
 4385               		.p2align	2
 4386               	.LEFDE38:
 4387               	.LSFDE40:
 4388 0150 0C00 0000 		.long	.LEFDE40-.LASFDE40
 4389               	.LASFDE40:
GAS LISTING /var/folders/1s/lqjcb7x5323625d47g9gdgmr0000gp/T//ccbjwlOH.s 			page 78


 4390 0154 0000 0000 		.long	.Lframe0
 4391 0158 0000 0000 		.long	.LFB95
 4392 015c 4600 0000 		.long	.LFE95-.LFB95
 4393               		.p2align	2
 4394               	.LEFDE40:
 4395               	.LSFDE42:
 4396 0160 0C00 0000 		.long	.LEFDE42-.LASFDE42
 4397               	.LASFDE42:
 4398 0164 0000 0000 		.long	.Lframe0
 4399 0168 0000 0000 		.long	.LFB93
 4400 016c 6600 0000 		.long	.LFE93-.LFB93
 4401               		.p2align	2
 4402               	.LEFDE42:
 4403               	.LSFDE44:
 4404 0170 0C00 0000 		.long	.LEFDE44-.LASFDE44
 4405               	.LASFDE44:
 4406 0174 0000 0000 		.long	.Lframe0
 4407 0178 0000 0000 		.long	.LFB99
 4408 017c 1000 0000 		.long	.LFE99-.LFB99
 4409               		.p2align	2
 4410               	.LEFDE44:
 4411               	.LSFDE46:
 4412 0180 0C00 0000 		.long	.LEFDE46-.LASFDE46
 4413               	.LASFDE46:
 4414 0184 0000 0000 		.long	.Lframe0
 4415 0188 0000 0000 		.long	.LFB98
 4416 018c 1200 0000 		.long	.LFE98-.LFB98
 4417               		.p2align	2
 4418               	.LEFDE46:
 4419               	.LSFDE48:
 4420 0190 0C00 0000 		.long	.LEFDE48-.LASFDE48
 4421               	.LASFDE48:
 4422 0194 0000 0000 		.long	.Lframe0
 4423 0198 0000 0000 		.long	.LFB97
 4424 019c 1200 0000 		.long	.LFE97-.LFB97
 4425               		.p2align	2
 4426               	.LEFDE48:
 4427               	.LSFDE50:
 4428 01a0 0C00 0000 		.long	.LEFDE50-.LASFDE50
 4429               	.LASFDE50:
 4430 01a4 0000 0000 		.long	.Lframe0
 4431 01a8 0000 0000 		.long	.LFB96
 4432 01ac 0E00 0000 		.long	.LFE96-.LFB96
 4433               		.p2align	2
 4434               	.LEFDE50:
 4435               	.LSFDE52:
 4436 01b0 0C00 0000 		.long	.LEFDE52-.LASFDE52
 4437               	.LASFDE52:
 4438 01b4 0000 0000 		.long	.Lframe0
 4439 01b8 0000 0000 		.long	.LFB94
 4440 01bc 2C00 0000 		.long	.LFE94-.LFB94
 4441               		.p2align	2
 4442               	.LEFDE52:
 4443               	.LSFDE54:
 4444 01c0 0C00 0000 		.long	.LEFDE54-.LASFDE54
 4445               	.LASFDE54:
 4446 01c4 0000 0000 		.long	.Lframe0
GAS LISTING /var/folders/1s/lqjcb7x5323625d47g9gdgmr0000gp/T//ccbjwlOH.s 			page 79


 4447 01c8 0000 0000 		.long	.LFB102
 4448 01cc 4600 0000 		.long	.LFE102-.LFB102
 4449               		.p2align	2
 4450               	.LEFDE54:
 4451               	.LSFDE56:
 4452 01d0 0C00 0000 		.long	.LEFDE56-.LASFDE56
 4453               	.LASFDE56:
 4454 01d4 0000 0000 		.long	.Lframe0
 4455 01d8 0000 0000 		.long	.LFB101
 4456 01dc 2600 0000 		.long	.LFE101-.LFB101
 4457               		.p2align	2
 4458               	.LEFDE56:
 4459               	.LSFDE58:
 4460 01e0 0C00 0000 		.long	.LEFDE58-.LASFDE58
 4461               	.LASFDE58:
 4462 01e4 0000 0000 		.long	.Lframe0
 4463 01e8 0000 0000 		.long	.LFB72
 4464 01ec 3400 0000 		.long	.LFE72-.LFB72
 4465               		.p2align	2
 4466               	.LEFDE58:
 4467               	.LSFDE60:
 4468 01f0 0C00 0000 		.long	.LEFDE60-.LASFDE60
 4469               	.LASFDE60:
 4470 01f4 0000 0000 		.long	.Lframe0
 4471 01f8 0000 0000 		.long	.LFB120
 4472 01fc 0A02 0000 		.long	.LFE120-.LFB120
 4473               		.p2align	2
 4474               	.LEFDE60:
 4475               	.LSFDE62:
 4476 0200 0C00 0000 		.long	.LEFDE62-.LASFDE62
 4477               	.LASFDE62:
 4478 0204 0000 0000 		.long	.Lframe0
 4479 0208 0000 0000 		.long	.LFB71
 4480 020c 3800 0000 		.long	.LFE71-.LFB71
 4481               		.p2align	2
 4482               	.LEFDE62:
 4483               	.LSFDE64:
 4484 0210 0C00 0000 		.long	.LEFDE64-.LASFDE64
 4485               	.LASFDE64:
 4486 0214 0000 0000 		.long	.Lframe0
 4487 0218 0000 0000 		.long	.LFB77
 4488 021c 5A00 0000 		.long	.LFE77-.LFB77
 4489               		.p2align	2
 4490               	.LEFDE64:
 4491               	.LSFDE66:
 4492 0220 0C00 0000 		.long	.LEFDE66-.LASFDE66
 4493               	.LASFDE66:
 4494 0224 0000 0000 		.long	.Lframe0
 4495 0228 0000 0000 		.long	.LFB84
 4496 022c 6400 0000 		.long	.LFE84-.LFB84
 4497               		.p2align	2
 4498               	.LEFDE66:
 4499               	.LSFDE68:
 4500 0230 0C00 0000 		.long	.LEFDE68-.LASFDE68
 4501               	.LASFDE68:
 4502 0234 0000 0000 		.long	.Lframe0
 4503 0238 0000 0000 		.long	.LFB83
GAS LISTING /var/folders/1s/lqjcb7x5323625d47g9gdgmr0000gp/T//ccbjwlOH.s 			page 80


 4504 023c 6400 0000 		.long	.LFE83-.LFB83
 4505               		.p2align	2
 4506               	.LEFDE68:
 4507               	.LSFDE70:
 4508 0240 0C00 0000 		.long	.LEFDE70-.LASFDE70
 4509               	.LASFDE70:
 4510 0244 0000 0000 		.long	.Lframe0
 4511 0248 0000 0000 		.long	.LFB82
 4512 024c 5A00 0000 		.long	.LFE82-.LFB82
 4513               		.p2align	2
 4514               	.LEFDE70:
 4515               	.LSFDE72:
 4516 0250 0C00 0000 		.long	.LEFDE72-.LASFDE72
 4517               	.LASFDE72:
 4518 0254 0000 0000 		.long	.Lframe0
 4519 0258 0000 0000 		.long	.LFB81
 4520 025c 6200 0000 		.long	.LFE81-.LFB81
 4521               		.p2align	2
 4522               	.LEFDE72:
 4523               	.LSFDE74:
 4524 0260 0C00 0000 		.long	.LEFDE74-.LASFDE74
 4525               	.LASFDE74:
 4526 0264 0000 0000 		.long	.Lframe0
 4527 0268 0000 0000 		.long	.LFB80
 4528 026c 5800 0000 		.long	.LFE80-.LFB80
 4529               		.p2align	2
 4530               	.LEFDE74:
 4531               	.LSFDE76:
 4532 0270 0C00 0000 		.long	.LEFDE76-.LASFDE76
 4533               	.LASFDE76:
 4534 0274 0000 0000 		.long	.Lframe0
 4535 0278 0000 0000 		.long	.LFB79
 4536 027c 2800 0000 		.long	.LFE79-.LFB79
 4537               		.p2align	2
 4538               	.LEFDE76:
 4539               	.LSFDE78:
 4540 0280 0C00 0000 		.long	.LEFDE78-.LASFDE78
 4541               	.LASFDE78:
 4542 0284 0000 0000 		.long	.Lframe0
 4543 0288 0000 0000 		.long	.LFB78
 4544 028c 2000 0000 		.long	.LFE78-.LFB78
 4545               		.p2align	2
 4546               	.LEFDE78:
 4547               	.LSFDE80:
 4548 0290 0C00 0000 		.long	.LEFDE80-.LASFDE80
 4549               	.LASFDE80:
 4550 0294 0000 0000 		.long	.Lframe0
 4551 0298 0000 0000 		.long	.LFB76
 4552 029c 1000 0000 		.long	.LFE76-.LFB76
 4553               		.p2align	2
 4554               	.LEFDE80:
 4555               	.LSFDE82:
 4556 02a0 0C00 0000 		.long	.LEFDE82-.LASFDE82
 4557               	.LASFDE82:
 4558 02a4 0000 0000 		.long	.Lframe0
 4559 02a8 0000 0000 		.long	.LFB70
 4560 02ac 2400 0000 		.long	.LFE70-.LFB70
GAS LISTING /var/folders/1s/lqjcb7x5323625d47g9gdgmr0000gp/T//ccbjwlOH.s 			page 81


 4561               		.p2align	2
 4562               	.LEFDE82:
 4563               	.LSFDE84:
 4564 02b0 0C00 0000 		.long	.LEFDE84-.LASFDE84
 4565               	.LASFDE84:
 4566 02b4 0000 0000 		.long	.Lframe0
 4567 02b8 0000 0000 		.long	.LFB92
 4568 02bc 2200 0000 		.long	.LFE92-.LFB92
 4569               		.p2align	2
 4570               	.LEFDE84:
 4571               	.LSFDE86:
 4572 02c0 0C00 0000 		.long	.LEFDE86-.LASFDE86
 4573               	.LASFDE86:
 4574 02c4 0000 0000 		.long	.Lframe0
 4575 02c8 0000 0000 		.long	.LFB91
 4576 02cc 2200 0000 		.long	.LFE91-.LFB91
 4577               		.p2align	2
 4578               	.LEFDE86:
 4579               	.LSFDE88:
 4580 02d0 0C00 0000 		.long	.LEFDE88-.LASFDE88
 4581               	.LASFDE88:
 4582 02d4 0000 0000 		.long	.Lframe0
 4583 02d8 0000 0000 		.long	.LFB90
 4584 02dc 2200 0000 		.long	.LFE90-.LFB90
 4585               		.p2align	2
 4586               	.LEFDE88:
 4587               	.LSFDE90:
 4588 02e0 0C00 0000 		.long	.LEFDE90-.LASFDE90
 4589               	.LASFDE90:
 4590 02e4 0000 0000 		.long	.Lframe0
 4591 02e8 0000 0000 		.long	.LFB89
 4592 02ec 2200 0000 		.long	.LFE89-.LFB89
 4593               		.p2align	2
 4594               	.LEFDE90:
 4595               	.LSFDE92:
 4596 02f0 0C00 0000 		.long	.LEFDE92-.LASFDE92
 4597               	.LASFDE92:
 4598 02f4 0000 0000 		.long	.Lframe0
 4599 02f8 0000 0000 		.long	.LFB88
 4600 02fc 2200 0000 		.long	.LFE88-.LFB88
 4601               		.p2align	2
 4602               	.LEFDE92:
 4603               	.LSFDE94:
 4604 0300 0C00 0000 		.long	.LEFDE94-.LASFDE94
 4605               	.LASFDE94:
 4606 0304 0000 0000 		.long	.Lframe0
 4607 0308 0000 0000 		.long	.LFB87
 4608 030c 2200 0000 		.long	.LFE87-.LFB87
 4609               		.p2align	2
 4610               	.LEFDE94:
 4611               	.LSFDE96:
 4612 0310 0C00 0000 		.long	.LEFDE96-.LASFDE96
 4613               	.LASFDE96:
 4614 0314 0000 0000 		.long	.Lframe0
 4615 0318 0000 0000 		.long	.LFB86
 4616 031c 3800 0000 		.long	.LFE86-.LFB86
 4617               		.p2align	2
GAS LISTING /var/folders/1s/lqjcb7x5323625d47g9gdgmr0000gp/T//ccbjwlOH.s 			page 82


 4618               	.LEFDE96:
 4619               	.LSFDE98:
 4620 0320 0C00 0000 		.long	.LEFDE98-.LASFDE98
 4621               	.LASFDE98:
 4622 0324 0000 0000 		.long	.Lframe0
 4623 0328 0000 0000 		.long	.LFB85
 4624 032c 2C00 0000 		.long	.LFE85-.LFB85
 4625               		.p2align	2
 4626               	.LEFDE98:
 4627               	.LSFDE100:
 4628 0330 0C00 0000 		.long	.LEFDE100-.LASFDE100
 4629               	.LASFDE100:
 4630 0334 0000 0000 		.long	.Lframe0
 4631 0338 0000 0000 		.long	.LFB73
 4632 033c 4200 0000 		.long	.LFE73-.LFB73
 4633               		.p2align	2
 4634               	.LEFDE100:
 4635               	.LSFDE102:
 4636 0340 0C00 0000 		.long	.LEFDE102-.LASFDE102
 4637               	.LASFDE102:
 4638 0344 0000 0000 		.long	.Lframe0
 4639 0348 0000 0000 		.long	.LFB44
 4640 034c 3400 0000 		.long	.LFE44-.LFB44
 4641               		.p2align	2
 4642               	.LEFDE102:
 4643               	.LSFDE104:
 4644 0350 0C00 0000 		.long	.LEFDE104-.LASFDE104
 4645               	.LASFDE104:
 4646 0354 0000 0000 		.long	.Lframe0
 4647 0358 0000 0000 		.long	.LFB43
 4648 035c 3400 0000 		.long	.LFE43-.LFB43
 4649               		.p2align	2
 4650               	.LEFDE104:
 4651               	.LSFDE106:
 4652 0360 0C00 0000 		.long	.LEFDE106-.LASFDE106
 4653               	.LASFDE106:
 4654 0364 0000 0000 		.long	.Lframe0
 4655 0368 0000 0000 		.long	.LFB75
 4656 036c 3200 0000 		.long	.LFE75-.LFB75
 4657               		.p2align	2
 4658               	.LEFDE106:
 4659               	.LSFDE108:
 4660 0370 0C00 0000 		.long	.LEFDE108-.LASFDE108
 4661               	.LASFDE108:
 4662 0374 0000 0000 		.long	.Lframe0
 4663 0378 0000 0000 		.long	.LFB65
 4664 037c 6400 0000 		.long	.LFE65-.LFB65
 4665               		.p2align	2
 4666               	.LEFDE108:
 4667               	.LSFDE110:
 4668 0380 0C00 0000 		.long	.LEFDE110-.LASFDE110
 4669               	.LASFDE110:
 4670 0384 0000 0000 		.long	.Lframe0
 4671 0388 0000 0000 		.long	.LFB64
 4672 038c 6400 0000 		.long	.LFE64-.LFB64
 4673               		.p2align	2
 4674               	.LEFDE110:
GAS LISTING /var/folders/1s/lqjcb7x5323625d47g9gdgmr0000gp/T//ccbjwlOH.s 			page 83


 4675               	.LSFDE112:
 4676 0390 0C00 0000 		.long	.LEFDE112-.LASFDE112
 4677               	.LASFDE112:
 4678 0394 0000 0000 		.long	.Lframe0
 4679 0398 0000 0000 		.long	.LFB62
 4680 039c 6400 0000 		.long	.LFE62-.LFB62
 4681               		.p2align	2
 4682               	.LEFDE112:
 4683               	.LSFDE114:
 4684 03a0 0C00 0000 		.long	.LEFDE114-.LASFDE114
 4685               	.LASFDE114:
 4686 03a4 0000 0000 		.long	.Lframe0
 4687 03a8 0000 0000 		.long	.LFB61
 4688 03ac 6400 0000 		.long	.LFE61-.LFB61
 4689               		.p2align	2
 4690               	.LEFDE114:
 4691               	.LSFDE116:
 4692 03b0 0C00 0000 		.long	.LEFDE116-.LASFDE116
 4693               	.LASFDE116:
 4694 03b4 0000 0000 		.long	.Lframe0
 4695 03b8 0000 0000 		.long	.LFB59
 4696 03bc 6200 0000 		.long	.LFE59-.LFB59
 4697               		.p2align	2
 4698               	.LEFDE116:
 4699               	.LSFDE118:
 4700 03c0 0C00 0000 		.long	.LEFDE118-.LASFDE118
 4701               	.LASFDE118:
 4702 03c4 0000 0000 		.long	.Lframe0
 4703 03c8 0000 0000 		.long	.LFB58
 4704 03cc 6200 0000 		.long	.LFE58-.LFB58
 4705               		.p2align	2
 4706               	.LEFDE118:
 4707               	.LSFDE120:
 4708 03d0 0C00 0000 		.long	.LEFDE120-.LASFDE120
 4709               	.LASFDE120:
 4710 03d4 0000 0000 		.long	.Lframe0
 4711 03d8 0000 0000 		.long	.LFB56
 4712 03dc 6200 0000 		.long	.LFE56-.LFB56
 4713               		.p2align	2
 4714               	.LEFDE120:
 4715               	.LSFDE122:
 4716 03e0 0C00 0000 		.long	.LEFDE122-.LASFDE122
 4717               	.LASFDE122:
 4718 03e4 0000 0000 		.long	.Lframe0
 4719 03e8 0000 0000 		.long	.LFB55
 4720 03ec 6200 0000 		.long	.LFE55-.LFB55
 4721               		.p2align	2
 4722               	.LEFDE122:
 4723               	.LSFDE124:
 4724 03f0 0C00 0000 		.long	.LEFDE124-.LASFDE124
 4725               	.LASFDE124:
 4726 03f4 0000 0000 		.long	.Lframe0
 4727 03f8 0000 0000 		.long	.LFB53
 4728 03fc 6400 0000 		.long	.LFE53-.LFB53
 4729               		.p2align	2
 4730               	.LEFDE124:
 4731               	.LSFDE126:
GAS LISTING /var/folders/1s/lqjcb7x5323625d47g9gdgmr0000gp/T//ccbjwlOH.s 			page 84


 4732 0400 0C00 0000 		.long	.LEFDE126-.LASFDE126
 4733               	.LASFDE126:
 4734 0404 0000 0000 		.long	.Lframe0
 4735 0408 0000 0000 		.long	.LFB52
 4736 040c 6400 0000 		.long	.LFE52-.LFB52
 4737               		.p2align	2
 4738               	.LEFDE126:
 4739               	.LSFDE128:
 4740 0410 0C00 0000 		.long	.LEFDE128-.LASFDE128
 4741               	.LASFDE128:
 4742 0414 0000 0000 		.long	.Lframe0
 4743 0418 0000 0000 		.long	.LFB50
 4744 041c 3400 0000 		.long	.LFE50-.LFB50
 4745               		.p2align	2
 4746               	.LEFDE128:
 4747               	.LSFDE130:
 4748 0420 0C00 0000 		.long	.LEFDE130-.LASFDE130
 4749               	.LASFDE130:
 4750 0424 0000 0000 		.long	.Lframe0
 4751 0428 0000 0000 		.long	.LFB49
 4752 042c 3400 0000 		.long	.LFE49-.LFB49
 4753               		.p2align	2
 4754               	.LEFDE130:
 4755               	.LSFDE132:
 4756 0430 0C00 0000 		.long	.LEFDE132-.LASFDE132
 4757               	.LASFDE132:
 4758 0434 0000 0000 		.long	.Lframe0
 4759 0438 0000 0000 		.long	.LFB118
 4760 043c 8E00 0000 		.long	.LFE118-.LFB118
 4761               		.p2align	2
 4762               	.LEFDE132:
 4763               	.LSFDE134:
 4764 0440 0C00 0000 		.long	.LEFDE134-.LASFDE134
 4765               	.LASFDE134:
 4766 0444 0000 0000 		.long	.Lframe0
 4767 0448 0000 0000 		.long	.LFB117
 4768 044c 1800 0000 		.long	.LFE117-.LFB117
 4769               		.p2align	2
 4770               	.LEFDE134:
 4771               	.LSFDE136:
 4772 0450 0C00 0000 		.long	.LEFDE136-.LASFDE136
 4773               	.LASFDE136:
 4774 0454 0000 0000 		.long	.Lframe0
 4775 0458 0000 0000 		.long	.LFB74
 4776 045c 2E00 0000 		.long	.LFE74-.LFB74
 4777               		.p2align	2
 4778               	.LEFDE136:
 4779               	.LSFDE138:
 4780 0460 0C00 0000 		.long	.LEFDE138-.LASFDE138
 4781               	.LASFDE138:
 4782 0464 0000 0000 		.long	.Lframe0
 4783 0468 0000 0000 		.long	.LFB47
 4784 046c 1600 0000 		.long	.LFE47-.LFB47
 4785               		.p2align	2
 4786               	.LEFDE138:
 4787               	.LSFDE140:
 4788 0470 0C00 0000 		.long	.LEFDE140-.LASFDE140
GAS LISTING /var/folders/1s/lqjcb7x5323625d47g9gdgmr0000gp/T//ccbjwlOH.s 			page 85


 4789               	.LASFDE140:
 4790 0474 0000 0000 		.long	.Lframe0
 4791 0478 0000 0000 		.long	.LFB46
 4792 047c 1600 0000 		.long	.LFE46-.LFB46
 4793               		.p2align	2
 4794               	.LEFDE140:
 4795               	.LSFDE142:
 4796 0480 0C00 0000 		.long	.LEFDE142-.LASFDE142
 4797               	.LASFDE142:
 4798 0484 0000 0000 		.long	.Lframe0
 4799 0488 0000 0000 		.long	.LFB68
 4800 048c 0C00 0000 		.long	.LFE68-.LFB68
 4801               		.p2align	2
 4802               	.LEFDE142:
 4803               	.LSFDE144:
 4804 0490 0C00 0000 		.long	.LEFDE144-.LASFDE144
 4805               	.LASFDE144:
 4806 0494 0000 0000 		.long	.Lframe0
 4807 0498 0000 0000 		.long	.LFB67
 4808 049c 0C00 0000 		.long	.LFE67-.LFB67
 4809               		.p2align	2
 4810               	.LEFDE144:
 4811               		.text
 4812               	.Letext0:
 4813               		.section	.debug_loc,"",@progbits
 4814               	.Ldebug_loc0:
 4815               	.LLST1:
 4816 0000 0000 0000 		.long	.LVL0
 4817 0004 0000 0000 		.long	.LVL1
 4818 0008 0600      		.word	0x6
 4819 000a 68        		.byte	0x68
 4820 000b 93        		.byte	0x93
 4821 000c 01        		.uleb128 0x1
 4822 000d 69        		.byte	0x69
 4823 000e 93        		.byte	0x93
 4824 000f 01        		.uleb128 0x1
 4825 0010 0000 0000 		.long	.LVL1
 4826 0014 0000 0000 		.long	.LVL2
 4827 0018 0600      		.word	0x6
 4828 001a 6E        		.byte	0x6e
 4829 001b 93        		.byte	0x93
 4830 001c 01        		.uleb128 0x1
 4831 001d 6F        		.byte	0x6f
 4832 001e 93        		.byte	0x93
 4833 001f 01        		.uleb128 0x1
 4834 0020 0000 0000 		.long	.LVL3
 4835 0024 0000 0000 		.long	.LFE104
 4836 0028 0600      		.word	0x6
 4837 002a 6E        		.byte	0x6e
 4838 002b 93        		.byte	0x93
 4839 002c 01        		.uleb128 0x1
 4840 002d 6F        		.byte	0x6f
 4841 002e 93        		.byte	0x93
 4842 002f 01        		.uleb128 0x1
 4843 0030 0000 0000 		.long	0x0
 4844 0034 0000 0000 		.long	0x0
 4845               	.LLST3:
GAS LISTING /var/folders/1s/lqjcb7x5323625d47g9gdgmr0000gp/T//ccbjwlOH.s 			page 86


 4846 0038 0000 0000 		.long	.LVL4
 4847 003c 0000 0000 		.long	.LVL5
 4848 0040 0600      		.word	0x6
 4849 0042 68        		.byte	0x68
 4850 0043 93        		.byte	0x93
 4851 0044 01        		.uleb128 0x1
 4852 0045 69        		.byte	0x69
 4853 0046 93        		.byte	0x93
 4854 0047 01        		.uleb128 0x1
 4855 0048 0000 0000 		.long	.LVL5
 4856 004c 0000 0000 		.long	.LVL6
 4857 0050 0600      		.word	0x6
 4858 0052 6E        		.byte	0x6e
 4859 0053 93        		.byte	0x93
 4860 0054 01        		.uleb128 0x1
 4861 0055 6F        		.byte	0x6f
 4862 0056 93        		.byte	0x93
 4863 0057 01        		.uleb128 0x1
 4864 0058 0000 0000 		.long	.LVL7
 4865 005c 0000 0000 		.long	.LFE105
 4866 0060 0600      		.word	0x6
 4867 0062 6E        		.byte	0x6e
 4868 0063 93        		.byte	0x93
 4869 0064 01        		.uleb128 0x1
 4870 0065 6F        		.byte	0x6f
 4871 0066 93        		.byte	0x93
 4872 0067 01        		.uleb128 0x1
 4873 0068 0000 0000 		.long	0x0
 4874 006c 0000 0000 		.long	0x0
 4875               	.LLST5:
 4876 0070 0000 0000 		.long	.LVL8
 4877 0074 0000 0000 		.long	.LVL9
 4878 0078 0600      		.word	0x6
 4879 007a 68        		.byte	0x68
 4880 007b 93        		.byte	0x93
 4881 007c 01        		.uleb128 0x1
 4882 007d 69        		.byte	0x69
 4883 007e 93        		.byte	0x93
 4884 007f 01        		.uleb128 0x1
 4885 0080 0000 0000 		.long	.LVL9
 4886 0084 0000 0000 		.long	.LFE106
 4887 0088 0600      		.word	0x6
 4888 008a 6E        		.byte	0x6e
 4889 008b 93        		.byte	0x93
 4890 008c 01        		.uleb128 0x1
 4891 008d 6F        		.byte	0x6f
 4892 008e 93        		.byte	0x93
 4893 008f 01        		.uleb128 0x1
 4894 0090 0000 0000 		.long	0x0
 4895 0094 0000 0000 		.long	0x0
 4896               	.LLST6:
 4897 0098 0000 0000 		.long	.LVL8
 4898 009c 0000 0000 		.long	.LVL10
 4899 00a0 0600      		.word	0x6
 4900 00a2 66        		.byte	0x66
 4901 00a3 93        		.byte	0x93
 4902 00a4 01        		.uleb128 0x1
GAS LISTING /var/folders/1s/lqjcb7x5323625d47g9gdgmr0000gp/T//ccbjwlOH.s 			page 87


 4903 00a5 67        		.byte	0x67
 4904 00a6 93        		.byte	0x93
 4905 00a7 01        		.uleb128 0x1
 4906 00a8 0000 0000 		.long	.LVL10
 4907 00ac 0000 0000 		.long	.LFE106
 4908 00b0 0600      		.word	0x6
 4909 00b2 62        		.byte	0x62
 4910 00b3 93        		.byte	0x93
 4911 00b4 01        		.uleb128 0x1
 4912 00b5 63        		.byte	0x63
 4913 00b6 93        		.byte	0x93
 4914 00b7 01        		.uleb128 0x1
 4915 00b8 0000 0000 		.long	0x0
 4916 00bc 0000 0000 		.long	0x0
 4917               	.LLST8:
 4918 00c0 0000 0000 		.long	.LVL12
 4919 00c4 0000 0000 		.long	.LVL13
 4920 00c8 0600      		.word	0x6
 4921 00ca 68        		.byte	0x68
 4922 00cb 93        		.byte	0x93
 4923 00cc 01        		.uleb128 0x1
 4924 00cd 69        		.byte	0x69
 4925 00ce 93        		.byte	0x93
 4926 00cf 01        		.uleb128 0x1
 4927 00d0 0000 0000 		.long	.LVL13
 4928 00d4 0000 0000 		.long	.LVL14
 4929 00d8 0600      		.word	0x6
 4930 00da 6E        		.byte	0x6e
 4931 00db 93        		.byte	0x93
 4932 00dc 01        		.uleb128 0x1
 4933 00dd 6F        		.byte	0x6f
 4934 00de 93        		.byte	0x93
 4935 00df 01        		.uleb128 0x1
 4936 00e0 0000 0000 		.long	.LVL15
 4937 00e4 0000 0000 		.long	.LFE107
 4938 00e8 0600      		.word	0x6
 4939 00ea 6E        		.byte	0x6e
 4940 00eb 93        		.byte	0x93
 4941 00ec 01        		.uleb128 0x1
 4942 00ed 6F        		.byte	0x6f
 4943 00ee 93        		.byte	0x93
 4944 00ef 01        		.uleb128 0x1
 4945 00f0 0000 0000 		.long	0x0
 4946 00f4 0000 0000 		.long	0x0
 4947               	.LLST10:
 4948 00f8 0000 0000 		.long	.LVL16
 4949 00fc 0000 0000 		.long	.LVL18
 4950 0100 0600      		.word	0x6
 4951 0102 68        		.byte	0x68
 4952 0103 93        		.byte	0x93
 4953 0104 01        		.uleb128 0x1
 4954 0105 69        		.byte	0x69
 4955 0106 93        		.byte	0x93
 4956 0107 01        		.uleb128 0x1
 4957 0108 0000 0000 		.long	.LVL19
 4958 010c 0000 0000 		.long	.LVL20
 4959 0110 0600      		.word	0x6
GAS LISTING /var/folders/1s/lqjcb7x5323625d47g9gdgmr0000gp/T//ccbjwlOH.s 			page 88


 4960 0112 68        		.byte	0x68
 4961 0113 93        		.byte	0x93
 4962 0114 01        		.uleb128 0x1
 4963 0115 69        		.byte	0x69
 4964 0116 93        		.byte	0x93
 4965 0117 01        		.uleb128 0x1
 4966 0118 0000 0000 		.long	0x0
 4967 011c 0000 0000 		.long	0x0
 4968               	.LLST12:
 4969 0120 0000 0000 		.long	.LVL21
 4970 0124 0000 0000 		.long	.LVL22
 4971 0128 0600      		.word	0x6
 4972 012a 68        		.byte	0x68
 4973 012b 93        		.byte	0x93
 4974 012c 01        		.uleb128 0x1
 4975 012d 69        		.byte	0x69
 4976 012e 93        		.byte	0x93
 4977 012f 01        		.uleb128 0x1
 4978 0130 0000 0000 		.long	.LVL22
 4979 0134 0000 0000 		.long	.LVL23
 4980 0138 0600      		.word	0x6
 4981 013a 6E        		.byte	0x6e
 4982 013b 93        		.byte	0x93
 4983 013c 01        		.uleb128 0x1
 4984 013d 6F        		.byte	0x6f
 4985 013e 93        		.byte	0x93
 4986 013f 01        		.uleb128 0x1
 4987 0140 0000 0000 		.long	.LVL24
 4988 0144 0000 0000 		.long	.LFE124
 4989 0148 0600      		.word	0x6
 4990 014a 6E        		.byte	0x6e
 4991 014b 93        		.byte	0x93
 4992 014c 01        		.uleb128 0x1
 4993 014d 6F        		.byte	0x6f
 4994 014e 93        		.byte	0x93
 4995 014f 01        		.uleb128 0x1
 4996 0150 0000 0000 		.long	0x0
 4997 0154 0000 0000 		.long	0x0
 4998               	.LLST14:
 4999 0158 0000 0000 		.long	.LVL25
 5000 015c 0000 0000 		.long	.LVL27
 5001 0160 0600      		.word	0x6
 5002 0162 68        		.byte	0x68
 5003 0163 93        		.byte	0x93
 5004 0164 01        		.uleb128 0x1
 5005 0165 69        		.byte	0x69
 5006 0166 93        		.byte	0x93
 5007 0167 01        		.uleb128 0x1
 5008 0168 0000 0000 		.long	.LVL27
 5009 016c 0000 0000 		.long	.LVL37
 5010 0170 0600      		.word	0x6
 5011 0172 5C        		.byte	0x5c
 5012 0173 93        		.byte	0x93
 5013 0174 01        		.uleb128 0x1
 5014 0175 5D        		.byte	0x5d
 5015 0176 93        		.byte	0x93
 5016 0177 01        		.uleb128 0x1
GAS LISTING /var/folders/1s/lqjcb7x5323625d47g9gdgmr0000gp/T//ccbjwlOH.s 			page 89


 5017 0178 0000 0000 		.long	.LVL37
 5018 017c 0000 0000 		.long	.LFE123
 5019 0180 0600      		.word	0x6
 5020 0182 68        		.byte	0x68
 5021 0183 93        		.byte	0x93
 5022 0184 01        		.uleb128 0x1
 5023 0185 69        		.byte	0x69
 5024 0186 93        		.byte	0x93
 5025 0187 01        		.uleb128 0x1
 5026 0188 0000 0000 		.long	0x0
 5027 018c 0000 0000 		.long	0x0
 5028               	.LLST15:
 5029 0190 0000 0000 		.long	.LVL26
 5030 0194 0000 0000 		.long	.LVL27
 5031 0198 0600      		.word	0x6
 5032 019a 5E        		.byte	0x5e
 5033 019b 93        		.byte	0x93
 5034 019c 01        		.uleb128 0x1
 5035 019d 5F        		.byte	0x5f
 5036 019e 93        		.byte	0x93
 5037 019f 01        		.uleb128 0x1
 5038 01a0 0000 0000 		.long	.LVL27
 5039 01a4 0000 0000 		.long	.LVL30
 5040 01a8 0600      		.word	0x6
 5041 01aa 60        		.byte	0x60
 5042 01ab 93        		.byte	0x93
 5043 01ac 01        		.uleb128 0x1
 5044 01ad 61        		.byte	0x61
 5045 01ae 93        		.byte	0x93
 5046 01af 01        		.uleb128 0x1
 5047 01b0 0000 0000 		.long	.LVL30
 5048 01b4 0000 0000 		.long	.LVL31
 5049 01b8 0600      		.word	0x6
 5050 01ba 5E        		.byte	0x5e
 5051 01bb 93        		.byte	0x93
 5052 01bc 01        		.uleb128 0x1
 5053 01bd 5F        		.byte	0x5f
 5054 01be 93        		.byte	0x93
 5055 01bf 01        		.uleb128 0x1
 5056 01c0 0000 0000 		.long	.LVL31
 5057 01c4 0000 0000 		.long	.LVL32
 5058 01c8 0600      		.word	0x6
 5059 01ca 60        		.byte	0x60
 5060 01cb 93        		.byte	0x93
 5061 01cc 01        		.uleb128 0x1
 5062 01cd 61        		.byte	0x61
 5063 01ce 93        		.byte	0x93
 5064 01cf 01        		.uleb128 0x1
 5065 01d0 0000 0000 		.long	.LVL32
 5066 01d4 0000 0000 		.long	.LVL36
 5067 01d8 0600      		.word	0x6
 5068 01da 5E        		.byte	0x5e
 5069 01db 93        		.byte	0x93
 5070 01dc 01        		.uleb128 0x1
 5071 01dd 5F        		.byte	0x5f
 5072 01de 93        		.byte	0x93
 5073 01df 01        		.uleb128 0x1
GAS LISTING /var/folders/1s/lqjcb7x5323625d47g9gdgmr0000gp/T//ccbjwlOH.s 			page 90


 5074 01e0 0000 0000 		.long	0x0
 5075 01e4 0000 0000 		.long	0x0
 5076               	.LLST16:
 5077 01e8 0000 0000 		.long	.LVL29
 5078 01ec 0000 0000 		.long	.LVL35
 5079 01f0 0600      		.word	0x6
 5080 01f2 6C        		.byte	0x6c
 5081 01f3 93        		.byte	0x93
 5082 01f4 01        		.uleb128 0x1
 5083 01f5 6D        		.byte	0x6d
 5084 01f6 93        		.byte	0x93
 5085 01f7 01        		.uleb128 0x1
 5086 01f8 0000 0000 		.long	0x0
 5087 01fc 0000 0000 		.long	0x0
 5088               	.LLST18:
 5089 0200 0000 0000 		.long	.LVL38
 5090 0204 0000 0000 		.long	.LVL40
 5091 0208 0600      		.word	0x6
 5092 020a 68        		.byte	0x68
 5093 020b 93        		.byte	0x93
 5094 020c 01        		.uleb128 0x1
 5095 020d 69        		.byte	0x69
 5096 020e 93        		.byte	0x93
 5097 020f 01        		.uleb128 0x1
 5098 0210 0000 0000 		.long	.LVL40
 5099 0214 0000 0000 		.long	.LVL42
 5100 0218 0600      		.word	0x6
 5101 021a 6E        		.byte	0x6e
 5102 021b 93        		.byte	0x93
 5103 021c 01        		.uleb128 0x1
 5104 021d 6F        		.byte	0x6f
 5105 021e 93        		.byte	0x93
 5106 021f 01        		.uleb128 0x1
 5107 0220 0000 0000 		.long	.LVL43
 5108 0224 0000 0000 		.long	.LFE122
 5109 0228 0600      		.word	0x6
 5110 022a 6E        		.byte	0x6e
 5111 022b 93        		.byte	0x93
 5112 022c 01        		.uleb128 0x1
 5113 022d 6F        		.byte	0x6f
 5114 022e 93        		.byte	0x93
 5115 022f 01        		.uleb128 0x1
 5116 0230 0000 0000 		.long	0x0
 5117 0234 0000 0000 		.long	0x0
 5118               	.LLST19:
 5119 0238 0000 0000 		.long	.LVL39
 5120 023c 0000 0000 		.long	.LVL45
 5121 0240 0600      		.word	0x6
 5122 0242 6C        		.byte	0x6c
 5123 0243 93        		.byte	0x93
 5124 0244 01        		.uleb128 0x1
 5125 0245 6D        		.byte	0x6d
 5126 0246 93        		.byte	0x93
 5127 0247 01        		.uleb128 0x1
 5128 0248 0000 0000 		.long	0x0
 5129 024c 0000 0000 		.long	0x0
 5130               	.LLST21:
GAS LISTING /var/folders/1s/lqjcb7x5323625d47g9gdgmr0000gp/T//ccbjwlOH.s 			page 91


 5131 0250 0000 0000 		.long	.LVL46
 5132 0254 0000 0000 		.long	.LVL48
 5133 0258 0600      		.word	0x6
 5134 025a 68        		.byte	0x68
 5135 025b 93        		.byte	0x93
 5136 025c 01        		.uleb128 0x1
 5137 025d 69        		.byte	0x69
 5138 025e 93        		.byte	0x93
 5139 025f 01        		.uleb128 0x1
 5140 0260 0000 0000 		.long	.LVL48
 5141 0264 0000 0000 		.long	.LVL50
 5142 0268 0600      		.word	0x6
 5143 026a 6E        		.byte	0x6e
 5144 026b 93        		.byte	0x93
 5145 026c 01        		.uleb128 0x1
 5146 026d 6F        		.byte	0x6f
 5147 026e 93        		.byte	0x93
 5148 026f 01        		.uleb128 0x1
 5149 0270 0000 0000 		.long	.LVL51
 5150 0274 0000 0000 		.long	.LFE121
 5151 0278 0600      		.word	0x6
 5152 027a 6E        		.byte	0x6e
 5153 027b 93        		.byte	0x93
 5154 027c 01        		.uleb128 0x1
 5155 027d 6F        		.byte	0x6f
 5156 027e 93        		.byte	0x93
 5157 027f 01        		.uleb128 0x1
 5158 0280 0000 0000 		.long	0x0
 5159 0284 0000 0000 		.long	0x0
 5160               	.LLST22:
 5161 0288 0000 0000 		.long	.LVL47
 5162 028c 0000 0000 		.long	.LVL53
 5163 0290 0600      		.word	0x6
 5164 0292 6C        		.byte	0x6c
 5165 0293 93        		.byte	0x93
 5166 0294 01        		.uleb128 0x1
 5167 0295 6D        		.byte	0x6d
 5168 0296 93        		.byte	0x93
 5169 0297 01        		.uleb128 0x1
 5170 0298 0000 0000 		.long	0x0
 5171 029c 0000 0000 		.long	0x0
 5172               	.LLST24:
 5173 02a0 0000 0000 		.long	.LVL54
 5174 02a4 0000 0000 		.long	.LVL55
 5175 02a8 0600      		.word	0x6
 5176 02aa 68        		.byte	0x68
 5177 02ab 93        		.byte	0x93
 5178 02ac 01        		.uleb128 0x1
 5179 02ad 69        		.byte	0x69
 5180 02ae 93        		.byte	0x93
 5181 02af 01        		.uleb128 0x1
 5182 02b0 0000 0000 		.long	.LVL55
 5183 02b4 0000 0000 		.long	.LVL59
 5184 02b8 0600      		.word	0x6
 5185 02ba 6E        		.byte	0x6e
 5186 02bb 93        		.byte	0x93
 5187 02bc 01        		.uleb128 0x1
GAS LISTING /var/folders/1s/lqjcb7x5323625d47g9gdgmr0000gp/T//ccbjwlOH.s 			page 92


 5188 02bd 6F        		.byte	0x6f
 5189 02be 93        		.byte	0x93
 5190 02bf 01        		.uleb128 0x1
 5191 02c0 0000 0000 		.long	.LVL61
 5192 02c4 0000 0000 		.long	.LVL62
 5193 02c8 0600      		.word	0x6
 5194 02ca 6E        		.byte	0x6e
 5195 02cb 93        		.byte	0x93
 5196 02cc 01        		.uleb128 0x1
 5197 02cd 6F        		.byte	0x6f
 5198 02ce 93        		.byte	0x93
 5199 02cf 01        		.uleb128 0x1
 5200 02d0 0000 0000 		.long	.LVL63
 5201 02d4 0000 0000 		.long	.LFE100
 5202 02d8 0600      		.word	0x6
 5203 02da 6E        		.byte	0x6e
 5204 02db 93        		.byte	0x93
 5205 02dc 01        		.uleb128 0x1
 5206 02dd 6F        		.byte	0x6f
 5207 02de 93        		.byte	0x93
 5208 02df 01        		.uleb128 0x1
 5209 02e0 0000 0000 		.long	0x0
 5210 02e4 0000 0000 		.long	0x0
 5211               	.LLST25:
 5212 02e8 0000 0000 		.long	.LVL54
 5213 02ec 0000 0000 		.long	.LVL56
 5214 02f0 0600      		.word	0x6
 5215 02f2 66        		.byte	0x66
 5216 02f3 93        		.byte	0x93
 5217 02f4 01        		.uleb128 0x1
 5218 02f5 67        		.byte	0x67
 5219 02f6 93        		.byte	0x93
 5220 02f7 01        		.uleb128 0x1
 5221 02f8 0000 0000 		.long	.LVL56
 5222 02fc 0000 0000 		.long	.LVL60
 5223 0300 0600      		.word	0x6
 5224 0302 6A        		.byte	0x6a
 5225 0303 93        		.byte	0x93
 5226 0304 01        		.uleb128 0x1
 5227 0305 6B        		.byte	0x6b
 5228 0306 93        		.byte	0x93
 5229 0307 01        		.uleb128 0x1
 5230 0308 0000 0000 		.long	.LVL61
 5231 030c 0000 0000 		.long	.LVL63
 5232 0310 0600      		.word	0x6
 5233 0312 6A        		.byte	0x6a
 5234 0313 93        		.byte	0x93
 5235 0314 01        		.uleb128 0x1
 5236 0315 6B        		.byte	0x6b
 5237 0316 93        		.byte	0x93
 5238 0317 01        		.uleb128 0x1
 5239 0318 0000 0000 		.long	.LVL63
 5240 031c 0000 0000 		.long	.LVL64
 5241 0320 0600      		.word	0x6
 5242 0322 66        		.byte	0x66
 5243 0323 93        		.byte	0x93
 5244 0324 01        		.uleb128 0x1
GAS LISTING /var/folders/1s/lqjcb7x5323625d47g9gdgmr0000gp/T//ccbjwlOH.s 			page 93


 5245 0325 67        		.byte	0x67
 5246 0326 93        		.byte	0x93
 5247 0327 01        		.uleb128 0x1
 5248 0328 0000 0000 		.long	.LVL64
 5249 032c 0000 0000 		.long	.LFE100
 5250 0330 0600      		.word	0x6
 5251 0332 6A        		.byte	0x6a
 5252 0333 93        		.byte	0x93
 5253 0334 01        		.uleb128 0x1
 5254 0335 6B        		.byte	0x6b
 5255 0336 93        		.byte	0x93
 5256 0337 01        		.uleb128 0x1
 5257 0338 0000 0000 		.long	0x0
 5258 033c 0000 0000 		.long	0x0
 5259               	.LLST26:
 5260 0340 0000 0000 		.long	.LVL57
 5261 0344 0000 0000 		.long	.LVL66
 5262 0348 0600      		.word	0x6
 5263 034a 5E        		.byte	0x5e
 5264 034b 93        		.byte	0x93
 5265 034c 01        		.uleb128 0x1
 5266 034d 5F        		.byte	0x5f
 5267 034e 93        		.byte	0x93
 5268 034f 01        		.uleb128 0x1
 5269 0350 0000 0000 		.long	0x0
 5270 0354 0000 0000 		.long	0x0
 5271               	.LLST27:
 5272 0358 0000 0000 		.long	.LVL58
 5273 035c 0000 0000 		.long	.LVL65
 5274 0360 0600      		.word	0x6
 5275 0362 6C        		.byte	0x6c
 5276 0363 93        		.byte	0x93
 5277 0364 01        		.uleb128 0x1
 5278 0365 6D        		.byte	0x6d
 5279 0366 93        		.byte	0x93
 5280 0367 01        		.uleb128 0x1
 5281 0368 0000 0000 		.long	0x0
 5282 036c 0000 0000 		.long	0x0
 5283               	.LLST29:
 5284 0370 0000 0000 		.long	.LVL67
 5285 0374 0000 0000 		.long	.LVL68
 5286 0378 0600      		.word	0x6
 5287 037a 68        		.byte	0x68
 5288 037b 93        		.byte	0x93
 5289 037c 01        		.uleb128 0x1
 5290 037d 69        		.byte	0x69
 5291 037e 93        		.byte	0x93
 5292 037f 01        		.uleb128 0x1
 5293 0380 0000 0000 		.long	.LVL68
 5294 0384 0000 0000 		.long	.LVL75
 5295 0388 0600      		.word	0x6
 5296 038a 6E        		.byte	0x6e
 5297 038b 93        		.byte	0x93
 5298 038c 01        		.uleb128 0x1
 5299 038d 6F        		.byte	0x6f
 5300 038e 93        		.byte	0x93
 5301 038f 01        		.uleb128 0x1
GAS LISTING /var/folders/1s/lqjcb7x5323625d47g9gdgmr0000gp/T//ccbjwlOH.s 			page 94


 5302 0390 0000 0000 		.long	.LVL81
 5303 0394 0000 0000 		.long	.LFE116
 5304 0398 0600      		.word	0x6
 5305 039a 6E        		.byte	0x6e
 5306 039b 93        		.byte	0x93
 5307 039c 01        		.uleb128 0x1
 5308 039d 6F        		.byte	0x6f
 5309 039e 93        		.byte	0x93
 5310 039f 01        		.uleb128 0x1
 5311 03a0 0000 0000 		.long	0x0
 5312 03a4 0000 0000 		.long	0x0
 5313               	.LLST30:
 5314 03a8 0000 0000 		.long	.LVL67
 5315 03ac 0000 0000 		.long	.LVL76
 5316 03b0 0600      		.word	0x6
 5317 03b2 66        		.byte	0x66
 5318 03b3 93        		.byte	0x93
 5319 03b4 01        		.uleb128 0x1
 5320 03b5 67        		.byte	0x67
 5321 03b6 93        		.byte	0x93
 5322 03b7 01        		.uleb128 0x1
 5323 03b8 0000 0000 		.long	.LVL76
 5324 03bc 0000 0000 		.long	.LVL82
 5325 03c0 0600      		.word	0x6
 5326 03c2 5A        		.byte	0x5a
 5327 03c3 93        		.byte	0x93
 5328 03c4 01        		.uleb128 0x1
 5329 03c5 5B        		.byte	0x5b
 5330 03c6 93        		.byte	0x93
 5331 03c7 01        		.uleb128 0x1
 5332 03c8 0000 0000 		.long	.LVL82
 5333 03cc 0000 0000 		.long	.LVL84
 5334 03d0 0600      		.word	0x6
 5335 03d2 66        		.byte	0x66
 5336 03d3 93        		.byte	0x93
 5337 03d4 01        		.uleb128 0x1
 5338 03d5 67        		.byte	0x67
 5339 03d6 93        		.byte	0x93
 5340 03d7 01        		.uleb128 0x1
 5341 03d8 0000 0000 		.long	.LVL84
 5342 03dc 0000 0000 		.long	.LVL88
 5343 03e0 0600      		.word	0x6
 5344 03e2 5A        		.byte	0x5a
 5345 03e3 93        		.byte	0x93
 5346 03e4 01        		.uleb128 0x1
 5347 03e5 5B        		.byte	0x5b
 5348 03e6 93        		.byte	0x93
 5349 03e7 01        		.uleb128 0x1
 5350 03e8 0000 0000 		.long	.LVL88
 5351 03ec 0000 0000 		.long	.LFE116
 5352 03f0 0600      		.word	0x6
 5353 03f2 66        		.byte	0x66
 5354 03f3 93        		.byte	0x93
 5355 03f4 01        		.uleb128 0x1
 5356 03f5 67        		.byte	0x67
 5357 03f6 93        		.byte	0x93
 5358 03f7 01        		.uleb128 0x1
GAS LISTING /var/folders/1s/lqjcb7x5323625d47g9gdgmr0000gp/T//ccbjwlOH.s 			page 95


 5359 03f8 0000 0000 		.long	0x0
 5360 03fc 0000 0000 		.long	0x0
 5361               	.LLST31:
 5362 0400 0000 0000 		.long	.LVL67
 5363 0404 0000 0000 		.long	.LVL68
 5364 0408 0600      		.word	0x6
 5365 040a 64        		.byte	0x64
 5366 040b 93        		.byte	0x93
 5367 040c 01        		.uleb128 0x1
 5368 040d 65        		.byte	0x65
 5369 040e 93        		.byte	0x93
 5370 040f 01        		.uleb128 0x1
 5371 0410 0000 0000 		.long	.LVL68
 5372 0414 0000 0000 		.long	.LVL69
 5373 0418 0600      		.word	0x6
 5374 041a 5E        		.byte	0x5e
 5375 041b 93        		.byte	0x93
 5376 041c 01        		.uleb128 0x1
 5377 041d 5F        		.byte	0x5f
 5378 041e 93        		.byte	0x93
 5379 041f 01        		.uleb128 0x1
 5380 0420 0000 0000 		.long	.LVL69
 5381 0424 0000 0000 		.long	.LVL70
 5382 0428 0600      		.word	0x6
 5383 042a 64        		.byte	0x64
 5384 042b 93        		.byte	0x93
 5385 042c 01        		.uleb128 0x1
 5386 042d 65        		.byte	0x65
 5387 042e 93        		.byte	0x93
 5388 042f 01        		.uleb128 0x1
 5389 0430 0000 0000 		.long	.LVL70
 5390 0434 0000 0000 		.long	.LVL87
 5391 0438 0600      		.word	0x6
 5392 043a 5E        		.byte	0x5e
 5393 043b 93        		.byte	0x93
 5394 043c 01        		.uleb128 0x1
 5395 043d 5F        		.byte	0x5f
 5396 043e 93        		.byte	0x93
 5397 043f 01        		.uleb128 0x1
 5398 0440 0000 0000 		.long	.LVL87
 5399 0444 0000 0000 		.long	.LFE116
 5400 0448 0600      		.word	0x6
 5401 044a 64        		.byte	0x64
 5402 044b 93        		.byte	0x93
 5403 044c 01        		.uleb128 0x1
 5404 044d 65        		.byte	0x65
 5405 044e 93        		.byte	0x93
 5406 044f 01        		.uleb128 0x1
 5407 0450 0000 0000 		.long	0x0
 5408 0454 0000 0000 		.long	0x0
 5409               	.LLST32:
 5410 0458 0000 0000 		.long	.LVL73
 5411 045c 0000 0000 		.long	.LVL79
 5412 0460 0600      		.word	0x6
 5413 0462 6C        		.byte	0x6c
 5414 0463 93        		.byte	0x93
 5415 0464 01        		.uleb128 0x1
GAS LISTING /var/folders/1s/lqjcb7x5323625d47g9gdgmr0000gp/T//ccbjwlOH.s 			page 96


 5416 0465 6D        		.byte	0x6d
 5417 0466 93        		.byte	0x93
 5418 0467 01        		.uleb128 0x1
 5419 0468 0000 0000 		.long	.LVL79
 5420 046c 0000 0000 		.long	.LVL80
 5421 0470 0600      		.word	0x6
 5422 0472 68        		.byte	0x68
 5423 0473 93        		.byte	0x93
 5424 0474 01        		.uleb128 0x1
 5425 0475 69        		.byte	0x69
 5426 0476 93        		.byte	0x93
 5427 0477 01        		.uleb128 0x1
 5428 0478 0000 0000 		.long	.LVL80
 5429 047c 0000 0000 		.long	.LVL83
 5430 0480 0600      		.word	0x6
 5431 0482 6C        		.byte	0x6c
 5432 0483 93        		.byte	0x93
 5433 0484 01        		.uleb128 0x1
 5434 0485 6D        		.byte	0x6d
 5435 0486 93        		.byte	0x93
 5436 0487 01        		.uleb128 0x1
 5437 0488 0000 0000 		.long	.LVL84
 5438 048c 0000 0000 		.long	.LVL85
 5439 0490 0600      		.word	0x6
 5440 0492 6C        		.byte	0x6c
 5441 0493 93        		.byte	0x93
 5442 0494 01        		.uleb128 0x1
 5443 0495 6D        		.byte	0x6d
 5444 0496 93        		.byte	0x93
 5445 0497 01        		.uleb128 0x1
 5446 0498 0000 0000 		.long	0x0
 5447 049c 0000 0000 		.long	0x0
 5448               	.LLST33:
 5449 04a0 0000 0000 		.long	.LVL72
 5450 04a4 0000 0000 		.long	.LVL74
 5451 04a8 0600      		.word	0x6
 5452 04aa 60        		.byte	0x60
 5453 04ab 93        		.byte	0x93
 5454 04ac 01        		.uleb128 0x1
 5455 04ad 61        		.byte	0x61
 5456 04ae 93        		.byte	0x93
 5457 04af 01        		.uleb128 0x1
 5458 04b0 0000 0000 		.long	.LVL74
 5459 04b4 0000 0000 		.long	.LVL77
 5460 04b8 0600      		.word	0x6
 5461 04ba 68        		.byte	0x68
 5462 04bb 93        		.byte	0x93
 5463 04bc 01        		.uleb128 0x1
 5464 04bd 69        		.byte	0x69
 5465 04be 93        		.byte	0x93
 5466 04bf 01        		.uleb128 0x1
 5467 04c0 0000 0000 		.long	.LVL77
 5468 04c4 0000 0000 		.long	.LVL78
 5469 04c8 0600      		.word	0x6
 5470 04ca 60        		.byte	0x60
 5471 04cb 93        		.byte	0x93
 5472 04cc 01        		.uleb128 0x1
GAS LISTING /var/folders/1s/lqjcb7x5323625d47g9gdgmr0000gp/T//ccbjwlOH.s 			page 97


 5473 04cd 61        		.byte	0x61
 5474 04ce 93        		.byte	0x93
 5475 04cf 01        		.uleb128 0x1
 5476 04d0 0000 0000 		.long	.LVL78
 5477 04d4 0000 0000 		.long	.LVL79
 5478 04d8 0600      		.word	0x6
 5479 04da 68        		.byte	0x68
 5480 04db 93        		.byte	0x93
 5481 04dc 01        		.uleb128 0x1
 5482 04dd 69        		.byte	0x69
 5483 04de 93        		.byte	0x93
 5484 04df 01        		.uleb128 0x1
 5485 04e0 0000 0000 		.long	.LVL79
 5486 04e4 0000 0000 		.long	.LVL81
 5487 04e8 0600      		.word	0x6
 5488 04ea 60        		.byte	0x60
 5489 04eb 93        		.byte	0x93
 5490 04ec 01        		.uleb128 0x1
 5491 04ed 61        		.byte	0x61
 5492 04ee 93        		.byte	0x93
 5493 04ef 01        		.uleb128 0x1
 5494 04f0 0000 0000 		.long	.LVL81
 5495 04f4 0000 0000 		.long	.LVL83
 5496 04f8 0600      		.word	0x6
 5497 04fa 68        		.byte	0x68
 5498 04fb 93        		.byte	0x93
 5499 04fc 01        		.uleb128 0x1
 5500 04fd 69        		.byte	0x69
 5501 04fe 93        		.byte	0x93
 5502 04ff 01        		.uleb128 0x1
 5503 0500 0000 0000 		.long	.LVL84
 5504 0504 0000 0000 		.long	.LVL85
 5505 0508 0600      		.word	0x6
 5506 050a 68        		.byte	0x68
 5507 050b 93        		.byte	0x93
 5508 050c 01        		.uleb128 0x1
 5509 050d 69        		.byte	0x69
 5510 050e 93        		.byte	0x93
 5511 050f 01        		.uleb128 0x1
 5512 0510 0000 0000 		.long	.LVL85
 5513 0514 0000 0000 		.long	.LVL86
 5514 0518 0600      		.word	0x6
 5515 051a 60        		.byte	0x60
 5516 051b 93        		.byte	0x93
 5517 051c 01        		.uleb128 0x1
 5518 051d 61        		.byte	0x61
 5519 051e 93        		.byte	0x93
 5520 051f 01        		.uleb128 0x1
 5521 0520 0000 0000 		.long	0x0
 5522 0524 0000 0000 		.long	0x0
 5523               	.LLST35:
 5524 0528 0000 0000 		.long	.LVL89
 5525 052c 0000 0000 		.long	.LVL90
 5526 0530 0600      		.word	0x6
 5527 0532 68        		.byte	0x68
 5528 0533 93        		.byte	0x93
 5529 0534 01        		.uleb128 0x1
GAS LISTING /var/folders/1s/lqjcb7x5323625d47g9gdgmr0000gp/T//ccbjwlOH.s 			page 98


 5530 0535 69        		.byte	0x69
 5531 0536 93        		.byte	0x93
 5532 0537 01        		.uleb128 0x1
 5533 0538 0000 0000 		.long	.LVL90
 5534 053c 0000 0000 		.long	.LVL91
 5535 0540 0600      		.word	0x6
 5536 0542 6E        		.byte	0x6e
 5537 0543 93        		.byte	0x93
 5538 0544 01        		.uleb128 0x1
 5539 0545 6F        		.byte	0x6f
 5540 0546 93        		.byte	0x93
 5541 0547 01        		.uleb128 0x1
 5542 0548 0000 0000 		.long	0x0
 5543 054c 0000 0000 		.long	0x0
 5544               	.LLST36:
 5545 0550 0000 0000 		.long	.LVL89
 5546 0554 0000 0000 		.long	.LVL91
 5547 0558 0600      		.word	0x6
 5548 055a 66        		.byte	0x66
 5549 055b 93        		.byte	0x93
 5550 055c 01        		.uleb128 0x1
 5551 055d 67        		.byte	0x67
 5552 055e 93        		.byte	0x93
 5553 055f 01        		.uleb128 0x1
 5554 0560 0000 0000 		.long	0x0
 5555 0564 0000 0000 		.long	0x0
 5556               	.LLST38:
 5557 0568 0000 0000 		.long	.LVL92
 5558 056c 0000 0000 		.long	.LVL93
 5559 0570 0600      		.word	0x6
 5560 0572 68        		.byte	0x68
 5561 0573 93        		.byte	0x93
 5562 0574 01        		.uleb128 0x1
 5563 0575 69        		.byte	0x69
 5564 0576 93        		.byte	0x93
 5565 0577 01        		.uleb128 0x1
 5566 0578 0000 0000 		.long	.LVL93
 5567 057c 0000 0000 		.long	.LVL95
 5568 0580 0600      		.word	0x6
 5569 0582 6E        		.byte	0x6e
 5570 0583 93        		.byte	0x93
 5571 0584 01        		.uleb128 0x1
 5572 0585 6F        		.byte	0x6f
 5573 0586 93        		.byte	0x93
 5574 0587 01        		.uleb128 0x1
 5575 0588 0000 0000 		.long	.LVL97
 5576 058c 0000 0000 		.long	.LVL98
 5577 0590 0600      		.word	0x6
 5578 0592 6E        		.byte	0x6e
 5579 0593 93        		.byte	0x93
 5580 0594 01        		.uleb128 0x1
 5581 0595 6F        		.byte	0x6f
 5582 0596 93        		.byte	0x93
 5583 0597 01        		.uleb128 0x1
 5584 0598 0000 0000 		.long	.LVL99
 5585 059c 0000 0000 		.long	.LFE112
 5586 05a0 0600      		.word	0x6
GAS LISTING /var/folders/1s/lqjcb7x5323625d47g9gdgmr0000gp/T//ccbjwlOH.s 			page 99


 5587 05a2 6E        		.byte	0x6e
 5588 05a3 93        		.byte	0x93
 5589 05a4 01        		.uleb128 0x1
 5590 05a5 6F        		.byte	0x6f
 5591 05a6 93        		.byte	0x93
 5592 05a7 01        		.uleb128 0x1
 5593 05a8 0000 0000 		.long	0x0
 5594 05ac 0000 0000 		.long	0x0
 5595               	.LLST39:
 5596 05b0 0000 0000 		.long	.LVL92
 5597 05b4 0000 0000 		.long	.LVL94
 5598 05b8 0600      		.word	0x6
 5599 05ba 66        		.byte	0x66
 5600 05bb 93        		.byte	0x93
 5601 05bc 01        		.uleb128 0x1
 5602 05bd 67        		.byte	0x67
 5603 05be 93        		.byte	0x93
 5604 05bf 01        		.uleb128 0x1
 5605 05c0 0000 0000 		.long	.LVL94
 5606 05c4 0000 0000 		.long	.LVL95
 5607 05c8 0600      		.word	0x6
 5608 05ca 6A        		.byte	0x6a
 5609 05cb 93        		.byte	0x93
 5610 05cc 01        		.uleb128 0x1
 5611 05cd 6B        		.byte	0x6b
 5612 05ce 93        		.byte	0x93
 5613 05cf 01        		.uleb128 0x1
 5614 05d0 0000 0000 		.long	.LVL97
 5615 05d4 0000 0000 		.long	.LVL98
 5616 05d8 0600      		.word	0x6
 5617 05da 6A        		.byte	0x6a
 5618 05db 93        		.byte	0x93
 5619 05dc 01        		.uleb128 0x1
 5620 05dd 6B        		.byte	0x6b
 5621 05de 93        		.byte	0x93
 5622 05df 01        		.uleb128 0x1
 5623 05e0 0000 0000 		.long	.LVL99
 5624 05e4 0000 0000 		.long	.LFE112
 5625 05e8 0600      		.word	0x6
 5626 05ea 6A        		.byte	0x6a
 5627 05eb 93        		.byte	0x93
 5628 05ec 01        		.uleb128 0x1
 5629 05ed 6B        		.byte	0x6b
 5630 05ee 93        		.byte	0x93
 5631 05ef 01        		.uleb128 0x1
 5632 05f0 0000 0000 		.long	0x0
 5633 05f4 0000 0000 		.long	0x0
 5634               	.LLST40:
 5635 05f8 0000 0000 		.long	.LVL92
 5636 05fc 0000 0000 		.long	.LVL95
 5637 0600 0600      		.word	0x6
 5638 0602 64        		.byte	0x64
 5639 0603 93        		.byte	0x93
 5640 0604 01        		.uleb128 0x1
 5641 0605 65        		.byte	0x65
 5642 0606 93        		.byte	0x93
 5643 0607 01        		.uleb128 0x1
GAS LISTING /var/folders/1s/lqjcb7x5323625d47g9gdgmr0000gp/T//ccbjwlOH.s 			page 100


 5644 0608 0000 0000 		.long	.LVL97
 5645 060c 0000 0000 		.long	.LVL98
 5646 0610 0600      		.word	0x6
 5647 0612 64        		.byte	0x64
 5648 0613 93        		.byte	0x93
 5649 0614 01        		.uleb128 0x1
 5650 0615 65        		.byte	0x65
 5651 0616 93        		.byte	0x93
 5652 0617 01        		.uleb128 0x1
 5653 0618 0000 0000 		.long	.LVL99
 5654 061c 0000 0000 		.long	.LFE112
 5655 0620 0600      		.word	0x6
 5656 0622 64        		.byte	0x64
 5657 0623 93        		.byte	0x93
 5658 0624 01        		.uleb128 0x1
 5659 0625 65        		.byte	0x65
 5660 0626 93        		.byte	0x93
 5661 0627 01        		.uleb128 0x1
 5662 0628 0000 0000 		.long	0x0
 5663 062c 0000 0000 		.long	0x0
 5664               	.LLST41:
 5665 0630 0000 0000 		.long	.LVL96
 5666 0634 0000 0000 		.long	.LVL100
 5667 0638 0600      		.word	0x6
 5668 063a 68        		.byte	0x68
 5669 063b 93        		.byte	0x93
 5670 063c 01        		.uleb128 0x1
 5671 063d 69        		.byte	0x69
 5672 063e 93        		.byte	0x93
 5673 063f 01        		.uleb128 0x1
 5674 0640 0000 0000 		.long	0x0
 5675 0644 0000 0000 		.long	0x0
 5676               	.LLST43:
 5677 0648 0000 0000 		.long	.LVL101
 5678 064c 0000 0000 		.long	.LVL102
 5679 0650 0600      		.word	0x6
 5680 0652 68        		.byte	0x68
 5681 0653 93        		.byte	0x93
 5682 0654 01        		.uleb128 0x1
 5683 0655 69        		.byte	0x69
 5684 0656 93        		.byte	0x93
 5685 0657 01        		.uleb128 0x1
 5686 0658 0000 0000 		.long	0x0
 5687 065c 0000 0000 		.long	0x0
 5688               	.LLST44:
 5689 0660 0000 0000 		.long	.LVL101
 5690 0664 0000 0000 		.long	.LVL102
 5691 0668 0600      		.word	0x6
 5692 066a 66        		.byte	0x66
 5693 066b 93        		.byte	0x93
 5694 066c 01        		.uleb128 0x1
 5695 066d 67        		.byte	0x67
 5696 066e 93        		.byte	0x93
 5697 066f 01        		.uleb128 0x1
 5698 0670 0000 0000 		.long	0x0
 5699 0674 0000 0000 		.long	0x0
 5700               	.LLST46:
GAS LISTING /var/folders/1s/lqjcb7x5323625d47g9gdgmr0000gp/T//ccbjwlOH.s 			page 101


 5701 0678 0000 0000 		.long	.LVL103
 5702 067c 0000 0000 		.long	.LVL104
 5703 0680 0600      		.word	0x6
 5704 0682 68        		.byte	0x68
 5705 0683 93        		.byte	0x93
 5706 0684 01        		.uleb128 0x1
 5707 0685 69        		.byte	0x69
 5708 0686 93        		.byte	0x93
 5709 0687 01        		.uleb128 0x1
 5710 0688 0000 0000 		.long	.LVL104
 5711 068c 0000 0000 		.long	.LVL114
 5712 0690 0600      		.word	0x6
 5713 0692 6C        		.byte	0x6c
 5714 0693 93        		.byte	0x93
 5715 0694 01        		.uleb128 0x1
 5716 0695 6D        		.byte	0x6d
 5717 0696 93        		.byte	0x93
 5718 0697 01        		.uleb128 0x1
 5719 0698 0000 0000 		.long	0x0
 5720 069c 0000 0000 		.long	0x0
 5721               	.LLST47:
 5722 06a0 0000 0000 		.long	.LVL103
 5723 06a4 0000 0000 		.long	.LVL107
 5724 06a8 0100      		.word	0x1
 5725 06aa 66        		.byte	0x66
 5726 06ab 0000 0000 		.long	.LVL109
 5727 06af 0000 0000 		.long	.LVL110
 5728 06b3 0100      		.word	0x1
 5729 06b5 66        		.byte	0x66
 5730 06b6 0000 0000 		.long	.LVL113
 5731 06ba 0000 0000 		.long	.LFE114
 5732 06be 0100      		.word	0x1
 5733 06c0 66        		.byte	0x66
 5734 06c1 0000 0000 		.long	0x0
 5735 06c5 0000 0000 		.long	0x0
 5736               	.LLST48:
 5737 06c9 0000 0000 		.long	.LVL103
 5738 06cd 0000 0000 		.long	.LVL107
 5739 06d1 0600      		.word	0x6
 5740 06d3 64        		.byte	0x64
 5741 06d4 93        		.byte	0x93
 5742 06d5 01        		.uleb128 0x1
 5743 06d6 65        		.byte	0x65
 5744 06d7 93        		.byte	0x93
 5745 06d8 01        		.uleb128 0x1
 5746 06d9 0000 0000 		.long	.LVL109
 5747 06dd 0000 0000 		.long	.LVL110
 5748 06e1 0600      		.word	0x6
 5749 06e3 64        		.byte	0x64
 5750 06e4 93        		.byte	0x93
 5751 06e5 01        		.uleb128 0x1
 5752 06e6 65        		.byte	0x65
 5753 06e7 93        		.byte	0x93
 5754 06e8 01        		.uleb128 0x1
 5755 06e9 0000 0000 		.long	.LVL113
 5756 06ed 0000 0000 		.long	.LFE114
 5757 06f1 0600      		.word	0x6
GAS LISTING /var/folders/1s/lqjcb7x5323625d47g9gdgmr0000gp/T//ccbjwlOH.s 			page 102


 5758 06f3 64        		.byte	0x64
 5759 06f4 93        		.byte	0x93
 5760 06f5 01        		.uleb128 0x1
 5761 06f6 65        		.byte	0x65
 5762 06f7 93        		.byte	0x93
 5763 06f8 01        		.uleb128 0x1
 5764 06f9 0000 0000 		.long	0x0
 5765 06fd 0000 0000 		.long	0x0
 5766               	.LLST49:
 5767 0701 0000 0000 		.long	.LVL105
 5768 0705 0000 0000 		.long	.LVL115
 5769 0709 0100      		.word	0x1
 5770 070b 5D        		.byte	0x5d
 5771 070c 0000 0000 		.long	0x0
 5772 0710 0000 0000 		.long	0x0
 5773               	.LLST50:
 5774 0714 0000 0000 		.long	.LVL108
 5775 0718 0000 0000 		.long	.LVL111
 5776 071c 0600      		.word	0x6
 5777 071e 68        		.byte	0x68
 5778 071f 93        		.byte	0x93
 5779 0720 01        		.uleb128 0x1
 5780 0721 69        		.byte	0x69
 5781 0722 93        		.byte	0x93
 5782 0723 01        		.uleb128 0x1
 5783 0724 0000 0000 		.long	.LVL112
 5784 0728 0000 0000 		.long	.LFE114
 5785 072c 0600      		.word	0x6
 5786 072e 62        		.byte	0x62
 5787 072f 93        		.byte	0x93
 5788 0730 01        		.uleb128 0x1
 5789 0731 63        		.byte	0x63
 5790 0732 93        		.byte	0x93
 5791 0733 01        		.uleb128 0x1
 5792 0734 0000 0000 		.long	0x0
 5793 0738 0000 0000 		.long	0x0
 5794               	.LLST52:
 5795 073c 0000 0000 		.long	.LVL116
 5796 0740 0000 0000 		.long	.LVL117
 5797 0744 0600      		.word	0x6
 5798 0746 68        		.byte	0x68
 5799 0747 93        		.byte	0x93
 5800 0748 01        		.uleb128 0x1
 5801 0749 69        		.byte	0x69
 5802 074a 93        		.byte	0x93
 5803 074b 01        		.uleb128 0x1
 5804 074c 0000 0000 		.long	0x0
 5805 0750 0000 0000 		.long	0x0
 5806               	.LLST53:
 5807 0754 0000 0000 		.long	.LVL116
 5808 0758 0000 0000 		.long	.LVL117
 5809 075c 0100      		.word	0x1
 5810 075e 66        		.byte	0x66
 5811 075f 0000 0000 		.long	0x0
 5812 0763 0000 0000 		.long	0x0
 5813               	.LLST55:
 5814 0767 0000 0000 		.long	.LVL118
GAS LISTING /var/folders/1s/lqjcb7x5323625d47g9gdgmr0000gp/T//ccbjwlOH.s 			page 103


 5815 076b 0000 0000 		.long	.LVL119
 5816 076f 0600      		.word	0x6
 5817 0771 68        		.byte	0x68
 5818 0772 93        		.byte	0x93
 5819 0773 01        		.uleb128 0x1
 5820 0774 69        		.byte	0x69
 5821 0775 93        		.byte	0x93
 5822 0776 01        		.uleb128 0x1
 5823 0777 0000 0000 		.long	.LVL119
 5824 077b 0000 0000 		.long	.LVL121
 5825 077f 0600      		.word	0x6
 5826 0781 6E        		.byte	0x6e
 5827 0782 93        		.byte	0x93
 5828 0783 01        		.uleb128 0x1
 5829 0784 6F        		.byte	0x6f
 5830 0785 93        		.byte	0x93
 5831 0786 01        		.uleb128 0x1
 5832 0787 0000 0000 		.long	.LVL123
 5833 078b 0000 0000 		.long	.LVL124
 5834 078f 0600      		.word	0x6
 5835 0791 6E        		.byte	0x6e
 5836 0792 93        		.byte	0x93
 5837 0793 01        		.uleb128 0x1
 5838 0794 6F        		.byte	0x6f
 5839 0795 93        		.byte	0x93
 5840 0796 01        		.uleb128 0x1
 5841 0797 0000 0000 		.long	.LVL125
 5842 079b 0000 0000 		.long	.LFE110
 5843 079f 0600      		.word	0x6
 5844 07a1 6E        		.byte	0x6e
 5845 07a2 93        		.byte	0x93
 5846 07a3 01        		.uleb128 0x1
 5847 07a4 6F        		.byte	0x6f
 5848 07a5 93        		.byte	0x93
 5849 07a6 01        		.uleb128 0x1
 5850 07a7 0000 0000 		.long	0x0
 5851 07ab 0000 0000 		.long	0x0
 5852               	.LLST56:
 5853 07af 0000 0000 		.long	.LVL118
 5854 07b3 0000 0000 		.long	.LVL121
 5855 07b7 0100      		.word	0x1
 5856 07b9 66        		.byte	0x66
 5857 07ba 0000 0000 		.long	.LVL123
 5858 07be 0000 0000 		.long	.LVL124
 5859 07c2 0100      		.word	0x1
 5860 07c4 66        		.byte	0x66
 5861 07c5 0000 0000 		.long	.LVL125
 5862 07c9 0000 0000 		.long	.LFE110
 5863 07cd 0100      		.word	0x1
 5864 07cf 66        		.byte	0x66
 5865 07d0 0000 0000 		.long	0x0
 5866 07d4 0000 0000 		.long	0x0
 5867               	.LLST57:
 5868 07d8 0000 0000 		.long	.LVL118
 5869 07dc 0000 0000 		.long	.LVL121
 5870 07e0 0600      		.word	0x6
 5871 07e2 64        		.byte	0x64
GAS LISTING /var/folders/1s/lqjcb7x5323625d47g9gdgmr0000gp/T//ccbjwlOH.s 			page 104


 5872 07e3 93        		.byte	0x93
 5873 07e4 01        		.uleb128 0x1
 5874 07e5 65        		.byte	0x65
 5875 07e6 93        		.byte	0x93
 5876 07e7 01        		.uleb128 0x1
 5877 07e8 0000 0000 		.long	.LVL123
 5878 07ec 0000 0000 		.long	.LVL124
 5879 07f0 0600      		.word	0x6
 5880 07f2 64        		.byte	0x64
 5881 07f3 93        		.byte	0x93
 5882 07f4 01        		.uleb128 0x1
 5883 07f5 65        		.byte	0x65
 5884 07f6 93        		.byte	0x93
 5885 07f7 01        		.uleb128 0x1
 5886 07f8 0000 0000 		.long	.LVL125
 5887 07fc 0000 0000 		.long	.LFE110
 5888 0800 0600      		.word	0x6
 5889 0802 64        		.byte	0x64
 5890 0803 93        		.byte	0x93
 5891 0804 01        		.uleb128 0x1
 5892 0805 65        		.byte	0x65
 5893 0806 93        		.byte	0x93
 5894 0807 01        		.uleb128 0x1
 5895 0808 0000 0000 		.long	0x0
 5896 080c 0000 0000 		.long	0x0
 5897               	.LLST58:
 5898 0810 0000 0000 		.long	.LVL122
 5899 0814 0000 0000 		.long	.LVL126
 5900 0818 0600      		.word	0x6
 5901 081a 68        		.byte	0x68
 5902 081b 93        		.byte	0x93
 5903 081c 01        		.uleb128 0x1
 5904 081d 69        		.byte	0x69
 5905 081e 93        		.byte	0x93
 5906 081f 01        		.uleb128 0x1
 5907 0820 0000 0000 		.long	0x0
 5908 0824 0000 0000 		.long	0x0
 5909               	.LLST60:
 5910 0828 0000 0000 		.long	.LVL127
 5911 082c 0000 0000 		.long	.LVL128
 5912 0830 0600      		.word	0x6
 5913 0832 68        		.byte	0x68
 5914 0833 93        		.byte	0x93
 5915 0834 01        		.uleb128 0x1
 5916 0835 69        		.byte	0x69
 5917 0836 93        		.byte	0x93
 5918 0837 01        		.uleb128 0x1
 5919 0838 0000 0000 		.long	0x0
 5920 083c 0000 0000 		.long	0x0
 5921               	.LLST61:
 5922 0840 0000 0000 		.long	.LVL127
 5923 0844 0000 0000 		.long	.LVL128
 5924 0848 0100      		.word	0x1
 5925 084a 66        		.byte	0x66
 5926 084b 0000 0000 		.long	0x0
 5927 084f 0000 0000 		.long	0x0
 5928               	.LLST63:
GAS LISTING /var/folders/1s/lqjcb7x5323625d47g9gdgmr0000gp/T//ccbjwlOH.s 			page 105


 5929 0853 0000 0000 		.long	.LVL129
 5930 0857 0000 0000 		.long	.LVL130
 5931 085b 0600      		.word	0x6
 5932 085d 68        		.byte	0x68
 5933 085e 93        		.byte	0x93
 5934 085f 01        		.uleb128 0x1
 5935 0860 69        		.byte	0x69
 5936 0861 93        		.byte	0x93
 5937 0862 01        		.uleb128 0x1
 5938 0863 0000 0000 		.long	.LVL130
 5939 0867 0000 0000 		.long	.LVL132
 5940 086b 0600      		.word	0x6
 5941 086d 6E        		.byte	0x6e
 5942 086e 93        		.byte	0x93
 5943 086f 01        		.uleb128 0x1
 5944 0870 6F        		.byte	0x6f
 5945 0871 93        		.byte	0x93
 5946 0872 01        		.uleb128 0x1
 5947 0873 0000 0000 		.long	.LVL133
 5948 0877 0000 0000 		.long	.LVL139
 5949 087b 0600      		.word	0x6
 5950 087d 6E        		.byte	0x6e
 5951 087e 93        		.byte	0x93
 5952 087f 01        		.uleb128 0x1
 5953 0880 6F        		.byte	0x6f
 5954 0881 93        		.byte	0x93
 5955 0882 01        		.uleb128 0x1
 5956 0883 0000 0000 		.long	.LVL140
 5957 0887 0000 0000 		.long	.LFE108
 5958 088b 0600      		.word	0x6
 5959 088d 6E        		.byte	0x6e
 5960 088e 93        		.byte	0x93
 5961 088f 01        		.uleb128 0x1
 5962 0890 6F        		.byte	0x6f
 5963 0891 93        		.byte	0x93
 5964 0892 01        		.uleb128 0x1
 5965 0893 0000 0000 		.long	0x0
 5966 0897 0000 0000 		.long	0x0
 5967               	.LLST64:
 5968 089b 0000 0000 		.long	.LVL129
 5969 089f 0000 0000 		.long	.LVL130
 5970 08a3 0600      		.word	0x6
 5971 08a5 66        		.byte	0x66
 5972 08a6 93        		.byte	0x93
 5973 08a7 01        		.uleb128 0x1
 5974 08a8 67        		.byte	0x67
 5975 08a9 93        		.byte	0x93
 5976 08aa 01        		.uleb128 0x1
 5977 08ab 0000 0000 		.long	.LVL130
 5978 08af 0000 0000 		.long	.LVL131
 5979 08b3 0600      		.word	0x6
 5980 08b5 60        		.byte	0x60
 5981 08b6 93        		.byte	0x93
 5982 08b7 01        		.uleb128 0x1
 5983 08b8 61        		.byte	0x61
 5984 08b9 93        		.byte	0x93
 5985 08ba 01        		.uleb128 0x1
GAS LISTING /var/folders/1s/lqjcb7x5323625d47g9gdgmr0000gp/T//ccbjwlOH.s 			page 106


 5986 08bb 0000 0000 		.long	.LVL131
 5987 08bf 0000 0000 		.long	.LVL137
 5988 08c3 0600      		.word	0x6
 5989 08c5 66        		.byte	0x66
 5990 08c6 93        		.byte	0x93
 5991 08c7 01        		.uleb128 0x1
 5992 08c8 67        		.byte	0x67
 5993 08c9 93        		.byte	0x93
 5994 08ca 01        		.uleb128 0x1
 5995 08cb 0000 0000 		.long	.LVL137
 5996 08cf 0000 0000 		.long	.LVL142
 5997 08d3 0600      		.word	0x6
 5998 08d5 60        		.byte	0x60
 5999 08d6 93        		.byte	0x93
 6000 08d7 01        		.uleb128 0x1
 6001 08d8 61        		.byte	0x61
 6002 08d9 93        		.byte	0x93
 6003 08da 01        		.uleb128 0x1
 6004 08db 0000 0000 		.long	.LVL142
 6005 08df 0000 0000 		.long	.LFE108
 6006 08e3 0600      		.word	0x6
 6007 08e5 66        		.byte	0x66
 6008 08e6 93        		.byte	0x93
 6009 08e7 01        		.uleb128 0x1
 6010 08e8 67        		.byte	0x67
 6011 08e9 93        		.byte	0x93
 6012 08ea 01        		.uleb128 0x1
 6013 08eb 0000 0000 		.long	0x0
 6014 08ef 0000 0000 		.long	0x0
 6015               	.LLST65:
 6016 08f3 0000 0000 		.long	.LVL129
 6017 08f7 0000 0000 		.long	.LVL134
 6018 08fb 0600      		.word	0x6
 6019 08fd 64        		.byte	0x64
 6020 08fe 93        		.byte	0x93
 6021 08ff 01        		.uleb128 0x1
 6022 0900 65        		.byte	0x65
 6023 0901 93        		.byte	0x93
 6024 0902 01        		.uleb128 0x1
 6025 0903 0000 0000 		.long	.LVL140
 6026 0907 0000 0000 		.long	.LFE108
 6027 090b 0600      		.word	0x6
 6028 090d 64        		.byte	0x64
 6029 090e 93        		.byte	0x93
 6030 090f 01        		.uleb128 0x1
 6031 0910 65        		.byte	0x65
 6032 0911 93        		.byte	0x93
 6033 0912 01        		.uleb128 0x1
 6034 0913 0000 0000 		.long	0x0
 6035 0917 0000 0000 		.long	0x0
 6036               	.LLST66:
 6037 091b 0000 0000 		.long	.LVL129
 6038 091f 0000 0000 		.long	.LVL139
 6039 0923 0600      		.word	0x6
 6040 0925 62        		.byte	0x62
 6041 0926 93        		.byte	0x93
 6042 0927 01        		.uleb128 0x1
GAS LISTING /var/folders/1s/lqjcb7x5323625d47g9gdgmr0000gp/T//ccbjwlOH.s 			page 107


 6043 0928 63        		.byte	0x63
 6044 0929 93        		.byte	0x93
 6045 092a 01        		.uleb128 0x1
 6046 092b 0000 0000 		.long	.LVL140
 6047 092f 0000 0000 		.long	.LFE108
 6048 0933 0600      		.word	0x6
 6049 0935 62        		.byte	0x62
 6050 0936 93        		.byte	0x93
 6051 0937 01        		.uleb128 0x1
 6052 0938 63        		.byte	0x63
 6053 0939 93        		.byte	0x93
 6054 093a 01        		.uleb128 0x1
 6055 093b 0000 0000 		.long	0x0
 6056 093f 0000 0000 		.long	0x0
 6057               	.LLST67:
 6058 0943 0000 0000 		.long	.LVL134
 6059 0947 0000 0000 		.long	.LVL135
 6060 094b 0600      		.word	0x6
 6061 094d 64        		.byte	0x64
 6062 094e 93        		.byte	0x93
 6063 094f 01        		.uleb128 0x1
 6064 0950 65        		.byte	0x65
 6065 0951 93        		.byte	0x93
 6066 0952 01        		.uleb128 0x1
 6067 0953 0000 0000 		.long	.LVL135
 6068 0957 0000 0000 		.long	.LVL136
 6069 095b 0600      		.word	0x6
 6070 095d 6C        		.byte	0x6c
 6071 095e 93        		.byte	0x93
 6072 095f 01        		.uleb128 0x1
 6073 0960 6D        		.byte	0x6d
 6074 0961 93        		.byte	0x93
 6075 0962 01        		.uleb128 0x1
 6076 0963 0000 0000 		.long	.LVL136
 6077 0967 0000 0000 		.long	.LVL138
 6078 096b 0600      		.word	0x6
 6079 096d 64        		.byte	0x64
 6080 096e 93        		.byte	0x93
 6081 096f 01        		.uleb128 0x1
 6082 0970 65        		.byte	0x65
 6083 0971 93        		.byte	0x93
 6084 0972 01        		.uleb128 0x1
 6085 0973 0000 0000 		.long	.LVL138
 6086 0977 0000 0000 		.long	.LVL141
 6087 097b 0600      		.word	0x6
 6088 097d 6C        		.byte	0x6c
 6089 097e 93        		.byte	0x93
 6090 097f 01        		.uleb128 0x1
 6091 0980 6D        		.byte	0x6d
 6092 0981 93        		.byte	0x93
 6093 0982 01        		.uleb128 0x1
 6094 0983 0000 0000 		.long	0x0
 6095 0987 0000 0000 		.long	0x0
 6096               	.LLST69:
 6097 098b 0000 0000 		.long	.LVL143
 6098 098f 0000 0000 		.long	.LVL144
 6099 0993 0600      		.word	0x6
GAS LISTING /var/folders/1s/lqjcb7x5323625d47g9gdgmr0000gp/T//ccbjwlOH.s 			page 108


 6100 0995 68        		.byte	0x68
 6101 0996 93        		.byte	0x93
 6102 0997 01        		.uleb128 0x1
 6103 0998 69        		.byte	0x69
 6104 0999 93        		.byte	0x93
 6105 099a 01        		.uleb128 0x1
 6106 099b 0000 0000 		.long	.LVL144
 6107 099f 0000 0000 		.long	.LVL145
 6108 09a3 0600      		.word	0x6
 6109 09a5 6E        		.byte	0x6e
 6110 09a6 93        		.byte	0x93
 6111 09a7 01        		.uleb128 0x1
 6112 09a8 6F        		.byte	0x6f
 6113 09a9 93        		.byte	0x93
 6114 09aa 01        		.uleb128 0x1
 6115 09ab 0000 0000 		.long	.LVL146
 6116 09af 0000 0000 		.long	.LFE103
 6117 09b3 0600      		.word	0x6
 6118 09b5 6E        		.byte	0x6e
 6119 09b6 93        		.byte	0x93
 6120 09b7 01        		.uleb128 0x1
 6121 09b8 6F        		.byte	0x6f
 6122 09b9 93        		.byte	0x93
 6123 09ba 01        		.uleb128 0x1
 6124 09bb 0000 0000 		.long	0x0
 6125 09bf 0000 0000 		.long	0x0
 6126               	.LLST70:
 6127 09c3 0000 0000 		.long	.LVL143
 6128 09c7 0000 0000 		.long	.LVL144
 6129 09cb 0600      		.word	0x6
 6130 09cd 66        		.byte	0x66
 6131 09ce 93        		.byte	0x93
 6132 09cf 01        		.uleb128 0x1
 6133 09d0 67        		.byte	0x67
 6134 09d1 93        		.byte	0x93
 6135 09d2 01        		.uleb128 0x1
 6136 09d3 0000 0000 		.long	.LVL144
 6137 09d7 0000 0000 		.long	.LVL145
 6138 09db 0600      		.word	0x6
 6139 09dd 6A        		.byte	0x6a
 6140 09de 93        		.byte	0x93
 6141 09df 01        		.uleb128 0x1
 6142 09e0 6B        		.byte	0x6b
 6143 09e1 93        		.byte	0x93
 6144 09e2 01        		.uleb128 0x1
 6145 09e3 0000 0000 		.long	.LVL146
 6146 09e7 0000 0000 		.long	.LFE103
 6147 09eb 0600      		.word	0x6
 6148 09ed 6A        		.byte	0x6a
 6149 09ee 93        		.byte	0x93
 6150 09ef 01        		.uleb128 0x1
 6151 09f0 6B        		.byte	0x6b
 6152 09f1 93        		.byte	0x93
 6153 09f2 01        		.uleb128 0x1
 6154 09f3 0000 0000 		.long	0x0
 6155 09f7 0000 0000 		.long	0x0
 6156               	.LLST72:
GAS LISTING /var/folders/1s/lqjcb7x5323625d47g9gdgmr0000gp/T//ccbjwlOH.s 			page 109


 6157 09fb 0000 0000 		.long	.LVL147
 6158 09ff 0000 0000 		.long	.LVL148
 6159 0a03 0600      		.word	0x6
 6160 0a05 68        		.byte	0x68
 6161 0a06 93        		.byte	0x93
 6162 0a07 01        		.uleb128 0x1
 6163 0a08 69        		.byte	0x69
 6164 0a09 93        		.byte	0x93
 6165 0a0a 01        		.uleb128 0x1
 6166 0a0b 0000 0000 		.long	.LVL148
 6167 0a0f 0000 0000 		.long	.LVL152
 6168 0a13 0600      		.word	0x6
 6169 0a15 6A        		.byte	0x6a
 6170 0a16 93        		.byte	0x93
 6171 0a17 01        		.uleb128 0x1
 6172 0a18 6B        		.byte	0x6b
 6173 0a19 93        		.byte	0x93
 6174 0a1a 01        		.uleb128 0x1
 6175 0a1b 0000 0000 		.long	.LVL154
 6176 0a1f 0000 0000 		.long	.LVL155
 6177 0a23 0600      		.word	0x6
 6178 0a25 6A        		.byte	0x6a
 6179 0a26 93        		.byte	0x93
 6180 0a27 01        		.uleb128 0x1
 6181 0a28 6B        		.byte	0x6b
 6182 0a29 93        		.byte	0x93
 6183 0a2a 01        		.uleb128 0x1
 6184 0a2b 0000 0000 		.long	.LVL157
 6185 0a2f 0000 0000 		.long	.LFE95
 6186 0a33 0600      		.word	0x6
 6187 0a35 6A        		.byte	0x6a
 6188 0a36 93        		.byte	0x93
 6189 0a37 01        		.uleb128 0x1
 6190 0a38 6B        		.byte	0x6b
 6191 0a39 93        		.byte	0x93
 6192 0a3a 01        		.uleb128 0x1
 6193 0a3b 0000 0000 		.long	0x0
 6194 0a3f 0000 0000 		.long	0x0
 6195               	.LLST73:
 6196 0a43 0000 0000 		.long	.LVL147
 6197 0a47 0000 0000 		.long	.LVL149
 6198 0a4b 0600      		.word	0x6
 6199 0a4d 66        		.byte	0x66
 6200 0a4e 93        		.byte	0x93
 6201 0a4f 01        		.uleb128 0x1
 6202 0a50 67        		.byte	0x67
 6203 0a51 93        		.byte	0x93
 6204 0a52 01        		.uleb128 0x1
 6205 0a53 0000 0000 		.long	.LVL149
 6206 0a57 0000 0000 		.long	.LVL150
 6207 0a5b 0600      		.word	0x6
 6208 0a5d 6E        		.byte	0x6e
 6209 0a5e 93        		.byte	0x93
 6210 0a5f 01        		.uleb128 0x1
 6211 0a60 6F        		.byte	0x6f
 6212 0a61 93        		.byte	0x93
 6213 0a62 01        		.uleb128 0x1
GAS LISTING /var/folders/1s/lqjcb7x5323625d47g9gdgmr0000gp/T//ccbjwlOH.s 			page 110


 6214 0a63 0000 0000 		.long	.LVL150
 6215 0a67 0000 0000 		.long	.LVL151
 6216 0a6b 0600      		.word	0x6
 6217 0a6d 66        		.byte	0x66
 6218 0a6e 93        		.byte	0x93
 6219 0a6f 01        		.uleb128 0x1
 6220 0a70 67        		.byte	0x67
 6221 0a71 93        		.byte	0x93
 6222 0a72 01        		.uleb128 0x1
 6223 0a73 0000 0000 		.long	.LVL151
 6224 0a77 0000 0000 		.long	.LVL153
 6225 0a7b 0600      		.word	0x6
 6226 0a7d 6E        		.byte	0x6e
 6227 0a7e 93        		.byte	0x93
 6228 0a7f 01        		.uleb128 0x1
 6229 0a80 6F        		.byte	0x6f
 6230 0a81 93        		.byte	0x93
 6231 0a82 01        		.uleb128 0x1
 6232 0a83 0000 0000 		.long	.LVL153
 6233 0a87 0000 0000 		.long	.LVL156
 6234 0a8b 0600      		.word	0x6
 6235 0a8d 66        		.byte	0x66
 6236 0a8e 93        		.byte	0x93
 6237 0a8f 01        		.uleb128 0x1
 6238 0a90 67        		.byte	0x67
 6239 0a91 93        		.byte	0x93
 6240 0a92 01        		.uleb128 0x1
 6241 0a93 0000 0000 		.long	.LVL157
 6242 0a97 0000 0000 		.long	.LFE95
 6243 0a9b 0600      		.word	0x6
 6244 0a9d 66        		.byte	0x66
 6245 0a9e 93        		.byte	0x93
 6246 0a9f 01        		.uleb128 0x1
 6247 0aa0 67        		.byte	0x67
 6248 0aa1 93        		.byte	0x93
 6249 0aa2 01        		.uleb128 0x1
 6250 0aa3 0000 0000 		.long	0x0
 6251 0aa7 0000 0000 		.long	0x0
 6252               	.LLST75:
 6253 0aab 0000 0000 		.long	.LVL158
 6254 0aaf 0000 0000 		.long	.LVL161
 6255 0ab3 0600      		.word	0x6
 6256 0ab5 68        		.byte	0x68
 6257 0ab6 93        		.byte	0x93
 6258 0ab7 01        		.uleb128 0x1
 6259 0ab8 69        		.byte	0x69
 6260 0ab9 93        		.byte	0x93
 6261 0aba 01        		.uleb128 0x1
 6262 0abb 0000 0000 		.long	.LVL161
 6263 0abf 0000 0000 		.long	.LVL162
 6264 0ac3 0600      		.word	0x6
 6265 0ac5 62        		.byte	0x62
 6266 0ac6 93        		.byte	0x93
 6267 0ac7 01        		.uleb128 0x1
 6268 0ac8 63        		.byte	0x63
 6269 0ac9 93        		.byte	0x93
 6270 0aca 01        		.uleb128 0x1
GAS LISTING /var/folders/1s/lqjcb7x5323625d47g9gdgmr0000gp/T//ccbjwlOH.s 			page 111


 6271 0acb 0000 0000 		.long	.LVL163
 6272 0acf 0000 0000 		.long	.LVL165
 6273 0ad3 0600      		.word	0x6
 6274 0ad5 62        		.byte	0x62
 6275 0ad6 93        		.byte	0x93
 6276 0ad7 01        		.uleb128 0x1
 6277 0ad8 63        		.byte	0x63
 6278 0ad9 93        		.byte	0x93
 6279 0ada 01        		.uleb128 0x1
 6280 0adb 0000 0000 		.long	.LVL166
 6281 0adf 0000 0000 		.long	.LVL167
 6282 0ae3 0600      		.word	0x6
 6283 0ae5 68        		.byte	0x68
 6284 0ae6 93        		.byte	0x93
 6285 0ae7 01        		.uleb128 0x1
 6286 0ae8 69        		.byte	0x69
 6287 0ae9 93        		.byte	0x93
 6288 0aea 01        		.uleb128 0x1
 6289 0aeb 0000 0000 		.long	.LVL167
 6290 0aef 0000 0000 		.long	.LVL168
 6291 0af3 0600      		.word	0x6
 6292 0af5 62        		.byte	0x62
 6293 0af6 93        		.byte	0x93
 6294 0af7 01        		.uleb128 0x1
 6295 0af8 63        		.byte	0x63
 6296 0af9 93        		.byte	0x93
 6297 0afa 01        		.uleb128 0x1
 6298 0afb 0000 0000 		.long	.LVL169
 6299 0aff 0000 0000 		.long	.LVL170
 6300 0b03 0600      		.word	0x6
 6301 0b05 62        		.byte	0x62
 6302 0b06 93        		.byte	0x93
 6303 0b07 01        		.uleb128 0x1
 6304 0b08 63        		.byte	0x63
 6305 0b09 93        		.byte	0x93
 6306 0b0a 01        		.uleb128 0x1
 6307 0b0b 0000 0000 		.long	.LVL170
 6308 0b0f 0000 0000 		.long	.LVL171
 6309 0b13 0600      		.word	0x6
 6310 0b15 68        		.byte	0x68
 6311 0b16 93        		.byte	0x93
 6312 0b17 01        		.uleb128 0x1
 6313 0b18 69        		.byte	0x69
 6314 0b19 93        		.byte	0x93
 6315 0b1a 01        		.uleb128 0x1
 6316 0b1b 0000 0000 		.long	0x0
 6317 0b1f 0000 0000 		.long	0x0
 6318               	.LLST76:
 6319 0b23 0000 0000 		.long	.LVL158
 6320 0b27 0000 0000 		.long	.LVL159
 6321 0b2b 0600      		.word	0x6
 6322 0b2d 66        		.byte	0x66
 6323 0b2e 93        		.byte	0x93
 6324 0b2f 01        		.uleb128 0x1
 6325 0b30 67        		.byte	0x67
 6326 0b31 93        		.byte	0x93
 6327 0b32 01        		.uleb128 0x1
GAS LISTING /var/folders/1s/lqjcb7x5323625d47g9gdgmr0000gp/T//ccbjwlOH.s 			page 112


 6328 0b33 0000 0000 		.long	.LVL159
 6329 0b37 0000 0000 		.long	.LVL164
 6330 0b3b 0600      		.word	0x6
 6331 0b3d 6E        		.byte	0x6e
 6332 0b3e 93        		.byte	0x93
 6333 0b3f 01        		.uleb128 0x1
 6334 0b40 6F        		.byte	0x6f
 6335 0b41 93        		.byte	0x93
 6336 0b42 01        		.uleb128 0x1
 6337 0b43 0000 0000 		.long	.LVL164
 6338 0b47 0000 0000 		.long	.LVL166
 6339 0b4b 0600      		.word	0x6
 6340 0b4d 66        		.byte	0x66
 6341 0b4e 93        		.byte	0x93
 6342 0b4f 01        		.uleb128 0x1
 6343 0b50 67        		.byte	0x67
 6344 0b51 93        		.byte	0x93
 6345 0b52 01        		.uleb128 0x1
 6346 0b53 0000 0000 		.long	.LVL166
 6347 0b57 0000 0000 		.long	.LVL168
 6348 0b5b 0600      		.word	0x6
 6349 0b5d 6E        		.byte	0x6e
 6350 0b5e 93        		.byte	0x93
 6351 0b5f 01        		.uleb128 0x1
 6352 0b60 6F        		.byte	0x6f
 6353 0b61 93        		.byte	0x93
 6354 0b62 01        		.uleb128 0x1
 6355 0b63 0000 0000 		.long	.LVL169
 6356 0b67 0000 0000 		.long	.LFE93
 6357 0b6b 0600      		.word	0x6
 6358 0b6d 66        		.byte	0x66
 6359 0b6e 93        		.byte	0x93
 6360 0b6f 01        		.uleb128 0x1
 6361 0b70 67        		.byte	0x67
 6362 0b71 93        		.byte	0x93
 6363 0b72 01        		.uleb128 0x1
 6364 0b73 0000 0000 		.long	0x0
 6365 0b77 0000 0000 		.long	0x0
 6366               	.LLST78:
 6367 0b7b 0000 0000 		.long	.LVL172
 6368 0b7f 0000 0000 		.long	.LVL173
 6369 0b83 0600      		.word	0x6
 6370 0b85 68        		.byte	0x68
 6371 0b86 93        		.byte	0x93
 6372 0b87 01        		.uleb128 0x1
 6373 0b88 69        		.byte	0x69
 6374 0b89 93        		.byte	0x93
 6375 0b8a 01        		.uleb128 0x1
 6376 0b8b 0000 0000 		.long	0x0
 6377 0b8f 0000 0000 		.long	0x0
 6378               	.LLST79:
 6379 0b93 0000 0000 		.long	.LVL172
 6380 0b97 0000 0000 		.long	.LVL173
 6381 0b9b 0600      		.word	0x6
 6382 0b9d 66        		.byte	0x66
 6383 0b9e 93        		.byte	0x93
 6384 0b9f 01        		.uleb128 0x1
GAS LISTING /var/folders/1s/lqjcb7x5323625d47g9gdgmr0000gp/T//ccbjwlOH.s 			page 113


 6385 0ba0 67        		.byte	0x67
 6386 0ba1 93        		.byte	0x93
 6387 0ba2 01        		.uleb128 0x1
 6388 0ba3 0000 0000 		.long	0x0
 6389 0ba7 0000 0000 		.long	0x0
 6390               	.LLST81:
 6391 0bab 0000 0000 		.long	.LVL174
 6392 0baf 0000 0000 		.long	.LVL175
 6393 0bb3 0600      		.word	0x6
 6394 0bb5 68        		.byte	0x68
 6395 0bb6 93        		.byte	0x93
 6396 0bb7 01        		.uleb128 0x1
 6397 0bb8 69        		.byte	0x69
 6398 0bb9 93        		.byte	0x93
 6399 0bba 01        		.uleb128 0x1
 6400 0bbb 0000 0000 		.long	0x0
 6401 0bbf 0000 0000 		.long	0x0
 6402               	.LLST82:
 6403 0bc3 0000 0000 		.long	.LVL174
 6404 0bc7 0000 0000 		.long	.LVL175
 6405 0bcb 0600      		.word	0x6
 6406 0bcd 66        		.byte	0x66
 6407 0bce 93        		.byte	0x93
 6408 0bcf 01        		.uleb128 0x1
 6409 0bd0 67        		.byte	0x67
 6410 0bd1 93        		.byte	0x93
 6411 0bd2 01        		.uleb128 0x1
 6412 0bd3 0000 0000 		.long	0x0
 6413 0bd7 0000 0000 		.long	0x0
 6414               	.LLST84:
 6415 0bdb 0000 0000 		.long	.LVL176
 6416 0bdf 0000 0000 		.long	.LVL177
 6417 0be3 0600      		.word	0x6
 6418 0be5 68        		.byte	0x68
 6419 0be6 93        		.byte	0x93
 6420 0be7 01        		.uleb128 0x1
 6421 0be8 69        		.byte	0x69
 6422 0be9 93        		.byte	0x93
 6423 0bea 01        		.uleb128 0x1
 6424 0beb 0000 0000 		.long	0x0
 6425 0bef 0000 0000 		.long	0x0
 6426               	.LLST85:
 6427 0bf3 0000 0000 		.long	.LVL176
 6428 0bf7 0000 0000 		.long	.LVL177
 6429 0bfb 0600      		.word	0x6
 6430 0bfd 66        		.byte	0x66
 6431 0bfe 93        		.byte	0x93
 6432 0bff 01        		.uleb128 0x1
 6433 0c00 67        		.byte	0x67
 6434 0c01 93        		.byte	0x93
 6435 0c02 01        		.uleb128 0x1
 6436 0c03 0000 0000 		.long	0x0
 6437 0c07 0000 0000 		.long	0x0
 6438               	.LLST87:
 6439 0c0b 0000 0000 		.long	.LVL178
 6440 0c0f 0000 0000 		.long	.LVL179
 6441 0c13 0600      		.word	0x6
GAS LISTING /var/folders/1s/lqjcb7x5323625d47g9gdgmr0000gp/T//ccbjwlOH.s 			page 114


 6442 0c15 68        		.byte	0x68
 6443 0c16 93        		.byte	0x93
 6444 0c17 01        		.uleb128 0x1
 6445 0c18 69        		.byte	0x69
 6446 0c19 93        		.byte	0x93
 6447 0c1a 01        		.uleb128 0x1
 6448 0c1b 0000 0000 		.long	0x0
 6449 0c1f 0000 0000 		.long	0x0
 6450               	.LLST88:
 6451 0c23 0000 0000 		.long	.LVL178
 6452 0c27 0000 0000 		.long	.LVL179
 6453 0c2b 0600      		.word	0x6
 6454 0c2d 66        		.byte	0x66
 6455 0c2e 93        		.byte	0x93
 6456 0c2f 01        		.uleb128 0x1
 6457 0c30 67        		.byte	0x67
 6458 0c31 93        		.byte	0x93
 6459 0c32 01        		.uleb128 0x1
 6460 0c33 0000 0000 		.long	0x0
 6461 0c37 0000 0000 		.long	0x0
 6462               	.LLST90:
 6463 0c3b 0000 0000 		.long	.LVL180
 6464 0c3f 0000 0000 		.long	.LVL181
 6465 0c43 0600      		.word	0x6
 6466 0c45 68        		.byte	0x68
 6467 0c46 93        		.byte	0x93
 6468 0c47 01        		.uleb128 0x1
 6469 0c48 69        		.byte	0x69
 6470 0c49 93        		.byte	0x93
 6471 0c4a 01        		.uleb128 0x1
 6472 0c4b 0000 0000 		.long	.LVL181
 6473 0c4f 0000 0000 		.long	.LVL183
 6474 0c53 0600      		.word	0x6
 6475 0c55 6E        		.byte	0x6e
 6476 0c56 93        		.byte	0x93
 6477 0c57 01        		.uleb128 0x1
 6478 0c58 6F        		.byte	0x6f
 6479 0c59 93        		.byte	0x93
 6480 0c5a 01        		.uleb128 0x1
 6481 0c5b 0000 0000 		.long	.LVL184
 6482 0c5f 0000 0000 		.long	.LFE94
 6483 0c63 0600      		.word	0x6
 6484 0c65 6E        		.byte	0x6e
 6485 0c66 93        		.byte	0x93
 6486 0c67 01        		.uleb128 0x1
 6487 0c68 6F        		.byte	0x6f
 6488 0c69 93        		.byte	0x93
 6489 0c6a 01        		.uleb128 0x1
 6490 0c6b 0000 0000 		.long	0x0
 6491 0c6f 0000 0000 		.long	0x0
 6492               	.LLST91:
 6493 0c73 0000 0000 		.long	.LVL180
 6494 0c77 0000 0000 		.long	.LVL182
 6495 0c7b 0600      		.word	0x6
 6496 0c7d 66        		.byte	0x66
 6497 0c7e 93        		.byte	0x93
 6498 0c7f 01        		.uleb128 0x1
GAS LISTING /var/folders/1s/lqjcb7x5323625d47g9gdgmr0000gp/T//ccbjwlOH.s 			page 115


 6499 0c80 67        		.byte	0x67
 6500 0c81 93        		.byte	0x93
 6501 0c82 01        		.uleb128 0x1
 6502 0c83 0000 0000 		.long	.LVL182
 6503 0c87 0000 0000 		.long	.LVL183
 6504 0c8b 0600      		.word	0x6
 6505 0c8d 6A        		.byte	0x6a
 6506 0c8e 93        		.byte	0x93
 6507 0c8f 01        		.uleb128 0x1
 6508 0c90 6B        		.byte	0x6b
 6509 0c91 93        		.byte	0x93
 6510 0c92 01        		.uleb128 0x1
 6511 0c93 0000 0000 		.long	.LVL184
 6512 0c97 0000 0000 		.long	.LFE94
 6513 0c9b 0600      		.word	0x6
 6514 0c9d 6A        		.byte	0x6a
 6515 0c9e 93        		.byte	0x93
 6516 0c9f 01        		.uleb128 0x1
 6517 0ca0 6B        		.byte	0x6b
 6518 0ca1 93        		.byte	0x93
 6519 0ca2 01        		.uleb128 0x1
 6520 0ca3 0000 0000 		.long	0x0
 6521 0ca7 0000 0000 		.long	0x0
 6522               	.LLST93:
 6523 0cab 0000 0000 		.long	.LVL185
 6524 0caf 0000 0000 		.long	.LVL186
 6525 0cb3 0600      		.word	0x6
 6526 0cb5 68        		.byte	0x68
 6527 0cb6 93        		.byte	0x93
 6528 0cb7 01        		.uleb128 0x1
 6529 0cb8 69        		.byte	0x69
 6530 0cb9 93        		.byte	0x93
 6531 0cba 01        		.uleb128 0x1
 6532 0cbb 0000 0000 		.long	.LVL186
 6533 0cbf 0000 0000 		.long	.LVL189
 6534 0cc3 0600      		.word	0x6
 6535 0cc5 6E        		.byte	0x6e
 6536 0cc6 93        		.byte	0x93
 6537 0cc7 01        		.uleb128 0x1
 6538 0cc8 6F        		.byte	0x6f
 6539 0cc9 93        		.byte	0x93
 6540 0cca 01        		.uleb128 0x1
 6541 0ccb 0000 0000 		.long	.LVL190
 6542 0ccf 0000 0000 		.long	.LFE102
 6543 0cd3 0600      		.word	0x6
 6544 0cd5 6E        		.byte	0x6e
 6545 0cd6 93        		.byte	0x93
 6546 0cd7 01        		.uleb128 0x1
 6547 0cd8 6F        		.byte	0x6f
 6548 0cd9 93        		.byte	0x93
 6549 0cda 01        		.uleb128 0x1
 6550 0cdb 0000 0000 		.long	0x0
 6551 0cdf 0000 0000 		.long	0x0
 6552               	.LLST94:
 6553 0ce3 0000 0000 		.long	.LVL185
 6554 0ce7 0000 0000 		.long	.LVL187
 6555 0ceb 0600      		.word	0x6
GAS LISTING /var/folders/1s/lqjcb7x5323625d47g9gdgmr0000gp/T//ccbjwlOH.s 			page 116


 6556 0ced 66        		.byte	0x66
 6557 0cee 93        		.byte	0x93
 6558 0cef 01        		.uleb128 0x1
 6559 0cf0 67        		.byte	0x67
 6560 0cf1 93        		.byte	0x93
 6561 0cf2 01        		.uleb128 0x1
 6562 0cf3 0000 0000 		.long	.LVL187
 6563 0cf7 0000 0000 		.long	.LVL189
 6564 0cfb 0600      		.word	0x6
 6565 0cfd 6A        		.byte	0x6a
 6566 0cfe 93        		.byte	0x93
 6567 0cff 01        		.uleb128 0x1
 6568 0d00 6B        		.byte	0x6b
 6569 0d01 93        		.byte	0x93
 6570 0d02 01        		.uleb128 0x1
 6571 0d03 0000 0000 		.long	.LVL190
 6572 0d07 0000 0000 		.long	.LFE102
 6573 0d0b 0600      		.word	0x6
 6574 0d0d 6A        		.byte	0x6a
 6575 0d0e 93        		.byte	0x93
 6576 0d0f 01        		.uleb128 0x1
 6577 0d10 6B        		.byte	0x6b
 6578 0d11 93        		.byte	0x93
 6579 0d12 01        		.uleb128 0x1
 6580 0d13 0000 0000 		.long	0x0
 6581 0d17 0000 0000 		.long	0x0
 6582               	.LLST95:
 6583 0d1b 0000 0000 		.long	.LVL185
 6584 0d1f 0000 0000 		.long	.LVL188
 6585 0d23 0600      		.word	0x6
 6586 0d25 64        		.byte	0x64
 6587 0d26 93        		.byte	0x93
 6588 0d27 01        		.uleb128 0x1
 6589 0d28 65        		.byte	0x65
 6590 0d29 93        		.byte	0x93
 6591 0d2a 01        		.uleb128 0x1
 6592 0d2b 0000 0000 		.long	.LVL190
 6593 0d2f 0000 0000 		.long	.LFE102
 6594 0d33 0600      		.word	0x6
 6595 0d35 64        		.byte	0x64
 6596 0d36 93        		.byte	0x93
 6597 0d37 01        		.uleb128 0x1
 6598 0d38 65        		.byte	0x65
 6599 0d39 93        		.byte	0x93
 6600 0d3a 01        		.uleb128 0x1
 6601 0d3b 0000 0000 		.long	0x0
 6602 0d3f 0000 0000 		.long	0x0
 6603               	.LLST97:
 6604 0d43 0000 0000 		.long	.LVL191
 6605 0d47 0000 0000 		.long	.LVL192
 6606 0d4b 0600      		.word	0x6
 6607 0d4d 68        		.byte	0x68
 6608 0d4e 93        		.byte	0x93
 6609 0d4f 01        		.uleb128 0x1
 6610 0d50 69        		.byte	0x69
 6611 0d51 93        		.byte	0x93
 6612 0d52 01        		.uleb128 0x1
GAS LISTING /var/folders/1s/lqjcb7x5323625d47g9gdgmr0000gp/T//ccbjwlOH.s 			page 117


 6613 0d53 0000 0000 		.long	.LVL192
 6614 0d57 0000 0000 		.long	.LVL194
 6615 0d5b 0600      		.word	0x6
 6616 0d5d 6E        		.byte	0x6e
 6617 0d5e 93        		.byte	0x93
 6618 0d5f 01        		.uleb128 0x1
 6619 0d60 6F        		.byte	0x6f
 6620 0d61 93        		.byte	0x93
 6621 0d62 01        		.uleb128 0x1
 6622 0d63 0000 0000 		.long	0x0
 6623 0d67 0000 0000 		.long	0x0
 6624               	.LLST98:
 6625 0d6b 0000 0000 		.long	.LVL191
 6626 0d6f 0000 0000 		.long	.LVL193
 6627 0d73 0600      		.word	0x6
 6628 0d75 66        		.byte	0x66
 6629 0d76 93        		.byte	0x93
 6630 0d77 01        		.uleb128 0x1
 6631 0d78 67        		.byte	0x67
 6632 0d79 93        		.byte	0x93
 6633 0d7a 01        		.uleb128 0x1
 6634 0d7b 0000 0000 		.long	.LVL193
 6635 0d7f 0000 0000 		.long	.LVL194
 6636 0d83 0600      		.word	0x6
 6637 0d85 6A        		.byte	0x6a
 6638 0d86 93        		.byte	0x93
 6639 0d87 01        		.uleb128 0x1
 6640 0d88 6B        		.byte	0x6b
 6641 0d89 93        		.byte	0x93
 6642 0d8a 01        		.uleb128 0x1
 6643 0d8b 0000 0000 		.long	0x0
 6644 0d8f 0000 0000 		.long	0x0
 6645               	.LLST100:
 6646 0d93 0000 0000 		.long	.LVL195
 6647 0d97 0000 0000 		.long	.LVL197
 6648 0d9b 0600      		.word	0x6
 6649 0d9d 68        		.byte	0x68
 6650 0d9e 93        		.byte	0x93
 6651 0d9f 01        		.uleb128 0x1
 6652 0da0 69        		.byte	0x69
 6653 0da1 93        		.byte	0x93
 6654 0da2 01        		.uleb128 0x1
 6655 0da3 0000 0000 		.long	.LVL197
 6656 0da7 0000 0000 		.long	.LVL202
 6657 0dab 0600      		.word	0x6
 6658 0dad 6C        		.byte	0x6c
 6659 0dae 93        		.byte	0x93
 6660 0daf 01        		.uleb128 0x1
 6661 0db0 6D        		.byte	0x6d
 6662 0db1 93        		.byte	0x93
 6663 0db2 01        		.uleb128 0x1
 6664 0db3 0000 0000 		.long	0x0
 6665 0db7 0000 0000 		.long	0x0
 6666               	.LLST101:
 6667 0dbb 0000 0000 		.long	.LVL195
 6668 0dbf 0000 0000 		.long	.LVL196
 6669 0dc3 0600      		.word	0x6
GAS LISTING /var/folders/1s/lqjcb7x5323625d47g9gdgmr0000gp/T//ccbjwlOH.s 			page 118


 6670 0dc5 66        		.byte	0x66
 6671 0dc6 93        		.byte	0x93
 6672 0dc7 01        		.uleb128 0x1
 6673 0dc8 67        		.byte	0x67
 6674 0dc9 93        		.byte	0x93
 6675 0dca 01        		.uleb128 0x1
 6676 0dcb 0000 0000 		.long	.LVL196
 6677 0dcf 0000 0000 		.long	.LVL203
 6678 0dd3 0600      		.word	0x6
 6679 0dd5 60        		.byte	0x60
 6680 0dd6 93        		.byte	0x93
 6681 0dd7 01        		.uleb128 0x1
 6682 0dd8 61        		.byte	0x61
 6683 0dd9 93        		.byte	0x93
 6684 0dda 01        		.uleb128 0x1
 6685 0ddb 0000 0000 		.long	0x0
 6686 0ddf 0000 0000 		.long	0x0
 6687               	.LLST102:
 6688 0de3 0000 0000 		.long	.LVL198
 6689 0de7 0000 0000 		.long	.LVL199
 6690 0deb 0600      		.word	0x6
 6691 0ded 68        		.byte	0x68
 6692 0dee 93        		.byte	0x93
 6693 0def 01        		.uleb128 0x1
 6694 0df0 69        		.byte	0x69
 6695 0df1 93        		.byte	0x93
 6696 0df2 01        		.uleb128 0x1
 6697 0df3 0000 0000 		.long	.LVL200
 6698 0df7 0000 0000 		.long	.LVL201
 6699 0dfb 0600      		.word	0x6
 6700 0dfd 68        		.byte	0x68
 6701 0dfe 93        		.byte	0x93
 6702 0dff 01        		.uleb128 0x1
 6703 0e00 69        		.byte	0x69
 6704 0e01 93        		.byte	0x93
 6705 0e02 01        		.uleb128 0x1
 6706 0e03 0000 0000 		.long	0x0
 6707 0e07 0000 0000 		.long	0x0
 6708               	.LLST104:
 6709 0e0b 0000 0000 		.long	.LVL204
 6710 0e0f 0000 0000 		.long	.LVL210
 6711 0e13 0600      		.word	0x6
 6712 0e15 68        		.byte	0x68
 6713 0e16 93        		.byte	0x93
 6714 0e17 01        		.uleb128 0x1
 6715 0e18 69        		.byte	0x69
 6716 0e19 93        		.byte	0x93
 6717 0e1a 01        		.uleb128 0x1
 6718 0e1b 0000 0000 		.long	.LVL210
 6719 0e1f 0000 0000 		.long	.LVL215
 6720 0e23 0600      		.word	0x6
 6721 0e25 5A        		.byte	0x5a
 6722 0e26 93        		.byte	0x93
 6723 0e27 01        		.uleb128 0x1
 6724 0e28 5B        		.byte	0x5b
 6725 0e29 93        		.byte	0x93
 6726 0e2a 01        		.uleb128 0x1
GAS LISTING /var/folders/1s/lqjcb7x5323625d47g9gdgmr0000gp/T//ccbjwlOH.s 			page 119


 6727 0e2b 0000 0000 		.long	.LVL215
 6728 0e2f 0000 0000 		.long	.LVL218
 6729 0e33 0600      		.word	0x6
 6730 0e35 68        		.byte	0x68
 6731 0e36 93        		.byte	0x93
 6732 0e37 01        		.uleb128 0x1
 6733 0e38 69        		.byte	0x69
 6734 0e39 93        		.byte	0x93
 6735 0e3a 01        		.uleb128 0x1
 6736 0e3b 0000 0000 		.long	.LVL218
 6737 0e3f 0000 0000 		.long	.LVL251
 6738 0e43 0600      		.word	0x6
 6739 0e45 5A        		.byte	0x5a
 6740 0e46 93        		.byte	0x93
 6741 0e47 01        		.uleb128 0x1
 6742 0e48 5B        		.byte	0x5b
 6743 0e49 93        		.byte	0x93
 6744 0e4a 01        		.uleb128 0x1
 6745 0e4b 0000 0000 		.long	.LVL251
 6746 0e4f 0000 0000 		.long	.LFE120
 6747 0e53 0600      		.word	0x6
 6748 0e55 68        		.byte	0x68
 6749 0e56 93        		.byte	0x93
 6750 0e57 01        		.uleb128 0x1
 6751 0e58 69        		.byte	0x69
 6752 0e59 93        		.byte	0x93
 6753 0e5a 01        		.uleb128 0x1
 6754 0e5b 0000 0000 		.long	0x0
 6755 0e5f 0000 0000 		.long	0x0
 6756               	.LLST105:
 6757 0e63 0000 0000 		.long	.LVL204
 6758 0e67 0000 0000 		.long	.LVL206
 6759 0e6b 0600      		.word	0x6
 6760 0e6d 66        		.byte	0x66
 6761 0e6e 93        		.byte	0x93
 6762 0e6f 01        		.uleb128 0x1
 6763 0e70 67        		.byte	0x67
 6764 0e71 93        		.byte	0x93
 6765 0e72 01        		.uleb128 0x1
 6766 0e73 0000 0000 		.long	.LVL206
 6767 0e77 0000 0000 		.long	.LVL207
 6768 0e7b 0600      		.word	0x6
 6769 0e7d 54        		.byte	0x54
 6770 0e7e 93        		.byte	0x93
 6771 0e7f 01        		.uleb128 0x1
 6772 0e80 55        		.byte	0x55
 6773 0e81 93        		.byte	0x93
 6774 0e82 01        		.uleb128 0x1
 6775 0e83 0000 0000 		.long	.LVL207
 6776 0e87 0000 0000 		.long	.LVL210
 6777 0e8b 0600      		.word	0x6
 6778 0e8d 66        		.byte	0x66
 6779 0e8e 93        		.byte	0x93
 6780 0e8f 01        		.uleb128 0x1
 6781 0e90 67        		.byte	0x67
 6782 0e91 93        		.byte	0x93
 6783 0e92 01        		.uleb128 0x1
GAS LISTING /var/folders/1s/lqjcb7x5323625d47g9gdgmr0000gp/T//ccbjwlOH.s 			page 120


 6784 0e93 0000 0000 		.long	.LVL210
 6785 0e97 0000 0000 		.long	.LVL215
 6786 0e9b 0600      		.word	0x6
 6787 0e9d 54        		.byte	0x54
 6788 0e9e 93        		.byte	0x93
 6789 0e9f 01        		.uleb128 0x1
 6790 0ea0 55        		.byte	0x55
 6791 0ea1 93        		.byte	0x93
 6792 0ea2 01        		.uleb128 0x1
 6793 0ea3 0000 0000 		.long	.LVL215
 6794 0ea7 0000 0000 		.long	.LVL218
 6795 0eab 0600      		.word	0x6
 6796 0ead 66        		.byte	0x66
 6797 0eae 93        		.byte	0x93
 6798 0eaf 01        		.uleb128 0x1
 6799 0eb0 67        		.byte	0x67
 6800 0eb1 93        		.byte	0x93
 6801 0eb2 01        		.uleb128 0x1
 6802 0eb3 0000 0000 		.long	.LVL218
 6803 0eb7 0000 0000 		.long	.LVL253
 6804 0ebb 0600      		.word	0x6
 6805 0ebd 54        		.byte	0x54
 6806 0ebe 93        		.byte	0x93
 6807 0ebf 01        		.uleb128 0x1
 6808 0ec0 55        		.byte	0x55
 6809 0ec1 93        		.byte	0x93
 6810 0ec2 01        		.uleb128 0x1
 6811 0ec3 0000 0000 		.long	.LVL253
 6812 0ec7 0000 0000 		.long	.LFE120
 6813 0ecb 0600      		.word	0x6
 6814 0ecd 66        		.byte	0x66
 6815 0ece 93        		.byte	0x93
 6816 0ecf 01        		.uleb128 0x1
 6817 0ed0 67        		.byte	0x67
 6818 0ed1 93        		.byte	0x93
 6819 0ed2 01        		.uleb128 0x1
 6820 0ed3 0000 0000 		.long	0x0
 6821 0ed7 0000 0000 		.long	0x0
 6822               	.LLST106:
 6823 0edb 0000 0000 		.long	.LVL204
 6824 0edf 0000 0000 		.long	.LVL206
 6825 0ee3 0600      		.word	0x6
 6826 0ee5 64        		.byte	0x64
 6827 0ee6 93        		.byte	0x93
 6828 0ee7 01        		.uleb128 0x1
 6829 0ee8 65        		.byte	0x65
 6830 0ee9 93        		.byte	0x93
 6831 0eea 01        		.uleb128 0x1
 6832 0eeb 0000 0000 		.long	.LVL206
 6833 0eef 0000 0000 		.long	.LVL209
 6834 0ef3 0600      		.word	0x6
 6835 0ef5 58        		.byte	0x58
 6836 0ef6 93        		.byte	0x93
 6837 0ef7 01        		.uleb128 0x1
 6838 0ef8 59        		.byte	0x59
 6839 0ef9 93        		.byte	0x93
 6840 0efa 01        		.uleb128 0x1
GAS LISTING /var/folders/1s/lqjcb7x5323625d47g9gdgmr0000gp/T//ccbjwlOH.s 			page 121


 6841 0efb 0000 0000 		.long	.LVL209
 6842 0eff 0000 0000 		.long	.LVL210
 6843 0f03 0600      		.word	0x6
 6844 0f05 64        		.byte	0x64
 6845 0f06 93        		.byte	0x93
 6846 0f07 01        		.uleb128 0x1
 6847 0f08 65        		.byte	0x65
 6848 0f09 93        		.byte	0x93
 6849 0f0a 01        		.uleb128 0x1
 6850 0f0b 0000 0000 		.long	.LVL210
 6851 0f0f 0000 0000 		.long	.LVL215
 6852 0f13 0600      		.word	0x6
 6853 0f15 58        		.byte	0x58
 6854 0f16 93        		.byte	0x93
 6855 0f17 01        		.uleb128 0x1
 6856 0f18 59        		.byte	0x59
 6857 0f19 93        		.byte	0x93
 6858 0f1a 01        		.uleb128 0x1
 6859 0f1b 0000 0000 		.long	.LVL215
 6860 0f1f 0000 0000 		.long	.LVL218
 6861 0f23 0600      		.word	0x6
 6862 0f25 64        		.byte	0x64
 6863 0f26 93        		.byte	0x93
 6864 0f27 01        		.uleb128 0x1
 6865 0f28 65        		.byte	0x65
 6866 0f29 93        		.byte	0x93
 6867 0f2a 01        		.uleb128 0x1
 6868 0f2b 0000 0000 		.long	.LVL218
 6869 0f2f 0000 0000 		.long	.LVL252
 6870 0f33 0600      		.word	0x6
 6871 0f35 58        		.byte	0x58
 6872 0f36 93        		.byte	0x93
 6873 0f37 01        		.uleb128 0x1
 6874 0f38 59        		.byte	0x59
 6875 0f39 93        		.byte	0x93
 6876 0f3a 01        		.uleb128 0x1
 6877 0f3b 0000 0000 		.long	.LVL252
 6878 0f3f 0000 0000 		.long	.LFE120
 6879 0f43 0600      		.word	0x6
 6880 0f45 64        		.byte	0x64
 6881 0f46 93        		.byte	0x93
 6882 0f47 01        		.uleb128 0x1
 6883 0f48 65        		.byte	0x65
 6884 0f49 93        		.byte	0x93
 6885 0f4a 01        		.uleb128 0x1
 6886 0f4b 0000 0000 		.long	0x0
 6887 0f4f 0000 0000 		.long	0x0
 6888               	.LLST107:
 6889 0f53 0000 0000 		.long	.LVL208
 6890 0f57 0000 0000 		.long	.LVL221
 6891 0f5b 0600      		.word	0x6
 6892 0f5d 5E        		.byte	0x5e
 6893 0f5e 93        		.byte	0x93
 6894 0f5f 01        		.uleb128 0x1
 6895 0f60 5F        		.byte	0x5f
 6896 0f61 93        		.byte	0x93
 6897 0f62 01        		.uleb128 0x1
GAS LISTING /var/folders/1s/lqjcb7x5323625d47g9gdgmr0000gp/T//ccbjwlOH.s 			page 122


 6898 0f63 0000 0000 		.long	.LVL226
 6899 0f67 0000 0000 		.long	.LVL242
 6900 0f6b 0600      		.word	0x6
 6901 0f6d 5E        		.byte	0x5e
 6902 0f6e 93        		.byte	0x93
 6903 0f6f 01        		.uleb128 0x1
 6904 0f70 5F        		.byte	0x5f
 6905 0f71 93        		.byte	0x93
 6906 0f72 01        		.uleb128 0x1
 6907 0f73 0000 0000 		.long	.LVL242
 6908 0f77 0000 0000 		.long	.LVL244
 6909 0f7b 0600      		.word	0x6
 6910 0f7d 66        		.byte	0x66
 6911 0f7e 93        		.byte	0x93
 6912 0f7f 01        		.uleb128 0x1
 6913 0f80 67        		.byte	0x67
 6914 0f81 93        		.byte	0x93
 6915 0f82 01        		.uleb128 0x1
 6916 0f83 0000 0000 		.long	.LVL245
 6917 0f87 0000 0000 		.long	.LVL249
 6918 0f8b 0600      		.word	0x6
 6919 0f8d 5E        		.byte	0x5e
 6920 0f8e 93        		.byte	0x93
 6921 0f8f 01        		.uleb128 0x1
 6922 0f90 5F        		.byte	0x5f
 6923 0f91 93        		.byte	0x93
 6924 0f92 01        		.uleb128 0x1
 6925 0f93 0000 0000 		.long	0x0
 6926 0f97 0000 0000 		.long	0x0
 6927               	.LLST108:
 6928 0f9b 0000 0000 		.long	.LVL210
 6929 0f9f 0000 0000 		.long	.LVL211
 6930 0fa3 0600      		.word	0x6
 6931 0fa5 68        		.byte	0x68
 6932 0fa6 93        		.byte	0x93
 6933 0fa7 01        		.uleb128 0x1
 6934 0fa8 69        		.byte	0x69
 6935 0fa9 93        		.byte	0x93
 6936 0faa 01        		.uleb128 0x1
 6937 0fab 0000 0000 		.long	.LVL214
 6938 0faf 0000 0000 		.long	.LVL215
 6939 0fb3 0600      		.word	0x6
 6940 0fb5 68        		.byte	0x68
 6941 0fb6 93        		.byte	0x93
 6942 0fb7 01        		.uleb128 0x1
 6943 0fb8 69        		.byte	0x69
 6944 0fb9 93        		.byte	0x93
 6945 0fba 01        		.uleb128 0x1
 6946 0fbb 0000 0000 		.long	.LVL218
 6947 0fbf 0000 0000 		.long	.LVL220
 6948 0fc3 0600      		.word	0x6
 6949 0fc5 68        		.byte	0x68
 6950 0fc6 93        		.byte	0x93
 6951 0fc7 01        		.uleb128 0x1
 6952 0fc8 69        		.byte	0x69
 6953 0fc9 93        		.byte	0x93
 6954 0fca 01        		.uleb128 0x1
GAS LISTING /var/folders/1s/lqjcb7x5323625d47g9gdgmr0000gp/T//ccbjwlOH.s 			page 123


 6955 0fcb 0000 0000 		.long	.LVL220
 6956 0fcf 0000 0000 		.long	.LVL228
 6957 0fd3 0600      		.word	0x6
 6958 0fd5 6C        		.byte	0x6c
 6959 0fd6 93        		.byte	0x93
 6960 0fd7 01        		.uleb128 0x1
 6961 0fd8 6D        		.byte	0x6d
 6962 0fd9 93        		.byte	0x93
 6963 0fda 01        		.uleb128 0x1
 6964 0fdb 0000 0000 		.long	.LVL229
 6965 0fdf 0000 0000 		.long	.LVL230
 6966 0fe3 0600      		.word	0x6
 6967 0fe5 68        		.byte	0x68
 6968 0fe6 93        		.byte	0x93
 6969 0fe7 01        		.uleb128 0x1
 6970 0fe8 69        		.byte	0x69
 6971 0fe9 93        		.byte	0x93
 6972 0fea 01        		.uleb128 0x1
 6973 0feb 0000 0000 		.long	.LVL231
 6974 0fef 0000 0000 		.long	.LVL232
 6975 0ff3 0600      		.word	0x6
 6976 0ff5 68        		.byte	0x68
 6977 0ff6 93        		.byte	0x93
 6978 0ff7 01        		.uleb128 0x1
 6979 0ff8 69        		.byte	0x69
 6980 0ff9 93        		.byte	0x93
 6981 0ffa 01        		.uleb128 0x1
 6982 0ffb 0000 0000 		.long	.LVL232
 6983 0fff 0000 0000 		.long	.LVL233
 6984 1003 0600      		.word	0x6
 6985 1005 66        		.byte	0x66
 6986 1006 93        		.byte	0x93
 6987 1007 01        		.uleb128 0x1
 6988 1008 67        		.byte	0x67
 6989 1009 93        		.byte	0x93
 6990 100a 01        		.uleb128 0x1
 6991 100b 0000 0000 		.long	.LVL234
 6992 100f 0000 0000 		.long	.LVL236
 6993 1013 0600      		.word	0x6
 6994 1015 68        		.byte	0x68
 6995 1016 93        		.byte	0x93
 6996 1017 01        		.uleb128 0x1
 6997 1018 69        		.byte	0x69
 6998 1019 93        		.byte	0x93
 6999 101a 01        		.uleb128 0x1
 7000 101b 0000 0000 		.long	.LVL247
 7001 101f 0000 0000 		.long	.LFE120
 7002 1023 0600      		.word	0x6
 7003 1025 68        		.byte	0x68
 7004 1026 93        		.byte	0x93
 7005 1027 01        		.uleb128 0x1
 7006 1028 69        		.byte	0x69
 7007 1029 93        		.byte	0x93
 7008 102a 01        		.uleb128 0x1
 7009 102b 0000 0000 		.long	0x0
 7010 102f 0000 0000 		.long	0x0
 7011               	.LLST109:
GAS LISTING /var/folders/1s/lqjcb7x5323625d47g9gdgmr0000gp/T//ccbjwlOH.s 			page 124


 7012 1033 0000 0000 		.long	.LVL205
 7013 1037 0000 0000 		.long	.LVL219
 7014 103b 0600      		.word	0x6
 7015 103d 60        		.byte	0x60
 7016 103e 93        		.byte	0x93
 7017 103f 01        		.uleb128 0x1
 7018 1040 61        		.byte	0x61
 7019 1041 93        		.byte	0x93
 7020 1042 01        		.uleb128 0x1
 7021 1043 0000 0000 		.long	.LVL227
 7022 1047 0000 0000 		.long	.LVL231
 7023 104b 0600      		.word	0x6
 7024 104d 60        		.byte	0x60
 7025 104e 93        		.byte	0x93
 7026 104f 01        		.uleb128 0x1
 7027 1050 61        		.byte	0x61
 7028 1051 93        		.byte	0x93
 7029 1052 01        		.uleb128 0x1
 7030 1053 0000 0000 		.long	.LVL231
 7031 1057 0000 0000 		.long	.LVL235
 7032 105b 0600      		.word	0x6
 7033 105d 6C        		.byte	0x6c
 7034 105e 93        		.byte	0x93
 7035 105f 01        		.uleb128 0x1
 7036 1060 6D        		.byte	0x6d
 7037 1061 93        		.byte	0x93
 7038 1062 01        		.uleb128 0x1
 7039 1063 0000 0000 		.long	.LVL235
 7040 1067 0000 0000 		.long	.LVL237
 7041 106b 0600      		.word	0x6
 7042 106d 60        		.byte	0x60
 7043 106e 93        		.byte	0x93
 7044 106f 01        		.uleb128 0x1
 7045 1070 61        		.byte	0x61
 7046 1071 93        		.byte	0x93
 7047 1072 01        		.uleb128 0x1
 7048 1073 0000 0000 		.long	.LVL237
 7049 1077 0000 0000 		.long	.LVL240
 7050 107b 0600      		.word	0x6
 7051 107d 6C        		.byte	0x6c
 7052 107e 93        		.byte	0x93
 7053 107f 01        		.uleb128 0x1
 7054 1080 6D        		.byte	0x6d
 7055 1081 93        		.byte	0x93
 7056 1082 01        		.uleb128 0x1
 7057 1083 0000 0000 		.long	.LVL240
 7058 1087 0000 0000 		.long	.LVL245
 7059 108b 0600      		.word	0x6
 7060 108d 60        		.byte	0x60
 7061 108e 93        		.byte	0x93
 7062 108f 01        		.uleb128 0x1
 7063 1090 61        		.byte	0x61
 7064 1091 93        		.byte	0x93
 7065 1092 01        		.uleb128 0x1
 7066 1093 0000 0000 		.long	.LVL245
 7067 1097 0000 0000 		.long	.LVL246
 7068 109b 0600      		.word	0x6
GAS LISTING /var/folders/1s/lqjcb7x5323625d47g9gdgmr0000gp/T//ccbjwlOH.s 			page 125


 7069 109d 6C        		.byte	0x6c
 7070 109e 93        		.byte	0x93
 7071 109f 01        		.uleb128 0x1
 7072 10a0 6D        		.byte	0x6d
 7073 10a1 93        		.byte	0x93
 7074 10a2 01        		.uleb128 0x1
 7075 10a3 0000 0000 		.long	.LVL246
 7076 10a7 0000 0000 		.long	.LVL248
 7077 10ab 0600      		.word	0x6
 7078 10ad 60        		.byte	0x60
 7079 10ae 93        		.byte	0x93
 7080 10af 01        		.uleb128 0x1
 7081 10b0 61        		.byte	0x61
 7082 10b1 93        		.byte	0x93
 7083 10b2 01        		.uleb128 0x1
 7084 10b3 0000 0000 		.long	0x0
 7085 10b7 0000 0000 		.long	0x0
 7086               	.LLST110:
 7087 10bb 0000 0000 		.long	.LVL238
 7088 10bf 0000 0000 		.long	.LVL239
 7089 10c3 0600      		.word	0x6
 7090 10c5 62        		.byte	0x62
 7091 10c6 93        		.byte	0x93
 7092 10c7 01        		.uleb128 0x1
 7093 10c8 63        		.byte	0x63
 7094 10c9 93        		.byte	0x93
 7095 10ca 01        		.uleb128 0x1
 7096 10cb 0000 0000 		.long	.LVL240
 7097 10cf 0000 0000 		.long	.LVL241
 7098 10d3 0600      		.word	0x6
 7099 10d5 6C        		.byte	0x6c
 7100 10d6 93        		.byte	0x93
 7101 10d7 01        		.uleb128 0x1
 7102 10d8 6D        		.byte	0x6d
 7103 10d9 93        		.byte	0x93
 7104 10da 01        		.uleb128 0x1
 7105 10db 0000 0000 		.long	.LVL241
 7106 10df 0000 0000 		.long	.LVL243
 7107 10e3 0600      		.word	0x6
 7108 10e5 68        		.byte	0x68
 7109 10e6 93        		.byte	0x93
 7110 10e7 01        		.uleb128 0x1
 7111 10e8 69        		.byte	0x69
 7112 10e9 93        		.byte	0x93
 7113 10ea 01        		.uleb128 0x1
 7114 10eb 0000 0000 		.long	.LVL243
 7115 10ef 0000 0000 		.long	.LVL245
 7116 10f3 0600      		.word	0x6
 7117 10f5 6C        		.byte	0x6c
 7118 10f6 93        		.byte	0x93
 7119 10f7 01        		.uleb128 0x1
 7120 10f8 6D        		.byte	0x6d
 7121 10f9 93        		.byte	0x93
 7122 10fa 01        		.uleb128 0x1
 7123 10fb 0000 0000 		.long	.LVL246
 7124 10ff 0000 0000 		.long	.LVL247
 7125 1103 0600      		.word	0x6
GAS LISTING /var/folders/1s/lqjcb7x5323625d47g9gdgmr0000gp/T//ccbjwlOH.s 			page 126


 7126 1105 62        		.byte	0x62
 7127 1106 93        		.byte	0x93
 7128 1107 01        		.uleb128 0x1
 7129 1108 63        		.byte	0x63
 7130 1109 93        		.byte	0x93
 7131 110a 01        		.uleb128 0x1
 7132 110b 0000 0000 		.long	.LVL247
 7133 110f 0000 0000 		.long	.LFE120
 7134 1113 0600      		.word	0x6
 7135 1115 68        		.byte	0x68
 7136 1116 93        		.byte	0x93
 7137 1117 01        		.uleb128 0x1
 7138 1118 69        		.byte	0x69
 7139 1119 93        		.byte	0x93
 7140 111a 01        		.uleb128 0x1
 7141 111b 0000 0000 		.long	0x0
 7142 111f 0000 0000 		.long	0x0
 7143               	.LLST111:
 7144 1123 0000 0000 		.long	.LVL216
 7145 1127 0000 0000 		.long	.LVL217
 7146 112b 0600      		.word	0x6
 7147 112d 5C        		.byte	0x5c
 7148 112e 93        		.byte	0x93
 7149 112f 01        		.uleb128 0x1
 7150 1130 5D        		.byte	0x5d
 7151 1131 93        		.byte	0x93
 7152 1132 01        		.uleb128 0x1
 7153 1133 0000 0000 		.long	.LVL218
 7154 1137 0000 0000 		.long	.LVL220
 7155 113b 0600      		.word	0x6
 7156 113d 5C        		.byte	0x5c
 7157 113e 93        		.byte	0x93
 7158 113f 01        		.uleb128 0x1
 7159 1140 5D        		.byte	0x5d
 7160 1141 93        		.byte	0x93
 7161 1142 01        		.uleb128 0x1
 7162 1143 0000 0000 		.long	.LVL223
 7163 1147 0000 0000 		.long	.LVL224
 7164 114b 0600      		.word	0x6
 7165 114d 5C        		.byte	0x5c
 7166 114e 93        		.byte	0x93
 7167 114f 01        		.uleb128 0x1
 7168 1150 5D        		.byte	0x5d
 7169 1151 93        		.byte	0x93
 7170 1152 01        		.uleb128 0x1
 7171 1153 0000 0000 		.long	.LVL225
 7172 1157 0000 0000 		.long	.LVL231
 7173 115b 0600      		.word	0x6
 7174 115d 5C        		.byte	0x5c
 7175 115e 93        		.byte	0x93
 7176 115f 01        		.uleb128 0x1
 7177 1160 5D        		.byte	0x5d
 7178 1161 93        		.byte	0x93
 7179 1162 01        		.uleb128 0x1
 7180 1163 0000 0000 		.long	.LVL247
 7181 1167 0000 0000 		.long	.LVL250
 7182 116b 0600      		.word	0x6
GAS LISTING /var/folders/1s/lqjcb7x5323625d47g9gdgmr0000gp/T//ccbjwlOH.s 			page 127


 7183 116d 5C        		.byte	0x5c
 7184 116e 93        		.byte	0x93
 7185 116f 01        		.uleb128 0x1
 7186 1170 5D        		.byte	0x5d
 7187 1171 93        		.byte	0x93
 7188 1172 01        		.uleb128 0x1
 7189 1173 0000 0000 		.long	0x0
 7190 1177 0000 0000 		.long	0x0
 7191               	.LLST112:
 7192 117b 0000 0000 		.long	.LVL219
 7193 117f 0000 0000 		.long	.LVL222
 7194 1183 0600      		.word	0x6
 7195 1185 60        		.byte	0x60
 7196 1186 93        		.byte	0x93
 7197 1187 01        		.uleb128 0x1
 7198 1188 61        		.byte	0x61
 7199 1189 93        		.byte	0x93
 7200 118a 01        		.uleb128 0x1
 7201 118b 0000 0000 		.long	.LVL223
 7202 118f 0000 0000 		.long	.LFE120
 7203 1193 0600      		.word	0x6
 7204 1195 60        		.byte	0x60
 7205 1196 93        		.byte	0x93
 7206 1197 01        		.uleb128 0x1
 7207 1198 61        		.byte	0x61
 7208 1199 93        		.byte	0x93
 7209 119a 01        		.uleb128 0x1
 7210 119b 0000 0000 		.long	0x0
 7211 119f 0000 0000 		.long	0x0
 7212               	.LLST114:
 7213 11a3 0000 0000 		.long	.LVL254
 7214 11a7 0000 0000 		.long	.LVL255
 7215 11ab 0600      		.word	0x6
 7216 11ad 68        		.byte	0x68
 7217 11ae 93        		.byte	0x93
 7218 11af 01        		.uleb128 0x1
 7219 11b0 69        		.byte	0x69
 7220 11b1 93        		.byte	0x93
 7221 11b2 01        		.uleb128 0x1
 7222 11b3 0000 0000 		.long	.LVL255
 7223 11b7 0000 0000 		.long	.LVL258
 7224 11bb 0600      		.word	0x6
 7225 11bd 6C        		.byte	0x6c
 7226 11be 93        		.byte	0x93
 7227 11bf 01        		.uleb128 0x1
 7228 11c0 6D        		.byte	0x6d
 7229 11c1 93        		.byte	0x93
 7230 11c2 01        		.uleb128 0x1
 7231 11c3 0000 0000 		.long	0x0
 7232 11c7 0000 0000 		.long	0x0
 7233               	.LLST115:
 7234 11cb 0000 0000 		.long	.LVL254
 7235 11cf 0000 0000 		.long	.LVL256
 7236 11d3 0600      		.word	0x6
 7237 11d5 66        		.byte	0x66
 7238 11d6 93        		.byte	0x93
 7239 11d7 01        		.uleb128 0x1
GAS LISTING /var/folders/1s/lqjcb7x5323625d47g9gdgmr0000gp/T//ccbjwlOH.s 			page 128


 7240 11d8 67        		.byte	0x67
 7241 11d9 93        		.byte	0x93
 7242 11da 01        		.uleb128 0x1
 7243 11db 0000 0000 		.long	.LVL257
 7244 11df 0000 0000 		.long	.LFE71
 7245 11e3 0600      		.word	0x6
 7246 11e5 66        		.byte	0x66
 7247 11e6 93        		.byte	0x93
 7248 11e7 01        		.uleb128 0x1
 7249 11e8 67        		.byte	0x67
 7250 11e9 93        		.byte	0x93
 7251 11ea 01        		.uleb128 0x1
 7252 11eb 0000 0000 		.long	0x0
 7253 11ef 0000 0000 		.long	0x0
 7254               	.LLST117:
 7255 11f3 0000 0000 		.long	.LVL259
 7256 11f7 0000 0000 		.long	.LVL261
 7257 11fb 0600      		.word	0x6
 7258 11fd 68        		.byte	0x68
 7259 11fe 93        		.byte	0x93
 7260 11ff 01        		.uleb128 0x1
 7261 1200 69        		.byte	0x69
 7262 1201 93        		.byte	0x93
 7263 1202 01        		.uleb128 0x1
 7264 1203 0000 0000 		.long	.LVL261
 7265 1207 0000 0000 		.long	.LVL266
 7266 120b 0600      		.word	0x6
 7267 120d 6C        		.byte	0x6c
 7268 120e 93        		.byte	0x93
 7269 120f 01        		.uleb128 0x1
 7270 1210 6D        		.byte	0x6d
 7271 1211 93        		.byte	0x93
 7272 1212 01        		.uleb128 0x1
 7273 1213 0000 0000 		.long	0x0
 7274 1217 0000 0000 		.long	0x0
 7275               	.LLST118:
 7276 121b 0000 0000 		.long	.LVL259
 7277 121f 0000 0000 		.long	.LVL260
 7278 1223 0600      		.word	0x6
 7279 1225 66        		.byte	0x66
 7280 1226 93        		.byte	0x93
 7281 1227 01        		.uleb128 0x1
 7282 1228 67        		.byte	0x67
 7283 1229 93        		.byte	0x93
 7284 122a 01        		.uleb128 0x1
 7285 122b 0000 0000 		.long	.LVL260
 7286 122f 0000 0000 		.long	.LVL268
 7287 1233 0600      		.word	0x6
 7288 1235 5E        		.byte	0x5e
 7289 1236 93        		.byte	0x93
 7290 1237 01        		.uleb128 0x1
 7291 1238 5F        		.byte	0x5f
 7292 1239 93        		.byte	0x93
 7293 123a 01        		.uleb128 0x1
 7294 123b 0000 0000 		.long	0x0
 7295 123f 0000 0000 		.long	0x0
 7296               	.LLST119:
GAS LISTING /var/folders/1s/lqjcb7x5323625d47g9gdgmr0000gp/T//ccbjwlOH.s 			page 129


 7297 1243 0000 0000 		.long	.LVL259
 7298 1247 0000 0000 		.long	.LVL263
 7299 124b 0600      		.word	0x6
 7300 124d 64        		.byte	0x64
 7301 124e 93        		.byte	0x93
 7302 124f 01        		.uleb128 0x1
 7303 1250 65        		.byte	0x65
 7304 1251 93        		.byte	0x93
 7305 1252 01        		.uleb128 0x1
 7306 1253 0000 0000 		.long	.LVL264
 7307 1257 0000 0000 		.long	.LFE77
 7308 125b 0600      		.word	0x6
 7309 125d 64        		.byte	0x64
 7310 125e 93        		.byte	0x93
 7311 125f 01        		.uleb128 0x1
 7312 1260 65        		.byte	0x65
 7313 1261 93        		.byte	0x93
 7314 1262 01        		.uleb128 0x1
 7315 1263 0000 0000 		.long	0x0
 7316 1267 0000 0000 		.long	0x0
 7317               	.LLST120:
 7318 126b 0000 0000 		.long	.LVL262
 7319 126f 0000 0000 		.long	.LVL267
 7320 1273 0600      		.word	0x6
 7321 1275 60        		.byte	0x60
 7322 1276 93        		.byte	0x93
 7323 1277 01        		.uleb128 0x1
 7324 1278 61        		.byte	0x61
 7325 1279 93        		.byte	0x93
 7326 127a 01        		.uleb128 0x1
 7327 127b 0000 0000 		.long	0x0
 7328 127f 0000 0000 		.long	0x0
 7329               	.LLST122:
 7330 1283 0000 0000 		.long	.LVL269
 7331 1287 0000 0000 		.long	.LVL271
 7332 128b 0600      		.word	0x6
 7333 128d 68        		.byte	0x68
 7334 128e 93        		.byte	0x93
 7335 128f 01        		.uleb128 0x1
 7336 1290 69        		.byte	0x69
 7337 1291 93        		.byte	0x93
 7338 1292 01        		.uleb128 0x1
 7339 1293 0000 0000 		.long	.LVL271
 7340 1297 0000 0000 		.long	.LVL272
 7341 129b 0600      		.word	0x6
 7342 129d 5E        		.byte	0x5e
 7343 129e 93        		.byte	0x93
 7344 129f 01        		.uleb128 0x1
 7345 12a0 5F        		.byte	0x5f
 7346 12a1 93        		.byte	0x93
 7347 12a2 01        		.uleb128 0x1
 7348 12a3 0000 0000 		.long	0x0
 7349 12a7 0000 0000 		.long	0x0
 7350               	.LLST123:
 7351 12ab 0000 0000 		.long	.LVL269
 7352 12af 0000 0000 		.long	.LVL270
 7353 12b3 0C00      		.word	0xc
GAS LISTING /var/folders/1s/lqjcb7x5323625d47g9gdgmr0000gp/T//ccbjwlOH.s 			page 130


 7354 12b5 64        		.byte	0x64
 7355 12b6 93        		.byte	0x93
 7356 12b7 01        		.uleb128 0x1
 7357 12b8 65        		.byte	0x65
 7358 12b9 93        		.byte	0x93
 7359 12ba 01        		.uleb128 0x1
 7360 12bb 66        		.byte	0x66
 7361 12bc 93        		.byte	0x93
 7362 12bd 01        		.uleb128 0x1
 7363 12be 67        		.byte	0x67
 7364 12bf 93        		.byte	0x93
 7365 12c0 01        		.uleb128 0x1
 7366 12c1 0000 0000 		.long	0x0
 7367 12c5 0000 0000 		.long	0x0
 7368               	.LLST125:
 7369 12c9 0000 0000 		.long	.LVL273
 7370 12cd 0000 0000 		.long	.LVL275
 7371 12d1 0600      		.word	0x6
 7372 12d3 68        		.byte	0x68
 7373 12d4 93        		.byte	0x93
 7374 12d5 01        		.uleb128 0x1
 7375 12d6 69        		.byte	0x69
 7376 12d7 93        		.byte	0x93
 7377 12d8 01        		.uleb128 0x1
 7378 12d9 0000 0000 		.long	.LVL275
 7379 12dd 0000 0000 		.long	.LVL276
 7380 12e1 0600      		.word	0x6
 7381 12e3 5E        		.byte	0x5e
 7382 12e4 93        		.byte	0x93
 7383 12e5 01        		.uleb128 0x1
 7384 12e6 5F        		.byte	0x5f
 7385 12e7 93        		.byte	0x93
 7386 12e8 01        		.uleb128 0x1
 7387 12e9 0000 0000 		.long	0x0
 7388 12ed 0000 0000 		.long	0x0
 7389               	.LLST126:
 7390 12f1 0000 0000 		.long	.LVL273
 7391 12f5 0000 0000 		.long	.LVL274
 7392 12f9 0C00      		.word	0xc
 7393 12fb 64        		.byte	0x64
 7394 12fc 93        		.byte	0x93
 7395 12fd 01        		.uleb128 0x1
 7396 12fe 65        		.byte	0x65
 7397 12ff 93        		.byte	0x93
 7398 1300 01        		.uleb128 0x1
 7399 1301 66        		.byte	0x66
 7400 1302 93        		.byte	0x93
 7401 1303 01        		.uleb128 0x1
 7402 1304 67        		.byte	0x67
 7403 1305 93        		.byte	0x93
 7404 1306 01        		.uleb128 0x1
 7405 1307 0000 0000 		.long	0x0
 7406 130b 0000 0000 		.long	0x0
 7407               	.LLST128:
 7408 130f 0000 0000 		.long	.LVL277
 7409 1313 0000 0000 		.long	.LVL278
 7410 1317 0600      		.word	0x6
GAS LISTING /var/folders/1s/lqjcb7x5323625d47g9gdgmr0000gp/T//ccbjwlOH.s 			page 131


 7411 1319 68        		.byte	0x68
 7412 131a 93        		.byte	0x93
 7413 131b 01        		.uleb128 0x1
 7414 131c 69        		.byte	0x69
 7415 131d 93        		.byte	0x93
 7416 131e 01        		.uleb128 0x1
 7417 131f 0000 0000 		.long	.LVL278
 7418 1323 0000 0000 		.long	.LVL281
 7419 1327 0600      		.word	0x6
 7420 1329 5E        		.byte	0x5e
 7421 132a 93        		.byte	0x93
 7422 132b 01        		.uleb128 0x1
 7423 132c 5F        		.byte	0x5f
 7424 132d 93        		.byte	0x93
 7425 132e 01        		.uleb128 0x1
 7426 132f 0000 0000 		.long	0x0
 7427 1333 0000 0000 		.long	0x0
 7428               	.LLST129:
 7429 1337 0000 0000 		.long	.LVL277
 7430 133b 0000 0000 		.long	.LVL279
 7431 133f 0600      		.word	0x6
 7432 1341 66        		.byte	0x66
 7433 1342 93        		.byte	0x93
 7434 1343 01        		.uleb128 0x1
 7435 1344 67        		.byte	0x67
 7436 1345 93        		.byte	0x93
 7437 1346 01        		.uleb128 0x1
 7438 1347 0000 0000 		.long	.LVL279
 7439 134b 0000 0000 		.long	.LVL280
 7440 134f 0600      		.word	0x6
 7441 1351 68        		.byte	0x68
 7442 1352 93        		.byte	0x93
 7443 1353 01        		.uleb128 0x1
 7444 1354 69        		.byte	0x69
 7445 1355 93        		.byte	0x93
 7446 1356 01        		.uleb128 0x1
 7447 1357 0000 0000 		.long	0x0
 7448 135b 0000 0000 		.long	0x0
 7449               	.LLST131:
 7450 135f 0000 0000 		.long	.LVL282
 7451 1363 0000 0000 		.long	.LVL283
 7452 1367 0600      		.word	0x6
 7453 1369 68        		.byte	0x68
 7454 136a 93        		.byte	0x93
 7455 136b 01        		.uleb128 0x1
 7456 136c 69        		.byte	0x69
 7457 136d 93        		.byte	0x93
 7458 136e 01        		.uleb128 0x1
 7459 136f 0000 0000 		.long	.LVL283
 7460 1373 0000 0000 		.long	.LVL286
 7461 1377 0600      		.word	0x6
 7462 1379 5E        		.byte	0x5e
 7463 137a 93        		.byte	0x93
 7464 137b 01        		.uleb128 0x1
 7465 137c 5F        		.byte	0x5f
 7466 137d 93        		.byte	0x93
 7467 137e 01        		.uleb128 0x1
GAS LISTING /var/folders/1s/lqjcb7x5323625d47g9gdgmr0000gp/T//ccbjwlOH.s 			page 132


 7468 137f 0000 0000 		.long	0x0
 7469 1383 0000 0000 		.long	0x0
 7470               	.LLST132:
 7471 1387 0000 0000 		.long	.LVL282
 7472 138b 0000 0000 		.long	.LVL284
 7473 138f 0600      		.word	0x6
 7474 1391 66        		.byte	0x66
 7475 1392 93        		.byte	0x93
 7476 1393 01        		.uleb128 0x1
 7477 1394 67        		.byte	0x67
 7478 1395 93        		.byte	0x93
 7479 1396 01        		.uleb128 0x1
 7480 1397 0000 0000 		.long	.LVL284
 7481 139b 0000 0000 		.long	.LVL285
 7482 139f 0600      		.word	0x6
 7483 13a1 68        		.byte	0x68
 7484 13a2 93        		.byte	0x93
 7485 13a3 01        		.uleb128 0x1
 7486 13a4 69        		.byte	0x69
 7487 13a5 93        		.byte	0x93
 7488 13a6 01        		.uleb128 0x1
 7489 13a7 0000 0000 		.long	0x0
 7490 13ab 0000 0000 		.long	0x0
 7491               	.LLST134:
 7492 13af 0000 0000 		.long	.LVL287
 7493 13b3 0000 0000 		.long	.LVL288
 7494 13b7 0600      		.word	0x6
 7495 13b9 68        		.byte	0x68
 7496 13ba 93        		.byte	0x93
 7497 13bb 01        		.uleb128 0x1
 7498 13bc 69        		.byte	0x69
 7499 13bd 93        		.byte	0x93
 7500 13be 01        		.uleb128 0x1
 7501 13bf 0000 0000 		.long	.LVL288
 7502 13c3 0000 0000 		.long	.LVL291
 7503 13c7 0600      		.word	0x6
 7504 13c9 5E        		.byte	0x5e
 7505 13ca 93        		.byte	0x93
 7506 13cb 01        		.uleb128 0x1
 7507 13cc 5F        		.byte	0x5f
 7508 13cd 93        		.byte	0x93
 7509 13ce 01        		.uleb128 0x1
 7510 13cf 0000 0000 		.long	0x0
 7511 13d3 0000 0000 		.long	0x0
 7512               	.LLST135:
 7513 13d7 0000 0000 		.long	.LVL287
 7514 13db 0000 0000 		.long	.LVL289
 7515 13df 0100      		.word	0x1
 7516 13e1 66        		.byte	0x66
 7517 13e2 0000 0000 		.long	.LVL289
 7518 13e6 0000 0000 		.long	.LVL290
 7519 13ea 0100      		.word	0x1
 7520 13ec 68        		.byte	0x68
 7521 13ed 0000 0000 		.long	0x0
 7522 13f1 0000 0000 		.long	0x0
 7523               	.LLST137:
 7524 13f5 0000 0000 		.long	.LVL292
GAS LISTING /var/folders/1s/lqjcb7x5323625d47g9gdgmr0000gp/T//ccbjwlOH.s 			page 133


 7525 13f9 0000 0000 		.long	.LVL294
 7526 13fd 0600      		.word	0x6
 7527 13ff 68        		.byte	0x68
 7528 1400 93        		.byte	0x93
 7529 1401 01        		.uleb128 0x1
 7530 1402 69        		.byte	0x69
 7531 1403 93        		.byte	0x93
 7532 1404 01        		.uleb128 0x1
 7533 1405 0000 0000 		.long	0x0
 7534 1409 0000 0000 		.long	0x0
 7535               	.LLST138:
 7536 140d 0000 0000 		.long	.LVL292
 7537 1411 0000 0000 		.long	.LVL293
 7538 1415 0100      		.word	0x1
 7539 1417 66        		.byte	0x66
 7540 1418 0000 0000 		.long	0x0
 7541 141c 0000 0000 		.long	0x0
 7542               	.LLST140:
 7543 1420 0000 0000 		.long	.LVL295
 7544 1424 0000 0000 		.long	.LVL296
 7545 1428 0600      		.word	0x6
 7546 142a 68        		.byte	0x68
 7547 142b 93        		.byte	0x93
 7548 142c 01        		.uleb128 0x1
 7549 142d 69        		.byte	0x69
 7550 142e 93        		.byte	0x93
 7551 142f 01        		.uleb128 0x1
 7552 1430 0000 0000 		.long	.LVL297
 7553 1434 0000 0000 		.long	.LVL298
 7554 1438 0600      		.word	0x6
 7555 143a 68        		.byte	0x68
 7556 143b 93        		.byte	0x93
 7557 143c 01        		.uleb128 0x1
 7558 143d 69        		.byte	0x69
 7559 143e 93        		.byte	0x93
 7560 143f 01        		.uleb128 0x1
 7561 1440 0000 0000 		.long	0x0
 7562 1444 0000 0000 		.long	0x0
 7563               	.LLST141:
 7564 1448 0000 0000 		.long	.LVL295
 7565 144c 0000 0000 		.long	.LVL298
 7566 1450 0600      		.word	0x6
 7567 1452 66        		.byte	0x66
 7568 1453 93        		.byte	0x93
 7569 1454 01        		.uleb128 0x1
 7570 1455 67        		.byte	0x67
 7571 1456 93        		.byte	0x93
 7572 1457 01        		.uleb128 0x1
 7573 1458 0000 0000 		.long	0x0
 7574 145c 0000 0000 		.long	0x0
 7575               	.LLST143:
 7576 1460 0000 0000 		.long	.LVL299
 7577 1464 0000 0000 		.long	.LVL301
 7578 1468 0600      		.word	0x6
 7579 146a 68        		.byte	0x68
 7580 146b 93        		.byte	0x93
 7581 146c 01        		.uleb128 0x1
GAS LISTING /var/folders/1s/lqjcb7x5323625d47g9gdgmr0000gp/T//ccbjwlOH.s 			page 134


 7582 146d 69        		.byte	0x69
 7583 146e 93        		.byte	0x93
 7584 146f 01        		.uleb128 0x1
 7585 1470 0000 0000 		.long	0x0
 7586 1474 0000 0000 		.long	0x0
 7587               	.LLST144:
 7588 1478 0000 0000 		.long	.LVL299
 7589 147c 0000 0000 		.long	.LVL300
 7590 1480 0600      		.word	0x6
 7591 1482 66        		.byte	0x66
 7592 1483 93        		.byte	0x93
 7593 1484 01        		.uleb128 0x1
 7594 1485 67        		.byte	0x67
 7595 1486 93        		.byte	0x93
 7596 1487 01        		.uleb128 0x1
 7597 1488 0000 0000 		.long	.LVL300
 7598 148c 0000 0000 		.long	.LVL301
 7599 1490 0600      		.word	0x6
 7600 1492 6E        		.byte	0x6e
 7601 1493 93        		.byte	0x93
 7602 1494 01        		.uleb128 0x1
 7603 1495 6F        		.byte	0x6f
 7604 1496 93        		.byte	0x93
 7605 1497 01        		.uleb128 0x1
 7606 1498 0000 0000 		.long	0x0
 7607 149c 0000 0000 		.long	0x0
 7608               	.LLST146:
 7609 14a0 0000 0000 		.long	.LVL302
 7610 14a4 0000 0000 		.long	.LVL303
 7611 14a8 0600      		.word	0x6
 7612 14aa 68        		.byte	0x68
 7613 14ab 93        		.byte	0x93
 7614 14ac 01        		.uleb128 0x1
 7615 14ad 69        		.byte	0x69
 7616 14ae 93        		.byte	0x93
 7617 14af 01        		.uleb128 0x1
 7618 14b0 0000 0000 		.long	.LVL303
 7619 14b4 0000 0000 		.long	.LVL304
 7620 14b8 0600      		.word	0x6
 7621 14ba 6C        		.byte	0x6c
 7622 14bb 93        		.byte	0x93
 7623 14bc 01        		.uleb128 0x1
 7624 14bd 6D        		.byte	0x6d
 7625 14be 93        		.byte	0x93
 7626 14bf 01        		.uleb128 0x1
 7627 14c0 0000 0000 		.long	0x0
 7628 14c4 0000 0000 		.long	0x0
 7629               	.LLST148:
 7630 14c8 0000 0000 		.long	.LVL305
 7631 14cc 0000 0000 		.long	.LVL306
 7632 14d0 0600      		.word	0x6
 7633 14d2 68        		.byte	0x68
 7634 14d3 93        		.byte	0x93
 7635 14d4 01        		.uleb128 0x1
 7636 14d5 69        		.byte	0x69
 7637 14d6 93        		.byte	0x93
 7638 14d7 01        		.uleb128 0x1
GAS LISTING /var/folders/1s/lqjcb7x5323625d47g9gdgmr0000gp/T//ccbjwlOH.s 			page 135


 7639 14d8 0000 0000 		.long	.LVL306
 7640 14dc 0000 0000 		.long	.LVL307
 7641 14e0 0600      		.word	0x6
 7642 14e2 61        		.byte	0x61
 7643 14e3 93        		.byte	0x93
 7644 14e4 01        		.uleb128 0x1
 7645 14e5 69        		.byte	0x69
 7646 14e6 93        		.byte	0x93
 7647 14e7 01        		.uleb128 0x1
 7648 14e8 0000 0000 		.long	.LVL307
 7649 14ec 0000 0000 		.long	.LVL308
 7650 14f0 0600      		.word	0x6
 7651 14f2 61        		.byte	0x61
 7652 14f3 93        		.byte	0x93
 7653 14f4 01        		.uleb128 0x1
 7654 14f5 60        		.byte	0x60
 7655 14f6 93        		.byte	0x93
 7656 14f7 01        		.uleb128 0x1
 7657 14f8 0000 0000 		.long	0x0
 7658 14fc 0000 0000 		.long	0x0
 7659               	.LLST149:
 7660 1500 0000 0000 		.long	.LVL305
 7661 1504 0000 0000 		.long	.LVL307
 7662 1508 0C00      		.word	0xc
 7663 150a 64        		.byte	0x64
 7664 150b 93        		.byte	0x93
 7665 150c 01        		.uleb128 0x1
 7666 150d 65        		.byte	0x65
 7667 150e 93        		.byte	0x93
 7668 150f 01        		.uleb128 0x1
 7669 1510 66        		.byte	0x66
 7670 1511 93        		.byte	0x93
 7671 1512 01        		.uleb128 0x1
 7672 1513 67        		.byte	0x67
 7673 1514 93        		.byte	0x93
 7674 1515 01        		.uleb128 0x1
 7675 1516 0000 0000 		.long	0x0
 7676 151a 0000 0000 		.long	0x0
 7677               	.LLST151:
 7678 151e 0000 0000 		.long	.LVL310
 7679 1522 0000 0000 		.long	.LVL311
 7680 1526 0600      		.word	0x6
 7681 1528 68        		.byte	0x68
 7682 1529 93        		.byte	0x93
 7683 152a 01        		.uleb128 0x1
 7684 152b 69        		.byte	0x69
 7685 152c 93        		.byte	0x93
 7686 152d 01        		.uleb128 0x1
 7687 152e 0000 0000 		.long	.LVL311
 7688 1532 0000 0000 		.long	.LVL312
 7689 1536 0600      		.word	0x6
 7690 1538 61        		.byte	0x61
 7691 1539 93        		.byte	0x93
 7692 153a 01        		.uleb128 0x1
 7693 153b 69        		.byte	0x69
 7694 153c 93        		.byte	0x93
 7695 153d 01        		.uleb128 0x1
GAS LISTING /var/folders/1s/lqjcb7x5323625d47g9gdgmr0000gp/T//ccbjwlOH.s 			page 136


 7696 153e 0000 0000 		.long	.LVL312
 7697 1542 0000 0000 		.long	.LVL313
 7698 1546 0600      		.word	0x6
 7699 1548 61        		.byte	0x61
 7700 1549 93        		.byte	0x93
 7701 154a 01        		.uleb128 0x1
 7702 154b 60        		.byte	0x60
 7703 154c 93        		.byte	0x93
 7704 154d 01        		.uleb128 0x1
 7705 154e 0000 0000 		.long	0x0
 7706 1552 0000 0000 		.long	0x0
 7707               	.LLST152:
 7708 1556 0000 0000 		.long	.LVL310
 7709 155a 0000 0000 		.long	.LVL312
 7710 155e 0C00      		.word	0xc
 7711 1560 64        		.byte	0x64
 7712 1561 93        		.byte	0x93
 7713 1562 01        		.uleb128 0x1
 7714 1563 65        		.byte	0x65
 7715 1564 93        		.byte	0x93
 7716 1565 01        		.uleb128 0x1
 7717 1566 66        		.byte	0x66
 7718 1567 93        		.byte	0x93
 7719 1568 01        		.uleb128 0x1
 7720 1569 67        		.byte	0x67
 7721 156a 93        		.byte	0x93
 7722 156b 01        		.uleb128 0x1
 7723 156c 0000 0000 		.long	0x0
 7724 1570 0000 0000 		.long	0x0
 7725               	.LLST154:
 7726 1574 0000 0000 		.long	.LVL315
 7727 1578 0000 0000 		.long	.LVL316
 7728 157c 0600      		.word	0x6
 7729 157e 68        		.byte	0x68
 7730 157f 93        		.byte	0x93
 7731 1580 01        		.uleb128 0x1
 7732 1581 69        		.byte	0x69
 7733 1582 93        		.byte	0x93
 7734 1583 01        		.uleb128 0x1
 7735 1584 0000 0000 		.long	.LVL316
 7736 1588 0000 0000 		.long	.LVL317
 7737 158c 0600      		.word	0x6
 7738 158e 61        		.byte	0x61
 7739 158f 93        		.byte	0x93
 7740 1590 01        		.uleb128 0x1
 7741 1591 69        		.byte	0x69
 7742 1592 93        		.byte	0x93
 7743 1593 01        		.uleb128 0x1
 7744 1594 0000 0000 		.long	.LVL317
 7745 1598 0000 0000 		.long	.LVL318
 7746 159c 0600      		.word	0x6
 7747 159e 61        		.byte	0x61
 7748 159f 93        		.byte	0x93
 7749 15a0 01        		.uleb128 0x1
 7750 15a1 60        		.byte	0x60
 7751 15a2 93        		.byte	0x93
 7752 15a3 01        		.uleb128 0x1
GAS LISTING /var/folders/1s/lqjcb7x5323625d47g9gdgmr0000gp/T//ccbjwlOH.s 			page 137


 7753 15a4 0000 0000 		.long	0x0
 7754 15a8 0000 0000 		.long	0x0
 7755               	.LLST155:
 7756 15ac 0000 0000 		.long	.LVL315
 7757 15b0 0000 0000 		.long	.LVL317
 7758 15b4 0600      		.word	0x6
 7759 15b6 66        		.byte	0x66
 7760 15b7 93        		.byte	0x93
 7761 15b8 01        		.uleb128 0x1
 7762 15b9 67        		.byte	0x67
 7763 15ba 93        		.byte	0x93
 7764 15bb 01        		.uleb128 0x1
 7765 15bc 0000 0000 		.long	0x0
 7766 15c0 0000 0000 		.long	0x0
 7767               	.LLST157:
 7768 15c4 0000 0000 		.long	.LVL320
 7769 15c8 0000 0000 		.long	.LVL321
 7770 15cc 0600      		.word	0x6
 7771 15ce 68        		.byte	0x68
 7772 15cf 93        		.byte	0x93
 7773 15d0 01        		.uleb128 0x1
 7774 15d1 69        		.byte	0x69
 7775 15d2 93        		.byte	0x93
 7776 15d3 01        		.uleb128 0x1
 7777 15d4 0000 0000 		.long	.LVL321
 7778 15d8 0000 0000 		.long	.LVL322
 7779 15dc 0600      		.word	0x6
 7780 15de 61        		.byte	0x61
 7781 15df 93        		.byte	0x93
 7782 15e0 01        		.uleb128 0x1
 7783 15e1 69        		.byte	0x69
 7784 15e2 93        		.byte	0x93
 7785 15e3 01        		.uleb128 0x1
 7786 15e4 0000 0000 		.long	.LVL322
 7787 15e8 0000 0000 		.long	.LVL323
 7788 15ec 0600      		.word	0x6
 7789 15ee 61        		.byte	0x61
 7790 15ef 93        		.byte	0x93
 7791 15f0 01        		.uleb128 0x1
 7792 15f1 60        		.byte	0x60
 7793 15f2 93        		.byte	0x93
 7794 15f3 01        		.uleb128 0x1
 7795 15f4 0000 0000 		.long	0x0
 7796 15f8 0000 0000 		.long	0x0
 7797               	.LLST158:
 7798 15fc 0000 0000 		.long	.LVL320
 7799 1600 0000 0000 		.long	.LVL322
 7800 1604 0600      		.word	0x6
 7801 1606 66        		.byte	0x66
 7802 1607 93        		.byte	0x93
 7803 1608 01        		.uleb128 0x1
 7804 1609 67        		.byte	0x67
 7805 160a 93        		.byte	0x93
 7806 160b 01        		.uleb128 0x1
 7807 160c 0000 0000 		.long	0x0
 7808 1610 0000 0000 		.long	0x0
 7809               	.LLST160:
GAS LISTING /var/folders/1s/lqjcb7x5323625d47g9gdgmr0000gp/T//ccbjwlOH.s 			page 138


 7810 1614 0000 0000 		.long	.LVL325
 7811 1618 0000 0000 		.long	.LVL326
 7812 161c 0600      		.word	0x6
 7813 161e 68        		.byte	0x68
 7814 161f 93        		.byte	0x93
 7815 1620 01        		.uleb128 0x1
 7816 1621 69        		.byte	0x69
 7817 1622 93        		.byte	0x93
 7818 1623 01        		.uleb128 0x1
 7819 1624 0000 0000 		.long	.LVL326
 7820 1628 0000 0000 		.long	.LVL327
 7821 162c 0600      		.word	0x6
 7822 162e 61        		.byte	0x61
 7823 162f 93        		.byte	0x93
 7824 1630 01        		.uleb128 0x1
 7825 1631 69        		.byte	0x69
 7826 1632 93        		.byte	0x93
 7827 1633 01        		.uleb128 0x1
 7828 1634 0000 0000 		.long	.LVL327
 7829 1638 0000 0000 		.long	.LVL328
 7830 163c 0600      		.word	0x6
 7831 163e 61        		.byte	0x61
 7832 163f 93        		.byte	0x93
 7833 1640 01        		.uleb128 0x1
 7834 1641 60        		.byte	0x60
 7835 1642 93        		.byte	0x93
 7836 1643 01        		.uleb128 0x1
 7837 1644 0000 0000 		.long	0x0
 7838 1648 0000 0000 		.long	0x0
 7839               	.LLST161:
 7840 164c 0000 0000 		.long	.LVL325
 7841 1650 0000 0000 		.long	.LVL327
 7842 1654 0100      		.word	0x1
 7843 1656 66        		.byte	0x66
 7844 1657 0000 0000 		.long	0x0
 7845 165b 0000 0000 		.long	0x0
 7846               	.LLST163:
 7847 165f 0000 0000 		.long	.LVL330
 7848 1663 0000 0000 		.long	.LVL331
 7849 1667 0600      		.word	0x6
 7850 1669 68        		.byte	0x68
 7851 166a 93        		.byte	0x93
 7852 166b 01        		.uleb128 0x1
 7853 166c 69        		.byte	0x69
 7854 166d 93        		.byte	0x93
 7855 166e 01        		.uleb128 0x1
 7856 166f 0000 0000 		.long	.LVL331
 7857 1673 0000 0000 		.long	.LVL332
 7858 1677 0600      		.word	0x6
 7859 1679 61        		.byte	0x61
 7860 167a 93        		.byte	0x93
 7861 167b 01        		.uleb128 0x1
 7862 167c 69        		.byte	0x69
 7863 167d 93        		.byte	0x93
 7864 167e 01        		.uleb128 0x1
 7865 167f 0000 0000 		.long	.LVL332
 7866 1683 0000 0000 		.long	.LVL333
GAS LISTING /var/folders/1s/lqjcb7x5323625d47g9gdgmr0000gp/T//ccbjwlOH.s 			page 139


 7867 1687 0600      		.word	0x6
 7868 1689 61        		.byte	0x61
 7869 168a 93        		.byte	0x93
 7870 168b 01        		.uleb128 0x1
 7871 168c 60        		.byte	0x60
 7872 168d 93        		.byte	0x93
 7873 168e 01        		.uleb128 0x1
 7874 168f 0000 0000 		.long	0x0
 7875 1693 0000 0000 		.long	0x0
 7876               	.LLST164:
 7877 1697 0000 0000 		.long	.LVL330
 7878 169b 0000 0000 		.long	.LVL332
 7879 169f 0100      		.word	0x1
 7880 16a1 66        		.byte	0x66
 7881 16a2 0000 0000 		.long	0x0
 7882 16a6 0000 0000 		.long	0x0
 7883               	.LLST166:
 7884 16aa 0000 0000 		.long	.LVL335
 7885 16ae 0000 0000 		.long	.LVL336
 7886 16b2 0600      		.word	0x6
 7887 16b4 68        		.byte	0x68
 7888 16b5 93        		.byte	0x93
 7889 16b6 01        		.uleb128 0x1
 7890 16b7 69        		.byte	0x69
 7891 16b8 93        		.byte	0x93
 7892 16b9 01        		.uleb128 0x1
 7893 16ba 0000 0000 		.long	.LVL336
 7894 16be 0000 0000 		.long	.LVL337
 7895 16c2 0600      		.word	0x6
 7896 16c4 61        		.byte	0x61
 7897 16c5 93        		.byte	0x93
 7898 16c6 01        		.uleb128 0x1
 7899 16c7 69        		.byte	0x69
 7900 16c8 93        		.byte	0x93
 7901 16c9 01        		.uleb128 0x1
 7902 16ca 0000 0000 		.long	.LVL337
 7903 16ce 0000 0000 		.long	.LVL341
 7904 16d2 0600      		.word	0x6
 7905 16d4 61        		.byte	0x61
 7906 16d5 93        		.byte	0x93
 7907 16d6 01        		.uleb128 0x1
 7908 16d7 60        		.byte	0x60
 7909 16d8 93        		.byte	0x93
 7910 16d9 01        		.uleb128 0x1
 7911 16da 0000 0000 		.long	0x0
 7912 16de 0000 0000 		.long	0x0
 7913               	.LLST167:
 7914 16e2 0000 0000 		.long	.LVL335
 7915 16e6 0000 0000 		.long	.LVL338
 7916 16ea 0600      		.word	0x6
 7917 16ec 66        		.byte	0x66
 7918 16ed 93        		.byte	0x93
 7919 16ee 01        		.uleb128 0x1
 7920 16ef 67        		.byte	0x67
 7921 16f0 93        		.byte	0x93
 7922 16f1 01        		.uleb128 0x1
 7923 16f2 0000 0000 		.long	.LVL339
GAS LISTING /var/folders/1s/lqjcb7x5323625d47g9gdgmr0000gp/T//ccbjwlOH.s 			page 140


 7924 16f6 0000 0000 		.long	.LVL340
 7925 16fa 0600      		.word	0x6
 7926 16fc 66        		.byte	0x66
 7927 16fd 93        		.byte	0x93
 7928 16fe 01        		.uleb128 0x1
 7929 16ff 67        		.byte	0x67
 7930 1700 93        		.byte	0x93
 7931 1701 01        		.uleb128 0x1
 7932 1702 0000 0000 		.long	0x0
 7933 1706 0000 0000 		.long	0x0
 7934               	.LLST169:
 7935 170a 0000 0000 		.long	.LVL343
 7936 170e 0000 0000 		.long	.LVL344
 7937 1712 0600      		.word	0x6
 7938 1714 68        		.byte	0x68
 7939 1715 93        		.byte	0x93
 7940 1716 01        		.uleb128 0x1
 7941 1717 69        		.byte	0x69
 7942 1718 93        		.byte	0x93
 7943 1719 01        		.uleb128 0x1
 7944 171a 0000 0000 		.long	.LVL344
 7945 171e 0000 0000 		.long	.LVL346
 7946 1722 0600      		.word	0x6
 7947 1724 61        		.byte	0x61
 7948 1725 93        		.byte	0x93
 7949 1726 01        		.uleb128 0x1
 7950 1727 69        		.byte	0x69
 7951 1728 93        		.byte	0x93
 7952 1729 01        		.uleb128 0x1
 7953 172a 0000 0000 		.long	.LVL346
 7954 172e 0000 0000 		.long	.LVL347
 7955 1732 0600      		.word	0x6
 7956 1734 61        		.byte	0x61
 7957 1735 93        		.byte	0x93
 7958 1736 01        		.uleb128 0x1
 7959 1737 60        		.byte	0x60
 7960 1738 93        		.byte	0x93
 7961 1739 01        		.uleb128 0x1
 7962 173a 0000 0000 		.long	0x0
 7963 173e 0000 0000 		.long	0x0
 7964               	.LLST170:
 7965 1742 0000 0000 		.long	.LVL343
 7966 1746 0000 0000 		.long	.LVL345
 7967 174a 0600      		.word	0x6
 7968 174c 66        		.byte	0x66
 7969 174d 93        		.byte	0x93
 7970 174e 01        		.uleb128 0x1
 7971 174f 67        		.byte	0x67
 7972 1750 93        		.byte	0x93
 7973 1751 01        		.uleb128 0x1
 7974 1752 0000 0000 		.long	.LVL345
 7975 1756 0000 0000 		.long	.LVL346
 7976 175a 0600      		.word	0x6
 7977 175c 6E        		.byte	0x6e
 7978 175d 93        		.byte	0x93
 7979 175e 01        		.uleb128 0x1
 7980 175f 6F        		.byte	0x6f
GAS LISTING /var/folders/1s/lqjcb7x5323625d47g9gdgmr0000gp/T//ccbjwlOH.s 			page 141


 7981 1760 93        		.byte	0x93
 7982 1761 01        		.uleb128 0x1
 7983 1762 0000 0000 		.long	0x0
 7984 1766 0000 0000 		.long	0x0
 7985               	.LLST172:
 7986 176a 0000 0000 		.long	.LVL349
 7987 176e 0000 0000 		.long	.LVL351
 7988 1772 0600      		.word	0x6
 7989 1774 68        		.byte	0x68
 7990 1775 93        		.byte	0x93
 7991 1776 01        		.uleb128 0x1
 7992 1777 69        		.byte	0x69
 7993 1778 93        		.byte	0x93
 7994 1779 01        		.uleb128 0x1
 7995 177a 0000 0000 		.long	.LVL351
 7996 177e 0000 0000 		.long	.LVL352
 7997 1782 0600      		.word	0x6
 7998 1784 6C        		.byte	0x6c
 7999 1785 93        		.byte	0x93
 8000 1786 01        		.uleb128 0x1
 8001 1787 6D        		.byte	0x6d
 8002 1788 93        		.byte	0x93
 8003 1789 01        		.uleb128 0x1
 8004 178a 0000 0000 		.long	0x0
 8005 178e 0000 0000 		.long	0x0
 8006               	.LLST173:
 8007 1792 0000 0000 		.long	.LVL349
 8008 1796 0000 0000 		.long	.LVL350
 8009 179a 0600      		.word	0x6
 8010 179c 66        		.byte	0x66
 8011 179d 93        		.byte	0x93
 8012 179e 01        		.uleb128 0x1
 8013 179f 67        		.byte	0x67
 8014 17a0 93        		.byte	0x93
 8015 17a1 01        		.uleb128 0x1
 8016 17a2 0000 0000 		.long	.LVL350
 8017 17a6 0000 0000 		.long	.LVL354
 8018 17aa 0600      		.word	0x6
 8019 17ac 5E        		.byte	0x5e
 8020 17ad 93        		.byte	0x93
 8021 17ae 01        		.uleb128 0x1
 8022 17af 5F        		.byte	0x5f
 8023 17b0 93        		.byte	0x93
 8024 17b1 01        		.uleb128 0x1
 8025 17b2 0000 0000 		.long	0x0
 8026 17b6 0000 0000 		.long	0x0
 8027               	.LLST174:
 8028 17ba 0000 0000 		.long	.LVL349
 8029 17be 0000 0000 		.long	.LVL351
 8030 17c2 0600      		.word	0x6
 8031 17c4 64        		.byte	0x64
 8032 17c5 93        		.byte	0x93
 8033 17c6 01        		.uleb128 0x1
 8034 17c7 65        		.byte	0x65
 8035 17c8 93        		.byte	0x93
 8036 17c9 01        		.uleb128 0x1
 8037 17ca 0000 0000 		.long	.LVL351
GAS LISTING /var/folders/1s/lqjcb7x5323625d47g9gdgmr0000gp/T//ccbjwlOH.s 			page 142


 8038 17ce 0000 0000 		.long	.LVL353
 8039 17d2 0600      		.word	0x6
 8040 17d4 60        		.byte	0x60
 8041 17d5 93        		.byte	0x93
 8042 17d6 01        		.uleb128 0x1
 8043 17d7 61        		.byte	0x61
 8044 17d8 93        		.byte	0x93
 8045 17d9 01        		.uleb128 0x1
 8046 17da 0000 0000 		.long	0x0
 8047 17de 0000 0000 		.long	0x0
 8048               	.LLST176:
 8049 17e2 0000 0000 		.long	.LVL355
 8050 17e6 0000 0000 		.long	.LVL356
 8051 17ea 0600      		.word	0x6
 8052 17ec 68        		.byte	0x68
 8053 17ed 93        		.byte	0x93
 8054 17ee 01        		.uleb128 0x1
 8055 17ef 69        		.byte	0x69
 8056 17f0 93        		.byte	0x93
 8057 17f1 01        		.uleb128 0x1
 8058 17f2 0000 0000 		.long	.LVL356
 8059 17f6 0000 0000 		.long	.LVL358
 8060 17fa 0600      		.word	0x6
 8061 17fc 6C        		.byte	0x6c
 8062 17fd 93        		.byte	0x93
 8063 17fe 01        		.uleb128 0x1
 8064 17ff 6D        		.byte	0x6d
 8065 1800 93        		.byte	0x93
 8066 1801 01        		.uleb128 0x1
 8067 1802 0000 0000 		.long	.LVL358
 8068 1806 0000 0000 		.long	.LFE44
 8069 180a 0600      		.word	0x6
 8070 180c 68        		.byte	0x68
 8071 180d 93        		.byte	0x93
 8072 180e 01        		.uleb128 0x1
 8073 180f 69        		.byte	0x69
 8074 1810 93        		.byte	0x93
 8075 1811 01        		.uleb128 0x1
 8076 1812 0000 0000 		.long	0x0
 8077 1816 0000 0000 		.long	0x0
 8078               	.LLST177:
 8079 181a 0000 0000 		.long	.LVL355
 8080 181e 0000 0000 		.long	.LVL357
 8081 1822 0600      		.word	0x6
 8082 1824 66        		.byte	0x66
 8083 1825 93        		.byte	0x93
 8084 1826 01        		.uleb128 0x1
 8085 1827 67        		.byte	0x67
 8086 1828 93        		.byte	0x93
 8087 1829 01        		.uleb128 0x1
 8088 182a 0000 0000 		.long	.LVL357
 8089 182e 0000 0000 		.long	.LFE44
 8090 1832 0600      		.word	0x6
 8091 1834 66        		.byte	0x66
 8092 1835 93        		.byte	0x93
 8093 1836 01        		.uleb128 0x1
 8094 1837 67        		.byte	0x67
GAS LISTING /var/folders/1s/lqjcb7x5323625d47g9gdgmr0000gp/T//ccbjwlOH.s 			page 143


 8095 1838 93        		.byte	0x93
 8096 1839 01        		.uleb128 0x1
 8097 183a 0000 0000 		.long	0x0
 8098 183e 0000 0000 		.long	0x0
 8099               	.LLST179:
 8100 1842 0000 0000 		.long	.LVL359
 8101 1846 0000 0000 		.long	.LVL360
 8102 184a 0600      		.word	0x6
 8103 184c 68        		.byte	0x68
 8104 184d 93        		.byte	0x93
 8105 184e 01        		.uleb128 0x1
 8106 184f 69        		.byte	0x69
 8107 1850 93        		.byte	0x93
 8108 1851 01        		.uleb128 0x1
 8109 1852 0000 0000 		.long	.LVL360
 8110 1856 0000 0000 		.long	.LVL362
 8111 185a 0600      		.word	0x6
 8112 185c 6C        		.byte	0x6c
 8113 185d 93        		.byte	0x93
 8114 185e 01        		.uleb128 0x1
 8115 185f 6D        		.byte	0x6d
 8116 1860 93        		.byte	0x93
 8117 1861 01        		.uleb128 0x1
 8118 1862 0000 0000 		.long	.LVL362
 8119 1866 0000 0000 		.long	.LFE43
 8120 186a 0600      		.word	0x6
 8121 186c 68        		.byte	0x68
 8122 186d 93        		.byte	0x93
 8123 186e 01        		.uleb128 0x1
 8124 186f 69        		.byte	0x69
 8125 1870 93        		.byte	0x93
 8126 1871 01        		.uleb128 0x1
 8127 1872 0000 0000 		.long	0x0
 8128 1876 0000 0000 		.long	0x0
 8129               	.LLST180:
 8130 187a 0000 0000 		.long	.LVL359
 8131 187e 0000 0000 		.long	.LVL361
 8132 1882 0600      		.word	0x6
 8133 1884 66        		.byte	0x66
 8134 1885 93        		.byte	0x93
 8135 1886 01        		.uleb128 0x1
 8136 1887 67        		.byte	0x67
 8137 1888 93        		.byte	0x93
 8138 1889 01        		.uleb128 0x1
 8139 188a 0000 0000 		.long	.LVL361
 8140 188e 0000 0000 		.long	.LFE43
 8141 1892 0600      		.word	0x6
 8142 1894 66        		.byte	0x66
 8143 1895 93        		.byte	0x93
 8144 1896 01        		.uleb128 0x1
 8145 1897 67        		.byte	0x67
 8146 1898 93        		.byte	0x93
 8147 1899 01        		.uleb128 0x1
 8148 189a 0000 0000 		.long	0x0
 8149 189e 0000 0000 		.long	0x0
 8150               	.LLST182:
 8151 18a2 0000 0000 		.long	.LVL363
GAS LISTING /var/folders/1s/lqjcb7x5323625d47g9gdgmr0000gp/T//ccbjwlOH.s 			page 144


 8152 18a6 0000 0000 		.long	.LVL364
 8153 18aa 0600      		.word	0x6
 8154 18ac 68        		.byte	0x68
 8155 18ad 93        		.byte	0x93
 8156 18ae 01        		.uleb128 0x1
 8157 18af 69        		.byte	0x69
 8158 18b0 93        		.byte	0x93
 8159 18b1 01        		.uleb128 0x1
 8160 18b2 0000 0000 		.long	.LVL364
 8161 18b6 0000 0000 		.long	.LVL365
 8162 18ba 0600      		.word	0x6
 8163 18bc 61        		.byte	0x61
 8164 18bd 93        		.byte	0x93
 8165 18be 01        		.uleb128 0x1
 8166 18bf 69        		.byte	0x69
 8167 18c0 93        		.byte	0x93
 8168 18c1 01        		.uleb128 0x1
 8169 18c2 0000 0000 		.long	.LVL365
 8170 18c6 0000 0000 		.long	.LVL369
 8171 18ca 0600      		.word	0x6
 8172 18cc 61        		.byte	0x61
 8173 18cd 93        		.byte	0x93
 8174 18ce 01        		.uleb128 0x1
 8175 18cf 60        		.byte	0x60
 8176 18d0 93        		.byte	0x93
 8177 18d1 01        		.uleb128 0x1
 8178 18d2 0000 0000 		.long	0x0
 8179 18d6 0000 0000 		.long	0x0
 8180               	.LLST183:
 8181 18da 0000 0000 		.long	.LVL363
 8182 18de 0000 0000 		.long	.LVL366
 8183 18e2 0600      		.word	0x6
 8184 18e4 66        		.byte	0x66
 8185 18e5 93        		.byte	0x93
 8186 18e6 01        		.uleb128 0x1
 8187 18e7 67        		.byte	0x67
 8188 18e8 93        		.byte	0x93
 8189 18e9 01        		.uleb128 0x1
 8190 18ea 0000 0000 		.long	.LVL367
 8191 18ee 0000 0000 		.long	.LVL368
 8192 18f2 0600      		.word	0x6
 8193 18f4 66        		.byte	0x66
 8194 18f5 93        		.byte	0x93
 8195 18f6 01        		.uleb128 0x1
 8196 18f7 67        		.byte	0x67
 8197 18f8 93        		.byte	0x93
 8198 18f9 01        		.uleb128 0x1
 8199 18fa 0000 0000 		.long	0x0
 8200 18fe 0000 0000 		.long	0x0
 8201               	.LLST185:
 8202 1902 0000 0000 		.long	.LVL371
 8203 1906 0000 0000 		.long	.LVL373
 8204 190a 0600      		.word	0x6
 8205 190c 68        		.byte	0x68
 8206 190d 93        		.byte	0x93
 8207 190e 01        		.uleb128 0x1
 8208 190f 69        		.byte	0x69
GAS LISTING /var/folders/1s/lqjcb7x5323625d47g9gdgmr0000gp/T//ccbjwlOH.s 			page 145


 8209 1910 93        		.byte	0x93
 8210 1911 01        		.uleb128 0x1
 8211 1912 0000 0000 		.long	.LVL373
 8212 1916 0000 0000 		.long	.LVL374
 8213 191a 0600      		.word	0x6
 8214 191c 60        		.byte	0x60
 8215 191d 93        		.byte	0x93
 8216 191e 01        		.uleb128 0x1
 8217 191f 61        		.byte	0x61
 8218 1920 93        		.byte	0x93
 8219 1921 01        		.uleb128 0x1
 8220 1922 0000 0000 		.long	0x0
 8221 1926 0000 0000 		.long	0x0
 8222               	.LLST186:
 8223 192a 0000 0000 		.long	.LVL371
 8224 192e 0000 0000 		.long	.LVL372
 8225 1932 0C00      		.word	0xc
 8226 1934 64        		.byte	0x64
 8227 1935 93        		.byte	0x93
 8228 1936 01        		.uleb128 0x1
 8229 1937 65        		.byte	0x65
 8230 1938 93        		.byte	0x93
 8231 1939 01        		.uleb128 0x1
 8232 193a 66        		.byte	0x66
 8233 193b 93        		.byte	0x93
 8234 193c 01        		.uleb128 0x1
 8235 193d 67        		.byte	0x67
 8236 193e 93        		.byte	0x93
 8237 193f 01        		.uleb128 0x1
 8238 1940 0000 0000 		.long	0x0
 8239 1944 0000 0000 		.long	0x0
 8240               	.LLST187:
 8241 1948 0000 0000 		.long	.LVL371
 8242 194c 0000 0000 		.long	.LVL373
 8243 1950 0100      		.word	0x1
 8244 1952 62        		.byte	0x62
 8245 1953 0000 0000 		.long	0x0
 8246 1957 0000 0000 		.long	0x0
 8247               	.LLST189:
 8248 195b 0000 0000 		.long	.LVL375
 8249 195f 0000 0000 		.long	.LVL377
 8250 1963 0600      		.word	0x6
 8251 1965 68        		.byte	0x68
 8252 1966 93        		.byte	0x93
 8253 1967 01        		.uleb128 0x1
 8254 1968 69        		.byte	0x69
 8255 1969 93        		.byte	0x93
 8256 196a 01        		.uleb128 0x1
 8257 196b 0000 0000 		.long	.LVL377
 8258 196f 0000 0000 		.long	.LVL378
 8259 1973 0600      		.word	0x6
 8260 1975 60        		.byte	0x60
 8261 1976 93        		.byte	0x93
 8262 1977 01        		.uleb128 0x1
 8263 1978 61        		.byte	0x61
 8264 1979 93        		.byte	0x93
 8265 197a 01        		.uleb128 0x1
GAS LISTING /var/folders/1s/lqjcb7x5323625d47g9gdgmr0000gp/T//ccbjwlOH.s 			page 146


 8266 197b 0000 0000 		.long	0x0
 8267 197f 0000 0000 		.long	0x0
 8268               	.LLST190:
 8269 1983 0000 0000 		.long	.LVL375
 8270 1987 0000 0000 		.long	.LVL376
 8271 198b 0C00      		.word	0xc
 8272 198d 64        		.byte	0x64
 8273 198e 93        		.byte	0x93
 8274 198f 01        		.uleb128 0x1
 8275 1990 65        		.byte	0x65
 8276 1991 93        		.byte	0x93
 8277 1992 01        		.uleb128 0x1
 8278 1993 66        		.byte	0x66
 8279 1994 93        		.byte	0x93
 8280 1995 01        		.uleb128 0x1
 8281 1996 67        		.byte	0x67
 8282 1997 93        		.byte	0x93
 8283 1998 01        		.uleb128 0x1
 8284 1999 0000 0000 		.long	0x0
 8285 199d 0000 0000 		.long	0x0
 8286               	.LLST191:
 8287 19a1 0000 0000 		.long	.LVL375
 8288 19a5 0000 0000 		.long	.LVL377
 8289 19a9 0100      		.word	0x1
 8290 19ab 62        		.byte	0x62
 8291 19ac 0000 0000 		.long	0x0
 8292 19b0 0000 0000 		.long	0x0
 8293               	.LLST193:
 8294 19b4 0000 0000 		.long	.LVL379
 8295 19b8 0000 0000 		.long	.LVL381
 8296 19bc 0600      		.word	0x6
 8297 19be 68        		.byte	0x68
 8298 19bf 93        		.byte	0x93
 8299 19c0 01        		.uleb128 0x1
 8300 19c1 69        		.byte	0x69
 8301 19c2 93        		.byte	0x93
 8302 19c3 01        		.uleb128 0x1
 8303 19c4 0000 0000 		.long	.LVL381
 8304 19c8 0000 0000 		.long	.LVL382
 8305 19cc 0600      		.word	0x6
 8306 19ce 60        		.byte	0x60
 8307 19cf 93        		.byte	0x93
 8308 19d0 01        		.uleb128 0x1
 8309 19d1 61        		.byte	0x61
 8310 19d2 93        		.byte	0x93
 8311 19d3 01        		.uleb128 0x1
 8312 19d4 0000 0000 		.long	0x0
 8313 19d8 0000 0000 		.long	0x0
 8314               	.LLST194:
 8315 19dc 0000 0000 		.long	.LVL379
 8316 19e0 0000 0000 		.long	.LVL380
 8317 19e4 0C00      		.word	0xc
 8318 19e6 64        		.byte	0x64
 8319 19e7 93        		.byte	0x93
 8320 19e8 01        		.uleb128 0x1
 8321 19e9 65        		.byte	0x65
 8322 19ea 93        		.byte	0x93
GAS LISTING /var/folders/1s/lqjcb7x5323625d47g9gdgmr0000gp/T//ccbjwlOH.s 			page 147


 8323 19eb 01        		.uleb128 0x1
 8324 19ec 66        		.byte	0x66
 8325 19ed 93        		.byte	0x93
 8326 19ee 01        		.uleb128 0x1
 8327 19ef 67        		.byte	0x67
 8328 19f0 93        		.byte	0x93
 8329 19f1 01        		.uleb128 0x1
 8330 19f2 0000 0000 		.long	0x0
 8331 19f6 0000 0000 		.long	0x0
 8332               	.LLST195:
 8333 19fa 0000 0000 		.long	.LVL379
 8334 19fe 0000 0000 		.long	.LVL381
 8335 1a02 0100      		.word	0x1
 8336 1a04 62        		.byte	0x62
 8337 1a05 0000 0000 		.long	0x0
 8338 1a09 0000 0000 		.long	0x0
 8339               	.LLST197:
 8340 1a0d 0000 0000 		.long	.LVL383
 8341 1a11 0000 0000 		.long	.LVL385
 8342 1a15 0600      		.word	0x6
 8343 1a17 68        		.byte	0x68
 8344 1a18 93        		.byte	0x93
 8345 1a19 01        		.uleb128 0x1
 8346 1a1a 69        		.byte	0x69
 8347 1a1b 93        		.byte	0x93
 8348 1a1c 01        		.uleb128 0x1
 8349 1a1d 0000 0000 		.long	.LVL385
 8350 1a21 0000 0000 		.long	.LVL386
 8351 1a25 0600      		.word	0x6
 8352 1a27 60        		.byte	0x60
 8353 1a28 93        		.byte	0x93
 8354 1a29 01        		.uleb128 0x1
 8355 1a2a 61        		.byte	0x61
 8356 1a2b 93        		.byte	0x93
 8357 1a2c 01        		.uleb128 0x1
 8358 1a2d 0000 0000 		.long	0x0
 8359 1a31 0000 0000 		.long	0x0
 8360               	.LLST198:
 8361 1a35 0000 0000 		.long	.LVL383
 8362 1a39 0000 0000 		.long	.LVL384
 8363 1a3d 0C00      		.word	0xc
 8364 1a3f 64        		.byte	0x64
 8365 1a40 93        		.byte	0x93
 8366 1a41 01        		.uleb128 0x1
 8367 1a42 65        		.byte	0x65
 8368 1a43 93        		.byte	0x93
 8369 1a44 01        		.uleb128 0x1
 8370 1a45 66        		.byte	0x66
 8371 1a46 93        		.byte	0x93
 8372 1a47 01        		.uleb128 0x1
 8373 1a48 67        		.byte	0x67
 8374 1a49 93        		.byte	0x93
 8375 1a4a 01        		.uleb128 0x1
 8376 1a4b 0000 0000 		.long	0x0
 8377 1a4f 0000 0000 		.long	0x0
 8378               	.LLST199:
 8379 1a53 0000 0000 		.long	.LVL383
GAS LISTING /var/folders/1s/lqjcb7x5323625d47g9gdgmr0000gp/T//ccbjwlOH.s 			page 148


 8380 1a57 0000 0000 		.long	.LVL385
 8381 1a5b 0100      		.word	0x1
 8382 1a5d 62        		.byte	0x62
 8383 1a5e 0000 0000 		.long	0x0
 8384 1a62 0000 0000 		.long	0x0
 8385               	.LLST201:
 8386 1a66 0000 0000 		.long	.LVL387
 8387 1a6a 0000 0000 		.long	.LVL388
 8388 1a6e 0600      		.word	0x6
 8389 1a70 68        		.byte	0x68
 8390 1a71 93        		.byte	0x93
 8391 1a72 01        		.uleb128 0x1
 8392 1a73 69        		.byte	0x69
 8393 1a74 93        		.byte	0x93
 8394 1a75 01        		.uleb128 0x1
 8395 1a76 0000 0000 		.long	.LVL388
 8396 1a7a 0000 0000 		.long	.LVL391
 8397 1a7e 0600      		.word	0x6
 8398 1a80 60        		.byte	0x60
 8399 1a81 93        		.byte	0x93
 8400 1a82 01        		.uleb128 0x1
 8401 1a83 61        		.byte	0x61
 8402 1a84 93        		.byte	0x93
 8403 1a85 01        		.uleb128 0x1
 8404 1a86 0000 0000 		.long	0x0
 8405 1a8a 0000 0000 		.long	0x0
 8406               	.LLST202:
 8407 1a8e 0000 0000 		.long	.LVL387
 8408 1a92 0000 0000 		.long	.LVL389
 8409 1a96 0600      		.word	0x6
 8410 1a98 66        		.byte	0x66
 8411 1a99 93        		.byte	0x93
 8412 1a9a 01        		.uleb128 0x1
 8413 1a9b 67        		.byte	0x67
 8414 1a9c 93        		.byte	0x93
 8415 1a9d 01        		.uleb128 0x1
 8416 1a9e 0000 0000 		.long	.LVL389
 8417 1aa2 0000 0000 		.long	.LVL390
 8418 1aa6 0600      		.word	0x6
 8419 1aa8 68        		.byte	0x68
 8420 1aa9 93        		.byte	0x93
 8421 1aaa 01        		.uleb128 0x1
 8422 1aab 69        		.byte	0x69
 8423 1aac 93        		.byte	0x93
 8424 1aad 01        		.uleb128 0x1
 8425 1aae 0000 0000 		.long	0x0
 8426 1ab2 0000 0000 		.long	0x0
 8427               	.LLST203:
 8428 1ab6 0000 0000 		.long	.LVL387
 8429 1aba 0000 0000 		.long	.LVL390
 8430 1abe 0100      		.word	0x1
 8431 1ac0 64        		.byte	0x64
 8432 1ac1 0000 0000 		.long	0x0
 8433 1ac5 0000 0000 		.long	0x0
 8434               	.LLST205:
 8435 1ac9 0000 0000 		.long	.LVL392
 8436 1acd 0000 0000 		.long	.LVL393
GAS LISTING /var/folders/1s/lqjcb7x5323625d47g9gdgmr0000gp/T//ccbjwlOH.s 			page 149


 8437 1ad1 0600      		.word	0x6
 8438 1ad3 68        		.byte	0x68
 8439 1ad4 93        		.byte	0x93
 8440 1ad5 01        		.uleb128 0x1
 8441 1ad6 69        		.byte	0x69
 8442 1ad7 93        		.byte	0x93
 8443 1ad8 01        		.uleb128 0x1
 8444 1ad9 0000 0000 		.long	.LVL393
 8445 1add 0000 0000 		.long	.LVL396
 8446 1ae1 0600      		.word	0x6
 8447 1ae3 60        		.byte	0x60
 8448 1ae4 93        		.byte	0x93
 8449 1ae5 01        		.uleb128 0x1
 8450 1ae6 61        		.byte	0x61
 8451 1ae7 93        		.byte	0x93
 8452 1ae8 01        		.uleb128 0x1
 8453 1ae9 0000 0000 		.long	0x0
 8454 1aed 0000 0000 		.long	0x0
 8455               	.LLST206:
 8456 1af1 0000 0000 		.long	.LVL392
 8457 1af5 0000 0000 		.long	.LVL394
 8458 1af9 0600      		.word	0x6
 8459 1afb 66        		.byte	0x66
 8460 1afc 93        		.byte	0x93
 8461 1afd 01        		.uleb128 0x1
 8462 1afe 67        		.byte	0x67
 8463 1aff 93        		.byte	0x93
 8464 1b00 01        		.uleb128 0x1
 8465 1b01 0000 0000 		.long	.LVL394
 8466 1b05 0000 0000 		.long	.LVL395
 8467 1b09 0600      		.word	0x6
 8468 1b0b 68        		.byte	0x68
 8469 1b0c 93        		.byte	0x93
 8470 1b0d 01        		.uleb128 0x1
 8471 1b0e 69        		.byte	0x69
 8472 1b0f 93        		.byte	0x93
 8473 1b10 01        		.uleb128 0x1
 8474 1b11 0000 0000 		.long	0x0
 8475 1b15 0000 0000 		.long	0x0
 8476               	.LLST207:
 8477 1b19 0000 0000 		.long	.LVL392
 8478 1b1d 0000 0000 		.long	.LVL395
 8479 1b21 0100      		.word	0x1
 8480 1b23 64        		.byte	0x64
 8481 1b24 0000 0000 		.long	0x0
 8482 1b28 0000 0000 		.long	0x0
 8483               	.LLST209:
 8484 1b2c 0000 0000 		.long	.LVL397
 8485 1b30 0000 0000 		.long	.LVL398
 8486 1b34 0600      		.word	0x6
 8487 1b36 68        		.byte	0x68
 8488 1b37 93        		.byte	0x93
 8489 1b38 01        		.uleb128 0x1
 8490 1b39 69        		.byte	0x69
 8491 1b3a 93        		.byte	0x93
 8492 1b3b 01        		.uleb128 0x1
 8493 1b3c 0000 0000 		.long	.LVL398
GAS LISTING /var/folders/1s/lqjcb7x5323625d47g9gdgmr0000gp/T//ccbjwlOH.s 			page 150


 8494 1b40 0000 0000 		.long	.LVL401
 8495 1b44 0600      		.word	0x6
 8496 1b46 60        		.byte	0x60
 8497 1b47 93        		.byte	0x93
 8498 1b48 01        		.uleb128 0x1
 8499 1b49 61        		.byte	0x61
 8500 1b4a 93        		.byte	0x93
 8501 1b4b 01        		.uleb128 0x1
 8502 1b4c 0000 0000 		.long	0x0
 8503 1b50 0000 0000 		.long	0x0
 8504               	.LLST210:
 8505 1b54 0000 0000 		.long	.LVL397
 8506 1b58 0000 0000 		.long	.LVL399
 8507 1b5c 0600      		.word	0x6
 8508 1b5e 66        		.byte	0x66
 8509 1b5f 93        		.byte	0x93
 8510 1b60 01        		.uleb128 0x1
 8511 1b61 67        		.byte	0x67
 8512 1b62 93        		.byte	0x93
 8513 1b63 01        		.uleb128 0x1
 8514 1b64 0000 0000 		.long	.LVL399
 8515 1b68 0000 0000 		.long	.LVL400
 8516 1b6c 0600      		.word	0x6
 8517 1b6e 68        		.byte	0x68
 8518 1b6f 93        		.byte	0x93
 8519 1b70 01        		.uleb128 0x1
 8520 1b71 69        		.byte	0x69
 8521 1b72 93        		.byte	0x93
 8522 1b73 01        		.uleb128 0x1
 8523 1b74 0000 0000 		.long	0x0
 8524 1b78 0000 0000 		.long	0x0
 8525               	.LLST211:
 8526 1b7c 0000 0000 		.long	.LVL397
 8527 1b80 0000 0000 		.long	.LVL400
 8528 1b84 0100      		.word	0x1
 8529 1b86 64        		.byte	0x64
 8530 1b87 0000 0000 		.long	0x0
 8531 1b8b 0000 0000 		.long	0x0
 8532               	.LLST213:
 8533 1b8f 0000 0000 		.long	.LVL402
 8534 1b93 0000 0000 		.long	.LVL403
 8535 1b97 0600      		.word	0x6
 8536 1b99 68        		.byte	0x68
 8537 1b9a 93        		.byte	0x93
 8538 1b9b 01        		.uleb128 0x1
 8539 1b9c 69        		.byte	0x69
 8540 1b9d 93        		.byte	0x93
 8541 1b9e 01        		.uleb128 0x1
 8542 1b9f 0000 0000 		.long	.LVL403
 8543 1ba3 0000 0000 		.long	.LVL406
 8544 1ba7 0600      		.word	0x6
 8545 1ba9 60        		.byte	0x60
 8546 1baa 93        		.byte	0x93
 8547 1bab 01        		.uleb128 0x1
 8548 1bac 61        		.byte	0x61
 8549 1bad 93        		.byte	0x93
 8550 1bae 01        		.uleb128 0x1
GAS LISTING /var/folders/1s/lqjcb7x5323625d47g9gdgmr0000gp/T//ccbjwlOH.s 			page 151


 8551 1baf 0000 0000 		.long	0x0
 8552 1bb3 0000 0000 		.long	0x0
 8553               	.LLST214:
 8554 1bb7 0000 0000 		.long	.LVL402
 8555 1bbb 0000 0000 		.long	.LVL404
 8556 1bbf 0600      		.word	0x6
 8557 1bc1 66        		.byte	0x66
 8558 1bc2 93        		.byte	0x93
 8559 1bc3 01        		.uleb128 0x1
 8560 1bc4 67        		.byte	0x67
 8561 1bc5 93        		.byte	0x93
 8562 1bc6 01        		.uleb128 0x1
 8563 1bc7 0000 0000 		.long	.LVL404
 8564 1bcb 0000 0000 		.long	.LVL405
 8565 1bcf 0600      		.word	0x6
 8566 1bd1 68        		.byte	0x68
 8567 1bd2 93        		.byte	0x93
 8568 1bd3 01        		.uleb128 0x1
 8569 1bd4 69        		.byte	0x69
 8570 1bd5 93        		.byte	0x93
 8571 1bd6 01        		.uleb128 0x1
 8572 1bd7 0000 0000 		.long	0x0
 8573 1bdb 0000 0000 		.long	0x0
 8574               	.LLST215:
 8575 1bdf 0000 0000 		.long	.LVL402
 8576 1be3 0000 0000 		.long	.LVL405
 8577 1be7 0100      		.word	0x1
 8578 1be9 64        		.byte	0x64
 8579 1bea 0000 0000 		.long	0x0
 8580 1bee 0000 0000 		.long	0x0
 8581               	.LLST217:
 8582 1bf2 0000 0000 		.long	.LVL407
 8583 1bf6 0000 0000 		.long	.LVL408
 8584 1bfa 0600      		.word	0x6
 8585 1bfc 68        		.byte	0x68
 8586 1bfd 93        		.byte	0x93
 8587 1bfe 01        		.uleb128 0x1
 8588 1bff 69        		.byte	0x69
 8589 1c00 93        		.byte	0x93
 8590 1c01 01        		.uleb128 0x1
 8591 1c02 0000 0000 		.long	.LVL408
 8592 1c06 0000 0000 		.long	.LVL411
 8593 1c0a 0600      		.word	0x6
 8594 1c0c 60        		.byte	0x60
 8595 1c0d 93        		.byte	0x93
 8596 1c0e 01        		.uleb128 0x1
 8597 1c0f 61        		.byte	0x61
 8598 1c10 93        		.byte	0x93
 8599 1c11 01        		.uleb128 0x1
 8600 1c12 0000 0000 		.long	0x0
 8601 1c16 0000 0000 		.long	0x0
 8602               	.LLST218:
 8603 1c1a 0000 0000 		.long	.LVL407
 8604 1c1e 0000 0000 		.long	.LVL409
 8605 1c22 0100      		.word	0x1
 8606 1c24 66        		.byte	0x66
 8607 1c25 0000 0000 		.long	.LVL409
GAS LISTING /var/folders/1s/lqjcb7x5323625d47g9gdgmr0000gp/T//ccbjwlOH.s 			page 152


 8608 1c29 0000 0000 		.long	.LVL410
 8609 1c2d 0100      		.word	0x1
 8610 1c2f 68        		.byte	0x68
 8611 1c30 0000 0000 		.long	0x0
 8612 1c34 0000 0000 		.long	0x0
 8613               	.LLST219:
 8614 1c38 0000 0000 		.long	.LVL407
 8615 1c3c 0000 0000 		.long	.LVL410
 8616 1c40 0100      		.word	0x1
 8617 1c42 64        		.byte	0x64
 8618 1c43 0000 0000 		.long	0x0
 8619 1c47 0000 0000 		.long	0x0
 8620               	.LLST221:
 8621 1c4b 0000 0000 		.long	.LVL412
 8622 1c4f 0000 0000 		.long	.LVL413
 8623 1c53 0600      		.word	0x6
 8624 1c55 68        		.byte	0x68
 8625 1c56 93        		.byte	0x93
 8626 1c57 01        		.uleb128 0x1
 8627 1c58 69        		.byte	0x69
 8628 1c59 93        		.byte	0x93
 8629 1c5a 01        		.uleb128 0x1
 8630 1c5b 0000 0000 		.long	.LVL413
 8631 1c5f 0000 0000 		.long	.LVL416
 8632 1c63 0600      		.word	0x6
 8633 1c65 60        		.byte	0x60
 8634 1c66 93        		.byte	0x93
 8635 1c67 01        		.uleb128 0x1
 8636 1c68 61        		.byte	0x61
 8637 1c69 93        		.byte	0x93
 8638 1c6a 01        		.uleb128 0x1
 8639 1c6b 0000 0000 		.long	0x0
 8640 1c6f 0000 0000 		.long	0x0
 8641               	.LLST222:
 8642 1c73 0000 0000 		.long	.LVL412
 8643 1c77 0000 0000 		.long	.LVL414
 8644 1c7b 0100      		.word	0x1
 8645 1c7d 66        		.byte	0x66
 8646 1c7e 0000 0000 		.long	.LVL414
 8647 1c82 0000 0000 		.long	.LVL415
 8648 1c86 0100      		.word	0x1
 8649 1c88 68        		.byte	0x68
 8650 1c89 0000 0000 		.long	0x0
 8651 1c8d 0000 0000 		.long	0x0
 8652               	.LLST223:
 8653 1c91 0000 0000 		.long	.LVL412
 8654 1c95 0000 0000 		.long	.LVL415
 8655 1c99 0100      		.word	0x1
 8656 1c9b 64        		.byte	0x64
 8657 1c9c 0000 0000 		.long	0x0
 8658 1ca0 0000 0000 		.long	0x0
 8659               	.LLST225:
 8660 1ca4 0000 0000 		.long	.LVL417
 8661 1ca8 0000 0000 		.long	.LVL419
 8662 1cac 0600      		.word	0x6
 8663 1cae 68        		.byte	0x68
 8664 1caf 93        		.byte	0x93
GAS LISTING /var/folders/1s/lqjcb7x5323625d47g9gdgmr0000gp/T//ccbjwlOH.s 			page 153


 8665 1cb0 01        		.uleb128 0x1
 8666 1cb1 69        		.byte	0x69
 8667 1cb2 93        		.byte	0x93
 8668 1cb3 01        		.uleb128 0x1
 8669 1cb4 0000 0000 		.long	0x0
 8670 1cb8 0000 0000 		.long	0x0
 8671               	.LLST226:
 8672 1cbc 0000 0000 		.long	.LVL417
 8673 1cc0 0000 0000 		.long	.LVL418
 8674 1cc4 0100      		.word	0x1
 8675 1cc6 66        		.byte	0x66
 8676 1cc7 0000 0000 		.long	0x0
 8677 1ccb 0000 0000 		.long	0x0
 8678               	.LLST228:
 8679 1ccf 0000 0000 		.long	.LVL420
 8680 1cd3 0000 0000 		.long	.LVL422
 8681 1cd7 0600      		.word	0x6
 8682 1cd9 68        		.byte	0x68
 8683 1cda 93        		.byte	0x93
 8684 1cdb 01        		.uleb128 0x1
 8685 1cdc 69        		.byte	0x69
 8686 1cdd 93        		.byte	0x93
 8687 1cde 01        		.uleb128 0x1
 8688 1cdf 0000 0000 		.long	0x0
 8689 1ce3 0000 0000 		.long	0x0
 8690               	.LLST229:
 8691 1ce7 0000 0000 		.long	.LVL420
 8692 1ceb 0000 0000 		.long	.LVL421
 8693 1cef 0100      		.word	0x1
 8694 1cf1 66        		.byte	0x66
 8695 1cf2 0000 0000 		.long	0x0
 8696 1cf6 0000 0000 		.long	0x0
 8697               	.LLST231:
 8698 1cfa 0000 0000 		.long	.LVL423
 8699 1cfe 0000 0000 		.long	.LVL424
 8700 1d02 0600      		.word	0x6
 8701 1d04 66        		.byte	0x66
 8702 1d05 93        		.byte	0x93
 8703 1d06 01        		.uleb128 0x1
 8704 1d07 67        		.byte	0x67
 8705 1d08 93        		.byte	0x93
 8706 1d09 01        		.uleb128 0x1
 8707 1d0a 0000 0000 		.long	.LVL424
 8708 1d0e 0000 0000 		.long	.LVL432
 8709 1d12 0600      		.word	0x6
 8710 1d14 5C        		.byte	0x5c
 8711 1d15 93        		.byte	0x93
 8712 1d16 01        		.uleb128 0x1
 8713 1d17 5D        		.byte	0x5d
 8714 1d18 93        		.byte	0x93
 8715 1d19 01        		.uleb128 0x1
 8716 1d1a 0000 0000 		.long	0x0
 8717 1d1e 0000 0000 		.long	0x0
 8718               	.LLST232:
 8719 1d22 0000 0000 		.long	.LVL423
 8720 1d26 0000 0000 		.long	.LVL426
 8721 1d2a 0600      		.word	0x6
GAS LISTING /var/folders/1s/lqjcb7x5323625d47g9gdgmr0000gp/T//ccbjwlOH.s 			page 154


 8722 1d2c 64        		.byte	0x64
 8723 1d2d 93        		.byte	0x93
 8724 1d2e 01        		.uleb128 0x1
 8725 1d2f 65        		.byte	0x65
 8726 1d30 93        		.byte	0x93
 8727 1d31 01        		.uleb128 0x1
 8728 1d32 0000 0000 		.long	.LVL426
 8729 1d36 0000 0000 		.long	.LVL431
 8730 1d3a 0600      		.word	0x6
 8731 1d3c 5E        		.byte	0x5e
 8732 1d3d 93        		.byte	0x93
 8733 1d3e 01        		.uleb128 0x1
 8734 1d3f 5F        		.byte	0x5f
 8735 1d40 93        		.byte	0x93
 8736 1d41 01        		.uleb128 0x1
 8737 1d42 0000 0000 		.long	0x0
 8738 1d46 0000 0000 		.long	0x0
 8739               	.LLST233:
 8740 1d4a 0000 0000 		.long	.LVL423
 8741 1d4e 0000 0000 		.long	.LVL425
 8742 1d52 0600      		.word	0x6
 8743 1d54 62        		.byte	0x62
 8744 1d55 93        		.byte	0x93
 8745 1d56 01        		.uleb128 0x1
 8746 1d57 63        		.byte	0x63
 8747 1d58 93        		.byte	0x93
 8748 1d59 01        		.uleb128 0x1
 8749 1d5a 0000 0000 		.long	.LVL425
 8750 1d5e 0000 0000 		.long	.LVL429
 8751 1d62 0600      		.word	0x6
 8752 1d64 6C        		.byte	0x6c
 8753 1d65 93        		.byte	0x93
 8754 1d66 01        		.uleb128 0x1
 8755 1d67 6D        		.byte	0x6d
 8756 1d68 93        		.byte	0x93
 8757 1d69 01        		.uleb128 0x1
 8758 1d6a 0000 0000 		.long	0x0
 8759 1d6e 0000 0000 		.long	0x0
 8760               	.LLST234:
 8761 1d72 0000 0000 		.long	.LVL428
 8762 1d76 0000 0000 		.long	.LVL430
 8763 1d7a 0100      		.word	0x1
 8764 1d7c 61        		.byte	0x61
 8765 1d7d 0000 0000 		.long	0x0
 8766 1d81 0000 0000 		.long	0x0
 8767               	.LLST236:
 8768 1d85 0000 0000 		.long	.LVL433
 8769 1d89 0000 0000 		.long	.LVL434
 8770 1d8d 0600      		.word	0x6
 8771 1d8f 66        		.byte	0x66
 8772 1d90 93        		.byte	0x93
 8773 1d91 01        		.uleb128 0x1
 8774 1d92 67        		.byte	0x67
 8775 1d93 93        		.byte	0x93
 8776 1d94 01        		.uleb128 0x1
 8777 1d95 0000 0000 		.long	0x0
 8778 1d99 0000 0000 		.long	0x0
GAS LISTING /var/folders/1s/lqjcb7x5323625d47g9gdgmr0000gp/T//ccbjwlOH.s 			page 155


 8779               	.LLST237:
 8780 1d9d 0000 0000 		.long	.LVL433
 8781 1da1 0000 0000 		.long	.LVL434
 8782 1da5 0600      		.word	0x6
 8783 1da7 64        		.byte	0x64
 8784 1da8 93        		.byte	0x93
 8785 1da9 01        		.uleb128 0x1
 8786 1daa 65        		.byte	0x65
 8787 1dab 93        		.byte	0x93
 8788 1dac 01        		.uleb128 0x1
 8789 1dad 0000 0000 		.long	0x0
 8790 1db1 0000 0000 		.long	0x0
 8791               	.LLST239:
 8792 1db5 0000 0000 		.long	.LVL435
 8793 1db9 0000 0000 		.long	.LVL437
 8794 1dbd 0600      		.word	0x6
 8795 1dbf 68        		.byte	0x68
 8796 1dc0 93        		.byte	0x93
 8797 1dc1 01        		.uleb128 0x1
 8798 1dc2 69        		.byte	0x69
 8799 1dc3 93        		.byte	0x93
 8800 1dc4 01        		.uleb128 0x1
 8801 1dc5 0000 0000 		.long	.LVL437
 8802 1dc9 0000 0000 		.long	.LVL438
 8803 1dcd 0600      		.word	0x6
 8804 1dcf 6C        		.byte	0x6c
 8805 1dd0 93        		.byte	0x93
 8806 1dd1 01        		.uleb128 0x1
 8807 1dd2 6D        		.byte	0x6d
 8808 1dd3 93        		.byte	0x93
 8809 1dd4 01        		.uleb128 0x1
 8810 1dd5 0000 0000 		.long	.LVL438
 8811 1dd9 0000 0000 		.long	.LVL439
 8812 1ddd 0600      		.word	0x6
 8813 1ddf 68        		.byte	0x68
 8814 1de0 93        		.byte	0x93
 8815 1de1 01        		.uleb128 0x1
 8816 1de2 69        		.byte	0x69
 8817 1de3 93        		.byte	0x93
 8818 1de4 01        		.uleb128 0x1
 8819 1de5 0000 0000 		.long	.LVL439
 8820 1de9 0000 0000 		.long	.LVL440
 8821 1ded 0600      		.word	0x6
 8822 1def 6C        		.byte	0x6c
 8823 1df0 93        		.byte	0x93
 8824 1df1 01        		.uleb128 0x1
 8825 1df2 6D        		.byte	0x6d
 8826 1df3 93        		.byte	0x93
 8827 1df4 01        		.uleb128 0x1
 8828 1df5 0000 0000 		.long	.LVL440
 8829 1df9 0000 0000 		.long	.LFE74
 8830 1dfd 0600      		.word	0x6
 8831 1dff 68        		.byte	0x68
 8832 1e00 93        		.byte	0x93
 8833 1e01 01        		.uleb128 0x1
 8834 1e02 69        		.byte	0x69
 8835 1e03 93        		.byte	0x93
GAS LISTING /var/folders/1s/lqjcb7x5323625d47g9gdgmr0000gp/T//ccbjwlOH.s 			page 156


 8836 1e04 01        		.uleb128 0x1
 8837 1e05 0000 0000 		.long	0x0
 8838 1e09 0000 0000 		.long	0x0
 8839               	.LLST240:
 8840 1e0d 0000 0000 		.long	.LVL435
 8841 1e11 0000 0000 		.long	.LVL436
 8842 1e15 0600      		.word	0x6
 8843 1e17 66        		.byte	0x66
 8844 1e18 93        		.byte	0x93
 8845 1e19 01        		.uleb128 0x1
 8846 1e1a 67        		.byte	0x67
 8847 1e1b 93        		.byte	0x93
 8848 1e1c 01        		.uleb128 0x1
 8849 1e1d 0000 0000 		.long	.LVL436
 8850 1e21 0000 0000 		.long	.LVL437
 8851 1e25 0600      		.word	0x6
 8852 1e27 6E        		.byte	0x6e
 8853 1e28 93        		.byte	0x93
 8854 1e29 01        		.uleb128 0x1
 8855 1e2a 6F        		.byte	0x6f
 8856 1e2b 93        		.byte	0x93
 8857 1e2c 01        		.uleb128 0x1
 8858 1e2d 0000 0000 		.long	.LVL438
 8859 1e31 0000 0000 		.long	.LVL439
 8860 1e35 0600      		.word	0x6
 8861 1e37 6E        		.byte	0x6e
 8862 1e38 93        		.byte	0x93
 8863 1e39 01        		.uleb128 0x1
 8864 1e3a 6F        		.byte	0x6f
 8865 1e3b 93        		.byte	0x93
 8866 1e3c 01        		.uleb128 0x1
 8867 1e3d 0000 0000 		.long	.LVL439
 8868 1e41 0000 0000 		.long	.LFE74
 8869 1e45 0600      		.word	0x6
 8870 1e47 66        		.byte	0x66
 8871 1e48 93        		.byte	0x93
 8872 1e49 01        		.uleb128 0x1
 8873 1e4a 67        		.byte	0x67
 8874 1e4b 93        		.byte	0x93
 8875 1e4c 01        		.uleb128 0x1
 8876 1e4d 0000 0000 		.long	0x0
 8877 1e51 0000 0000 		.long	0x0
 8878               	.LLST242:
 8879 1e55 0000 0000 		.long	.LVL441
 8880 1e59 0000 0000 		.long	.LVL442
 8881 1e5d 0600      		.word	0x6
 8882 1e5f 68        		.byte	0x68
 8883 1e60 93        		.byte	0x93
 8884 1e61 01        		.uleb128 0x1
 8885 1e62 69        		.byte	0x69
 8886 1e63 93        		.byte	0x93
 8887 1e64 01        		.uleb128 0x1
 8888 1e65 0000 0000 		.long	0x0
 8889 1e69 0000 0000 		.long	0x0
 8890               	.LLST243:
 8891 1e6d 0000 0000 		.long	.LVL441
 8892 1e71 0000 0000 		.long	.LVL442
GAS LISTING /var/folders/1s/lqjcb7x5323625d47g9gdgmr0000gp/T//ccbjwlOH.s 			page 157


 8893 1e75 0600      		.word	0x6
 8894 1e77 66        		.byte	0x66
 8895 1e78 93        		.byte	0x93
 8896 1e79 01        		.uleb128 0x1
 8897 1e7a 67        		.byte	0x67
 8898 1e7b 93        		.byte	0x93
 8899 1e7c 01        		.uleb128 0x1
 8900 1e7d 0000 0000 		.long	0x0
 8901 1e81 0000 0000 		.long	0x0
 8902               	.LLST245:
 8903 1e85 0000 0000 		.long	.LVL443
 8904 1e89 0000 0000 		.long	.LVL444
 8905 1e8d 0600      		.word	0x6
 8906 1e8f 68        		.byte	0x68
 8907 1e90 93        		.byte	0x93
 8908 1e91 01        		.uleb128 0x1
 8909 1e92 69        		.byte	0x69
 8910 1e93 93        		.byte	0x93
 8911 1e94 01        		.uleb128 0x1
 8912 1e95 0000 0000 		.long	0x0
 8913 1e99 0000 0000 		.long	0x0
 8914               	.LLST246:
 8915 1e9d 0000 0000 		.long	.LVL443
 8916 1ea1 0000 0000 		.long	.LVL444
 8917 1ea5 0600      		.word	0x6
 8918 1ea7 66        		.byte	0x66
 8919 1ea8 93        		.byte	0x93
 8920 1ea9 01        		.uleb128 0x1
 8921 1eaa 67        		.byte	0x67
 8922 1eab 93        		.byte	0x93
 8923 1eac 01        		.uleb128 0x1
 8924 1ead 0000 0000 		.long	0x0
 8925 1eb1 0000 0000 		.long	0x0
 8926               	.LLST248:
 8927 1eb5 0000 0000 		.long	.LVL445
 8928 1eb9 0000 0000 		.long	.LVL446
 8929 1ebd 0600      		.word	0x6
 8930 1ebf 68        		.byte	0x68
 8931 1ec0 93        		.byte	0x93
 8932 1ec1 01        		.uleb128 0x1
 8933 1ec2 69        		.byte	0x69
 8934 1ec3 93        		.byte	0x93
 8935 1ec4 01        		.uleb128 0x1
 8936 1ec5 0000 0000 		.long	.LVL446
 8937 1ec9 0000 0000 		.long	.LVL447
 8938 1ecd 0600      		.word	0x6
 8939 1ecf 6E        		.byte	0x6e
 8940 1ed0 93        		.byte	0x93
 8941 1ed1 01        		.uleb128 0x1
 8942 1ed2 6F        		.byte	0x6f
 8943 1ed3 93        		.byte	0x93
 8944 1ed4 01        		.uleb128 0x1
 8945 1ed5 0000 0000 		.long	0x0
 8946 1ed9 0000 0000 		.long	0x0
 8947               	.LLST250:
 8948 1edd 0000 0000 		.long	.LVL448
 8949 1ee1 0000 0000 		.long	.LVL449
GAS LISTING /var/folders/1s/lqjcb7x5323625d47g9gdgmr0000gp/T//ccbjwlOH.s 			page 158


 8950 1ee5 0600      		.word	0x6
 8951 1ee7 68        		.byte	0x68
 8952 1ee8 93        		.byte	0x93
 8953 1ee9 01        		.uleb128 0x1
 8954 1eea 69        		.byte	0x69
 8955 1eeb 93        		.byte	0x93
 8956 1eec 01        		.uleb128 0x1
 8957 1eed 0000 0000 		.long	.LVL449
 8958 1ef1 0000 0000 		.long	.LVL450
 8959 1ef5 0600      		.word	0x6
 8960 1ef7 6E        		.byte	0x6e
 8961 1ef8 93        		.byte	0x93
 8962 1ef9 01        		.uleb128 0x1
 8963 1efa 6F        		.byte	0x6f
 8964 1efb 93        		.byte	0x93
 8965 1efc 01        		.uleb128 0x1
 8966 1efd 0000 0000 		.long	0x0
 8967 1f01 0000 0000 		.long	0x0
 8968               		.section	.debug_info
 8969 0000 C121 0000 		.long	0x21c1
 8970 0004 0200      		.word	0x2
 8971 0006 0000 0000 		.long	.Ldebug_abbrev0
 8972 000a 04        		.byte	0x4
 8973 000b 01        		.uleb128 0x1
 8974 000c 0000 0000 		.long	.LASF150
 8975 0010 04        		.byte	0x4
 8976 0011 0000 0000 		.long	.LASF151
 8977 0015 0000 0000 		.long	0x0
 8978 0019 0000 0000 		.long	0x0
 8979 001d 0000 0000 		.long	.Ldebug_ranges0+0x18
 8980 0021 0000 0000 		.long	.Ldebug_line0
 8981 0025 02        		.uleb128 0x2
 8982 0026 02        		.byte	0x2
 8983 0027 07        		.byte	0x7
 8984 0028 0000 0000 		.long	.LASF0
 8985 002c 03        		.uleb128 0x3
 8986 002d 02        		.byte	0x2
 8987 002e 05        		.byte	0x5
 8988 002f 696E 7400 		.string	"int"
 8989 0033 02        		.uleb128 0x2
 8990 0034 04        		.byte	0x4
 8991 0035 05        		.byte	0x5
 8992 0036 0000 0000 		.long	.LASF1
 8993 003a 02        		.uleb128 0x2
 8994 003b 01        		.byte	0x1
 8995 003c 06        		.byte	0x6
 8996 003d 0000 0000 		.long	.LASF2
 8997 0041 02        		.uleb128 0x2
 8998 0042 01        		.byte	0x1
 8999 0043 08        		.byte	0x8
 9000 0044 0000 0000 		.long	.LASF3
 9001 0048 02        		.uleb128 0x2
 9002 0049 04        		.byte	0x4
 9003 004a 07        		.byte	0x7
 9004 004b 0000 0000 		.long	.LASF4
 9005 004f 02        		.uleb128 0x2
 9006 0050 08        		.byte	0x8
GAS LISTING /var/folders/1s/lqjcb7x5323625d47g9gdgmr0000gp/T//ccbjwlOH.s 			page 159


 9007 0051 05        		.byte	0x5
 9008 0052 0000 0000 		.long	.LASF5
 9009 0056 02        		.uleb128 0x2
 9010 0057 08        		.byte	0x8
 9011 0058 07        		.byte	0x7
 9012 0059 0000 0000 		.long	.LASF6
 9013 005d 04        		.uleb128 0x4
 9014 005e 01        		.byte	0x1
 9015 005f 06        		.byte	0x6
 9016 0060 04        		.uleb128 0x4
 9017 0061 01        		.byte	0x1
 9018 0062 08        		.byte	0x8
 9019 0063 05        		.uleb128 0x5
 9020 0064 0000 0000 		.long	.LASF10
 9021 0068 07        		.byte	0x7
 9022 0069 02        		.byte	0x2
 9023 006a 2E        		.byte	0x2e
 9024 006b DB09 0000 		.long	0x9db
 9025 006f 06        		.uleb128 0x6
 9026 0070 0000 0000 		.long	.LASF7
 9027 0074 02        		.byte	0x2
 9028 0075 AE        		.byte	0xae
 9029 0076 DB09 0000 		.long	0x9db
 9030 007a 02        		.byte	0x2
 9031 007b 23        		.byte	0x23
 9032 007c 00        		.uleb128 0x0
 9033 007d 02        		.byte	0x2
 9034 007e 06        		.uleb128 0x6
 9035 007f 0000 0000 		.long	.LASF8
 9036 0083 02        		.byte	0x2
 9037 0084 AF        		.byte	0xaf
 9038 0085 2500 0000 		.long	0x25
 9039 0089 02        		.byte	0x2
 9040 008a 23        		.byte	0x23
 9041 008b 02        		.uleb128 0x2
 9042 008c 02        		.byte	0x2
 9043 008d 07        		.uleb128 0x7
 9044 008e 6C65 6E00 		.string	"len"
 9045 0092 02        		.byte	0x2
 9046 0093 B0        		.byte	0xb0
 9047 0094 2500 0000 		.long	0x25
 9048 0098 02        		.byte	0x2
 9049 0099 23        		.byte	0x23
 9050 009a 04        		.uleb128 0x4
 9051 009b 02        		.byte	0x2
 9052 009c 06        		.uleb128 0x6
 9053 009d 0000 0000 		.long	.LASF9
 9054 00a1 02        		.byte	0x2
 9055 00a2 B1        		.byte	0xb1
 9056 00a3 4100 0000 		.long	0x41
 9057 00a7 02        		.byte	0x2
 9058 00a8 23        		.byte	0x23
 9059 00a9 06        		.uleb128 0x6
 9060 00aa 02        		.byte	0x2
 9061 00ab 08        		.uleb128 0x8
 9062 00ac 01        		.byte	0x1
 9063 00ad 0000 0000 		.long	.LASF12
GAS LISTING /var/folders/1s/lqjcb7x5323625d47g9gdgmr0000gp/T//ccbjwlOH.s 			page 160


 9064 00b1 02        		.byte	0x2
 9065 00b2 33        		.byte	0x33
 9066 00b3 0000 0000 		.long	.LASF14
 9067 00b7 03        		.byte	0x3
 9068 00b8 01        		.byte	0x1
 9069 00b9 C400 0000 		.long	0xc4
 9070 00bd 09        		.uleb128 0x9
 9071 00be 190A 0000 		.long	0xa19
 9072 00c2 01        		.byte	0x1
 9073 00c3 00        		.byte	0x0
 9074 00c4 0A        		.uleb128 0xa
 9075 00c5 01        		.byte	0x1
 9076 00c6 0000 0000 		.long	.LASF10
 9077 00ca 02        		.byte	0x2
 9078 00cb 3B        		.byte	0x3b
 9079 00cc 01        		.byte	0x1
 9080 00cd DD00 0000 		.long	0xdd
 9081 00d1 09        		.uleb128 0x9
 9082 00d2 2A0A 0000 		.long	0xa2a
 9083 00d6 01        		.byte	0x1
 9084 00d7 0B        		.uleb128 0xb
 9085 00d8 300A 0000 		.long	0xa30
 9086 00dc 00        		.byte	0x0
 9087 00dd 0A        		.uleb128 0xa
 9088 00de 01        		.byte	0x1
 9089 00df 0000 0000 		.long	.LASF10
 9090 00e3 02        		.byte	0x2
 9091 00e4 3C        		.byte	0x3c
 9092 00e5 01        		.byte	0x1
 9093 00e6 F600 0000 		.long	0xf6
 9094 00ea 09        		.uleb128 0x9
 9095 00eb 2A0A 0000 		.long	0xa2a
 9096 00ef 01        		.byte	0x1
 9097 00f0 0B        		.uleb128 0xb
 9098 00f1 3B0A 0000 		.long	0xa3b
 9099 00f5 00        		.byte	0x0
 9100 00f6 0A        		.uleb128 0xa
 9101 00f7 01        		.byte	0x1
 9102 00f8 0000 0000 		.long	.LASF10
 9103 00fc 02        		.byte	0x2
 9104 00fd 41        		.byte	0x41
 9105 00fe 01        		.byte	0x1
 9106 00ff 0F01 0000 		.long	0x10f
 9107 0103 09        		.uleb128 0x9
 9108 0104 2A0A 0000 		.long	0xa2a
 9109 0108 01        		.byte	0x1
 9110 0109 0B        		.uleb128 0xb
 9111 010a E109 0000 		.long	0x9e1
 9112 010e 00        		.byte	0x0
 9113 010f 0A        		.uleb128 0xa
 9114 0110 01        		.byte	0x1
 9115 0111 0000 0000 		.long	.LASF10
 9116 0115 02        		.byte	0x2
 9117 0116 42        		.byte	0x42
 9118 0117 01        		.byte	0x1
 9119 0118 2D01 0000 		.long	0x12d
 9120 011c 09        		.uleb128 0x9
GAS LISTING /var/folders/1s/lqjcb7x5323625d47g9gdgmr0000gp/T//ccbjwlOH.s 			page 161


 9121 011d 2A0A 0000 		.long	0xa2a
 9122 0121 01        		.byte	0x1
 9123 0122 0B        		.uleb128 0xb
 9124 0123 4100 0000 		.long	0x41
 9125 0127 0B        		.uleb128 0xb
 9126 0128 4100 0000 		.long	0x41
 9127 012c 00        		.byte	0x0
 9128 012d 0A        		.uleb128 0xa
 9129 012e 01        		.byte	0x1
 9130 012f 0000 0000 		.long	.LASF10
 9131 0133 02        		.byte	0x2
 9132 0134 43        		.byte	0x43
 9133 0135 01        		.byte	0x1
 9134 0136 4B01 0000 		.long	0x14b
 9135 013a 09        		.uleb128 0x9
 9136 013b 2A0A 0000 		.long	0xa2a
 9137 013f 01        		.byte	0x1
 9138 0140 0B        		.uleb128 0xb
 9139 0141 2C00 0000 		.long	0x2c
 9140 0145 0B        		.uleb128 0xb
 9141 0146 4100 0000 		.long	0x41
 9142 014a 00        		.byte	0x0
 9143 014b 0A        		.uleb128 0xa
 9144 014c 01        		.byte	0x1
 9145 014d 0000 0000 		.long	.LASF10
 9146 0151 02        		.byte	0x2
 9147 0152 44        		.byte	0x44
 9148 0153 01        		.byte	0x1
 9149 0154 6901 0000 		.long	0x169
 9150 0158 09        		.uleb128 0x9
 9151 0159 2A0A 0000 		.long	0xa2a
 9152 015d 01        		.byte	0x1
 9153 015e 0B        		.uleb128 0xb
 9154 015f 2500 0000 		.long	0x25
 9155 0163 0B        		.uleb128 0xb
 9156 0164 4100 0000 		.long	0x41
 9157 0168 00        		.byte	0x0
 9158 0169 0A        		.uleb128 0xa
 9159 016a 01        		.byte	0x1
 9160 016b 0000 0000 		.long	.LASF10
 9161 016f 02        		.byte	0x2
 9162 0170 45        		.byte	0x45
 9163 0171 01        		.byte	0x1
 9164 0172 8701 0000 		.long	0x187
 9165 0176 09        		.uleb128 0x9
 9166 0177 2A0A 0000 		.long	0xa2a
 9167 017b 01        		.byte	0x1
 9168 017c 0B        		.uleb128 0xb
 9169 017d 3300 0000 		.long	0x33
 9170 0181 0B        		.uleb128 0xb
 9171 0182 4100 0000 		.long	0x41
 9172 0186 00        		.byte	0x0
 9173 0187 0A        		.uleb128 0xa
 9174 0188 01        		.byte	0x1
 9175 0189 0000 0000 		.long	.LASF10
 9176 018d 02        		.byte	0x2
 9177 018e 46        		.byte	0x46
GAS LISTING /var/folders/1s/lqjcb7x5323625d47g9gdgmr0000gp/T//ccbjwlOH.s 			page 162


 9178 018f 01        		.byte	0x1
 9179 0190 A501 0000 		.long	0x1a5
 9180 0194 09        		.uleb128 0x9
 9181 0195 2A0A 0000 		.long	0xa2a
 9182 0199 01        		.byte	0x1
 9183 019a 0B        		.uleb128 0xb
 9184 019b 4800 0000 		.long	0x48
 9185 019f 0B        		.uleb128 0xb
 9186 01a0 4100 0000 		.long	0x41
 9187 01a4 00        		.byte	0x0
 9188 01a5 0A        		.uleb128 0xa
 9189 01a6 01        		.byte	0x1
 9190 01a7 0000 0000 		.long	.LASF11
 9191 01ab 02        		.byte	0x2
 9192 01ac 47        		.byte	0x47
 9193 01ad 01        		.byte	0x1
 9194 01ae BF01 0000 		.long	0x1bf
 9195 01b2 09        		.uleb128 0x9
 9196 01b3 2A0A 0000 		.long	0xa2a
 9197 01b7 01        		.byte	0x1
 9198 01b8 09        		.uleb128 0x9
 9199 01b9 2C00 0000 		.long	0x2c
 9200 01bd 01        		.byte	0x1
 9201 01be 00        		.byte	0x0
 9202 01bf 0C        		.uleb128 0xc
 9203 01c0 01        		.byte	0x1
 9204 01c1 0000 0000 		.long	.LASF13
 9205 01c5 02        		.byte	0x2
 9206 01c6 4D        		.byte	0x4d
 9207 01c7 0000 0000 		.long	.LASF15
 9208 01cb 4100 0000 		.long	0x41
 9209 01cf 01        		.byte	0x1
 9210 01d0 E001 0000 		.long	0x1e0
 9211 01d4 09        		.uleb128 0x9
 9212 01d5 2A0A 0000 		.long	0xa2a
 9213 01d9 01        		.byte	0x1
 9214 01da 0B        		.uleb128 0xb
 9215 01db 2500 0000 		.long	0x25
 9216 01df 00        		.byte	0x0
 9217 01e0 0C        		.uleb128 0xc
 9218 01e1 01        		.byte	0x1
 9219 01e2 0000 0000 		.long	.LASF16
 9220 01e6 02        		.byte	0x2
 9221 01e7 4E        		.byte	0x4e
 9222 01e8 0000 0000 		.long	.LASF17
 9223 01ec 2500 0000 		.long	0x25
 9224 01f0 01        		.byte	0x1
 9225 01f1 FC01 0000 		.long	0x1fc
 9226 01f5 09        		.uleb128 0x9
 9227 01f6 190A 0000 		.long	0xa19
 9228 01fa 01        		.byte	0x1
 9229 01fb 00        		.byte	0x0
 9230 01fc 0C        		.uleb128 0xc
 9231 01fd 01        		.byte	0x1
 9232 01fe 0000 0000 		.long	.LASF18
 9233 0202 02        		.byte	0x2
 9234 0203 53        		.byte	0x53
GAS LISTING /var/folders/1s/lqjcb7x5323625d47g9gdgmr0000gp/T//ccbjwlOH.s 			page 163


 9235 0204 0000 0000 		.long	.LASF19
 9236 0208 410A 0000 		.long	0xa41
 9237 020c 01        		.byte	0x1
 9238 020d 1D02 0000 		.long	0x21d
 9239 0211 09        		.uleb128 0x9
 9240 0212 2A0A 0000 		.long	0xa2a
 9241 0216 01        		.byte	0x1
 9242 0217 0B        		.uleb128 0xb
 9243 0218 3B0A 0000 		.long	0xa3b
 9244 021c 00        		.byte	0x0
 9245 021d 0C        		.uleb128 0xc
 9246 021e 01        		.byte	0x1
 9247 021f 0000 0000 		.long	.LASF18
 9248 0223 02        		.byte	0x2
 9249 0224 54        		.byte	0x54
 9250 0225 0000 0000 		.long	.LASF20
 9251 0229 410A 0000 		.long	0xa41
 9252 022d 01        		.byte	0x1
 9253 022e 3E02 0000 		.long	0x23e
 9254 0232 09        		.uleb128 0x9
 9255 0233 2A0A 0000 		.long	0xa2a
 9256 0237 01        		.byte	0x1
 9257 0238 0B        		.uleb128 0xb
 9258 0239 300A 0000 		.long	0xa30
 9259 023d 00        		.byte	0x0
 9260 023e 0C        		.uleb128 0xc
 9261 023f 01        		.byte	0x1
 9262 0240 0000 0000 		.long	.LASF21
 9263 0244 02        		.byte	0x2
 9264 0245 5F        		.byte	0x5f
 9265 0246 0000 0000 		.long	.LASF22
 9266 024a 4100 0000 		.long	0x41
 9267 024e 01        		.byte	0x1
 9268 024f 5F02 0000 		.long	0x25f
 9269 0253 09        		.uleb128 0x9
 9270 0254 2A0A 0000 		.long	0xa2a
 9271 0258 01        		.byte	0x1
 9272 0259 0B        		.uleb128 0xb
 9273 025a 3B0A 0000 		.long	0xa3b
 9274 025e 00        		.byte	0x0
 9275 025f 0C        		.uleb128 0xc
 9276 0260 01        		.byte	0x1
 9277 0261 0000 0000 		.long	.LASF21
 9278 0265 02        		.byte	0x2
 9279 0266 60        		.byte	0x60
 9280 0267 0000 0000 		.long	.LASF23
 9281 026b 4100 0000 		.long	0x41
 9282 026f 01        		.byte	0x1
 9283 0270 8002 0000 		.long	0x280
 9284 0274 09        		.uleb128 0x9
 9285 0275 2A0A 0000 		.long	0xa2a
 9286 0279 01        		.byte	0x1
 9287 027a 0B        		.uleb128 0xb
 9288 027b 300A 0000 		.long	0xa30
 9289 027f 00        		.byte	0x0
 9290 0280 0C        		.uleb128 0xc
 9291 0281 01        		.byte	0x1
GAS LISTING /var/folders/1s/lqjcb7x5323625d47g9gdgmr0000gp/T//ccbjwlOH.s 			page 164


 9292 0282 0000 0000 		.long	.LASF21
 9293 0286 02        		.byte	0x2
 9294 0287 61        		.byte	0x61
 9295 0288 0000 0000 		.long	.LASF24
 9296 028c 4100 0000 		.long	0x41
 9297 0290 01        		.byte	0x1
 9298 0291 A102 0000 		.long	0x2a1
 9299 0295 09        		.uleb128 0x9
 9300 0296 2A0A 0000 		.long	0xa2a
 9301 029a 01        		.byte	0x1
 9302 029b 0B        		.uleb128 0xb
 9303 029c E109 0000 		.long	0x9e1
 9304 02a0 00        		.byte	0x0
 9305 02a1 0C        		.uleb128 0xc
 9306 02a2 01        		.byte	0x1
 9307 02a3 0000 0000 		.long	.LASF21
 9308 02a7 02        		.byte	0x2
 9309 02a8 62        		.byte	0x62
 9310 02a9 0000 0000 		.long	.LASF25
 9311 02ad 4100 0000 		.long	0x41
 9312 02b1 01        		.byte	0x1
 9313 02b2 C202 0000 		.long	0x2c2
 9314 02b6 09        		.uleb128 0x9
 9315 02b7 2A0A 0000 		.long	0xa2a
 9316 02bb 01        		.byte	0x1
 9317 02bc 0B        		.uleb128 0xb
 9318 02bd 4100 0000 		.long	0x41
 9319 02c1 00        		.byte	0x0
 9320 02c2 0C        		.uleb128 0xc
 9321 02c3 01        		.byte	0x1
 9322 02c4 0000 0000 		.long	.LASF21
 9323 02c8 02        		.byte	0x2
 9324 02c9 63        		.byte	0x63
 9325 02ca 0000 0000 		.long	.LASF26
 9326 02ce 4100 0000 		.long	0x41
 9327 02d2 01        		.byte	0x1
 9328 02d3 E302 0000 		.long	0x2e3
 9329 02d7 09        		.uleb128 0x9
 9330 02d8 2A0A 0000 		.long	0xa2a
 9331 02dc 01        		.byte	0x1
 9332 02dd 0B        		.uleb128 0xb
 9333 02de 2C00 0000 		.long	0x2c
 9334 02e2 00        		.byte	0x0
 9335 02e3 0C        		.uleb128 0xc
 9336 02e4 01        		.byte	0x1
 9337 02e5 0000 0000 		.long	.LASF21
 9338 02e9 02        		.byte	0x2
 9339 02ea 64        		.byte	0x64
 9340 02eb 0000 0000 		.long	.LASF27
 9341 02ef 4100 0000 		.long	0x41
 9342 02f3 01        		.byte	0x1
 9343 02f4 0403 0000 		.long	0x304
 9344 02f8 09        		.uleb128 0x9
 9345 02f9 2A0A 0000 		.long	0xa2a
 9346 02fd 01        		.byte	0x1
 9347 02fe 0B        		.uleb128 0xb
 9348 02ff 2500 0000 		.long	0x25
GAS LISTING /var/folders/1s/lqjcb7x5323625d47g9gdgmr0000gp/T//ccbjwlOH.s 			page 165


 9349 0303 00        		.byte	0x0
 9350 0304 0C        		.uleb128 0xc
 9351 0305 01        		.byte	0x1
 9352 0306 0000 0000 		.long	.LASF21
 9353 030a 02        		.byte	0x2
 9354 030b 65        		.byte	0x65
 9355 030c 0000 0000 		.long	.LASF28
 9356 0310 4100 0000 		.long	0x41
 9357 0314 01        		.byte	0x1
 9358 0315 2503 0000 		.long	0x325
 9359 0319 09        		.uleb128 0x9
 9360 031a 2A0A 0000 		.long	0xa2a
 9361 031e 01        		.byte	0x1
 9362 031f 0B        		.uleb128 0xb
 9363 0320 3300 0000 		.long	0x33
 9364 0324 00        		.byte	0x0
 9365 0325 0C        		.uleb128 0xc
 9366 0326 01        		.byte	0x1
 9367 0327 0000 0000 		.long	.LASF21
 9368 032b 02        		.byte	0x2
 9369 032c 66        		.byte	0x66
 9370 032d 0000 0000 		.long	.LASF29
 9371 0331 4100 0000 		.long	0x41
 9372 0335 01        		.byte	0x1
 9373 0336 4603 0000 		.long	0x346
 9374 033a 09        		.uleb128 0x9
 9375 033b 2A0A 0000 		.long	0xa2a
 9376 033f 01        		.byte	0x1
 9377 0340 0B        		.uleb128 0xb
 9378 0341 4800 0000 		.long	0x48
 9379 0345 00        		.byte	0x0
 9380 0346 0C        		.uleb128 0xc
 9381 0347 01        		.byte	0x1
 9382 0348 0000 0000 		.long	.LASF30
 9383 034c 02        		.byte	0x2
 9384 034d 6A        		.byte	0x6a
 9385 034e 0000 0000 		.long	.LASF31
 9386 0352 410A 0000 		.long	0xa41
 9387 0356 01        		.byte	0x1
 9388 0357 6703 0000 		.long	0x367
 9389 035b 09        		.uleb128 0x9
 9390 035c 2A0A 0000 		.long	0xa2a
 9391 0360 01        		.byte	0x1
 9392 0361 0B        		.uleb128 0xb
 9393 0362 3B0A 0000 		.long	0xa3b
 9394 0366 00        		.byte	0x0
 9395 0367 0C        		.uleb128 0xc
 9396 0368 01        		.byte	0x1
 9397 0369 0000 0000 		.long	.LASF30
 9398 036d 02        		.byte	0x2
 9399 036e 6B        		.byte	0x6b
 9400 036f 0000 0000 		.long	.LASF32
 9401 0373 410A 0000 		.long	0xa41
 9402 0377 01        		.byte	0x1
 9403 0378 8803 0000 		.long	0x388
 9404 037c 09        		.uleb128 0x9
 9405 037d 2A0A 0000 		.long	0xa2a
GAS LISTING /var/folders/1s/lqjcb7x5323625d47g9gdgmr0000gp/T//ccbjwlOH.s 			page 166


 9406 0381 01        		.byte	0x1
 9407 0382 0B        		.uleb128 0xb
 9408 0383 300A 0000 		.long	0xa30
 9409 0387 00        		.byte	0x0
 9410 0388 0C        		.uleb128 0xc
 9411 0389 01        		.byte	0x1
 9412 038a 0000 0000 		.long	.LASF30
 9413 038e 02        		.byte	0x2
 9414 038f 6C        		.byte	0x6c
 9415 0390 0000 0000 		.long	.LASF33
 9416 0394 410A 0000 		.long	0xa41
 9417 0398 01        		.byte	0x1
 9418 0399 A903 0000 		.long	0x3a9
 9419 039d 09        		.uleb128 0x9
 9420 039e 2A0A 0000 		.long	0xa2a
 9421 03a2 01        		.byte	0x1
 9422 03a3 0B        		.uleb128 0xb
 9423 03a4 E109 0000 		.long	0x9e1
 9424 03a8 00        		.byte	0x0
 9425 03a9 0C        		.uleb128 0xc
 9426 03aa 01        		.byte	0x1
 9427 03ab 0000 0000 		.long	.LASF30
 9428 03af 02        		.byte	0x2
 9429 03b0 6D        		.byte	0x6d
 9430 03b1 0000 0000 		.long	.LASF34
 9431 03b5 410A 0000 		.long	0xa41
 9432 03b9 01        		.byte	0x1
 9433 03ba CA03 0000 		.long	0x3ca
 9434 03be 09        		.uleb128 0x9
 9435 03bf 2A0A 0000 		.long	0xa2a
 9436 03c3 01        		.byte	0x1
 9437 03c4 0B        		.uleb128 0xb
 9438 03c5 4100 0000 		.long	0x41
 9439 03c9 00        		.byte	0x0
 9440 03ca 0C        		.uleb128 0xc
 9441 03cb 01        		.byte	0x1
 9442 03cc 0000 0000 		.long	.LASF30
 9443 03d0 02        		.byte	0x2
 9444 03d1 6E        		.byte	0x6e
 9445 03d2 0000 0000 		.long	.LASF35
 9446 03d6 410A 0000 		.long	0xa41
 9447 03da 01        		.byte	0x1
 9448 03db EB03 0000 		.long	0x3eb
 9449 03df 09        		.uleb128 0x9
 9450 03e0 2A0A 0000 		.long	0xa2a
 9451 03e4 01        		.byte	0x1
 9452 03e5 0B        		.uleb128 0xb
 9453 03e6 2C00 0000 		.long	0x2c
 9454 03ea 00        		.byte	0x0
 9455 03eb 0C        		.uleb128 0xc
 9456 03ec 01        		.byte	0x1
 9457 03ed 0000 0000 		.long	.LASF30
 9458 03f1 02        		.byte	0x2
 9459 03f2 6F        		.byte	0x6f
 9460 03f3 0000 0000 		.long	.LASF36
 9461 03f7 410A 0000 		.long	0xa41
 9462 03fb 01        		.byte	0x1
GAS LISTING /var/folders/1s/lqjcb7x5323625d47g9gdgmr0000gp/T//ccbjwlOH.s 			page 167


 9463 03fc 0C04 0000 		.long	0x40c
 9464 0400 09        		.uleb128 0x9
 9465 0401 2A0A 0000 		.long	0xa2a
 9466 0405 01        		.byte	0x1
 9467 0406 0B        		.uleb128 0xb
 9468 0407 2500 0000 		.long	0x25
 9469 040b 00        		.byte	0x0
 9470 040c 0C        		.uleb128 0xc
 9471 040d 01        		.byte	0x1
 9472 040e 0000 0000 		.long	.LASF30
 9473 0412 02        		.byte	0x2
 9474 0413 70        		.byte	0x70
 9475 0414 0000 0000 		.long	.LASF37
 9476 0418 410A 0000 		.long	0xa41
 9477 041c 01        		.byte	0x1
 9478 041d 2D04 0000 		.long	0x42d
 9479 0421 09        		.uleb128 0x9
 9480 0422 2A0A 0000 		.long	0xa2a
 9481 0426 01        		.byte	0x1
 9482 0427 0B        		.uleb128 0xb
 9483 0428 3300 0000 		.long	0x33
 9484 042c 00        		.byte	0x0
 9485 042d 0C        		.uleb128 0xc
 9486 042e 01        		.byte	0x1
 9487 042f 0000 0000 		.long	.LASF30
 9488 0433 02        		.byte	0x2
 9489 0434 71        		.byte	0x71
 9490 0435 0000 0000 		.long	.LASF38
 9491 0439 410A 0000 		.long	0xa41
 9492 043d 01        		.byte	0x1
 9493 043e 4E04 0000 		.long	0x44e
 9494 0442 09        		.uleb128 0x9
 9495 0443 2A0A 0000 		.long	0xa2a
 9496 0447 01        		.byte	0x1
 9497 0448 0B        		.uleb128 0xb
 9498 0449 4800 0000 		.long	0x48
 9499 044d 00        		.byte	0x0
 9500 044e 0C        		.uleb128 0xc
 9501 044f 01        		.byte	0x1
 9502 0450 0000 0000 		.long	.LASF39
 9503 0454 02        		.byte	0x2
 9504 0455 7D        		.byte	0x7d
 9505 0456 0000 0000 		.long	.LASF40
 9506 045a E809 0000 		.long	0x9e8
 9507 045e 01        		.byte	0x1
 9508 045f 6A04 0000 		.long	0x46a
 9509 0463 09        		.uleb128 0x9
 9510 0464 190A 0000 		.long	0xa19
 9511 0468 01        		.byte	0x1
 9512 0469 00        		.byte	0x0
 9513 046a 0C        		.uleb128 0xc
 9514 046b 01        		.byte	0x1
 9515 046c 0000 0000 		.long	.LASF41
 9516 0470 02        		.byte	0x2
 9517 0471 7E        		.byte	0x7e
 9518 0472 0000 0000 		.long	.LASF42
 9519 0476 2C00 0000 		.long	0x2c
GAS LISTING /var/folders/1s/lqjcb7x5323625d47g9gdgmr0000gp/T//ccbjwlOH.s 			page 168


 9520 047a 01        		.byte	0x1
 9521 047b 8B04 0000 		.long	0x48b
 9522 047f 09        		.uleb128 0x9
 9523 0480 190A 0000 		.long	0xa19
 9524 0484 01        		.byte	0x1
 9525 0485 0B        		.uleb128 0xb
 9526 0486 3B0A 0000 		.long	0xa3b
 9527 048a 00        		.byte	0x0
 9528 048b 0C        		.uleb128 0xc
 9529 048c 01        		.byte	0x1
 9530 048d 0000 0000 		.long	.LASF43
 9531 0491 02        		.byte	0x2
 9532 0492 7F        		.byte	0x7f
 9533 0493 0000 0000 		.long	.LASF44
 9534 0497 4100 0000 		.long	0x41
 9535 049b 01        		.byte	0x1
 9536 049c AC04 0000 		.long	0x4ac
 9537 04a0 09        		.uleb128 0x9
 9538 04a1 190A 0000 		.long	0xa19
 9539 04a5 01        		.byte	0x1
 9540 04a6 0B        		.uleb128 0xb
 9541 04a7 3B0A 0000 		.long	0xa3b
 9542 04ab 00        		.byte	0x0
 9543 04ac 0C        		.uleb128 0xc
 9544 04ad 01        		.byte	0x1
 9545 04ae 0000 0000 		.long	.LASF43
 9546 04b2 02        		.byte	0x2
 9547 04b3 80        		.byte	0x80
 9548 04b4 0000 0000 		.long	.LASF45
 9549 04b8 4100 0000 		.long	0x41
 9550 04bc 01        		.byte	0x1
 9551 04bd CD04 0000 		.long	0x4cd
 9552 04c1 09        		.uleb128 0x9
 9553 04c2 190A 0000 		.long	0xa19
 9554 04c6 01        		.byte	0x1
 9555 04c7 0B        		.uleb128 0xb
 9556 04c8 300A 0000 		.long	0xa30
 9557 04cc 00        		.byte	0x0
 9558 04cd 0C        		.uleb128 0xc
 9559 04ce 01        		.byte	0x1
 9560 04cf 0000 0000 		.long	.LASF46
 9561 04d3 02        		.byte	0x2
 9562 04d4 81        		.byte	0x81
 9563 04d5 0000 0000 		.long	.LASF47
 9564 04d9 4100 0000 		.long	0x41
 9565 04dd 01        		.byte	0x1
 9566 04de EE04 0000 		.long	0x4ee
 9567 04e2 09        		.uleb128 0x9
 9568 04e3 190A 0000 		.long	0xa19
 9569 04e7 01        		.byte	0x1
 9570 04e8 0B        		.uleb128 0xb
 9571 04e9 3B0A 0000 		.long	0xa3b
 9572 04ed 00        		.byte	0x0
 9573 04ee 0C        		.uleb128 0xc
 9574 04ef 01        		.byte	0x1
 9575 04f0 0000 0000 		.long	.LASF46
 9576 04f4 02        		.byte	0x2
GAS LISTING /var/folders/1s/lqjcb7x5323625d47g9gdgmr0000gp/T//ccbjwlOH.s 			page 169


 9577 04f5 82        		.byte	0x82
 9578 04f6 0000 0000 		.long	.LASF48
 9579 04fa 4100 0000 		.long	0x41
 9580 04fe 01        		.byte	0x1
 9581 04ff 0F05 0000 		.long	0x50f
 9582 0503 09        		.uleb128 0x9
 9583 0504 190A 0000 		.long	0xa19
 9584 0508 01        		.byte	0x1
 9585 0509 0B        		.uleb128 0xb
 9586 050a 300A 0000 		.long	0xa30
 9587 050e 00        		.byte	0x0
 9588 050f 0C        		.uleb128 0xc
 9589 0510 01        		.byte	0x1
 9590 0511 0000 0000 		.long	.LASF49
 9591 0515 02        		.byte	0x2
 9592 0516 83        		.byte	0x83
 9593 0517 0000 0000 		.long	.LASF50
 9594 051b 4100 0000 		.long	0x41
 9595 051f 01        		.byte	0x1
 9596 0520 3005 0000 		.long	0x530
 9597 0524 09        		.uleb128 0x9
 9598 0525 190A 0000 		.long	0xa19
 9599 0529 01        		.byte	0x1
 9600 052a 0B        		.uleb128 0xb
 9601 052b 3B0A 0000 		.long	0xa3b
 9602 052f 00        		.byte	0x0
 9603 0530 0C        		.uleb128 0xc
 9604 0531 01        		.byte	0x1
 9605 0532 0000 0000 		.long	.LASF49
 9606 0536 02        		.byte	0x2
 9607 0537 84        		.byte	0x84
 9608 0538 0000 0000 		.long	.LASF51
 9609 053c 4100 0000 		.long	0x41
 9610 0540 01        		.byte	0x1
 9611 0541 5105 0000 		.long	0x551
 9612 0545 09        		.uleb128 0x9
 9613 0546 190A 0000 		.long	0xa19
 9614 054a 01        		.byte	0x1
 9615 054b 0B        		.uleb128 0xb
 9616 054c 300A 0000 		.long	0xa30
 9617 0550 00        		.byte	0x0
 9618 0551 0C        		.uleb128 0xc
 9619 0552 01        		.byte	0x1
 9620 0553 0000 0000 		.long	.LASF52
 9621 0557 02        		.byte	0x2
 9622 0558 85        		.byte	0x85
 9623 0559 0000 0000 		.long	.LASF53
 9624 055d 4100 0000 		.long	0x41
 9625 0561 01        		.byte	0x1
 9626 0562 7205 0000 		.long	0x572
 9627 0566 09        		.uleb128 0x9
 9628 0567 190A 0000 		.long	0xa19
 9629 056b 01        		.byte	0x1
 9630 056c 0B        		.uleb128 0xb
 9631 056d 3B0A 0000 		.long	0xa3b
 9632 0571 00        		.byte	0x0
 9633 0572 0C        		.uleb128 0xc
GAS LISTING /var/folders/1s/lqjcb7x5323625d47g9gdgmr0000gp/T//ccbjwlOH.s 			page 170


 9634 0573 01        		.byte	0x1
 9635 0574 0000 0000 		.long	.LASF54
 9636 0578 02        		.byte	0x2
 9637 0579 86        		.byte	0x86
 9638 057a 0000 0000 		.long	.LASF55
 9639 057e 4100 0000 		.long	0x41
 9640 0582 01        		.byte	0x1
 9641 0583 9305 0000 		.long	0x593
 9642 0587 09        		.uleb128 0x9
 9643 0588 190A 0000 		.long	0xa19
 9644 058c 01        		.byte	0x1
 9645 058d 0B        		.uleb128 0xb
 9646 058e 3B0A 0000 		.long	0xa3b
 9647 0592 00        		.byte	0x0
 9648 0593 0C        		.uleb128 0xc
 9649 0594 01        		.byte	0x1
 9650 0595 0000 0000 		.long	.LASF56
 9651 0599 02        		.byte	0x2
 9652 059a 87        		.byte	0x87
 9653 059b 0000 0000 		.long	.LASF57
 9654 059f 4100 0000 		.long	0x41
 9655 05a3 01        		.byte	0x1
 9656 05a4 B405 0000 		.long	0x5b4
 9657 05a8 09        		.uleb128 0x9
 9658 05a9 190A 0000 		.long	0xa19
 9659 05ad 01        		.byte	0x1
 9660 05ae 0B        		.uleb128 0xb
 9661 05af 3B0A 0000 		.long	0xa3b
 9662 05b3 00        		.byte	0x0
 9663 05b4 0C        		.uleb128 0xc
 9664 05b5 01        		.byte	0x1
 9665 05b6 0000 0000 		.long	.LASF58
 9666 05ba 02        		.byte	0x2
 9667 05bb 88        		.byte	0x88
 9668 05bc 0000 0000 		.long	.LASF59
 9669 05c0 4100 0000 		.long	0x41
 9670 05c4 01        		.byte	0x1
 9671 05c5 D505 0000 		.long	0x5d5
 9672 05c9 09        		.uleb128 0x9
 9673 05ca 190A 0000 		.long	0xa19
 9674 05ce 01        		.byte	0x1
 9675 05cf 0B        		.uleb128 0xb
 9676 05d0 3B0A 0000 		.long	0xa3b
 9677 05d4 00        		.byte	0x0
 9678 05d5 0C        		.uleb128 0xc
 9679 05d6 01        		.byte	0x1
 9680 05d7 0000 0000 		.long	.LASF60
 9681 05db 02        		.byte	0x2
 9682 05dc 89        		.byte	0x89
 9683 05dd 0000 0000 		.long	.LASF61
 9684 05e1 4100 0000 		.long	0x41
 9685 05e5 01        		.byte	0x1
 9686 05e6 F605 0000 		.long	0x5f6
 9687 05ea 09        		.uleb128 0x9
 9688 05eb 190A 0000 		.long	0xa19
 9689 05ef 01        		.byte	0x1
 9690 05f0 0B        		.uleb128 0xb
GAS LISTING /var/folders/1s/lqjcb7x5323625d47g9gdgmr0000gp/T//ccbjwlOH.s 			page 171


 9691 05f1 3B0A 0000 		.long	0xa3b
 9692 05f5 00        		.byte	0x0
 9693 05f6 0C        		.uleb128 0xc
 9694 05f7 01        		.byte	0x1
 9695 05f8 0000 0000 		.long	.LASF62
 9696 05fc 02        		.byte	0x2
 9697 05fd 8A        		.byte	0x8a
 9698 05fe 0000 0000 		.long	.LASF63
 9699 0602 4100 0000 		.long	0x41
 9700 0606 01        		.byte	0x1
 9701 0607 1706 0000 		.long	0x617
 9702 060b 09        		.uleb128 0x9
 9703 060c 190A 0000 		.long	0xa19
 9704 0610 01        		.byte	0x1
 9705 0611 0B        		.uleb128 0xb
 9706 0612 3B0A 0000 		.long	0xa3b
 9707 0616 00        		.byte	0x0
 9708 0617 0C        		.uleb128 0xc
 9709 0618 01        		.byte	0x1
 9710 0619 0000 0000 		.long	.LASF62
 9711 061d 02        		.byte	0x2
 9712 061e 8B        		.byte	0x8b
 9713 061f 0000 0000 		.long	.LASF64
 9714 0623 4100 0000 		.long	0x41
 9715 0627 01        		.byte	0x1
 9716 0628 3D06 0000 		.long	0x63d
 9717 062c 09        		.uleb128 0x9
 9718 062d 190A 0000 		.long	0xa19
 9719 0631 01        		.byte	0x1
 9720 0632 0B        		.uleb128 0xb
 9721 0633 3B0A 0000 		.long	0xa3b
 9722 0637 0B        		.uleb128 0xb
 9723 0638 2500 0000 		.long	0x25
 9724 063c 00        		.byte	0x0
 9725 063d 0C        		.uleb128 0xc
 9726 063e 01        		.byte	0x1
 9727 063f 0000 0000 		.long	.LASF65
 9728 0643 02        		.byte	0x2
 9729 0644 8C        		.byte	0x8c
 9730 0645 0000 0000 		.long	.LASF66
 9731 0649 4100 0000 		.long	0x41
 9732 064d 01        		.byte	0x1
 9733 064e 5E06 0000 		.long	0x65e
 9734 0652 09        		.uleb128 0x9
 9735 0653 190A 0000 		.long	0xa19
 9736 0657 01        		.byte	0x1
 9737 0658 0B        		.uleb128 0xb
 9738 0659 3B0A 0000 		.long	0xa3b
 9739 065d 00        		.byte	0x0
 9740 065e 0C        		.uleb128 0xc
 9741 065f 01        		.byte	0x1
 9742 0660 0000 0000 		.long	.LASF67
 9743 0664 02        		.byte	0x2
 9744 0665 8F        		.byte	0x8f
 9745 0666 0000 0000 		.long	.LASF68
 9746 066a E109 0000 		.long	0x9e1
 9747 066e 01        		.byte	0x1
GAS LISTING /var/folders/1s/lqjcb7x5323625d47g9gdgmr0000gp/T//ccbjwlOH.s 			page 172


 9748 066f 7F06 0000 		.long	0x67f
 9749 0673 09        		.uleb128 0x9
 9750 0674 190A 0000 		.long	0xa19
 9751 0678 01        		.byte	0x1
 9752 0679 0B        		.uleb128 0xb
 9753 067a 2500 0000 		.long	0x25
 9754 067e 00        		.byte	0x0
 9755 067f 0D        		.uleb128 0xd
 9756 0680 01        		.byte	0x1
 9757 0681 0000 0000 		.long	.LASF72
 9758 0685 02        		.byte	0x2
 9759 0686 90        		.byte	0x90
 9760 0687 0000 0000 		.long	.LASF74
 9761 068b 01        		.byte	0x1
 9762 068c A106 0000 		.long	0x6a1
 9763 0690 09        		.uleb128 0x9
 9764 0691 2A0A 0000 		.long	0xa2a
 9765 0695 01        		.byte	0x1
 9766 0696 0B        		.uleb128 0xb
 9767 0697 2500 0000 		.long	0x25
 9768 069b 0B        		.uleb128 0xb
 9769 069c E109 0000 		.long	0x9e1
 9770 06a0 00        		.byte	0x0
 9771 06a1 0C        		.uleb128 0xc
 9772 06a2 01        		.byte	0x1
 9773 06a3 0000 0000 		.long	.LASF69
 9774 06a7 02        		.byte	0x2
 9775 06a8 91        		.byte	0x91
 9776 06a9 0000 0000 		.long	.LASF70
 9777 06ad E109 0000 		.long	0x9e1
 9778 06b1 01        		.byte	0x1
 9779 06b2 C206 0000 		.long	0x6c2
 9780 06b6 09        		.uleb128 0x9
 9781 06b7 190A 0000 		.long	0xa19
 9782 06bb 01        		.byte	0x1
 9783 06bc 0B        		.uleb128 0xb
 9784 06bd 2500 0000 		.long	0x25
 9785 06c1 00        		.byte	0x0
 9786 06c2 0C        		.uleb128 0xc
 9787 06c3 01        		.byte	0x1
 9788 06c4 0000 0000 		.long	.LASF69
 9789 06c8 02        		.byte	0x2
 9790 06c9 92        		.byte	0x92
 9791 06ca 0000 0000 		.long	.LASF71
 9792 06ce 470A 0000 		.long	0xa47
 9793 06d2 01        		.byte	0x1
 9794 06d3 E306 0000 		.long	0x6e3
 9795 06d7 09        		.uleb128 0x9
 9796 06d8 2A0A 0000 		.long	0xa2a
 9797 06dc 01        		.byte	0x1
 9798 06dd 0B        		.uleb128 0xb
 9799 06de 2500 0000 		.long	0x25
 9800 06e2 00        		.byte	0x0
 9801 06e3 0D        		.uleb128 0xd
 9802 06e4 01        		.byte	0x1
 9803 06e5 0000 0000 		.long	.LASF73
 9804 06e9 02        		.byte	0x2
GAS LISTING /var/folders/1s/lqjcb7x5323625d47g9gdgmr0000gp/T//ccbjwlOH.s 			page 173


 9805 06ea 93        		.byte	0x93
 9806 06eb 0000 0000 		.long	.LASF75
 9807 06ef 01        		.byte	0x1
 9808 06f0 0A07 0000 		.long	0x70a
 9809 06f4 09        		.uleb128 0x9
 9810 06f5 190A 0000 		.long	0xa19
 9811 06f9 01        		.byte	0x1
 9812 06fa 0B        		.uleb128 0xb
 9813 06fb 4D0A 0000 		.long	0xa4d
 9814 06ff 0B        		.uleb128 0xb
 9815 0700 2500 0000 		.long	0x25
 9816 0704 0B        		.uleb128 0xb
 9817 0705 2500 0000 		.long	0x25
 9818 0709 00        		.byte	0x0
 9819 070a 0D        		.uleb128 0xd
 9820 070b 01        		.byte	0x1
 9821 070c 0000 0000 		.long	.LASF76
 9822 0710 02        		.byte	0x2
 9823 0711 94        		.byte	0x94
 9824 0712 0000 0000 		.long	.LASF77
 9825 0716 01        		.byte	0x1
 9826 0717 3107 0000 		.long	0x731
 9827 071b 09        		.uleb128 0x9
 9828 071c 190A 0000 		.long	0xa19
 9829 0720 01        		.byte	0x1
 9830 0721 0B        		.uleb128 0xb
 9831 0722 DB09 0000 		.long	0x9db
 9832 0726 0B        		.uleb128 0xb
 9833 0727 2500 0000 		.long	0x25
 9834 072b 0B        		.uleb128 0xb
 9835 072c 2500 0000 		.long	0x25
 9836 0730 00        		.byte	0x0
 9837 0731 0C        		.uleb128 0xc
 9838 0732 01        		.byte	0x1
 9839 0733 0000 0000 		.long	.LASF78
 9840 0737 02        		.byte	0x2
 9841 0738 98        		.byte	0x98
 9842 0739 0000 0000 		.long	.LASF79
 9843 073d 2C00 0000 		.long	0x2c
 9844 0741 01        		.byte	0x1
 9845 0742 5207 0000 		.long	0x752
 9846 0746 09        		.uleb128 0x9
 9847 0747 190A 0000 		.long	0xa19
 9848 074b 01        		.byte	0x1
 9849 074c 0B        		.uleb128 0xb
 9850 074d E109 0000 		.long	0x9e1
 9851 0751 00        		.byte	0x0
 9852 0752 0C        		.uleb128 0xc
 9853 0753 01        		.byte	0x1
 9854 0754 0000 0000 		.long	.LASF78
 9855 0758 02        		.byte	0x2
 9856 0759 99        		.byte	0x99
 9857 075a 0000 0000 		.long	.LASF80
 9858 075e 2C00 0000 		.long	0x2c
 9859 0762 01        		.byte	0x1
 9860 0763 7807 0000 		.long	0x778
 9861 0767 09        		.uleb128 0x9
GAS LISTING /var/folders/1s/lqjcb7x5323625d47g9gdgmr0000gp/T//ccbjwlOH.s 			page 174


 9862 0768 190A 0000 		.long	0xa19
 9863 076c 01        		.byte	0x1
 9864 076d 0B        		.uleb128 0xb
 9865 076e E109 0000 		.long	0x9e1
 9866 0772 0B        		.uleb128 0xb
 9867 0773 2500 0000 		.long	0x25
 9868 0777 00        		.byte	0x0
 9869 0778 0C        		.uleb128 0xc
 9870 0779 01        		.byte	0x1
 9871 077a 0000 0000 		.long	.LASF78
 9872 077e 02        		.byte	0x2
 9873 077f 9A        		.byte	0x9a
 9874 0780 0000 0000 		.long	.LASF81
 9875 0784 2C00 0000 		.long	0x2c
 9876 0788 01        		.byte	0x1
 9877 0789 9907 0000 		.long	0x799
 9878 078d 09        		.uleb128 0x9
 9879 078e 190A 0000 		.long	0xa19
 9880 0792 01        		.byte	0x1
 9881 0793 0B        		.uleb128 0xb
 9882 0794 3B0A 0000 		.long	0xa3b
 9883 0798 00        		.byte	0x0
 9884 0799 0C        		.uleb128 0xc
 9885 079a 01        		.byte	0x1
 9886 079b 0000 0000 		.long	.LASF78
 9887 079f 02        		.byte	0x2
 9888 07a0 9B        		.byte	0x9b
 9889 07a1 0000 0000 		.long	.LASF82
 9890 07a5 2C00 0000 		.long	0x2c
 9891 07a9 01        		.byte	0x1
 9892 07aa BF07 0000 		.long	0x7bf
 9893 07ae 09        		.uleb128 0x9
 9894 07af 190A 0000 		.long	0xa19
 9895 07b3 01        		.byte	0x1
 9896 07b4 0B        		.uleb128 0xb
 9897 07b5 3B0A 0000 		.long	0xa3b
 9898 07b9 0B        		.uleb128 0xb
 9899 07ba 2500 0000 		.long	0x25
 9900 07be 00        		.byte	0x0
 9901 07bf 0C        		.uleb128 0xc
 9902 07c0 01        		.byte	0x1
 9903 07c1 0000 0000 		.long	.LASF83
 9904 07c5 02        		.byte	0x2
 9905 07c6 9C        		.byte	0x9c
 9906 07c7 0000 0000 		.long	.LASF84
 9907 07cb 2C00 0000 		.long	0x2c
 9908 07cf 01        		.byte	0x1
 9909 07d0 E007 0000 		.long	0x7e0
 9910 07d4 09        		.uleb128 0x9
 9911 07d5 190A 0000 		.long	0xa19
 9912 07d9 01        		.byte	0x1
 9913 07da 0B        		.uleb128 0xb
 9914 07db E109 0000 		.long	0x9e1
 9915 07df 00        		.byte	0x0
 9916 07e0 0C        		.uleb128 0xc
 9917 07e1 01        		.byte	0x1
 9918 07e2 0000 0000 		.long	.LASF83
GAS LISTING /var/folders/1s/lqjcb7x5323625d47g9gdgmr0000gp/T//ccbjwlOH.s 			page 175


 9919 07e6 02        		.byte	0x2
 9920 07e7 9D        		.byte	0x9d
 9921 07e8 0000 0000 		.long	.LASF85
 9922 07ec 2C00 0000 		.long	0x2c
 9923 07f0 01        		.byte	0x1
 9924 07f1 0608 0000 		.long	0x806
 9925 07f5 09        		.uleb128 0x9
 9926 07f6 190A 0000 		.long	0xa19
 9927 07fa 01        		.byte	0x1
 9928 07fb 0B        		.uleb128 0xb
 9929 07fc E109 0000 		.long	0x9e1
 9930 0800 0B        		.uleb128 0xb
 9931 0801 2500 0000 		.long	0x25
 9932 0805 00        		.byte	0x0
 9933 0806 0C        		.uleb128 0xc
 9934 0807 01        		.byte	0x1
 9935 0808 0000 0000 		.long	.LASF83
 9936 080c 02        		.byte	0x2
 9937 080d 9E        		.byte	0x9e
 9938 080e 0000 0000 		.long	.LASF86
 9939 0812 2C00 0000 		.long	0x2c
 9940 0816 01        		.byte	0x1
 9941 0817 2708 0000 		.long	0x827
 9942 081b 09        		.uleb128 0x9
 9943 081c 190A 0000 		.long	0xa19
 9944 0820 01        		.byte	0x1
 9945 0821 0B        		.uleb128 0xb
 9946 0822 3B0A 0000 		.long	0xa3b
 9947 0826 00        		.byte	0x0
 9948 0827 0C        		.uleb128 0xc
 9949 0828 01        		.byte	0x1
 9950 0829 0000 0000 		.long	.LASF83
 9951 082d 02        		.byte	0x2
 9952 082e 9F        		.byte	0x9f
 9953 082f 0000 0000 		.long	.LASF87
 9954 0833 2C00 0000 		.long	0x2c
 9955 0837 01        		.byte	0x1
 9956 0838 4D08 0000 		.long	0x84d
 9957 083c 09        		.uleb128 0x9
 9958 083d 190A 0000 		.long	0xa19
 9959 0841 01        		.byte	0x1
 9960 0842 0B        		.uleb128 0xb
 9961 0843 3B0A 0000 		.long	0xa3b
 9962 0847 0B        		.uleb128 0xb
 9963 0848 2500 0000 		.long	0x25
 9964 084c 00        		.byte	0x0
 9965 084d 0C        		.uleb128 0xc
 9966 084e 01        		.byte	0x1
 9967 084f 0000 0000 		.long	.LASF88
 9968 0853 02        		.byte	0x2
 9969 0854 A0        		.byte	0xa0
 9970 0855 0000 0000 		.long	.LASF89
 9971 0859 6300 0000 		.long	0x63
 9972 085d 01        		.byte	0x1
 9973 085e 6E08 0000 		.long	0x86e
 9974 0862 09        		.uleb128 0x9
 9975 0863 190A 0000 		.long	0xa19
GAS LISTING /var/folders/1s/lqjcb7x5323625d47g9gdgmr0000gp/T//ccbjwlOH.s 			page 176


 9976 0867 01        		.byte	0x1
 9977 0868 0B        		.uleb128 0xb
 9978 0869 2500 0000 		.long	0x25
 9979 086d 00        		.byte	0x0
 9980 086e 0C        		.uleb128 0xc
 9981 086f 01        		.byte	0x1
 9982 0870 0000 0000 		.long	.LASF88
 9983 0874 02        		.byte	0x2
 9984 0875 A1        		.byte	0xa1
 9985 0876 0000 0000 		.long	.LASF90
 9986 087a 6300 0000 		.long	0x63
 9987 087e 01        		.byte	0x1
 9988 087f 9408 0000 		.long	0x894
 9989 0883 09        		.uleb128 0x9
 9990 0884 190A 0000 		.long	0xa19
 9991 0888 01        		.byte	0x1
 9992 0889 0B        		.uleb128 0xb
 9993 088a 2500 0000 		.long	0x25
 9994 088e 0B        		.uleb128 0xb
 9995 088f 2500 0000 		.long	0x25
 9996 0893 00        		.byte	0x0
 9997 0894 0D        		.uleb128 0xd
 9998 0895 01        		.byte	0x1
 9999 0896 0000 0000 		.long	.LASF91
 10000 089a 02        		.byte	0x2
 10001 089b A4        		.byte	0xa4
 10002 089c 0000 0000 		.long	.LASF92
 10003 08a0 01        		.byte	0x1
 10004 08a1 B608 0000 		.long	0x8b6
 10005 08a5 09        		.uleb128 0x9
 10006 08a6 2A0A 0000 		.long	0xa2a
 10007 08aa 01        		.byte	0x1
 10008 08ab 0B        		.uleb128 0xb
 10009 08ac E109 0000 		.long	0x9e1
 10010 08b0 0B        		.uleb128 0xb
 10011 08b1 E109 0000 		.long	0x9e1
 10012 08b5 00        		.byte	0x0
 10013 08b6 0D        		.uleb128 0xd
 10014 08b7 01        		.byte	0x1
 10015 08b8 0000 0000 		.long	.LASF91
 10016 08bc 02        		.byte	0x2
 10017 08bd A5        		.byte	0xa5
 10018 08be 0000 0000 		.long	.LASF93
 10019 08c2 01        		.byte	0x1
 10020 08c3 D808 0000 		.long	0x8d8
 10021 08c7 09        		.uleb128 0x9
 10022 08c8 2A0A 0000 		.long	0xa2a
 10023 08cc 01        		.byte	0x1
 10024 08cd 0B        		.uleb128 0xb
 10025 08ce 3B0A 0000 		.long	0xa3b
 10026 08d2 0B        		.uleb128 0xb
 10027 08d3 3B0A 0000 		.long	0xa3b
 10028 08d7 00        		.byte	0x0
 10029 08d8 0D        		.uleb128 0xd
 10030 08d9 01        		.byte	0x1
 10031 08da 0000 0000 		.long	.LASF94
 10032 08de 02        		.byte	0x2
GAS LISTING /var/folders/1s/lqjcb7x5323625d47g9gdgmr0000gp/T//ccbjwlOH.s 			page 177


 10033 08df A6        		.byte	0xa6
 10034 08e0 0000 0000 		.long	.LASF95
 10035 08e4 01        		.byte	0x1
 10036 08e5 F008 0000 		.long	0x8f0
 10037 08e9 09        		.uleb128 0x9
 10038 08ea 2A0A 0000 		.long	0xa2a
 10039 08ee 01        		.byte	0x1
 10040 08ef 00        		.byte	0x0
 10041 08f0 0D        		.uleb128 0xd
 10042 08f1 01        		.byte	0x1
 10043 08f2 0000 0000 		.long	.LASF96
 10044 08f6 02        		.byte	0x2
 10045 08f7 A7        		.byte	0xa7
 10046 08f8 0000 0000 		.long	.LASF97
 10047 08fc 01        		.byte	0x1
 10048 08fd 0809 0000 		.long	0x908
 10049 0901 09        		.uleb128 0x9
 10050 0902 2A0A 0000 		.long	0xa2a
 10051 0906 01        		.byte	0x1
 10052 0907 00        		.byte	0x0
 10053 0908 0D        		.uleb128 0xd
 10054 0909 01        		.byte	0x1
 10055 090a 0000 0000 		.long	.LASF98
 10056 090e 02        		.byte	0x2
 10057 090f A8        		.byte	0xa8
 10058 0910 0000 0000 		.long	.LASF99
 10059 0914 01        		.byte	0x1
 10060 0915 2009 0000 		.long	0x920
 10061 0919 09        		.uleb128 0x9
 10062 091a 2A0A 0000 		.long	0xa2a
 10063 091e 01        		.byte	0x1
 10064 091f 00        		.byte	0x0
 10065 0920 0C        		.uleb128 0xc
 10066 0921 01        		.byte	0x1
 10067 0922 0000 0000 		.long	.LASF100
 10068 0926 02        		.byte	0x2
 10069 0927 AB        		.byte	0xab
 10070 0928 0000 0000 		.long	.LASF101
 10071 092c 3300 0000 		.long	0x33
 10072 0930 01        		.byte	0x1
 10073 0931 3C09 0000 		.long	0x93c
 10074 0935 09        		.uleb128 0x9
 10075 0936 190A 0000 		.long	0xa19
 10076 093a 01        		.byte	0x1
 10077 093b 00        		.byte	0x0
 10078 093c 08        		.uleb128 0x8
 10079 093d 01        		.byte	0x1
 10080 093e 0000 0000 		.long	.LASF102
 10081 0942 02        		.byte	0x2
 10082 0943 B3        		.byte	0xb3
 10083 0944 0000 0000 		.long	.LASF103
 10084 0948 02        		.byte	0x2
 10085 0949 01        		.byte	0x1
 10086 094a 5509 0000 		.long	0x955
 10087 094e 09        		.uleb128 0x9
 10088 094f 2A0A 0000 		.long	0xa2a
 10089 0953 01        		.byte	0x1
GAS LISTING /var/folders/1s/lqjcb7x5323625d47g9gdgmr0000gp/T//ccbjwlOH.s 			page 178


 10090 0954 00        		.byte	0x0
 10091 0955 08        		.uleb128 0x8
 10092 0956 01        		.byte	0x1
 10093 0957 0000 0000 		.long	.LASF104
 10094 095b 02        		.byte	0x2
 10095 095c B4        		.byte	0xb4
 10096 095d 0000 0000 		.long	.LASF105
 10097 0961 02        		.byte	0x2
 10098 0962 01        		.byte	0x1
 10099 0963 6E09 0000 		.long	0x96e
 10100 0967 09        		.uleb128 0x9
 10101 0968 2A0A 0000 		.long	0xa2a
 10102 096c 01        		.byte	0x1
 10103 096d 00        		.byte	0x0
 10104 096e 0E        		.uleb128 0xe
 10105 096f 01        		.byte	0x1
 10106 0970 0000 0000 		.long	.LASF106
 10107 0974 02        		.byte	0x2
 10108 0975 B5        		.byte	0xb5
 10109 0976 0000 0000 		.long	.LASF107
 10110 097a 4100 0000 		.long	0x41
 10111 097e 02        		.byte	0x2
 10112 097f 01        		.byte	0x1
 10113 0980 9009 0000 		.long	0x990
 10114 0984 09        		.uleb128 0x9
 10115 0985 2A0A 0000 		.long	0xa2a
 10116 0989 01        		.byte	0x1
 10117 098a 0B        		.uleb128 0xb
 10118 098b 2500 0000 		.long	0x25
 10119 098f 00        		.byte	0x0
 10120 0990 0E        		.uleb128 0xe
 10121 0991 01        		.byte	0x1
 10122 0992 0000 0000 		.long	.LASF21
 10123 0996 02        		.byte	0x2
 10124 0997 B6        		.byte	0xb6
 10125 0998 0000 0000 		.long	.LASF108
 10126 099c 4100 0000 		.long	0x41
 10127 09a0 02        		.byte	0x2
 10128 09a1 01        		.byte	0x1
 10129 09a2 B709 0000 		.long	0x9b7
 10130 09a6 09        		.uleb128 0x9
 10131 09a7 2A0A 0000 		.long	0xa2a
 10132 09ab 01        		.byte	0x1
 10133 09ac 0B        		.uleb128 0xb
 10134 09ad 300A 0000 		.long	0xa30
 10135 09b1 0B        		.uleb128 0xb
 10136 09b2 2500 0000 		.long	0x25
 10137 09b6 00        		.byte	0x0
 10138 09b7 0F        		.uleb128 0xf
 10139 09b8 01        		.byte	0x1
 10140 09b9 0000 0000 		.long	.LASF109
 10141 09bd 02        		.byte	0x2
 10142 09be B9        		.byte	0xb9
 10143 09bf 0000 0000 		.long	.LASF110
 10144 09c3 410A 0000 		.long	0xa41
 10145 09c7 02        		.byte	0x2
 10146 09c8 01        		.byte	0x1
GAS LISTING /var/folders/1s/lqjcb7x5323625d47g9gdgmr0000gp/T//ccbjwlOH.s 			page 179


 10147 09c9 09        		.uleb128 0x9
 10148 09ca 2A0A 0000 		.long	0xa2a
 10149 09ce 01        		.byte	0x1
 10150 09cf 0B        		.uleb128 0xb
 10151 09d0 300A 0000 		.long	0xa30
 10152 09d4 0B        		.uleb128 0xb
 10153 09d5 2500 0000 		.long	0x25
 10154 09d9 00        		.byte	0x0
 10155 09da 00        		.byte	0x0
 10156 09db 10        		.uleb128 0x10
 10157 09dc 02        		.byte	0x2
 10158 09dd E109 0000 		.long	0x9e1
 10159 09e1 02        		.uleb128 0x2
 10160 09e2 01        		.byte	0x1
 10161 09e3 06        		.byte	0x6
 10162 09e4 0000 0000 		.long	.LASF111
 10163 09e8 11        		.uleb128 0x11
 10164 09e9 04        		.byte	0x4
 10165 09ea 02        		.byte	0x2
 10166 09eb 32        		.byte	0x32
 10167 09ec 0D0A 0000 		.long	0xa0d
 10168 09f0 12        		.uleb128 0x12
 10169 09f1 0000 0000 		.long	.LASF112
 10170 09f5 02        		.byte	0x2
 10171 09f6 32        		.byte	0x32
 10172 09f7 240A 0000 		.long	0xa24
 10173 09fb 02        		.byte	0x2
 10174 09fc 23        		.byte	0x23
 10175 09fd 00        		.uleb128 0x0
 10176 09fe 12        		.uleb128 0x12
 10177 09ff 0000 0000 		.long	.LASF113
 10178 0a03 02        		.byte	0x2
 10179 0a04 32        		.byte	0x32
 10180 0a05 2C00 0000 		.long	0x2c
 10181 0a09 02        		.byte	0x2
 10182 0a0a 23        		.byte	0x23
 10183 0a0b 02        		.uleb128 0x2
 10184 0a0c 00        		.byte	0x0
 10185 0a0d 13        		.uleb128 0x13
 10186 0a0e 190A 0000 		.long	0xa19
 10187 0a12 09        		.uleb128 0x9
 10188 0a13 190A 0000 		.long	0xa19
 10189 0a17 01        		.byte	0x1
 10190 0a18 00        		.byte	0x0
 10191 0a19 10        		.uleb128 0x10
 10192 0a1a 02        		.byte	0x2
 10193 0a1b 1F0A 0000 		.long	0xa1f
 10194 0a1f 14        		.uleb128 0x14
 10195 0a20 6300 0000 		.long	0x63
 10196 0a24 10        		.uleb128 0x10
 10197 0a25 02        		.byte	0x2
 10198 0a26 0D0A 0000 		.long	0xa0d
 10199 0a2a 10        		.uleb128 0x10
 10200 0a2b 02        		.byte	0x2
 10201 0a2c 6300 0000 		.long	0x63
 10202 0a30 10        		.uleb128 0x10
 10203 0a31 02        		.byte	0x2
GAS LISTING /var/folders/1s/lqjcb7x5323625d47g9gdgmr0000gp/T//ccbjwlOH.s 			page 180


 10204 0a32 360A 0000 		.long	0xa36
 10205 0a36 14        		.uleb128 0x14
 10206 0a37 E109 0000 		.long	0x9e1
 10207 0a3b 15        		.uleb128 0x15
 10208 0a3c 02        		.byte	0x2
 10209 0a3d 1F0A 0000 		.long	0xa1f
 10210 0a41 15        		.uleb128 0x15
 10211 0a42 02        		.byte	0x2
 10212 0a43 6300 0000 		.long	0x63
 10213 0a47 15        		.uleb128 0x15
 10214 0a48 02        		.byte	0x2
 10215 0a49 E109 0000 		.long	0x9e1
 10216 0a4d 10        		.uleb128 0x10
 10217 0a4e 02        		.byte	0x2
 10218 0a4f 4100 0000 		.long	0x41
 10219 0a53 05        		.uleb128 0x5
 10220 0a54 0000 0000 		.long	.LASF114
 10221 0a58 07        		.byte	0x7
 10222 0a59 02        		.byte	0x2
 10223 0a5a C0        		.byte	0xc0
 10224 0a5b 2D0B 0000 		.long	0xb2d
 10225 0a5f 16        		.uleb128 0x16
 10226 0a60 6300 0000 		.long	0x63
 10227 0a64 02        		.byte	0x2
 10228 0a65 23        		.byte	0x23
 10229 0a66 00        		.uleb128 0x0
 10230 0a67 01        		.byte	0x1
 10231 0a68 0A        		.uleb128 0xa
 10232 0a69 01        		.byte	0x1
 10233 0a6a 0000 0000 		.long	.LASF114
 10234 0a6e 02        		.byte	0x2
 10235 0a6f C2        		.byte	0xc2
 10236 0a70 01        		.byte	0x1
 10237 0a71 810A 0000 		.long	0xa81
 10238 0a75 09        		.uleb128 0x9
 10239 0a76 2D0B 0000 		.long	0xb2d
 10240 0a7a 01        		.byte	0x1
 10241 0a7b 0B        		.uleb128 0xb
 10242 0a7c 3B0A 0000 		.long	0xa3b
 10243 0a80 00        		.byte	0x0
 10244 0a81 0A        		.uleb128 0xa
 10245 0a82 01        		.byte	0x1
 10246 0a83 0000 0000 		.long	.LASF114
 10247 0a87 02        		.byte	0x2
 10248 0a88 C3        		.byte	0xc3
 10249 0a89 01        		.byte	0x1
 10250 0a8a 9A0A 0000 		.long	0xa9a
 10251 0a8e 09        		.uleb128 0x9
 10252 0a8f 2D0B 0000 		.long	0xb2d
 10253 0a93 01        		.byte	0x1
 10254 0a94 0B        		.uleb128 0xb
 10255 0a95 300A 0000 		.long	0xa30
 10256 0a99 00        		.byte	0x0
 10257 0a9a 0A        		.uleb128 0xa
 10258 0a9b 01        		.byte	0x1
 10259 0a9c 0000 0000 		.long	.LASF114
 10260 0aa0 02        		.byte	0x2
GAS LISTING /var/folders/1s/lqjcb7x5323625d47g9gdgmr0000gp/T//ccbjwlOH.s 			page 181


 10261 0aa1 C4        		.byte	0xc4
 10262 0aa2 01        		.byte	0x1
 10263 0aa3 B30A 0000 		.long	0xab3
 10264 0aa7 09        		.uleb128 0x9
 10265 0aa8 2D0B 0000 		.long	0xb2d
 10266 0aac 01        		.byte	0x1
 10267 0aad 0B        		.uleb128 0xb
 10268 0aae E109 0000 		.long	0x9e1
 10269 0ab2 00        		.byte	0x0
 10270 0ab3 0A        		.uleb128 0xa
 10271 0ab4 01        		.byte	0x1
 10272 0ab5 0000 0000 		.long	.LASF114
 10273 0ab9 02        		.byte	0x2
 10274 0aba C5        		.byte	0xc5
 10275 0abb 01        		.byte	0x1
 10276 0abc CC0A 0000 		.long	0xacc
 10277 0ac0 09        		.uleb128 0x9
 10278 0ac1 2D0B 0000 		.long	0xb2d
 10279 0ac5 01        		.byte	0x1
 10280 0ac6 0B        		.uleb128 0xb
 10281 0ac7 4100 0000 		.long	0x41
 10282 0acb 00        		.byte	0x0
 10283 0acc 0A        		.uleb128 0xa
 10284 0acd 01        		.byte	0x1
 10285 0ace 0000 0000 		.long	.LASF114
 10286 0ad2 02        		.byte	0x2
 10287 0ad3 C6        		.byte	0xc6
 10288 0ad4 01        		.byte	0x1
 10289 0ad5 E50A 0000 		.long	0xae5
 10290 0ad9 09        		.uleb128 0x9
 10291 0ada 2D0B 0000 		.long	0xb2d
 10292 0ade 01        		.byte	0x1
 10293 0adf 0B        		.uleb128 0xb
 10294 0ae0 2C00 0000 		.long	0x2c
 10295 0ae4 00        		.byte	0x0
 10296 0ae5 0A        		.uleb128 0xa
 10297 0ae6 01        		.byte	0x1
 10298 0ae7 0000 0000 		.long	.LASF114
 10299 0aeb 02        		.byte	0x2
 10300 0aec C7        		.byte	0xc7
 10301 0aed 01        		.byte	0x1
 10302 0aee FE0A 0000 		.long	0xafe
 10303 0af2 09        		.uleb128 0x9
 10304 0af3 2D0B 0000 		.long	0xb2d
 10305 0af7 01        		.byte	0x1
 10306 0af8 0B        		.uleb128 0xb
 10307 0af9 2500 0000 		.long	0x25
 10308 0afd 00        		.byte	0x0
 10309 0afe 0A        		.uleb128 0xa
 10310 0aff 01        		.byte	0x1
 10311 0b00 0000 0000 		.long	.LASF114
 10312 0b04 02        		.byte	0x2
 10313 0b05 C8        		.byte	0xc8
 10314 0b06 01        		.byte	0x1
 10315 0b07 170B 0000 		.long	0xb17
 10316 0b0b 09        		.uleb128 0x9
 10317 0b0c 2D0B 0000 		.long	0xb2d
GAS LISTING /var/folders/1s/lqjcb7x5323625d47g9gdgmr0000gp/T//ccbjwlOH.s 			page 182


 10318 0b10 01        		.byte	0x1
 10319 0b11 0B        		.uleb128 0xb
 10320 0b12 3300 0000 		.long	0x33
 10321 0b16 00        		.byte	0x0
 10322 0b17 17        		.uleb128 0x17
 10323 0b18 01        		.byte	0x1
 10324 0b19 0000 0000 		.long	.LASF114
 10325 0b1d 02        		.byte	0x2
 10326 0b1e C9        		.byte	0xc9
 10327 0b1f 01        		.byte	0x1
 10328 0b20 09        		.uleb128 0x9
 10329 0b21 2D0B 0000 		.long	0xb2d
 10330 0b25 01        		.byte	0x1
 10331 0b26 0B        		.uleb128 0xb
 10332 0b27 4800 0000 		.long	0x48
 10333 0b2b 00        		.byte	0x0
 10334 0b2c 00        		.byte	0x0
 10335 0b2d 10        		.uleb128 0x10
 10336 0b2e 02        		.byte	0x2
 10337 0b2f 530A 0000 		.long	0xa53
 10338 0b33 18        		.uleb128 0x18
 10339 0b34 A106 0000 		.long	0x6a1
 10340 0b38 01        		.byte	0x1
 10341 0b39 BF01      		.word	0x1bf
 10342 0b3b 01        		.byte	0x1
 10343 0b3c 570B 0000 		.long	0xb57
 10344 0b40 19        		.uleb128 0x19
 10345 0b41 0000 0000 		.long	.LASF115
 10346 0b45 570B 0000 		.long	0xb57
 10347 0b49 01        		.byte	0x1
 10348 0b4a 1A        		.uleb128 0x1a
 10349 0b4b 0000 0000 		.long	.LASF116
 10350 0b4f 01        		.byte	0x1
 10351 0b50 BF01      		.word	0x1bf
 10352 0b52 2500 0000 		.long	0x25
 10353 0b56 00        		.byte	0x0
 10354 0b57 14        		.uleb128 0x14
 10355 0b58 190A 0000 		.long	0xa19
 10356 0b5c 1B        		.uleb128 0x1b
 10357 0b5d 3C09 0000 		.long	0x93c
 10358 0b61 01        		.byte	0x1
 10359 0b62 70        		.byte	0x70
 10360 0b63 03        		.byte	0x3
 10361 0b64 730B 0000 		.long	0xb73
 10362 0b68 19        		.uleb128 0x19
 10363 0b69 0000 0000 		.long	.LASF115
 10364 0b6d 730B 0000 		.long	0xb73
 10365 0b71 01        		.byte	0x1
 10366 0b72 00        		.byte	0x0
 10367 0b73 14        		.uleb128 0x14
 10368 0b74 2A0A 0000 		.long	0xa2a
 10369 0b78 1C        		.uleb128 0x1c
 10370 0b79 5E06 0000 		.long	0x65e
 10371 0b7d 01        		.byte	0x1
 10372 0b7e AB01      		.word	0x1ab
 10373 0b80 0000 0000 		.long	.LFB104
 10374 0b84 0000 0000 		.long	.LFE104
GAS LISTING /var/folders/1s/lqjcb7x5323625d47g9gdgmr0000gp/T//ccbjwlOH.s 			page 183


 10375 0b88 02        		.byte	0x2
 10376 0b89 90        		.byte	0x90
 10377 0b8a 20        		.uleb128 0x20
 10378 0b8b CC0B 0000 		.long	0xbcc
 10379 0b8f 1D        		.uleb128 0x1d
 10380 0b90 0000 0000 		.long	.LASF115
 10381 0b94 570B 0000 		.long	0xb57
 10382 0b98 01        		.byte	0x1
 10383 0b99 0000 0000 		.long	.LLST1
 10384 0b9d 1E        		.uleb128 0x1e
 10385 0b9e 6C6F 6300 		.string	"loc"
 10386 0ba2 01        		.byte	0x1
 10387 0ba3 AB01      		.word	0x1ab
 10388 0ba5 2500 0000 		.long	0x25
 10389 0ba9 06        		.byte	0x6
 10390 0baa 66        		.byte	0x66
 10391 0bab 93        		.byte	0x93
 10392 0bac 01        		.uleb128 0x1
 10393 0bad 67        		.byte	0x67
 10394 0bae 93        		.byte	0x93
 10395 0baf 01        		.uleb128 0x1
 10396 0bb0 1F        		.uleb128 0x1f
 10397 0bb1 330B 0000 		.long	0xb33
 10398 0bb5 0000 0000 		.long	.LBB64
 10399 0bb9 0000 0000 		.long	.LBE64
 10400 0bbd 01        		.byte	0x1
 10401 0bbe AD01      		.word	0x1ad
 10402 0bc0 20        		.uleb128 0x20
 10403 0bc1 4A0B 0000 		.long	0xb4a
 10404 0bc5 20        		.uleb128 0x20
 10405 0bc6 400B 0000 		.long	0xb40
 10406 0bca 00        		.byte	0x0
 10407 0bcb 00        		.byte	0x0
 10408 0bcc 1C        		.uleb128 0x1c
 10409 0bcd 7F06 0000 		.long	0x67f
 10410 0bd1 01        		.byte	0x1
 10411 0bd2 B001      		.word	0x1b0
 10412 0bd4 0000 0000 		.long	.LFB105
 10413 0bd8 0000 0000 		.long	.LFE105
 10414 0bdc 02        		.byte	0x2
 10415 0bdd 90        		.byte	0x90
 10416 0bde 20        		.uleb128 0x20
 10417 0bdf 110C 0000 		.long	0xc11
 10418 0be3 1D        		.uleb128 0x1d
 10419 0be4 0000 0000 		.long	.LASF115
 10420 0be8 730B 0000 		.long	0xb73
 10421 0bec 01        		.byte	0x1
 10422 0bed 0000 0000 		.long	.LLST3
 10423 0bf1 1E        		.uleb128 0x1e
 10424 0bf2 6C6F 6300 		.string	"loc"
 10425 0bf6 01        		.byte	0x1
 10426 0bf7 B001      		.word	0x1b0
 10427 0bf9 2500 0000 		.long	0x25
 10428 0bfd 06        		.byte	0x6
 10429 0bfe 66        		.byte	0x66
 10430 0bff 93        		.byte	0x93
 10431 0c00 01        		.uleb128 0x1
GAS LISTING /var/folders/1s/lqjcb7x5323625d47g9gdgmr0000gp/T//ccbjwlOH.s 			page 184


 10432 0c01 67        		.byte	0x67
 10433 0c02 93        		.byte	0x93
 10434 0c03 01        		.uleb128 0x1
 10435 0c04 1E        		.uleb128 0x1e
 10436 0c05 6300      		.string	"c"
 10437 0c07 01        		.byte	0x1
 10438 0c08 B001      		.word	0x1b0
 10439 0c0a E109 0000 		.long	0x9e1
 10440 0c0e 01        		.byte	0x1
 10441 0c0f 64        		.byte	0x64
 10442 0c10 00        		.byte	0x0
 10443 0c11 1C        		.uleb128 0x1c
 10444 0c12 C206 0000 		.long	0x6c2
 10445 0c16 01        		.byte	0x1
 10446 0c17 B501      		.word	0x1b5
 10447 0c19 0000 0000 		.long	.LFB106
 10448 0c1d 0000 0000 		.long	.LFE106
 10449 0c21 02        		.byte	0x2
 10450 0c22 90        		.byte	0x90
 10451 0c23 20        		.uleb128 0x20
 10452 0c24 590C 0000 		.long	0xc59
 10453 0c28 1D        		.uleb128 0x1d
 10454 0c29 0000 0000 		.long	.LASF115
 10455 0c2d 730B 0000 		.long	0xb73
 10456 0c31 01        		.byte	0x1
 10457 0c32 0000 0000 		.long	.LLST5
 10458 0c36 21        		.uleb128 0x21
 10459 0c37 0000 0000 		.long	.LASF116
 10460 0c3b 01        		.byte	0x1
 10461 0c3c B501      		.word	0x1b5
 10462 0c3e 2500 0000 		.long	0x25
 10463 0c42 0000 0000 		.long	.LLST6
 10464 0c46 22        		.uleb128 0x22
 10465 0c47 0000 0000 		.long	.LASF118
 10466 0c4b 01        		.byte	0x1
 10467 0c4c B701      		.word	0x1b7
 10468 0c4e E109 0000 		.long	0x9e1
 10469 0c52 05        		.byte	0x5
 10470 0c53 03        		.byte	0x3
 10471 0c54 0000 0000 		.long	_ZZN6StringixEjE19dummy_writable_char
 10472 0c58 00        		.byte	0x0
 10473 0c59 23        		.uleb128 0x23
 10474 0c5a 330B 0000 		.long	0xb33
 10475 0c5e 0000 0000 		.long	.LFB107
 10476 0c62 0000 0000 		.long	.LFE107
 10477 0c66 02        		.byte	0x2
 10478 0c67 90        		.byte	0x90
 10479 0c68 20        		.uleb128 0x20
 10480 0c69 830C 0000 		.long	0xc83
 10481 0c6d 24        		.uleb128 0x24
 10482 0c6e 400B 0000 		.long	0xb40
 10483 0c72 0000 0000 		.long	.LLST8
 10484 0c76 25        		.uleb128 0x25
 10485 0c77 4A0B 0000 		.long	0xb4a
 10486 0c7b 06        		.byte	0x6
 10487 0c7c 66        		.byte	0x66
 10488 0c7d 93        		.byte	0x93
GAS LISTING /var/folders/1s/lqjcb7x5323625d47g9gdgmr0000gp/T//ccbjwlOH.s 			page 185


 10489 0c7e 01        		.uleb128 0x1
 10490 0c7f 67        		.byte	0x67
 10491 0c80 93        		.byte	0x93
 10492 0c81 01        		.uleb128 0x1
 10493 0c82 00        		.byte	0x0
 10494 0c83 1C        		.uleb128 0x1c
 10495 0c84 9408 0000 		.long	0x894
 10496 0c88 01        		.byte	0x1
 10497 0c89 2C02      		.word	0x22c
 10498 0c8b 0000 0000 		.long	.LFB119
 10499 0c8f 0000 0000 		.long	.LFE119
 10500 0c93 02        		.byte	0x2
 10501 0c94 90        		.byte	0x90
 10502 0c95 20        		.uleb128 0x20
 10503 0c96 E00C 0000 		.long	0xce0
 10504 0c9a 1D        		.uleb128 0x1d
 10505 0c9b 0000 0000 		.long	.LASF115
 10506 0c9f 730B 0000 		.long	0xb73
 10507 0ca3 01        		.byte	0x1
 10508 0ca4 0000 0000 		.long	.LLST10
 10509 0ca8 26        		.uleb128 0x26
 10510 0ca9 0000 0000 		.long	.LASF117
 10511 0cad 01        		.byte	0x1
 10512 0cae 2C02      		.word	0x22c
 10513 0cb0 E109 0000 		.long	0x9e1
 10514 0cb4 01        		.byte	0x1
 10515 0cb5 66        		.byte	0x66
 10516 0cb6 26        		.uleb128 0x26
 10517 0cb7 0000 0000 		.long	.LASF91
 10518 0cbb 01        		.byte	0x1
 10519 0cbc 2C02      		.word	0x22c
 10520 0cbe E109 0000 		.long	0x9e1
 10521 0cc2 01        		.byte	0x1
 10522 0cc3 64        		.byte	0x64
 10523 0cc4 27        		.uleb128 0x27
 10524 0cc5 0000 0000 		.long	.LBB68
 10525 0cc9 0000 0000 		.long	.LBE68
 10526 0ccd 28        		.uleb128 0x28
 10527 0cce 7000      		.string	"p"
 10528 0cd0 01        		.byte	0x1
 10529 0cd1 2F02      		.word	0x22f
 10530 0cd3 DB09 0000 		.long	0x9db
 10531 0cd7 06        		.byte	0x6
 10532 0cd8 6E        		.byte	0x6e
 10533 0cd9 93        		.byte	0x93
 10534 0cda 01        		.uleb128 0x1
 10535 0cdb 6F        		.byte	0x6f
 10536 0cdc 93        		.byte	0x93
 10537 0cdd 01        		.uleb128 0x1
 10538 0cde 00        		.byte	0x0
 10539 0cdf 00        		.byte	0x0
 10540 0ce0 1C        		.uleb128 0x1c
 10541 0ce1 2009 0000 		.long	0x920
 10542 0ce5 01        		.byte	0x1
 10543 0ce6 7F02      		.word	0x27f
 10544 0ce8 0000 0000 		.long	.LFB124
 10545 0cec 0000 0000 		.long	.LFE124
GAS LISTING /var/folders/1s/lqjcb7x5323625d47g9gdgmr0000gp/T//ccbjwlOH.s 			page 186


 10546 0cf0 02        		.byte	0x2
 10547 0cf1 90        		.byte	0x90
 10548 0cf2 20        		.uleb128 0x20
 10549 0cf3 060D 0000 		.long	0xd06
 10550 0cf7 1D        		.uleb128 0x1d
 10551 0cf8 0000 0000 		.long	.LASF115
 10552 0cfc 570B 0000 		.long	0xb57
 10553 0d00 01        		.byte	0x1
 10554 0d01 0000 0000 		.long	.LLST12
 10555 0d05 00        		.byte	0x0
 10556 0d06 1C        		.uleb128 0x1c
 10557 0d07 0809 0000 		.long	0x908
 10558 0d0b 01        		.byte	0x1
 10559 0d0c 6F02      		.word	0x26f
 10560 0d0e 0000 0000 		.long	.LFB123
 10561 0d12 0000 0000 		.long	.LFE123
 10562 0d16 02        		.byte	0x2
 10563 0d17 90        		.byte	0x90
 10564 0d18 20        		.uleb128 0x20
 10565 0d19 4C0D 0000 		.long	0xd4c
 10566 0d1d 1D        		.uleb128 0x1d
 10567 0d1e 0000 0000 		.long	.LASF115
 10568 0d22 730B 0000 		.long	0xb73
 10569 0d26 01        		.byte	0x1
 10570 0d27 0000 0000 		.long	.LLST14
 10571 0d2b 29        		.uleb128 0x29
 10572 0d2c 0000 0000 		.long	.LASF119
 10573 0d30 01        		.byte	0x1
 10574 0d31 7202      		.word	0x272
 10575 0d33 DB09 0000 		.long	0x9db
 10576 0d37 0000 0000 		.long	.LLST15
 10577 0d3b 2A        		.uleb128 0x2a
 10578 0d3c 656E 6400 		.string	"end"
 10579 0d40 01        		.byte	0x1
 10580 0d41 7402      		.word	0x274
 10581 0d43 DB09 0000 		.long	0x9db
 10582 0d47 0000 0000 		.long	.LLST16
 10583 0d4b 00        		.byte	0x0
 10584 0d4c 1C        		.uleb128 0x1c
 10585 0d4d F008 0000 		.long	0x8f0
 10586 0d51 01        		.byte	0x1
 10587 0d52 6702      		.word	0x267
 10588 0d54 0000 0000 		.long	.LFB122
 10589 0d58 0000 0000 		.long	.LFE122
 10590 0d5c 02        		.byte	0x2
 10591 0d5d 90        		.byte	0x90
 10592 0d5e 20        		.uleb128 0x20
 10593 0d5f 8A0D 0000 		.long	0xd8a
 10594 0d63 1D        		.uleb128 0x1d
 10595 0d64 0000 0000 		.long	.LASF115
 10596 0d68 730B 0000 		.long	0xb73
 10597 0d6c 01        		.byte	0x1
 10598 0d6d 0000 0000 		.long	.LLST18
 10599 0d71 27        		.uleb128 0x27
 10600 0d72 0000 0000 		.long	.LBB74
 10601 0d76 0000 0000 		.long	.LBE74
 10602 0d7a 2A        		.uleb128 0x2a
GAS LISTING /var/folders/1s/lqjcb7x5323625d47g9gdgmr0000gp/T//ccbjwlOH.s 			page 187


 10603 0d7b 7000      		.string	"p"
 10604 0d7d 01        		.byte	0x1
 10605 0d7e 6A02      		.word	0x26a
 10606 0d80 DB09 0000 		.long	0x9db
 10607 0d84 0000 0000 		.long	.LLST19
 10608 0d88 00        		.byte	0x0
 10609 0d89 00        		.byte	0x0
 10610 0d8a 1C        		.uleb128 0x1c
 10611 0d8b D808 0000 		.long	0x8d8
 10612 0d8f 01        		.byte	0x1
 10613 0d90 5F02      		.word	0x25f
 10614 0d92 0000 0000 		.long	.LFB121
 10615 0d96 0000 0000 		.long	.LFE121
 10616 0d9a 02        		.byte	0x2
 10617 0d9b 90        		.byte	0x90
 10618 0d9c 20        		.uleb128 0x20
 10619 0d9d C80D 0000 		.long	0xdc8
 10620 0da1 1D        		.uleb128 0x1d
 10621 0da2 0000 0000 		.long	.LASF115
 10622 0da6 730B 0000 		.long	0xb73
 10623 0daa 01        		.byte	0x1
 10624 0dab 0000 0000 		.long	.LLST21
 10625 0daf 27        		.uleb128 0x27
 10626 0db0 0000 0000 		.long	.LBB78
 10627 0db4 0000 0000 		.long	.LBE78
 10628 0db8 2A        		.uleb128 0x2a
 10629 0db9 7000      		.string	"p"
 10630 0dbb 01        		.byte	0x1
 10631 0dbc 6202      		.word	0x262
 10632 0dbe DB09 0000 		.long	0x9db
 10633 0dc2 0000 0000 		.long	.LLST22
 10634 0dc6 00        		.byte	0x0
 10635 0dc7 00        		.byte	0x0
 10636 0dc8 1C        		.uleb128 0x1c
 10637 0dc9 D505 0000 		.long	0x5d5
 10638 0dcd 01        		.byte	0x1
 10639 0dce 8801      		.word	0x188
 10640 0dd0 0000 0000 		.long	.LFB100
 10641 0dd4 0000 0000 		.long	.LFE100
 10642 0dd8 02        		.byte	0x2
 10643 0dd9 90        		.byte	0x90
 10644 0dda 20        		.uleb128 0x20
 10645 0ddb 1B0E 0000 		.long	0xe1b
 10646 0ddf 1D        		.uleb128 0x1d
 10647 0de0 0000 0000 		.long	.LASF115
 10648 0de4 570B 0000 		.long	0xb57
 10649 0de8 01        		.byte	0x1
 10650 0de9 0000 0000 		.long	.LLST24
 10651 0ded 2B        		.uleb128 0x2b
 10652 0dee 7332 00   		.string	"s2"
 10653 0df1 01        		.byte	0x1
 10654 0df2 8801      		.word	0x188
 10655 0df4 1B0E 0000 		.long	0xe1b
 10656 0df8 0000 0000 		.long	.LLST25
 10657 0dfc 2A        		.uleb128 0x2a
 10658 0dfd 7031 00   		.string	"p1"
 10659 0e00 01        		.byte	0x1
GAS LISTING /var/folders/1s/lqjcb7x5323625d47g9gdgmr0000gp/T//ccbjwlOH.s 			page 188


 10660 0e01 8D01      		.word	0x18d
 10661 0e03 300A 0000 		.long	0xa30
 10662 0e07 0000 0000 		.long	.LLST26
 10663 0e0b 2A        		.uleb128 0x2a
 10664 0e0c 7032 00   		.string	"p2"
 10665 0e0f 01        		.byte	0x1
 10666 0e10 8E01      		.word	0x18e
 10667 0e12 300A 0000 		.long	0xa30
 10668 0e16 0000 0000 		.long	.LLST27
 10669 0e1a 00        		.byte	0x0
 10670 0e1b 14        		.uleb128 0x14
 10671 0e1c 3B0A 0000 		.long	0xa3b
 10672 0e20 1C        		.uleb128 0x1c
 10673 0e21 2708 0000 		.long	0x827
 10674 0e25 01        		.byte	0x1
 10675 0e26 0502      		.word	0x205
 10676 0e28 0000 0000 		.long	.LFB116
 10677 0e2c 0000 0000 		.long	.LFE116
 10678 0e30 02        		.byte	0x2
 10679 0e31 90        		.byte	0x90
 10680 0e32 20        		.uleb128 0x20
 10681 0e33 8D0E 0000 		.long	0xe8d
 10682 0e37 1D        		.uleb128 0x1d
 10683 0e38 0000 0000 		.long	.LASF115
 10684 0e3c 570B 0000 		.long	0xb57
 10685 0e40 01        		.byte	0x1
 10686 0e41 0000 0000 		.long	.LLST29
 10687 0e45 2B        		.uleb128 0x2b
 10688 0e46 7332 00   		.string	"s2"
 10689 0e49 01        		.byte	0x1
 10690 0e4a 0502      		.word	0x205
 10691 0e4c 8D0E 0000 		.long	0xe8d
 10692 0e50 0000 0000 		.long	.LLST30
 10693 0e54 21        		.uleb128 0x21
 10694 0e55 0000 0000 		.long	.LASF120
 10695 0e59 01        		.byte	0x1
 10696 0e5a 0502      		.word	0x205
 10697 0e5c 2500 0000 		.long	0x25
 10698 0e60 0000 0000 		.long	.LLST31
 10699 0e64 29        		.uleb128 0x29
 10700 0e65 0000 0000 		.long	.LASF121
 10701 0e69 01        		.byte	0x1
 10702 0e6a 0902      		.word	0x209
 10703 0e6c 2C00 0000 		.long	0x2c
 10704 0e70 0000 0000 		.long	.LLST32
 10705 0e74 27        		.uleb128 0x27
 10706 0e75 0000 0000 		.long	.LBB84
 10707 0e79 0000 0000 		.long	.LBE84
 10708 0e7d 2A        		.uleb128 0x2a
 10709 0e7e 7000      		.string	"p"
 10710 0e80 01        		.byte	0x1
 10711 0e81 0A02      		.word	0x20a
 10712 0e83 DB09 0000 		.long	0x9db
 10713 0e87 0000 0000 		.long	.LLST33
 10714 0e8b 00        		.byte	0x0
 10715 0e8c 00        		.byte	0x0
 10716 0e8d 14        		.uleb128 0x14
GAS LISTING /var/folders/1s/lqjcb7x5323625d47g9gdgmr0000gp/T//ccbjwlOH.s 			page 189


 10717 0e8e 3B0A 0000 		.long	0xa3b
 10718 0e92 1C        		.uleb128 0x1c
 10719 0e93 0608 0000 		.long	0x806
 10720 0e97 01        		.byte	0x1
 10721 0e98 0002      		.word	0x200
 10722 0e9a 0000 0000 		.long	.LFB115
 10723 0e9e 0000 0000 		.long	.LFE115
 10724 0ea2 02        		.byte	0x2
 10725 0ea3 90        		.byte	0x90
 10726 0ea4 20        		.uleb128 0x20
 10727 0ea5 C70E 0000 		.long	0xec7
 10728 0ea9 1D        		.uleb128 0x1d
 10729 0eaa 0000 0000 		.long	.LASF115
 10730 0eae 570B 0000 		.long	0xb57
 10731 0eb2 01        		.byte	0x1
 10732 0eb3 0000 0000 		.long	.LLST35
 10733 0eb7 2B        		.uleb128 0x2b
 10734 0eb8 7332 00   		.string	"s2"
 10735 0ebb 01        		.byte	0x1
 10736 0ebc 0002      		.word	0x200
 10737 0ebe C70E 0000 		.long	0xec7
 10738 0ec2 0000 0000 		.long	.LLST36
 10739 0ec6 00        		.byte	0x0
 10740 0ec7 14        		.uleb128 0x14
 10741 0ec8 3B0A 0000 		.long	0xa3b
 10742 0ecc 1C        		.uleb128 0x1c
 10743 0ecd 9907 0000 		.long	0x799
 10744 0ed1 01        		.byte	0x1
 10745 0ed2 E801      		.word	0x1e8
 10746 0ed4 0000 0000 		.long	.LFB112
 10747 0ed8 0000 0000 		.long	.LFE112
 10748 0edc 02        		.byte	0x2
 10749 0edd 90        		.byte	0x90
 10750 0ede 20        		.uleb128 0x20
 10751 0edf 210F 0000 		.long	0xf21
 10752 0ee3 1D        		.uleb128 0x1d
 10753 0ee4 0000 0000 		.long	.LASF115
 10754 0ee8 570B 0000 		.long	0xb57
 10755 0eec 01        		.byte	0x1
 10756 0eed 0000 0000 		.long	.LLST38
 10757 0ef1 2B        		.uleb128 0x2b
 10758 0ef2 7332 00   		.string	"s2"
 10759 0ef5 01        		.byte	0x1
 10760 0ef6 E801      		.word	0x1e8
 10761 0ef8 210F 0000 		.long	0xf21
 10762 0efc 0000 0000 		.long	.LLST39
 10763 0f00 21        		.uleb128 0x21
 10764 0f01 0000 0000 		.long	.LASF120
 10765 0f05 01        		.byte	0x1
 10766 0f06 E801      		.word	0x1e8
 10767 0f08 2500 0000 		.long	0x25
 10768 0f0c 0000 0000 		.long	.LLST40
 10769 0f10 29        		.uleb128 0x29
 10770 0f11 0000 0000 		.long	.LASF121
 10771 0f15 01        		.byte	0x1
 10772 0f16 EB01      		.word	0x1eb
 10773 0f18 300A 0000 		.long	0xa30
GAS LISTING /var/folders/1s/lqjcb7x5323625d47g9gdgmr0000gp/T//ccbjwlOH.s 			page 190


 10774 0f1c 0000 0000 		.long	.LLST41
 10775 0f20 00        		.byte	0x0
 10776 0f21 14        		.uleb128 0x14
 10777 0f22 3B0A 0000 		.long	0xa3b
 10778 0f26 1C        		.uleb128 0x1c
 10779 0f27 7807 0000 		.long	0x778
 10780 0f2b 01        		.byte	0x1
 10781 0f2c E301      		.word	0x1e3
 10782 0f2e 0000 0000 		.long	.LFB111
 10783 0f32 0000 0000 		.long	.LFE111
 10784 0f36 02        		.byte	0x2
 10785 0f37 90        		.byte	0x90
 10786 0f38 20        		.uleb128 0x20
 10787 0f39 5B0F 0000 		.long	0xf5b
 10788 0f3d 1D        		.uleb128 0x1d
 10789 0f3e 0000 0000 		.long	.LASF115
 10790 0f42 570B 0000 		.long	0xb57
 10791 0f46 01        		.byte	0x1
 10792 0f47 0000 0000 		.long	.LLST43
 10793 0f4b 2B        		.uleb128 0x2b
 10794 0f4c 7332 00   		.string	"s2"
 10795 0f4f 01        		.byte	0x1
 10796 0f50 E301      		.word	0x1e3
 10797 0f52 5B0F 0000 		.long	0xf5b
 10798 0f56 0000 0000 		.long	.LLST44
 10799 0f5a 00        		.byte	0x0
 10800 0f5b 14        		.uleb128 0x14
 10801 0f5c 3B0A 0000 		.long	0xa3b
 10802 0f60 1C        		.uleb128 0x1c
 10803 0f61 E007 0000 		.long	0x7e0
 10804 0f65 01        		.byte	0x1
 10805 0f66 F501      		.word	0x1f5
 10806 0f68 0000 0000 		.long	.LFB114
 10807 0f6c 0000 0000 		.long	.LFE114
 10808 0f70 02        		.byte	0x2
 10809 0f71 90        		.byte	0x90
 10810 0f72 20        		.uleb128 0x20
 10811 0f73 C50F 0000 		.long	0xfc5
 10812 0f77 1D        		.uleb128 0x1d
 10813 0f78 0000 0000 		.long	.LASF115
 10814 0f7c 570B 0000 		.long	0xb57
 10815 0f80 01        		.byte	0x1
 10816 0f81 0000 0000 		.long	.LLST46
 10817 0f85 2B        		.uleb128 0x2b
 10818 0f86 6368 00   		.string	"ch"
 10819 0f89 01        		.byte	0x1
 10820 0f8a F501      		.word	0x1f5
 10821 0f8c E109 0000 		.long	0x9e1
 10822 0f90 0000 0000 		.long	.LLST47
 10823 0f94 21        		.uleb128 0x21
 10824 0f95 0000 0000 		.long	.LASF120
 10825 0f99 01        		.byte	0x1
 10826 0f9a F501      		.word	0x1f5
 10827 0f9c 2500 0000 		.long	0x25
 10828 0fa0 0000 0000 		.long	.LLST48
 10829 0fa4 29        		.uleb128 0x29
 10830 0fa5 0000 0000 		.long	.LASF122
GAS LISTING /var/folders/1s/lqjcb7x5323625d47g9gdgmr0000gp/T//ccbjwlOH.s 			page 191


 10831 0fa9 01        		.byte	0x1
 10832 0faa F801      		.word	0x1f8
 10833 0fac E109 0000 		.long	0x9e1
 10834 0fb0 0000 0000 		.long	.LLST49
 10835 0fb4 29        		.uleb128 0x29
 10836 0fb5 0000 0000 		.long	.LASF123
 10837 0fb9 01        		.byte	0x1
 10838 0fba FA01      		.word	0x1fa
 10839 0fbc DB09 0000 		.long	0x9db
 10840 0fc0 0000 0000 		.long	.LLST50
 10841 0fc4 00        		.byte	0x0
 10842 0fc5 1C        		.uleb128 0x1c
 10843 0fc6 BF07 0000 		.long	0x7bf
 10844 0fca 01        		.byte	0x1
 10845 0fcb F001      		.word	0x1f0
 10846 0fcd 0000 0000 		.long	.LFB113
 10847 0fd1 0000 0000 		.long	.LFE113
 10848 0fd5 02        		.byte	0x2
 10849 0fd6 90        		.byte	0x90
 10850 0fd7 20        		.uleb128 0x20
 10851 0fd8 FB0F 0000 		.long	0xffb
 10852 0fdc 1D        		.uleb128 0x1d
 10853 0fdd 0000 0000 		.long	.LASF115
 10854 0fe1 570B 0000 		.long	0xb57
 10855 0fe5 01        		.byte	0x1
 10856 0fe6 0000 0000 		.long	.LLST52
 10857 0fea 21        		.uleb128 0x21
 10858 0feb 0000 0000 		.long	.LASF124
 10859 0fef 01        		.byte	0x1
 10860 0ff0 F001      		.word	0x1f0
 10861 0ff2 E109 0000 		.long	0x9e1
 10862 0ff6 0000 0000 		.long	.LLST53
 10863 0ffa 00        		.byte	0x0
 10864 0ffb 1C        		.uleb128 0x1c
 10865 0ffc 5207 0000 		.long	0x752
 10866 1000 01        		.byte	0x1
 10867 1001 DB01      		.word	0x1db
 10868 1003 0000 0000 		.long	.LFB110
 10869 1007 0000 0000 		.long	.LFE110
 10870 100b 02        		.byte	0x2
 10871 100c 90        		.byte	0x90
 10872 100d 20        		.uleb128 0x20
 10873 100e 5010 0000 		.long	0x1050
 10874 1012 1D        		.uleb128 0x1d
 10875 1013 0000 0000 		.long	.LASF115
 10876 1017 570B 0000 		.long	0xb57
 10877 101b 01        		.byte	0x1
 10878 101c 0000 0000 		.long	.LLST55
 10879 1020 2B        		.uleb128 0x2b
 10880 1021 6368 00   		.string	"ch"
 10881 1024 01        		.byte	0x1
 10882 1025 DB01      		.word	0x1db
 10883 1027 E109 0000 		.long	0x9e1
 10884 102b 0000 0000 		.long	.LLST56
 10885 102f 21        		.uleb128 0x21
 10886 1030 0000 0000 		.long	.LASF120
 10887 1034 01        		.byte	0x1
GAS LISTING /var/folders/1s/lqjcb7x5323625d47g9gdgmr0000gp/T//ccbjwlOH.s 			page 192


 10888 1035 DB01      		.word	0x1db
 10889 1037 2500 0000 		.long	0x25
 10890 103b 0000 0000 		.long	.LLST57
 10891 103f 29        		.uleb128 0x29
 10892 1040 0000 0000 		.long	.LASF123
 10893 1044 01        		.byte	0x1
 10894 1045 DE01      		.word	0x1de
 10895 1047 300A 0000 		.long	0xa30
 10896 104b 0000 0000 		.long	.LLST58
 10897 104f 00        		.byte	0x0
 10898 1050 1C        		.uleb128 0x1c
 10899 1051 3107 0000 		.long	0x731
 10900 1055 01        		.byte	0x1
 10901 1056 D601      		.word	0x1d6
 10902 1058 0000 0000 		.long	.LFB109
 10903 105c 0000 0000 		.long	.LFE109
 10904 1060 02        		.byte	0x2
 10905 1061 90        		.byte	0x90
 10906 1062 20        		.uleb128 0x20
 10907 1063 8410 0000 		.long	0x1084
 10908 1067 1D        		.uleb128 0x1d
 10909 1068 0000 0000 		.long	.LASF115
 10910 106c 570B 0000 		.long	0xb57
 10911 1070 01        		.byte	0x1
 10912 1071 0000 0000 		.long	.LLST60
 10913 1075 2B        		.uleb128 0x2b
 10914 1076 6300      		.string	"c"
 10915 1078 01        		.byte	0x1
 10916 1079 D601      		.word	0x1d6
 10917 107b E109 0000 		.long	0x9e1
 10918 107f 0000 0000 		.long	.LLST61
 10919 1083 00        		.byte	0x0
 10920 1084 1C        		.uleb128 0x1c
 10921 1085 E306 0000 		.long	0x6e3
 10922 1089 01        		.byte	0x1
 10923 108a C501      		.word	0x1c5
 10924 108c 0000 0000 		.long	.LFB108
 10925 1090 0000 0000 		.long	.LFE108
 10926 1094 02        		.byte	0x2
 10927 1095 90        		.byte	0x90
 10928 1096 20        		.uleb128 0x20
 10929 1097 E810 0000 		.long	0x10e8
 10930 109b 1D        		.uleb128 0x1d
 10931 109c 0000 0000 		.long	.LASF115
 10932 10a0 570B 0000 		.long	0xb57
 10933 10a4 01        		.byte	0x1
 10934 10a5 0000 0000 		.long	.LLST63
 10935 10a9 2B        		.uleb128 0x2b
 10936 10aa 6275 6600 		.string	"buf"
 10937 10ae 01        		.byte	0x1
 10938 10af C501      		.word	0x1c5
 10939 10b1 4D0A 0000 		.long	0xa4d
 10940 10b5 0000 0000 		.long	.LLST64
 10941 10b9 21        		.uleb128 0x21
 10942 10ba 0000 0000 		.long	.LASF125
 10943 10be 01        		.byte	0x1
 10944 10bf C501      		.word	0x1c5
GAS LISTING /var/folders/1s/lqjcb7x5323625d47g9gdgmr0000gp/T//ccbjwlOH.s 			page 193


 10945 10c1 2500 0000 		.long	0x25
 10946 10c5 0000 0000 		.long	.LLST65
 10947 10c9 21        		.uleb128 0x21
 10948 10ca 0000 0000 		.long	.LASF116
 10949 10ce 01        		.byte	0x1
 10950 10cf C501      		.word	0x1c5
 10951 10d1 2500 0000 		.long	0x25
 10952 10d5 0000 0000 		.long	.LLST66
 10953 10d9 2A        		.uleb128 0x2a
 10954 10da 6E00      		.string	"n"
 10955 10dc 01        		.byte	0x1
 10956 10dd CC01      		.word	0x1cc
 10957 10df 2500 0000 		.long	0x25
 10958 10e3 0000 0000 		.long	.LLST67
 10959 10e7 00        		.byte	0x0
 10960 10e8 1C        		.uleb128 0x1c
 10961 10e9 3D06 0000 		.long	0x63d
 10962 10ed 01        		.byte	0x1
 10963 10ee A101      		.word	0x1a1
 10964 10f0 0000 0000 		.long	.LFB103
 10965 10f4 0000 0000 		.long	.LFE103
 10966 10f8 02        		.byte	0x2
 10967 10f9 90        		.byte	0x90
 10968 10fa 20        		.uleb128 0x20
 10969 10fb 1D11 0000 		.long	0x111d
 10970 10ff 1D        		.uleb128 0x1d
 10971 1100 0000 0000 		.long	.LASF115
 10972 1104 570B 0000 		.long	0xb57
 10973 1108 01        		.byte	0x1
 10974 1109 0000 0000 		.long	.LLST69
 10975 110d 2B        		.uleb128 0x2b
 10976 110e 7332 00   		.string	"s2"
 10977 1111 01        		.byte	0x1
 10978 1112 A101      		.word	0x1a1
 10979 1114 1D11 0000 		.long	0x111d
 10980 1118 0000 0000 		.long	.LLST70
 10981 111c 00        		.byte	0x0
 10982 111d 14        		.uleb128 0x14
 10983 111e 3B0A 0000 		.long	0xa3b
 10984 1122 1C        		.uleb128 0x1c
 10985 1123 AC04 0000 		.long	0x4ac
 10986 1127 01        		.byte	0x1
 10987 1128 6D01      		.word	0x16d
 10988 112a 0000 0000 		.long	.LFB95
 10989 112e 0000 0000 		.long	.LFE95
 10990 1132 02        		.byte	0x2
 10991 1133 90        		.byte	0x90
 10992 1134 20        		.uleb128 0x20
 10993 1135 5811 0000 		.long	0x1158
 10994 1139 1D        		.uleb128 0x1d
 10995 113a 0000 0000 		.long	.LASF115
 10996 113e 570B 0000 		.long	0xb57
 10997 1142 01        		.byte	0x1
 10998 1143 0000 0000 		.long	.LLST72
 10999 1147 21        		.uleb128 0x21
 11000 1148 0000 0000 		.long	.LASF126
 11001 114c 01        		.byte	0x1
GAS LISTING /var/folders/1s/lqjcb7x5323625d47g9gdgmr0000gp/T//ccbjwlOH.s 			page 194


 11002 114d 6D01      		.word	0x16d
 11003 114f 300A 0000 		.long	0xa30
 11004 1153 0000 0000 		.long	.LLST73
 11005 1157 00        		.byte	0x0
 11006 1158 1C        		.uleb128 0x1c
 11007 1159 6A04 0000 		.long	0x46a
 11008 115d 01        		.byte	0x1
 11009 115e 5E01      		.word	0x15e
 11010 1160 0000 0000 		.long	.LFB93
 11011 1164 0000 0000 		.long	.LFE93
 11012 1168 02        		.byte	0x2
 11013 1169 90        		.byte	0x90
 11014 116a 20        		.uleb128 0x20
 11015 116b 8C11 0000 		.long	0x118c
 11016 116f 1D        		.uleb128 0x1d
 11017 1170 0000 0000 		.long	.LASF115
 11018 1174 570B 0000 		.long	0xb57
 11019 1178 01        		.byte	0x1
 11020 1179 0000 0000 		.long	.LLST75
 11021 117d 2B        		.uleb128 0x2b
 11022 117e 7300      		.string	"s"
 11023 1180 01        		.byte	0x1
 11024 1181 5E01      		.word	0x15e
 11025 1183 8C11 0000 		.long	0x118c
 11026 1187 0000 0000 		.long	.LLST76
 11027 118b 00        		.byte	0x0
 11028 118c 14        		.uleb128 0x14
 11029 118d 3B0A 0000 		.long	0xa3b
 11030 1191 1C        		.uleb128 0x1c
 11031 1192 B405 0000 		.long	0x5b4
 11032 1196 01        		.byte	0x1
 11033 1197 8301      		.word	0x183
 11034 1199 0000 0000 		.long	.LFB99
 11035 119d 0000 0000 		.long	.LFE99
 11036 11a1 02        		.byte	0x2
 11037 11a2 90        		.byte	0x90
 11038 11a3 20        		.uleb128 0x20
 11039 11a4 C711 0000 		.long	0x11c7
 11040 11a8 1D        		.uleb128 0x1d
 11041 11a9 0000 0000 		.long	.LASF115
 11042 11ad 570B 0000 		.long	0xb57
 11043 11b1 01        		.byte	0x1
 11044 11b2 0000 0000 		.long	.LLST78
 11045 11b6 2B        		.uleb128 0x2b
 11046 11b7 7268 7300 		.string	"rhs"
 11047 11bb 01        		.byte	0x1
 11048 11bc 8301      		.word	0x183
 11049 11be C711 0000 		.long	0x11c7
 11050 11c2 0000 0000 		.long	.LLST79
 11051 11c6 00        		.byte	0x0
 11052 11c7 14        		.uleb128 0x14
 11053 11c8 3B0A 0000 		.long	0xa3b
 11054 11cc 1C        		.uleb128 0x1c
 11055 11cd 9305 0000 		.long	0x593
 11056 11d1 01        		.byte	0x1
 11057 11d2 7E01      		.word	0x17e
 11058 11d4 0000 0000 		.long	.LFB98
GAS LISTING /var/folders/1s/lqjcb7x5323625d47g9gdgmr0000gp/T//ccbjwlOH.s 			page 195


 11059 11d8 0000 0000 		.long	.LFE98
 11060 11dc 02        		.byte	0x2
 11061 11dd 90        		.byte	0x90
 11062 11de 20        		.uleb128 0x20
 11063 11df 0212 0000 		.long	0x1202
 11064 11e3 1D        		.uleb128 0x1d
 11065 11e4 0000 0000 		.long	.LASF115
 11066 11e8 570B 0000 		.long	0xb57
 11067 11ec 01        		.byte	0x1
 11068 11ed 0000 0000 		.long	.LLST81
 11069 11f1 2B        		.uleb128 0x2b
 11070 11f2 7268 7300 		.string	"rhs"
 11071 11f6 01        		.byte	0x1
 11072 11f7 7E01      		.word	0x17e
 11073 11f9 0212 0000 		.long	0x1202
 11074 11fd 0000 0000 		.long	.LLST82
 11075 1201 00        		.byte	0x0
 11076 1202 14        		.uleb128 0x14
 11077 1203 3B0A 0000 		.long	0xa3b
 11078 1207 1C        		.uleb128 0x1c
 11079 1208 7205 0000 		.long	0x572
 11080 120c 01        		.byte	0x1
 11081 120d 7901      		.word	0x179
 11082 120f 0000 0000 		.long	.LFB97
 11083 1213 0000 0000 		.long	.LFE97
 11084 1217 02        		.byte	0x2
 11085 1218 90        		.byte	0x90
 11086 1219 20        		.uleb128 0x20
 11087 121a 3D12 0000 		.long	0x123d
 11088 121e 1D        		.uleb128 0x1d
 11089 121f 0000 0000 		.long	.LASF115
 11090 1223 570B 0000 		.long	0xb57
 11091 1227 01        		.byte	0x1
 11092 1228 0000 0000 		.long	.LLST84
 11093 122c 2B        		.uleb128 0x2b
 11094 122d 7268 7300 		.string	"rhs"
 11095 1231 01        		.byte	0x1
 11096 1232 7901      		.word	0x179
 11097 1234 3D12 0000 		.long	0x123d
 11098 1238 0000 0000 		.long	.LLST85
 11099 123c 00        		.byte	0x0
 11100 123d 14        		.uleb128 0x14
 11101 123e 3B0A 0000 		.long	0xa3b
 11102 1242 1C        		.uleb128 0x1c
 11103 1243 5105 0000 		.long	0x551
 11104 1247 01        		.byte	0x1
 11105 1248 7401      		.word	0x174
 11106 124a 0000 0000 		.long	.LFB96
 11107 124e 0000 0000 		.long	.LFE96
 11108 1252 02        		.byte	0x2
 11109 1253 90        		.byte	0x90
 11110 1254 20        		.uleb128 0x20
 11111 1255 7812 0000 		.long	0x1278
 11112 1259 1D        		.uleb128 0x1d
 11113 125a 0000 0000 		.long	.LASF115
 11114 125e 570B 0000 		.long	0xb57
 11115 1262 01        		.byte	0x1
GAS LISTING /var/folders/1s/lqjcb7x5323625d47g9gdgmr0000gp/T//ccbjwlOH.s 			page 196


 11116 1263 0000 0000 		.long	.LLST87
 11117 1267 2B        		.uleb128 0x2b
 11118 1268 7268 7300 		.string	"rhs"
 11119 126c 01        		.byte	0x1
 11120 126d 7401      		.word	0x174
 11121 126f 7812 0000 		.long	0x1278
 11122 1273 0000 0000 		.long	.LLST88
 11123 1277 00        		.byte	0x0
 11124 1278 14        		.uleb128 0x14
 11125 1279 3B0A 0000 		.long	0xa3b
 11126 127d 1C        		.uleb128 0x1c
 11127 127e 8B04 0000 		.long	0x48b
 11128 1282 01        		.byte	0x1
 11129 1283 6801      		.word	0x168
 11130 1285 0000 0000 		.long	.LFB94
 11131 1289 0000 0000 		.long	.LFE94
 11132 128d 02        		.byte	0x2
 11133 128e 90        		.byte	0x90
 11134 128f 20        		.uleb128 0x20
 11135 1290 B212 0000 		.long	0x12b2
 11136 1294 1D        		.uleb128 0x1d
 11137 1295 0000 0000 		.long	.LASF115
 11138 1299 570B 0000 		.long	0xb57
 11139 129d 01        		.byte	0x1
 11140 129e 0000 0000 		.long	.LLST90
 11141 12a2 2B        		.uleb128 0x2b
 11142 12a3 7332 00   		.string	"s2"
 11143 12a6 01        		.byte	0x1
 11144 12a7 6801      		.word	0x168
 11145 12a9 B212 0000 		.long	0x12b2
 11146 12ad 0000 0000 		.long	.LLST91
 11147 12b1 00        		.byte	0x0
 11148 12b2 14        		.uleb128 0x14
 11149 12b3 3B0A 0000 		.long	0xa3b
 11150 12b7 1C        		.uleb128 0x1c
 11151 12b8 1706 0000 		.long	0x617
 11152 12bc 01        		.byte	0x1
 11153 12bd 9B01      		.word	0x19b
 11154 12bf 0000 0000 		.long	.LFB102
 11155 12c3 0000 0000 		.long	.LFE102
 11156 12c7 02        		.byte	0x2
 11157 12c8 90        		.byte	0x90
 11158 12c9 20        		.uleb128 0x20
 11159 12ca FC12 0000 		.long	0x12fc
 11160 12ce 1D        		.uleb128 0x1d
 11161 12cf 0000 0000 		.long	.LASF115
 11162 12d3 570B 0000 		.long	0xb57
 11163 12d7 01        		.byte	0x1
 11164 12d8 0000 0000 		.long	.LLST93
 11165 12dc 2B        		.uleb128 0x2b
 11166 12dd 7332 00   		.string	"s2"
 11167 12e0 01        		.byte	0x1
 11168 12e1 9B01      		.word	0x19b
 11169 12e3 FC12 0000 		.long	0x12fc
 11170 12e7 0000 0000 		.long	.LLST94
 11171 12eb 21        		.uleb128 0x21
 11172 12ec 0000 0000 		.long	.LASF127
GAS LISTING /var/folders/1s/lqjcb7x5323625d47g9gdgmr0000gp/T//ccbjwlOH.s 			page 197


 11173 12f0 01        		.byte	0x1
 11174 12f1 9B01      		.word	0x19b
 11175 12f3 2500 0000 		.long	0x25
 11176 12f7 0000 0000 		.long	.LLST95
 11177 12fb 00        		.byte	0x0
 11178 12fc 14        		.uleb128 0x14
 11179 12fd 3B0A 0000 		.long	0xa3b
 11180 1301 1C        		.uleb128 0x1c
 11181 1302 F605 0000 		.long	0x5f6
 11182 1306 01        		.byte	0x1
 11183 1307 9501      		.word	0x195
 11184 1309 0000 0000 		.long	.LFB101
 11185 130d 0000 0000 		.long	.LFE101
 11186 1311 02        		.byte	0x2
 11187 1312 90        		.byte	0x90
 11188 1313 20        		.uleb128 0x20
 11189 1314 3613 0000 		.long	0x1336
 11190 1318 1D        		.uleb128 0x1d
 11191 1319 0000 0000 		.long	.LASF115
 11192 131d 570B 0000 		.long	0xb57
 11193 1321 01        		.byte	0x1
 11194 1322 0000 0000 		.long	.LLST97
 11195 1326 2B        		.uleb128 0x2b
 11196 1327 7332 00   		.string	"s2"
 11197 132a 01        		.byte	0x1
 11198 132b 9501      		.word	0x195
 11199 132d 3613 0000 		.long	0x1336
 11200 1331 0000 0000 		.long	.LLST98
 11201 1335 00        		.byte	0x0
 11202 1336 14        		.uleb128 0x14
 11203 1337 3B0A 0000 		.long	0xa3b
 11204 133b 2C        		.uleb128 0x2c
 11205 133c 6E09 0000 		.long	0x96e
 11206 1340 01        		.byte	0x1
 11207 1341 89        		.byte	0x89
 11208 1342 0000 0000 		.long	.LFB72
 11209 1346 0000 0000 		.long	.LFE72
 11210 134a 02        		.byte	0x2
 11211 134b 90        		.byte	0x90
 11212 134c 20        		.uleb128 0x20
 11213 134d 7E13 0000 		.long	0x137e
 11214 1351 1D        		.uleb128 0x1d
 11215 1352 0000 0000 		.long	.LASF115
 11216 1356 730B 0000 		.long	0xb73
 11217 135a 01        		.byte	0x1
 11218 135b 0000 0000 		.long	.LLST100
 11219 135f 2D        		.uleb128 0x2d
 11220 1360 0000 0000 		.long	.LASF128
 11221 1364 01        		.byte	0x1
 11222 1365 89        		.byte	0x89
 11223 1366 2500 0000 		.long	0x25
 11224 136a 0000 0000 		.long	.LLST101
 11225 136e 2E        		.uleb128 0x2e
 11226 136f 0000 0000 		.long	.LASF129
 11227 1373 01        		.byte	0x1
 11228 1374 8B        		.byte	0x8b
 11229 1375 DB09 0000 		.long	0x9db
GAS LISTING /var/folders/1s/lqjcb7x5323625d47g9gdgmr0000gp/T//ccbjwlOH.s 			page 198


 11230 1379 0000 0000 		.long	.LLST102
 11231 137d 00        		.byte	0x0
 11232 137e 1C        		.uleb128 0x1c
 11233 137f B608 0000 		.long	0x8b6
 11234 1383 01        		.byte	0x1
 11235 1384 3402      		.word	0x234
 11236 1386 0000 0000 		.long	.LFB120
 11237 138a 0000 0000 		.long	.LFE120
 11238 138e 02        		.byte	0x2
 11239 138f 90        		.byte	0x90
 11240 1390 20        		.uleb128 0x20
 11241 1391 4C14 0000 		.long	0x144c
 11242 1395 1D        		.uleb128 0x1d
 11243 1396 0000 0000 		.long	.LASF115
 11244 139a 730B 0000 		.long	0xb73
 11245 139e 01        		.byte	0x1
 11246 139f 0000 0000 		.long	.LLST104
 11247 13a3 21        		.uleb128 0x21
 11248 13a4 0000 0000 		.long	.LASF117
 11249 13a8 01        		.byte	0x1
 11250 13a9 3402      		.word	0x234
 11251 13ab 4C14 0000 		.long	0x144c
 11252 13af 0000 0000 		.long	.LLST105
 11253 13b3 21        		.uleb128 0x21
 11254 13b4 0000 0000 		.long	.LASF91
 11255 13b8 01        		.byte	0x1
 11256 13b9 3402      		.word	0x234
 11257 13bb 5114 0000 		.long	0x1451
 11258 13bf 0000 0000 		.long	.LLST106
 11259 13c3 2F        		.uleb128 0x2f
 11260 13c4 0000 0000 		.long	.LASF135
 11261 13c8 01        		.byte	0x1
 11262 13c9 3702      		.word	0x237
 11263 13cb 2C00 0000 		.long	0x2c
 11264 13cf 29        		.uleb128 0x29
 11265 13d0 0000 0000 		.long	.LASF130
 11266 13d4 01        		.byte	0x1
 11267 13d5 3802      		.word	0x238
 11268 13d7 DB09 0000 		.long	0x9db
 11269 13db 0000 0000 		.long	.LLST107
 11270 13df 29        		.uleb128 0x29
 11271 13e0 0000 0000 		.long	.LASF131
 11272 13e4 01        		.byte	0x1
 11273 13e5 3902      		.word	0x239
 11274 13e7 DB09 0000 		.long	0x9db
 11275 13eb 0000 0000 		.long	.LLST108
 11276 13ef 30        		.uleb128 0x30
 11277 13f0 0000 0000 		.long	.Ldebug_ranges0+0x0
 11278 13f4 1914 0000 		.long	0x1419
 11279 13f8 29        		.uleb128 0x29
 11280 13f9 0000 0000 		.long	.LASF132
 11281 13fd 01        		.byte	0x1
 11282 13fe 4C02      		.word	0x24c
 11283 1400 2500 0000 		.long	0x25
 11284 1404 0000 0000 		.long	.LLST109
 11285 1408 29        		.uleb128 0x29
 11286 1409 0000 0000 		.long	.LASF116
GAS LISTING /var/folders/1s/lqjcb7x5323625d47g9gdgmr0000gp/T//ccbjwlOH.s 			page 199


 11287 140d 01        		.byte	0x1
 11288 140e 5302      		.word	0x253
 11289 1410 2C00 0000 		.long	0x2c
 11290 1414 0000 0000 		.long	.LLST110
 11291 1418 00        		.byte	0x0
 11292 1419 27        		.uleb128 0x27
 11293 141a 0000 0000 		.long	.LBB101
 11294 141e 0000 0000 		.long	.LBE101
 11295 1422 29        		.uleb128 0x29
 11296 1423 0000 0000 		.long	.LASF133
 11297 1427 01        		.byte	0x1
 11298 1428 4002      		.word	0x240
 11299 142a DB09 0000 		.long	0x9db
 11300 142e 0000 0000 		.long	.LLST111
 11301 1432 27        		.uleb128 0x27
 11302 1433 0000 0000 		.long	.LBB102
 11303 1437 0000 0000 		.long	.LBE102
 11304 143b 2A        		.uleb128 0x2a
 11305 143c 6E00      		.string	"n"
 11306 143e 01        		.byte	0x1
 11307 143f 4202      		.word	0x242
 11308 1441 2500 0000 		.long	0x25
 11309 1445 0000 0000 		.long	.LLST112
 11310 1449 00        		.byte	0x0
 11311 144a 00        		.byte	0x0
 11312 144b 00        		.byte	0x0
 11313 144c 14        		.uleb128 0x14
 11314 144d 3B0A 0000 		.long	0xa3b
 11315 1451 14        		.uleb128 0x14
 11316 1452 3B0A 0000 		.long	0xa3b
 11317 1456 2C        		.uleb128 0x2c
 11318 1457 BF01 0000 		.long	0x1bf
 11319 145b 01        		.byte	0x1
 11320 145c 7F        		.byte	0x7f
 11321 145d 0000 0000 		.long	.LFB71
 11322 1461 0000 0000 		.long	.LFE71
 11323 1465 02        		.byte	0x2
 11324 1466 90        		.byte	0x90
 11325 1467 20        		.uleb128 0x20
 11326 1468 8A14 0000 		.long	0x148a
 11327 146c 1D        		.uleb128 0x1d
 11328 146d 0000 0000 		.long	.LASF115
 11329 1471 730B 0000 		.long	0xb73
 11330 1475 01        		.byte	0x1
 11331 1476 0000 0000 		.long	.LLST114
 11332 147a 2D        		.uleb128 0x2d
 11333 147b 0000 0000 		.long	.LASF132
 11334 147f 01        		.byte	0x1
 11335 1480 7F        		.byte	0x7f
 11336 1481 2500 0000 		.long	0x25
 11337 1485 0000 0000 		.long	.LLST115
 11338 1489 00        		.byte	0x0
 11339 148a 2C        		.uleb128 0x2c
 11340 148b 9009 0000 		.long	0x990
 11341 148f 01        		.byte	0x1
 11342 1490 E2        		.byte	0xe2
 11343 1491 0000 0000 		.long	.LFB77
GAS LISTING /var/folders/1s/lqjcb7x5323625d47g9gdgmr0000gp/T//ccbjwlOH.s 			page 200


 11344 1495 0000 0000 		.long	.LFE77
 11345 1499 02        		.byte	0x2
 11346 149a 90        		.byte	0x90
 11347 149b 20        		.uleb128 0x20
 11348 149c DC14 0000 		.long	0x14dc
 11349 14a0 1D        		.uleb128 0x1d
 11350 14a1 0000 0000 		.long	.LASF115
 11351 14a5 730B 0000 		.long	0xb73
 11352 14a9 01        		.byte	0x1
 11353 14aa 0000 0000 		.long	.LLST117
 11354 14ae 2D        		.uleb128 0x2d
 11355 14af 0000 0000 		.long	.LASF126
 11356 14b3 01        		.byte	0x1
 11357 14b4 E2        		.byte	0xe2
 11358 14b5 300A 0000 		.long	0xa30
 11359 14b9 0000 0000 		.long	.LLST118
 11360 14bd 2D        		.uleb128 0x2d
 11361 14be 0000 0000 		.long	.LASF16
 11362 14c2 01        		.byte	0x1
 11363 14c3 E2        		.byte	0xe2
 11364 14c4 2500 0000 		.long	0x25
 11365 14c8 0000 0000 		.long	.LLST119
 11366 14cc 2E        		.uleb128 0x2e
 11367 14cd 0000 0000 		.long	.LASF134
 11368 14d1 01        		.byte	0x1
 11369 14d2 E4        		.byte	0xe4
 11370 14d3 2500 0000 		.long	0x25
 11371 14d7 0000 0000 		.long	.LLST120
 11372 14db 00        		.byte	0x0
 11373 14dc 1C        		.uleb128 0x1c
 11374 14dd 2503 0000 		.long	0x325
 11375 14e1 01        		.byte	0x1
 11376 14e2 1701      		.word	0x117
 11377 14e4 0000 0000 		.long	.LFB84
 11378 14e8 0000 0000 		.long	.LFE84
 11379 14ec 02        		.byte	0x2
 11380 14ed 90        		.byte	0x90
 11381 14ee 20        		.uleb128 0x20
 11382 14ef 2115 0000 		.long	0x1521
 11383 14f3 1D        		.uleb128 0x1d
 11384 14f4 0000 0000 		.long	.LASF115
 11385 14f8 730B 0000 		.long	0xb73
 11386 14fc 01        		.byte	0x1
 11387 14fd 0000 0000 		.long	.LLST122
 11388 1501 2B        		.uleb128 0x2b
 11389 1502 6E75 6D00 		.string	"num"
 11390 1506 01        		.byte	0x1
 11391 1507 1701      		.word	0x117
 11392 1509 4800 0000 		.long	0x48
 11393 150d 0000 0000 		.long	.LLST123
 11394 1511 28        		.uleb128 0x28
 11395 1512 6275 6600 		.string	"buf"
 11396 1516 01        		.byte	0x1
 11397 1517 1901      		.word	0x119
 11398 1519 2115 0000 		.long	0x1521
 11399 151d 02        		.byte	0x2
 11400 151e 8C        		.byte	0x8c
GAS LISTING /var/folders/1s/lqjcb7x5323625d47g9gdgmr0000gp/T//ccbjwlOH.s 			page 201


 11401 151f 01        		.sleb128 1
 11402 1520 00        		.byte	0x0
 11403 1521 31        		.uleb128 0x31
 11404 1522 E109 0000 		.long	0x9e1
 11405 1526 3115 0000 		.long	0x1531
 11406 152a 32        		.uleb128 0x32
 11407 152b 3115 0000 		.long	0x1531
 11408 152f 0A        		.byte	0xa
 11409 1530 00        		.byte	0x0
 11410 1531 04        		.uleb128 0x4
 11411 1532 02        		.byte	0x2
 11412 1533 07        		.byte	0x7
 11413 1534 1C        		.uleb128 0x1c
 11414 1535 0403 0000 		.long	0x304
 11415 1539 01        		.byte	0x1
 11416 153a 1001      		.word	0x110
 11417 153c 0000 0000 		.long	.LFB83
 11418 1540 0000 0000 		.long	.LFE83
 11419 1544 02        		.byte	0x2
 11420 1545 90        		.byte	0x90
 11421 1546 20        		.uleb128 0x20
 11422 1547 7915 0000 		.long	0x1579
 11423 154b 1D        		.uleb128 0x1d
 11424 154c 0000 0000 		.long	.LASF115
 11425 1550 730B 0000 		.long	0xb73
 11426 1554 01        		.byte	0x1
 11427 1555 0000 0000 		.long	.LLST125
 11428 1559 2B        		.uleb128 0x2b
 11429 155a 6E75 6D00 		.string	"num"
 11430 155e 01        		.byte	0x1
 11431 155f 1001      		.word	0x110
 11432 1561 3300 0000 		.long	0x33
 11433 1565 0000 0000 		.long	.LLST126
 11434 1569 28        		.uleb128 0x28
 11435 156a 6275 6600 		.string	"buf"
 11436 156e 01        		.byte	0x1
 11437 156f 1201      		.word	0x112
 11438 1571 7915 0000 		.long	0x1579
 11439 1575 02        		.byte	0x2
 11440 1576 8C        		.byte	0x8c
 11441 1577 01        		.sleb128 1
 11442 1578 00        		.byte	0x0
 11443 1579 31        		.uleb128 0x31
 11444 157a E109 0000 		.long	0x9e1
 11445 157e 8915 0000 		.long	0x1589
 11446 1582 32        		.uleb128 0x32
 11447 1583 3115 0000 		.long	0x1531
 11448 1587 0B        		.byte	0xb
 11449 1588 00        		.byte	0x0
 11450 1589 1C        		.uleb128 0x1c
 11451 158a E302 0000 		.long	0x2e3
 11452 158e 01        		.byte	0x1
 11453 158f 0901      		.word	0x109
 11454 1591 0000 0000 		.long	.LFB82
 11455 1595 0000 0000 		.long	.LFE82
 11456 1599 02        		.byte	0x2
 11457 159a 90        		.byte	0x90
GAS LISTING /var/folders/1s/lqjcb7x5323625d47g9gdgmr0000gp/T//ccbjwlOH.s 			page 202


 11458 159b 20        		.uleb128 0x20
 11459 159c CE15 0000 		.long	0x15ce
 11460 15a0 1D        		.uleb128 0x1d
 11461 15a1 0000 0000 		.long	.LASF115
 11462 15a5 730B 0000 		.long	0xb73
 11463 15a9 01        		.byte	0x1
 11464 15aa 0000 0000 		.long	.LLST128
 11465 15ae 2B        		.uleb128 0x2b
 11466 15af 6E75 6D00 		.string	"num"
 11467 15b3 01        		.byte	0x1
 11468 15b4 0901      		.word	0x109
 11469 15b6 2500 0000 		.long	0x25
 11470 15ba 0000 0000 		.long	.LLST129
 11471 15be 28        		.uleb128 0x28
 11472 15bf 6275 6600 		.string	"buf"
 11473 15c3 01        		.byte	0x1
 11474 15c4 0B01      		.word	0x10b
 11475 15c6 CE15 0000 		.long	0x15ce
 11476 15ca 02        		.byte	0x2
 11477 15cb 8C        		.byte	0x8c
 11478 15cc 01        		.sleb128 1
 11479 15cd 00        		.byte	0x0
 11480 15ce 31        		.uleb128 0x31
 11481 15cf E109 0000 		.long	0x9e1
 11482 15d3 DE15 0000 		.long	0x15de
 11483 15d7 32        		.uleb128 0x32
 11484 15d8 3115 0000 		.long	0x1531
 11485 15dc 05        		.byte	0x5
 11486 15dd 00        		.byte	0x0
 11487 15de 1C        		.uleb128 0x1c
 11488 15df C202 0000 		.long	0x2c2
 11489 15e3 01        		.byte	0x1
 11490 15e4 0201      		.word	0x102
 11491 15e6 0000 0000 		.long	.LFB81
 11492 15ea 0000 0000 		.long	.LFE81
 11493 15ee 02        		.byte	0x2
 11494 15ef 90        		.byte	0x90
 11495 15f0 20        		.uleb128 0x20
 11496 15f1 2316 0000 		.long	0x1623
 11497 15f5 1D        		.uleb128 0x1d
 11498 15f6 0000 0000 		.long	.LASF115
 11499 15fa 730B 0000 		.long	0xb73
 11500 15fe 01        		.byte	0x1
 11501 15ff 0000 0000 		.long	.LLST131
 11502 1603 2B        		.uleb128 0x2b
 11503 1604 6E75 6D00 		.string	"num"
 11504 1608 01        		.byte	0x1
 11505 1609 0201      		.word	0x102
 11506 160b 2C00 0000 		.long	0x2c
 11507 160f 0000 0000 		.long	.LLST132
 11508 1613 28        		.uleb128 0x28
 11509 1614 6275 6600 		.string	"buf"
 11510 1618 01        		.byte	0x1
 11511 1619 0401      		.word	0x104
 11512 161b 2316 0000 		.long	0x1623
 11513 161f 02        		.byte	0x2
 11514 1620 8C        		.byte	0x8c
GAS LISTING /var/folders/1s/lqjcb7x5323625d47g9gdgmr0000gp/T//ccbjwlOH.s 			page 203


 11515 1621 01        		.sleb128 1
 11516 1622 00        		.byte	0x0
 11517 1623 31        		.uleb128 0x31
 11518 1624 E109 0000 		.long	0x9e1
 11519 1628 3316 0000 		.long	0x1633
 11520 162c 32        		.uleb128 0x32
 11521 162d 3115 0000 		.long	0x1531
 11522 1631 06        		.byte	0x6
 11523 1632 00        		.byte	0x0
 11524 1633 2C        		.uleb128 0x2c
 11525 1634 A102 0000 		.long	0x2a1
 11526 1638 01        		.byte	0x1
 11527 1639 FB        		.byte	0xfb
 11528 163a 0000 0000 		.long	.LFB80
 11529 163e 0000 0000 		.long	.LFE80
 11530 1642 02        		.byte	0x2
 11531 1643 90        		.byte	0x90
 11532 1644 20        		.uleb128 0x20
 11533 1645 7516 0000 		.long	0x1675
 11534 1649 1D        		.uleb128 0x1d
 11535 164a 0000 0000 		.long	.LASF115
 11536 164e 730B 0000 		.long	0xb73
 11537 1652 01        		.byte	0x1
 11538 1653 0000 0000 		.long	.LLST134
 11539 1657 33        		.uleb128 0x33
 11540 1658 6E75 6D00 		.string	"num"
 11541 165c 01        		.byte	0x1
 11542 165d FB        		.byte	0xfb
 11543 165e 4100 0000 		.long	0x41
 11544 1662 0000 0000 		.long	.LLST135
 11545 1666 34        		.uleb128 0x34
 11546 1667 6275 6600 		.string	"buf"
 11547 166b 01        		.byte	0x1
 11548 166c FD        		.byte	0xfd
 11549 166d 7516 0000 		.long	0x1675
 11550 1671 02        		.byte	0x2
 11551 1672 8C        		.byte	0x8c
 11552 1673 01        		.sleb128 1
 11553 1674 00        		.byte	0x0
 11554 1675 31        		.uleb128 0x31
 11555 1676 E109 0000 		.long	0x9e1
 11556 167a 8516 0000 		.long	0x1685
 11557 167e 32        		.uleb128 0x32
 11558 167f 3115 0000 		.long	0x1531
 11559 1683 03        		.byte	0x3
 11560 1684 00        		.byte	0x0
 11561 1685 2C        		.uleb128 0x2c
 11562 1686 8002 0000 		.long	0x280
 11563 168a 01        		.byte	0x1
 11564 168b F3        		.byte	0xf3
 11565 168c 0000 0000 		.long	.LFB79
 11566 1690 0000 0000 		.long	.LFE79
 11567 1694 02        		.byte	0x2
 11568 1695 90        		.byte	0x90
 11569 1696 20        		.uleb128 0x20
 11570 1697 C516 0000 		.long	0x16c5
 11571 169b 1D        		.uleb128 0x1d
GAS LISTING /var/folders/1s/lqjcb7x5323625d47g9gdgmr0000gp/T//ccbjwlOH.s 			page 204


 11572 169c 0000 0000 		.long	.LASF115
 11573 16a0 730B 0000 		.long	0xb73
 11574 16a4 01        		.byte	0x1
 11575 16a5 0000 0000 		.long	.LLST137
 11576 16a9 33        		.uleb128 0x33
 11577 16aa 6300      		.string	"c"
 11578 16ac 01        		.byte	0x1
 11579 16ad F3        		.byte	0xf3
 11580 16ae E109 0000 		.long	0x9e1
 11581 16b2 0000 0000 		.long	.LLST138
 11582 16b6 34        		.uleb128 0x34
 11583 16b7 6275 6600 		.string	"buf"
 11584 16bb 01        		.byte	0x1
 11585 16bc F5        		.byte	0xf5
 11586 16bd C516 0000 		.long	0x16c5
 11587 16c1 02        		.byte	0x2
 11588 16c2 8C        		.byte	0x8c
 11589 16c3 01        		.sleb128 1
 11590 16c4 00        		.byte	0x0
 11591 16c5 31        		.uleb128 0x31
 11592 16c6 E109 0000 		.long	0x9e1
 11593 16ca D516 0000 		.long	0x16d5
 11594 16ce 32        		.uleb128 0x32
 11595 16cf 3115 0000 		.long	0x1531
 11596 16d3 01        		.byte	0x1
 11597 16d4 00        		.byte	0x0
 11598 16d5 2C        		.uleb128 0x2c
 11599 16d6 5F02 0000 		.long	0x25f
 11600 16da 01        		.byte	0x1
 11601 16db ED        		.byte	0xed
 11602 16dc 0000 0000 		.long	.LFB78
 11603 16e0 0000 0000 		.long	.LFE78
 11604 16e4 02        		.byte	0x2
 11605 16e5 90        		.byte	0x90
 11606 16e6 20        		.uleb128 0x20
 11607 16e7 0917 0000 		.long	0x1709
 11608 16eb 1D        		.uleb128 0x1d
 11609 16ec 0000 0000 		.long	.LASF115
 11610 16f0 730B 0000 		.long	0xb73
 11611 16f4 01        		.byte	0x1
 11612 16f5 0000 0000 		.long	.LLST140
 11613 16f9 2D        		.uleb128 0x2d
 11614 16fa 0000 0000 		.long	.LASF126
 11615 16fe 01        		.byte	0x1
 11616 16ff ED        		.byte	0xed
 11617 1700 300A 0000 		.long	0xa30
 11618 1704 0000 0000 		.long	.LLST141
 11619 1708 00        		.byte	0x0
 11620 1709 2C        		.uleb128 0x2c
 11621 170a 3E02 0000 		.long	0x23e
 11622 170e 01        		.byte	0x1
 11623 170f DD        		.byte	0xdd
 11624 1710 0000 0000 		.long	.LFB76
 11625 1714 0000 0000 		.long	.LFE76
 11626 1718 02        		.byte	0x2
 11627 1719 90        		.byte	0x90
 11628 171a 20        		.uleb128 0x20
GAS LISTING /var/folders/1s/lqjcb7x5323625d47g9gdgmr0000gp/T//ccbjwlOH.s 			page 205


 11629 171b 3B17 0000 		.long	0x173b
 11630 171f 1D        		.uleb128 0x1d
 11631 1720 0000 0000 		.long	.LASF115
 11632 1724 730B 0000 		.long	0xb73
 11633 1728 01        		.byte	0x1
 11634 1729 0000 0000 		.long	.LLST143
 11635 172d 33        		.uleb128 0x33
 11636 172e 7300      		.string	"s"
 11637 1730 01        		.byte	0x1
 11638 1731 DD        		.byte	0xdd
 11639 1732 3B17 0000 		.long	0x173b
 11640 1736 0000 0000 		.long	.LLST144
 11641 173a 00        		.byte	0x0
 11642 173b 14        		.uleb128 0x14
 11643 173c 3B0A 0000 		.long	0xa3b
 11644 1740 2C        		.uleb128 0x2c
 11645 1741 5509 0000 		.long	0x955
 11646 1745 01        		.byte	0x1
 11647 1746 78        		.byte	0x78
 11648 1747 0000 0000 		.long	.LFB70
 11649 174b 0000 0000 		.long	.LFE70
 11650 174f 02        		.byte	0x2
 11651 1750 90        		.byte	0x90
 11652 1751 20        		.uleb128 0x20
 11653 1752 6517 0000 		.long	0x1765
 11654 1756 1D        		.uleb128 0x1d
 11655 1757 0000 0000 		.long	.LASF115
 11656 175b 730B 0000 		.long	0xb73
 11657 175f 01        		.byte	0x1
 11658 1760 0000 0000 		.long	.LLST146
 11659 1764 00        		.byte	0x0
 11660 1765 35        		.uleb128 0x35
 11661 1766 01        		.byte	0x1
 11662 1767 0000 0000 		.long	.LASF136
 11663 176b 01        		.byte	0x1
 11664 176c 5301      		.word	0x153
 11665 176e 0000 0000 		.long	.LASF137
 11666 1772 B017 0000 		.long	0x17b0
 11667 1776 0000 0000 		.long	.LFB92
 11668 177a 0000 0000 		.long	.LFE92
 11669 177e 02        		.byte	0x2
 11670 177f 90        		.byte	0x90
 11671 1780 20        		.uleb128 0x20
 11672 1781 B017 0000 		.long	0x17b0
 11673 1785 2B        		.uleb128 0x2b
 11674 1786 6C68 7300 		.string	"lhs"
 11675 178a 01        		.byte	0x1
 11676 178b 5301      		.word	0x153
 11677 178d B617 0000 		.long	0x17b6
 11678 1791 0000 0000 		.long	.LLST148
 11679 1795 2B        		.uleb128 0x2b
 11680 1796 6E75 6D00 		.string	"num"
 11681 179a 01        		.byte	0x1
 11682 179b 5301      		.word	0x153
 11683 179d 4800 0000 		.long	0x48
 11684 17a1 0000 0000 		.long	.LLST149
 11685 17a5 36        		.uleb128 0x36
GAS LISTING /var/folders/1s/lqjcb7x5323625d47g9gdgmr0000gp/T//ccbjwlOH.s 			page 206


 11686 17a6 6100      		.string	"a"
 11687 17a8 01        		.byte	0x1
 11688 17a9 5501      		.word	0x155
 11689 17ab C617 0000 		.long	0x17c6
 11690 17af 00        		.byte	0x0
 11691 17b0 15        		.uleb128 0x15
 11692 17b1 02        		.byte	0x2
 11693 17b2 530A 0000 		.long	0xa53
 11694 17b6 14        		.uleb128 0x14
 11695 17b7 BB17 0000 		.long	0x17bb
 11696 17bb 15        		.uleb128 0x15
 11697 17bc 02        		.byte	0x2
 11698 17bd C117 0000 		.long	0x17c1
 11699 17c1 14        		.uleb128 0x14
 11700 17c2 530A 0000 		.long	0xa53
 11701 17c6 14        		.uleb128 0x14
 11702 17c7 B017 0000 		.long	0x17b0
 11703 17cb 35        		.uleb128 0x35
 11704 17cc 01        		.byte	0x1
 11705 17cd 0000 0000 		.long	.LASF136
 11706 17d1 01        		.byte	0x1
 11707 17d2 4C01      		.word	0x14c
 11708 17d4 0000 0000 		.long	.LASF138
 11709 17d8 B017 0000 		.long	0x17b0
 11710 17dc 0000 0000 		.long	.LFB91
 11711 17e0 0000 0000 		.long	.LFE91
 11712 17e4 02        		.byte	0x2
 11713 17e5 90        		.byte	0x90
 11714 17e6 20        		.uleb128 0x20
 11715 17e7 1618 0000 		.long	0x1816
 11716 17eb 2B        		.uleb128 0x2b
 11717 17ec 6C68 7300 		.string	"lhs"
 11718 17f0 01        		.byte	0x1
 11719 17f1 4C01      		.word	0x14c
 11720 17f3 1618 0000 		.long	0x1816
 11721 17f7 0000 0000 		.long	.LLST151
 11722 17fb 2B        		.uleb128 0x2b
 11723 17fc 6E75 6D00 		.string	"num"
 11724 1800 01        		.byte	0x1
 11725 1801 4C01      		.word	0x14c
 11726 1803 3300 0000 		.long	0x33
 11727 1807 0000 0000 		.long	.LLST152
 11728 180b 36        		.uleb128 0x36
 11729 180c 6100      		.string	"a"
 11730 180e 01        		.byte	0x1
 11731 180f 4E01      		.word	0x14e
 11732 1811 C617 0000 		.long	0x17c6
 11733 1815 00        		.byte	0x0
 11734 1816 14        		.uleb128 0x14
 11735 1817 BB17 0000 		.long	0x17bb
 11736 181b 35        		.uleb128 0x35
 11737 181c 01        		.byte	0x1
 11738 181d 0000 0000 		.long	.LASF136
 11739 1821 01        		.byte	0x1
 11740 1822 4501      		.word	0x145
 11741 1824 0000 0000 		.long	.LASF139
 11742 1828 B017 0000 		.long	0x17b0
GAS LISTING /var/folders/1s/lqjcb7x5323625d47g9gdgmr0000gp/T//ccbjwlOH.s 			page 207


 11743 182c 0000 0000 		.long	.LFB90
 11744 1830 0000 0000 		.long	.LFE90
 11745 1834 02        		.byte	0x2
 11746 1835 90        		.byte	0x90
 11747 1836 20        		.uleb128 0x20
 11748 1837 6618 0000 		.long	0x1866
 11749 183b 2B        		.uleb128 0x2b
 11750 183c 6C68 7300 		.string	"lhs"
 11751 1840 01        		.byte	0x1
 11752 1841 4501      		.word	0x145
 11753 1843 6618 0000 		.long	0x1866
 11754 1847 0000 0000 		.long	.LLST154
 11755 184b 2B        		.uleb128 0x2b
 11756 184c 6E75 6D00 		.string	"num"
 11757 1850 01        		.byte	0x1
 11758 1851 4501      		.word	0x145
 11759 1853 2500 0000 		.long	0x25
 11760 1857 0000 0000 		.long	.LLST155
 11761 185b 36        		.uleb128 0x36
 11762 185c 6100      		.string	"a"
 11763 185e 01        		.byte	0x1
 11764 185f 4701      		.word	0x147
 11765 1861 C617 0000 		.long	0x17c6
 11766 1865 00        		.byte	0x0
 11767 1866 14        		.uleb128 0x14
 11768 1867 BB17 0000 		.long	0x17bb
 11769 186b 35        		.uleb128 0x35
 11770 186c 01        		.byte	0x1
 11771 186d 0000 0000 		.long	.LASF136
 11772 1871 01        		.byte	0x1
 11773 1872 3E01      		.word	0x13e
 11774 1874 0000 0000 		.long	.LASF140
 11775 1878 B017 0000 		.long	0x17b0
 11776 187c 0000 0000 		.long	.LFB89
 11777 1880 0000 0000 		.long	.LFE89
 11778 1884 02        		.byte	0x2
 11779 1885 90        		.byte	0x90
 11780 1886 20        		.uleb128 0x20
 11781 1887 B618 0000 		.long	0x18b6
 11782 188b 2B        		.uleb128 0x2b
 11783 188c 6C68 7300 		.string	"lhs"
 11784 1890 01        		.byte	0x1
 11785 1891 3E01      		.word	0x13e
 11786 1893 B618 0000 		.long	0x18b6
 11787 1897 0000 0000 		.long	.LLST157
 11788 189b 2B        		.uleb128 0x2b
 11789 189c 6E75 6D00 		.string	"num"
 11790 18a0 01        		.byte	0x1
 11791 18a1 3E01      		.word	0x13e
 11792 18a3 2C00 0000 		.long	0x2c
 11793 18a7 0000 0000 		.long	.LLST158
 11794 18ab 36        		.uleb128 0x36
 11795 18ac 6100      		.string	"a"
 11796 18ae 01        		.byte	0x1
 11797 18af 4001      		.word	0x140
 11798 18b1 C617 0000 		.long	0x17c6
 11799 18b5 00        		.byte	0x0
GAS LISTING /var/folders/1s/lqjcb7x5323625d47g9gdgmr0000gp/T//ccbjwlOH.s 			page 208


 11800 18b6 14        		.uleb128 0x14
 11801 18b7 BB17 0000 		.long	0x17bb
 11802 18bb 35        		.uleb128 0x35
 11803 18bc 01        		.byte	0x1
 11804 18bd 0000 0000 		.long	.LASF136
 11805 18c1 01        		.byte	0x1
 11806 18c2 3701      		.word	0x137
 11807 18c4 0000 0000 		.long	.LASF141
 11808 18c8 B017 0000 		.long	0x17b0
 11809 18cc 0000 0000 		.long	.LFB88
 11810 18d0 0000 0000 		.long	.LFE88
 11811 18d4 02        		.byte	0x2
 11812 18d5 90        		.byte	0x90
 11813 18d6 20        		.uleb128 0x20
 11814 18d7 0619 0000 		.long	0x1906
 11815 18db 2B        		.uleb128 0x2b
 11816 18dc 6C68 7300 		.string	"lhs"
 11817 18e0 01        		.byte	0x1
 11818 18e1 3701      		.word	0x137
 11819 18e3 0619 0000 		.long	0x1906
 11820 18e7 0000 0000 		.long	.LLST160
 11821 18eb 2B        		.uleb128 0x2b
 11822 18ec 6E75 6D00 		.string	"num"
 11823 18f0 01        		.byte	0x1
 11824 18f1 3701      		.word	0x137
 11825 18f3 4100 0000 		.long	0x41
 11826 18f7 0000 0000 		.long	.LLST161
 11827 18fb 36        		.uleb128 0x36
 11828 18fc 6100      		.string	"a"
 11829 18fe 01        		.byte	0x1
 11830 18ff 3901      		.word	0x139
 11831 1901 C617 0000 		.long	0x17c6
 11832 1905 00        		.byte	0x0
 11833 1906 14        		.uleb128 0x14
 11834 1907 BB17 0000 		.long	0x17bb
 11835 190b 35        		.uleb128 0x35
 11836 190c 01        		.byte	0x1
 11837 190d 0000 0000 		.long	.LASF136
 11838 1911 01        		.byte	0x1
 11839 1912 3001      		.word	0x130
 11840 1914 0000 0000 		.long	.LASF142
 11841 1918 B017 0000 		.long	0x17b0
 11842 191c 0000 0000 		.long	.LFB87
 11843 1920 0000 0000 		.long	.LFE87
 11844 1924 02        		.byte	0x2
 11845 1925 90        		.byte	0x90
 11846 1926 20        		.uleb128 0x20
 11847 1927 5419 0000 		.long	0x1954
 11848 192b 2B        		.uleb128 0x2b
 11849 192c 6C68 7300 		.string	"lhs"
 11850 1930 01        		.byte	0x1
 11851 1931 3001      		.word	0x130
 11852 1933 5419 0000 		.long	0x1954
 11853 1937 0000 0000 		.long	.LLST163
 11854 193b 2B        		.uleb128 0x2b
 11855 193c 6300      		.string	"c"
 11856 193e 01        		.byte	0x1
GAS LISTING /var/folders/1s/lqjcb7x5323625d47g9gdgmr0000gp/T//ccbjwlOH.s 			page 209


 11857 193f 3001      		.word	0x130
 11858 1941 E109 0000 		.long	0x9e1
 11859 1945 0000 0000 		.long	.LLST164
 11860 1949 36        		.uleb128 0x36
 11861 194a 6100      		.string	"a"
 11862 194c 01        		.byte	0x1
 11863 194d 3201      		.word	0x132
 11864 194f C617 0000 		.long	0x17c6
 11865 1953 00        		.byte	0x0
 11866 1954 14        		.uleb128 0x14
 11867 1955 BB17 0000 		.long	0x17bb
 11868 1959 35        		.uleb128 0x35
 11869 195a 01        		.byte	0x1
 11870 195b 0000 0000 		.long	.LASF136
 11871 195f 01        		.byte	0x1
 11872 1960 2901      		.word	0x129
 11873 1962 0000 0000 		.long	.LASF143
 11874 1966 B017 0000 		.long	0x17b0
 11875 196a 0000 0000 		.long	.LFB86
 11876 196e 0000 0000 		.long	.LFE86
 11877 1972 02        		.byte	0x2
 11878 1973 90        		.byte	0x90
 11879 1974 20        		.uleb128 0x20
 11880 1975 A419 0000 		.long	0x19a4
 11881 1979 2B        		.uleb128 0x2b
 11882 197a 6C68 7300 		.string	"lhs"
 11883 197e 01        		.byte	0x1
 11884 197f 2901      		.word	0x129
 11885 1981 A419 0000 		.long	0x19a4
 11886 1985 0000 0000 		.long	.LLST166
 11887 1989 21        		.uleb128 0x21
 11888 198a 0000 0000 		.long	.LASF126
 11889 198e 01        		.byte	0x1
 11890 198f 2901      		.word	0x129
 11891 1991 300A 0000 		.long	0xa30
 11892 1995 0000 0000 		.long	.LLST167
 11893 1999 36        		.uleb128 0x36
 11894 199a 6100      		.string	"a"
 11895 199c 01        		.byte	0x1
 11896 199d 2B01      		.word	0x12b
 11897 199f C617 0000 		.long	0x17c6
 11898 19a3 00        		.byte	0x0
 11899 19a4 14        		.uleb128 0x14
 11900 19a5 BB17 0000 		.long	0x17bb
 11901 19a9 35        		.uleb128 0x35
 11902 19aa 01        		.byte	0x1
 11903 19ab 0000 0000 		.long	.LASF136
 11904 19af 01        		.byte	0x1
 11905 19b0 2201      		.word	0x122
 11906 19b2 0000 0000 		.long	.LASF144
 11907 19b6 B017 0000 		.long	0x17b0
 11908 19ba 0000 0000 		.long	.LFB85
 11909 19be 0000 0000 		.long	.LFE85
 11910 19c2 02        		.byte	0x2
 11911 19c3 90        		.byte	0x90
 11912 19c4 20        		.uleb128 0x20
 11913 19c5 F419 0000 		.long	0x19f4
GAS LISTING /var/folders/1s/lqjcb7x5323625d47g9gdgmr0000gp/T//ccbjwlOH.s 			page 210


 11914 19c9 2B        		.uleb128 0x2b
 11915 19ca 6C68 7300 		.string	"lhs"
 11916 19ce 01        		.byte	0x1
 11917 19cf 2201      		.word	0x122
 11918 19d1 F419 0000 		.long	0x19f4
 11919 19d5 0000 0000 		.long	.LLST169
 11920 19d9 2B        		.uleb128 0x2b
 11921 19da 7268 7300 		.string	"rhs"
 11922 19de 01        		.byte	0x1
 11923 19df 2201      		.word	0x122
 11924 19e1 F919 0000 		.long	0x19f9
 11925 19e5 0000 0000 		.long	.LLST170
 11926 19e9 36        		.uleb128 0x36
 11927 19ea 6100      		.string	"a"
 11928 19ec 01        		.byte	0x1
 11929 19ed 2401      		.word	0x124
 11930 19ef C617 0000 		.long	0x17c6
 11931 19f3 00        		.byte	0x0
 11932 19f4 14        		.uleb128 0x14
 11933 19f5 BB17 0000 		.long	0x17bb
 11934 19f9 14        		.uleb128 0x14
 11935 19fa 3B0A 0000 		.long	0xa3b
 11936 19fe 2C        		.uleb128 0x2c
 11937 19ff B709 0000 		.long	0x9b7
 11938 1a03 01        		.byte	0x1
 11939 1a04 98        		.byte	0x98
 11940 1a05 0000 0000 		.long	.LFB73
 11941 1a09 0000 0000 		.long	.LFE73
 11942 1a0d 02        		.byte	0x2
 11943 1a0e 90        		.byte	0x90
 11944 1a0f 20        		.uleb128 0x20
 11945 1a10 411A 0000 		.long	0x1a41
 11946 1a14 1D        		.uleb128 0x1d
 11947 1a15 0000 0000 		.long	.LASF115
 11948 1a19 730B 0000 		.long	0xb73
 11949 1a1d 01        		.byte	0x1
 11950 1a1e 0000 0000 		.long	.LLST172
 11951 1a22 2D        		.uleb128 0x2d
 11952 1a23 0000 0000 		.long	.LASF126
 11953 1a27 01        		.byte	0x1
 11954 1a28 98        		.byte	0x98
 11955 1a29 300A 0000 		.long	0xa30
 11956 1a2d 0000 0000 		.long	.LLST173
 11957 1a31 2D        		.uleb128 0x2d
 11958 1a32 0000 0000 		.long	.LASF16
 11959 1a36 01        		.byte	0x1
 11960 1a37 98        		.byte	0x98
 11961 1a38 2500 0000 		.long	0x25
 11962 1a3c 0000 0000 		.long	.LLST174
 11963 1a40 00        		.byte	0x0
 11964 1a41 1B        		.uleb128 0x1b
 11965 1a42 C400 0000 		.long	0xc4
 11966 1a46 01        		.byte	0x1
 11967 1a47 1D        		.byte	0x1d
 11968 1a48 00        		.byte	0x0
 11969 1a49 631A 0000 		.long	0x1a63
 11970 1a4d 19        		.uleb128 0x19
GAS LISTING /var/folders/1s/lqjcb7x5323625d47g9gdgmr0000gp/T//ccbjwlOH.s 			page 211


 11971 1a4e 0000 0000 		.long	.LASF115
 11972 1a52 730B 0000 		.long	0xb73
 11973 1a56 01        		.byte	0x1
 11974 1a57 37        		.uleb128 0x37
 11975 1a58 0000 0000 		.long	.LASF126
 11976 1a5c 01        		.byte	0x1
 11977 1a5d 1D        		.byte	0x1d
 11978 1a5e 300A 0000 		.long	0xa30
 11979 1a62 00        		.byte	0x0
 11980 1a63 23        		.uleb128 0x23
 11981 1a64 411A 0000 		.long	0x1a41
 11982 1a68 0000 0000 		.long	.LFB44
 11983 1a6c 0000 0000 		.long	.LFE44
 11984 1a70 02        		.byte	0x2
 11985 1a71 90        		.byte	0x90
 11986 1a72 20        		.uleb128 0x20
 11987 1a73 9F1A 0000 		.long	0x1a9f
 11988 1a77 24        		.uleb128 0x24
 11989 1a78 4D1A 0000 		.long	0x1a4d
 11990 1a7c 0000 0000 		.long	.LLST176
 11991 1a80 24        		.uleb128 0x24
 11992 1a81 571A 0000 		.long	0x1a57
 11993 1a85 0000 0000 		.long	.LLST177
 11994 1a89 38        		.uleb128 0x38
 11995 1a8a 5C0B 0000 		.long	0xb5c
 11996 1a8e 0000 0000 		.long	.LBB138
 11997 1a92 0000 0000 		.long	.LBE138
 11998 1a96 01        		.byte	0x1
 11999 1a97 1F        		.byte	0x1f
 12000 1a98 20        		.uleb128 0x20
 12001 1a99 680B 0000 		.long	0xb68
 12002 1a9d 00        		.byte	0x0
 12003 1a9e 00        		.byte	0x0
 12004 1a9f 23        		.uleb128 0x23
 12005 1aa0 411A 0000 		.long	0x1a41
 12006 1aa4 0000 0000 		.long	.LFB43
 12007 1aa8 0000 0000 		.long	.LFE43
 12008 1aac 02        		.byte	0x2
 12009 1aad 90        		.byte	0x90
 12010 1aae 20        		.uleb128 0x20
 12011 1aaf DB1A 0000 		.long	0x1adb
 12012 1ab3 24        		.uleb128 0x24
 12013 1ab4 4D1A 0000 		.long	0x1a4d
 12014 1ab8 0000 0000 		.long	.LLST179
 12015 1abc 24        		.uleb128 0x24
 12016 1abd 571A 0000 		.long	0x1a57
 12017 1ac1 0000 0000 		.long	.LLST180
 12018 1ac5 38        		.uleb128 0x38
 12019 1ac6 5C0B 0000 		.long	0xb5c
 12020 1aca 0000 0000 		.long	.LBB144
 12021 1ace 0000 0000 		.long	.LBE144
 12022 1ad2 01        		.byte	0x1
 12023 1ad3 1F        		.byte	0x1f
 12024 1ad4 20        		.uleb128 0x20
 12025 1ad5 680B 0000 		.long	0xb68
 12026 1ad9 00        		.byte	0x0
 12027 1ada 00        		.byte	0x0
GAS LISTING /var/folders/1s/lqjcb7x5323625d47g9gdgmr0000gp/T//ccbjwlOH.s 			page 212


 12028 1adb 2C        		.uleb128 0x2c
 12029 1adc 1D02 0000 		.long	0x21d
 12030 1ae0 01        		.byte	0x1
 12031 1ae1 D1        		.byte	0xd1
 12032 1ae2 0000 0000 		.long	.LFB75
 12033 1ae6 0000 0000 		.long	.LFE75
 12034 1aea 02        		.byte	0x2
 12035 1aeb 90        		.byte	0x90
 12036 1aec 20        		.uleb128 0x20
 12037 1aed 0F1B 0000 		.long	0x1b0f
 12038 1af1 1D        		.uleb128 0x1d
 12039 1af2 0000 0000 		.long	.LASF115
 12040 1af6 730B 0000 		.long	0xb73
 12041 1afa 01        		.byte	0x1
 12042 1afb 0000 0000 		.long	.LLST182
 12043 1aff 2D        		.uleb128 0x2d
 12044 1b00 0000 0000 		.long	.LASF126
 12045 1b04 01        		.byte	0x1
 12046 1b05 D1        		.byte	0xd1
 12047 1b06 300A 0000 		.long	0xa30
 12048 1b0a 0000 0000 		.long	.LLST183
 12049 1b0e 00        		.byte	0x0
 12050 1b0f 1B        		.uleb128 0x1b
 12051 1b10 8701 0000 		.long	0x187
 12052 1b14 01        		.byte	0x1
 12053 1b15 5F        		.byte	0x5f
 12054 1b16 00        		.byte	0x0
 12055 1b17 3C1B 0000 		.long	0x1b3c
 12056 1b1b 19        		.uleb128 0x19
 12057 1b1c 0000 0000 		.long	.LASF115
 12058 1b20 730B 0000 		.long	0xb73
 12059 1b24 01        		.byte	0x1
 12060 1b25 37        		.uleb128 0x37
 12061 1b26 0000 0000 		.long	.LASF145
 12062 1b2a 01        		.byte	0x1
 12063 1b2b 5F        		.byte	0x5f
 12064 1b2c 4800 0000 		.long	0x48
 12065 1b30 37        		.uleb128 0x37
 12066 1b31 0000 0000 		.long	.LASF146
 12067 1b35 01        		.byte	0x1
 12068 1b36 5F        		.byte	0x5f
 12069 1b37 4100 0000 		.long	0x41
 12070 1b3b 00        		.byte	0x0
 12071 1b3c 23        		.uleb128 0x23
 12072 1b3d 0F1B 0000 		.long	0x1b0f
 12073 1b41 0000 0000 		.long	.LFB65
 12074 1b45 0000 0000 		.long	.LFE65
 12075 1b49 02        		.byte	0x2
 12076 1b4a 90        		.byte	0x90
 12077 1b4b 20        		.uleb128 0x20
 12078 1b4c 8F1B 0000 		.long	0x1b8f
 12079 1b50 24        		.uleb128 0x24
 12080 1b51 1B1B 0000 		.long	0x1b1b
 12081 1b55 0000 0000 		.long	.LLST185
 12082 1b59 24        		.uleb128 0x24
 12083 1b5a 251B 0000 		.long	0x1b25
 12084 1b5e 0000 0000 		.long	.LLST186
GAS LISTING /var/folders/1s/lqjcb7x5323625d47g9gdgmr0000gp/T//ccbjwlOH.s 			page 213


 12085 1b62 24        		.uleb128 0x24
 12086 1b63 301B 0000 		.long	0x1b30
 12087 1b67 0000 0000 		.long	.LLST187
 12088 1b6b 27        		.uleb128 0x27
 12089 1b6c 0000 0000 		.long	.LBB151
 12090 1b70 0000 0000 		.long	.LBE151
 12091 1b74 39        		.uleb128 0x39
 12092 1b75 02        		.byte	0x2
 12093 1b76 8C        		.byte	0x8c
 12094 1b77 01        		.sleb128 1
 12095 1b78 38        		.uleb128 0x38
 12096 1b79 5C0B 0000 		.long	0xb5c
 12097 1b7d 0000 0000 		.long	.LBB152
 12098 1b81 0000 0000 		.long	.LBE152
 12099 1b85 01        		.byte	0x1
 12100 1b86 61        		.byte	0x61
 12101 1b87 20        		.uleb128 0x20
 12102 1b88 680B 0000 		.long	0xb68
 12103 1b8c 00        		.byte	0x0
 12104 1b8d 00        		.byte	0x0
 12105 1b8e 00        		.byte	0x0
 12106 1b8f 23        		.uleb128 0x23
 12107 1b90 0F1B 0000 		.long	0x1b0f
 12108 1b94 0000 0000 		.long	.LFB64
 12109 1b98 0000 0000 		.long	.LFE64
 12110 1b9c 02        		.byte	0x2
 12111 1b9d 90        		.byte	0x90
 12112 1b9e 20        		.uleb128 0x20
 12113 1b9f E21B 0000 		.long	0x1be2
 12114 1ba3 24        		.uleb128 0x24
 12115 1ba4 1B1B 0000 		.long	0x1b1b
 12116 1ba8 0000 0000 		.long	.LLST189
 12117 1bac 24        		.uleb128 0x24
 12118 1bad 251B 0000 		.long	0x1b25
 12119 1bb1 0000 0000 		.long	.LLST190
 12120 1bb5 24        		.uleb128 0x24
 12121 1bb6 301B 0000 		.long	0x1b30
 12122 1bba 0000 0000 		.long	.LLST191
 12123 1bbe 27        		.uleb128 0x27
 12124 1bbf 0000 0000 		.long	.LBB159
 12125 1bc3 0000 0000 		.long	.LBE159
 12126 1bc7 39        		.uleb128 0x39
 12127 1bc8 02        		.byte	0x2
 12128 1bc9 8C        		.byte	0x8c
 12129 1bca 01        		.sleb128 1
 12130 1bcb 38        		.uleb128 0x38
 12131 1bcc 5C0B 0000 		.long	0xb5c
 12132 1bd0 0000 0000 		.long	.LBB160
 12133 1bd4 0000 0000 		.long	.LBE160
 12134 1bd8 01        		.byte	0x1
 12135 1bd9 61        		.byte	0x61
 12136 1bda 20        		.uleb128 0x20
 12137 1bdb 680B 0000 		.long	0xb68
 12138 1bdf 00        		.byte	0x0
 12139 1be0 00        		.byte	0x0
 12140 1be1 00        		.byte	0x0
 12141 1be2 1B        		.uleb128 0x1b
GAS LISTING /var/folders/1s/lqjcb7x5323625d47g9gdgmr0000gp/T//ccbjwlOH.s 			page 214


 12142 1be3 6901 0000 		.long	0x169
 12143 1be7 01        		.byte	0x1
 12144 1be8 57        		.byte	0x57
 12145 1be9 00        		.byte	0x0
 12146 1bea 0F1C 0000 		.long	0x1c0f
 12147 1bee 19        		.uleb128 0x19
 12148 1bef 0000 0000 		.long	.LASF115
 12149 1bf3 730B 0000 		.long	0xb73
 12150 1bf7 01        		.byte	0x1
 12151 1bf8 37        		.uleb128 0x37
 12152 1bf9 0000 0000 		.long	.LASF145
 12153 1bfd 01        		.byte	0x1
 12154 1bfe 57        		.byte	0x57
 12155 1bff 3300 0000 		.long	0x33
 12156 1c03 37        		.uleb128 0x37
 12157 1c04 0000 0000 		.long	.LASF146
 12158 1c08 01        		.byte	0x1
 12159 1c09 57        		.byte	0x57
 12160 1c0a 4100 0000 		.long	0x41
 12161 1c0e 00        		.byte	0x0
 12162 1c0f 23        		.uleb128 0x23
 12163 1c10 E21B 0000 		.long	0x1be2
 12164 1c14 0000 0000 		.long	.LFB62
 12165 1c18 0000 0000 		.long	.LFE62
 12166 1c1c 02        		.byte	0x2
 12167 1c1d 90        		.byte	0x90
 12168 1c1e 20        		.uleb128 0x20
 12169 1c1f 621C 0000 		.long	0x1c62
 12170 1c23 24        		.uleb128 0x24
 12171 1c24 EE1B 0000 		.long	0x1bee
 12172 1c28 0000 0000 		.long	.LLST193
 12173 1c2c 24        		.uleb128 0x24
 12174 1c2d F81B 0000 		.long	0x1bf8
 12175 1c31 0000 0000 		.long	.LLST194
 12176 1c35 24        		.uleb128 0x24
 12177 1c36 031C 0000 		.long	0x1c03
 12178 1c3a 0000 0000 		.long	.LLST195
 12179 1c3e 27        		.uleb128 0x27
 12180 1c3f 0000 0000 		.long	.LBB167
 12181 1c43 0000 0000 		.long	.LBE167
 12182 1c47 39        		.uleb128 0x39
 12183 1c48 02        		.byte	0x2
 12184 1c49 8C        		.byte	0x8c
 12185 1c4a 01        		.sleb128 1
 12186 1c4b 38        		.uleb128 0x38
 12187 1c4c 5C0B 0000 		.long	0xb5c
 12188 1c50 0000 0000 		.long	.LBB168
 12189 1c54 0000 0000 		.long	.LBE168
 12190 1c58 01        		.byte	0x1
 12191 1c59 59        		.byte	0x59
 12192 1c5a 20        		.uleb128 0x20
 12193 1c5b 680B 0000 		.long	0xb68
 12194 1c5f 00        		.byte	0x0
 12195 1c60 00        		.byte	0x0
 12196 1c61 00        		.byte	0x0
 12197 1c62 23        		.uleb128 0x23
 12198 1c63 E21B 0000 		.long	0x1be2
GAS LISTING /var/folders/1s/lqjcb7x5323625d47g9gdgmr0000gp/T//ccbjwlOH.s 			page 215


 12199 1c67 0000 0000 		.long	.LFB61
 12200 1c6b 0000 0000 		.long	.LFE61
 12201 1c6f 02        		.byte	0x2
 12202 1c70 90        		.byte	0x90
 12203 1c71 20        		.uleb128 0x20
 12204 1c72 B51C 0000 		.long	0x1cb5
 12205 1c76 24        		.uleb128 0x24
 12206 1c77 EE1B 0000 		.long	0x1bee
 12207 1c7b 0000 0000 		.long	.LLST197
 12208 1c7f 24        		.uleb128 0x24
 12209 1c80 F81B 0000 		.long	0x1bf8
 12210 1c84 0000 0000 		.long	.LLST198
 12211 1c88 24        		.uleb128 0x24
 12212 1c89 031C 0000 		.long	0x1c03
 12213 1c8d 0000 0000 		.long	.LLST199
 12214 1c91 27        		.uleb128 0x27
 12215 1c92 0000 0000 		.long	.LBB175
 12216 1c96 0000 0000 		.long	.LBE175
 12217 1c9a 39        		.uleb128 0x39
 12218 1c9b 02        		.byte	0x2
 12219 1c9c 8C        		.byte	0x8c
 12220 1c9d 01        		.sleb128 1
 12221 1c9e 38        		.uleb128 0x38
 12222 1c9f 5C0B 0000 		.long	0xb5c
 12223 1ca3 0000 0000 		.long	.LBB176
 12224 1ca7 0000 0000 		.long	.LBE176
 12225 1cab 01        		.byte	0x1
 12226 1cac 59        		.byte	0x59
 12227 1cad 20        		.uleb128 0x20
 12228 1cae 680B 0000 		.long	0xb68
 12229 1cb2 00        		.byte	0x0
 12230 1cb3 00        		.byte	0x0
 12231 1cb4 00        		.byte	0x0
 12232 1cb5 1B        		.uleb128 0x1b
 12233 1cb6 4B01 0000 		.long	0x14b
 12234 1cba 01        		.byte	0x1
 12235 1cbb 4F        		.byte	0x4f
 12236 1cbc 00        		.byte	0x0
 12237 1cbd E21C 0000 		.long	0x1ce2
 12238 1cc1 19        		.uleb128 0x19
 12239 1cc2 0000 0000 		.long	.LASF115
 12240 1cc6 730B 0000 		.long	0xb73
 12241 1cca 01        		.byte	0x1
 12242 1ccb 37        		.uleb128 0x37
 12243 1ccc 0000 0000 		.long	.LASF145
 12244 1cd0 01        		.byte	0x1
 12245 1cd1 4F        		.byte	0x4f
 12246 1cd2 2500 0000 		.long	0x25
 12247 1cd6 37        		.uleb128 0x37
 12248 1cd7 0000 0000 		.long	.LASF146
 12249 1cdb 01        		.byte	0x1
 12250 1cdc 4F        		.byte	0x4f
 12251 1cdd 4100 0000 		.long	0x41
 12252 1ce1 00        		.byte	0x0
 12253 1ce2 23        		.uleb128 0x23
 12254 1ce3 B51C 0000 		.long	0x1cb5
 12255 1ce7 0000 0000 		.long	.LFB59
GAS LISTING /var/folders/1s/lqjcb7x5323625d47g9gdgmr0000gp/T//ccbjwlOH.s 			page 216


 12256 1ceb 0000 0000 		.long	.LFE59
 12257 1cef 02        		.byte	0x2
 12258 1cf0 90        		.byte	0x90
 12259 1cf1 20        		.uleb128 0x20
 12260 1cf2 351D 0000 		.long	0x1d35
 12261 1cf6 24        		.uleb128 0x24
 12262 1cf7 C11C 0000 		.long	0x1cc1
 12263 1cfb 0000 0000 		.long	.LLST201
 12264 1cff 24        		.uleb128 0x24
 12265 1d00 CB1C 0000 		.long	0x1ccb
 12266 1d04 0000 0000 		.long	.LLST202
 12267 1d08 24        		.uleb128 0x24
 12268 1d09 D61C 0000 		.long	0x1cd6
 12269 1d0d 0000 0000 		.long	.LLST203
 12270 1d11 27        		.uleb128 0x27
 12271 1d12 0000 0000 		.long	.LBB183
 12272 1d16 0000 0000 		.long	.LBE183
 12273 1d1a 39        		.uleb128 0x39
 12274 1d1b 02        		.byte	0x2
 12275 1d1c 8C        		.byte	0x8c
 12276 1d1d 01        		.sleb128 1
 12277 1d1e 38        		.uleb128 0x38
 12278 1d1f 5C0B 0000 		.long	0xb5c
 12279 1d23 0000 0000 		.long	.LBB184
 12280 1d27 0000 0000 		.long	.LBE184
 12281 1d2b 01        		.byte	0x1
 12282 1d2c 51        		.byte	0x51
 12283 1d2d 20        		.uleb128 0x20
 12284 1d2e 680B 0000 		.long	0xb68
 12285 1d32 00        		.byte	0x0
 12286 1d33 00        		.byte	0x0
 12287 1d34 00        		.byte	0x0
 12288 1d35 23        		.uleb128 0x23
 12289 1d36 B51C 0000 		.long	0x1cb5
 12290 1d3a 0000 0000 		.long	.LFB58
 12291 1d3e 0000 0000 		.long	.LFE58
 12292 1d42 02        		.byte	0x2
 12293 1d43 90        		.byte	0x90
 12294 1d44 20        		.uleb128 0x20
 12295 1d45 881D 0000 		.long	0x1d88
 12296 1d49 24        		.uleb128 0x24
 12297 1d4a C11C 0000 		.long	0x1cc1
 12298 1d4e 0000 0000 		.long	.LLST205
 12299 1d52 24        		.uleb128 0x24
 12300 1d53 CB1C 0000 		.long	0x1ccb
 12301 1d57 0000 0000 		.long	.LLST206
 12302 1d5b 24        		.uleb128 0x24
 12303 1d5c D61C 0000 		.long	0x1cd6
 12304 1d60 0000 0000 		.long	.LLST207
 12305 1d64 27        		.uleb128 0x27
 12306 1d65 0000 0000 		.long	.LBB191
 12307 1d69 0000 0000 		.long	.LBE191
 12308 1d6d 39        		.uleb128 0x39
 12309 1d6e 02        		.byte	0x2
 12310 1d6f 8C        		.byte	0x8c
 12311 1d70 01        		.sleb128 1
 12312 1d71 38        		.uleb128 0x38
GAS LISTING /var/folders/1s/lqjcb7x5323625d47g9gdgmr0000gp/T//ccbjwlOH.s 			page 217


 12313 1d72 5C0B 0000 		.long	0xb5c
 12314 1d76 0000 0000 		.long	.LBB192
 12315 1d7a 0000 0000 		.long	.LBE192
 12316 1d7e 01        		.byte	0x1
 12317 1d7f 51        		.byte	0x51
 12318 1d80 20        		.uleb128 0x20
 12319 1d81 680B 0000 		.long	0xb68
 12320 1d85 00        		.byte	0x0
 12321 1d86 00        		.byte	0x0
 12322 1d87 00        		.byte	0x0
 12323 1d88 1B        		.uleb128 0x1b
 12324 1d89 2D01 0000 		.long	0x12d
 12325 1d8d 01        		.byte	0x1
 12326 1d8e 47        		.byte	0x47
 12327 1d8f 00        		.byte	0x0
 12328 1d90 B51D 0000 		.long	0x1db5
 12329 1d94 19        		.uleb128 0x19
 12330 1d95 0000 0000 		.long	.LASF115
 12331 1d99 730B 0000 		.long	0xb73
 12332 1d9d 01        		.byte	0x1
 12333 1d9e 37        		.uleb128 0x37
 12334 1d9f 0000 0000 		.long	.LASF145
 12335 1da3 01        		.byte	0x1
 12336 1da4 47        		.byte	0x47
 12337 1da5 2C00 0000 		.long	0x2c
 12338 1da9 37        		.uleb128 0x37
 12339 1daa 0000 0000 		.long	.LASF146
 12340 1dae 01        		.byte	0x1
 12341 1daf 47        		.byte	0x47
 12342 1db0 4100 0000 		.long	0x41
 12343 1db4 00        		.byte	0x0
 12344 1db5 23        		.uleb128 0x23
 12345 1db6 881D 0000 		.long	0x1d88
 12346 1dba 0000 0000 		.long	.LFB56
 12347 1dbe 0000 0000 		.long	.LFE56
 12348 1dc2 02        		.byte	0x2
 12349 1dc3 90        		.byte	0x90
 12350 1dc4 20        		.uleb128 0x20
 12351 1dc5 081E 0000 		.long	0x1e08
 12352 1dc9 24        		.uleb128 0x24
 12353 1dca 941D 0000 		.long	0x1d94
 12354 1dce 0000 0000 		.long	.LLST209
 12355 1dd2 24        		.uleb128 0x24
 12356 1dd3 9E1D 0000 		.long	0x1d9e
 12357 1dd7 0000 0000 		.long	.LLST210
 12358 1ddb 24        		.uleb128 0x24
 12359 1ddc A91D 0000 		.long	0x1da9
 12360 1de0 0000 0000 		.long	.LLST211
 12361 1de4 27        		.uleb128 0x27
 12362 1de5 0000 0000 		.long	.LBB199
 12363 1de9 0000 0000 		.long	.LBE199
 12364 1ded 39        		.uleb128 0x39
 12365 1dee 02        		.byte	0x2
 12366 1def 8C        		.byte	0x8c
 12367 1df0 01        		.sleb128 1
 12368 1df1 38        		.uleb128 0x38
 12369 1df2 5C0B 0000 		.long	0xb5c
GAS LISTING /var/folders/1s/lqjcb7x5323625d47g9gdgmr0000gp/T//ccbjwlOH.s 			page 218


 12370 1df6 0000 0000 		.long	.LBB200
 12371 1dfa 0000 0000 		.long	.LBE200
 12372 1dfe 01        		.byte	0x1
 12373 1dff 49        		.byte	0x49
 12374 1e00 20        		.uleb128 0x20
 12375 1e01 680B 0000 		.long	0xb68
 12376 1e05 00        		.byte	0x0
 12377 1e06 00        		.byte	0x0
 12378 1e07 00        		.byte	0x0
 12379 1e08 23        		.uleb128 0x23
 12380 1e09 881D 0000 		.long	0x1d88
 12381 1e0d 0000 0000 		.long	.LFB55
 12382 1e11 0000 0000 		.long	.LFE55
 12383 1e15 02        		.byte	0x2
 12384 1e16 90        		.byte	0x90
 12385 1e17 20        		.uleb128 0x20
 12386 1e18 5B1E 0000 		.long	0x1e5b
 12387 1e1c 24        		.uleb128 0x24
 12388 1e1d 941D 0000 		.long	0x1d94
 12389 1e21 0000 0000 		.long	.LLST213
 12390 1e25 24        		.uleb128 0x24
 12391 1e26 9E1D 0000 		.long	0x1d9e
 12392 1e2a 0000 0000 		.long	.LLST214
 12393 1e2e 24        		.uleb128 0x24
 12394 1e2f A91D 0000 		.long	0x1da9
 12395 1e33 0000 0000 		.long	.LLST215
 12396 1e37 27        		.uleb128 0x27
 12397 1e38 0000 0000 		.long	.LBB207
 12398 1e3c 0000 0000 		.long	.LBE207
 12399 1e40 39        		.uleb128 0x39
 12400 1e41 02        		.byte	0x2
 12401 1e42 8C        		.byte	0x8c
 12402 1e43 01        		.sleb128 1
 12403 1e44 38        		.uleb128 0x38
 12404 1e45 5C0B 0000 		.long	0xb5c
 12405 1e49 0000 0000 		.long	.LBB208
 12406 1e4d 0000 0000 		.long	.LBE208
 12407 1e51 01        		.byte	0x1
 12408 1e52 49        		.byte	0x49
 12409 1e53 20        		.uleb128 0x20
 12410 1e54 680B 0000 		.long	0xb68
 12411 1e58 00        		.byte	0x0
 12412 1e59 00        		.byte	0x0
 12413 1e5a 00        		.byte	0x0
 12414 1e5b 1B        		.uleb128 0x1b
 12415 1e5c 0F01 0000 		.long	0x10f
 12416 1e60 01        		.byte	0x1
 12417 1e61 3F        		.byte	0x3f
 12418 1e62 00        		.byte	0x0
 12419 1e63 881E 0000 		.long	0x1e88
 12420 1e67 19        		.uleb128 0x19
 12421 1e68 0000 0000 		.long	.LASF115
 12422 1e6c 730B 0000 		.long	0xb73
 12423 1e70 01        		.byte	0x1
 12424 1e71 37        		.uleb128 0x37
 12425 1e72 0000 0000 		.long	.LASF145
 12426 1e76 01        		.byte	0x1
GAS LISTING /var/folders/1s/lqjcb7x5323625d47g9gdgmr0000gp/T//ccbjwlOH.s 			page 219


 12427 1e77 3F        		.byte	0x3f
 12428 1e78 4100 0000 		.long	0x41
 12429 1e7c 37        		.uleb128 0x37
 12430 1e7d 0000 0000 		.long	.LASF146
 12431 1e81 01        		.byte	0x1
 12432 1e82 3F        		.byte	0x3f
 12433 1e83 4100 0000 		.long	0x41
 12434 1e87 00        		.byte	0x0
 12435 1e88 23        		.uleb128 0x23
 12436 1e89 5B1E 0000 		.long	0x1e5b
 12437 1e8d 0000 0000 		.long	.LFB53
 12438 1e91 0000 0000 		.long	.LFE53
 12439 1e95 02        		.byte	0x2
 12440 1e96 90        		.byte	0x90
 12441 1e97 20        		.uleb128 0x20
 12442 1e98 DB1E 0000 		.long	0x1edb
 12443 1e9c 24        		.uleb128 0x24
 12444 1e9d 671E 0000 		.long	0x1e67
 12445 1ea1 0000 0000 		.long	.LLST217
 12446 1ea5 24        		.uleb128 0x24
 12447 1ea6 711E 0000 		.long	0x1e71
 12448 1eaa 0000 0000 		.long	.LLST218
 12449 1eae 24        		.uleb128 0x24
 12450 1eaf 7C1E 0000 		.long	0x1e7c
 12451 1eb3 0000 0000 		.long	.LLST219
 12452 1eb7 27        		.uleb128 0x27
 12453 1eb8 0000 0000 		.long	.LBB215
 12454 1ebc 0000 0000 		.long	.LBE215
 12455 1ec0 39        		.uleb128 0x39
 12456 1ec1 02        		.byte	0x2
 12457 1ec2 8C        		.byte	0x8c
 12458 1ec3 01        		.sleb128 1
 12459 1ec4 38        		.uleb128 0x38
 12460 1ec5 5C0B 0000 		.long	0xb5c
 12461 1ec9 0000 0000 		.long	.LBB216
 12462 1ecd 0000 0000 		.long	.LBE216
 12463 1ed1 01        		.byte	0x1
 12464 1ed2 41        		.byte	0x41
 12465 1ed3 20        		.uleb128 0x20
 12466 1ed4 680B 0000 		.long	0xb68
 12467 1ed8 00        		.byte	0x0
 12468 1ed9 00        		.byte	0x0
 12469 1eda 00        		.byte	0x0
 12470 1edb 23        		.uleb128 0x23
 12471 1edc 5B1E 0000 		.long	0x1e5b
 12472 1ee0 0000 0000 		.long	.LFB52
 12473 1ee4 0000 0000 		.long	.LFE52
 12474 1ee8 02        		.byte	0x2
 12475 1ee9 90        		.byte	0x90
 12476 1eea 20        		.uleb128 0x20
 12477 1eeb 2E1F 0000 		.long	0x1f2e
 12478 1eef 24        		.uleb128 0x24
 12479 1ef0 671E 0000 		.long	0x1e67
 12480 1ef4 0000 0000 		.long	.LLST221
 12481 1ef8 24        		.uleb128 0x24
 12482 1ef9 711E 0000 		.long	0x1e71
 12483 1efd 0000 0000 		.long	.LLST222
GAS LISTING /var/folders/1s/lqjcb7x5323625d47g9gdgmr0000gp/T//ccbjwlOH.s 			page 220


 12484 1f01 24        		.uleb128 0x24
 12485 1f02 7C1E 0000 		.long	0x1e7c
 12486 1f06 0000 0000 		.long	.LLST223
 12487 1f0a 27        		.uleb128 0x27
 12488 1f0b 0000 0000 		.long	.LBB223
 12489 1f0f 0000 0000 		.long	.LBE223
 12490 1f13 39        		.uleb128 0x39
 12491 1f14 02        		.byte	0x2
 12492 1f15 8C        		.byte	0x8c
 12493 1f16 01        		.sleb128 1
 12494 1f17 38        		.uleb128 0x38
 12495 1f18 5C0B 0000 		.long	0xb5c
 12496 1f1c 0000 0000 		.long	.LBB224
 12497 1f20 0000 0000 		.long	.LBE224
 12498 1f24 01        		.byte	0x1
 12499 1f25 41        		.byte	0x41
 12500 1f26 20        		.uleb128 0x20
 12501 1f27 680B 0000 		.long	0xb68
 12502 1f2b 00        		.byte	0x0
 12503 1f2c 00        		.byte	0x0
 12504 1f2d 00        		.byte	0x0
 12505 1f2e 1B        		.uleb128 0x1b
 12506 1f2f F600 0000 		.long	0xf6
 12507 1f33 01        		.byte	0x1
 12508 1f34 36        		.byte	0x36
 12509 1f35 00        		.byte	0x0
 12510 1f36 4E1F 0000 		.long	0x1f4e
 12511 1f3a 19        		.uleb128 0x19
 12512 1f3b 0000 0000 		.long	.LASF115
 12513 1f3f 730B 0000 		.long	0xb73
 12514 1f43 01        		.byte	0x1
 12515 1f44 3A        		.uleb128 0x3a
 12516 1f45 6300      		.string	"c"
 12517 1f47 01        		.byte	0x1
 12518 1f48 36        		.byte	0x36
 12519 1f49 E109 0000 		.long	0x9e1
 12520 1f4d 00        		.byte	0x0
 12521 1f4e 23        		.uleb128 0x23
 12522 1f4f 2E1F 0000 		.long	0x1f2e
 12523 1f53 0000 0000 		.long	.LFB50
 12524 1f57 0000 0000 		.long	.LFE50
 12525 1f5b 02        		.byte	0x2
 12526 1f5c 90        		.byte	0x90
 12527 1f5d 20        		.uleb128 0x20
 12528 1f5e 981F 0000 		.long	0x1f98
 12529 1f62 24        		.uleb128 0x24
 12530 1f63 3A1F 0000 		.long	0x1f3a
 12531 1f67 0000 0000 		.long	.LLST225
 12532 1f6b 24        		.uleb128 0x24
 12533 1f6c 441F 0000 		.long	0x1f44
 12534 1f70 0000 0000 		.long	.LLST226
 12535 1f74 27        		.uleb128 0x27
 12536 1f75 0000 0000 		.long	.LBB231
 12537 1f79 0000 0000 		.long	.LBE231
 12538 1f7d 39        		.uleb128 0x39
 12539 1f7e 02        		.byte	0x2
 12540 1f7f 8C        		.byte	0x8c
GAS LISTING /var/folders/1s/lqjcb7x5323625d47g9gdgmr0000gp/T//ccbjwlOH.s 			page 221


 12541 1f80 01        		.sleb128 1
 12542 1f81 38        		.uleb128 0x38
 12543 1f82 5C0B 0000 		.long	0xb5c
 12544 1f86 0000 0000 		.long	.LBB232
 12545 1f8a 0000 0000 		.long	.LBE232
 12546 1f8e 01        		.byte	0x1
 12547 1f8f 38        		.byte	0x38
 12548 1f90 20        		.uleb128 0x20
 12549 1f91 680B 0000 		.long	0xb68
 12550 1f95 00        		.byte	0x0
 12551 1f96 00        		.byte	0x0
 12552 1f97 00        		.byte	0x0
 12553 1f98 23        		.uleb128 0x23
 12554 1f99 2E1F 0000 		.long	0x1f2e
 12555 1f9d 0000 0000 		.long	.LFB49
 12556 1fa1 0000 0000 		.long	.LFE49
 12557 1fa5 02        		.byte	0x2
 12558 1fa6 90        		.byte	0x90
 12559 1fa7 20        		.uleb128 0x20
 12560 1fa8 E21F 0000 		.long	0x1fe2
 12561 1fac 24        		.uleb128 0x24
 12562 1fad 3A1F 0000 		.long	0x1f3a
 12563 1fb1 0000 0000 		.long	.LLST228
 12564 1fb5 24        		.uleb128 0x24
 12565 1fb6 441F 0000 		.long	0x1f44
 12566 1fba 0000 0000 		.long	.LLST229
 12567 1fbe 27        		.uleb128 0x27
 12568 1fbf 0000 0000 		.long	.LBB239
 12569 1fc3 0000 0000 		.long	.LBE239
 12570 1fc7 39        		.uleb128 0x39
 12571 1fc8 02        		.byte	0x2
 12572 1fc9 8C        		.byte	0x8c
 12573 1fca 01        		.sleb128 1
 12574 1fcb 38        		.uleb128 0x38
 12575 1fcc 5C0B 0000 		.long	0xb5c
 12576 1fd0 0000 0000 		.long	.LBB240
 12577 1fd4 0000 0000 		.long	.LBE240
 12578 1fd8 01        		.byte	0x1
 12579 1fd9 38        		.byte	0x38
 12580 1fda 20        		.uleb128 0x20
 12581 1fdb 680B 0000 		.long	0xb68
 12582 1fdf 00        		.byte	0x0
 12583 1fe0 00        		.byte	0x0
 12584 1fe1 00        		.byte	0x0
 12585 1fe2 1C        		.uleb128 0x1c
 12586 1fe3 6E08 0000 		.long	0x86e
 12587 1fe7 01        		.byte	0x1
 12588 1fe8 1702      		.word	0x217
 12589 1fea 0000 0000 		.long	.LFB118
 12590 1fee 0000 0000 		.long	.LFE118
 12591 1ff2 02        		.byte	0x2
 12592 1ff3 90        		.byte	0x90
 12593 1ff4 20        		.uleb128 0x20
 12594 1ff5 5820 0000 		.long	0x2058
 12595 1ff9 1D        		.uleb128 0x1d
 12596 1ffa 0000 0000 		.long	.LASF115
 12597 1ffe 570B 0000 		.long	0xb57
GAS LISTING /var/folders/1s/lqjcb7x5323625d47g9gdgmr0000gp/T//ccbjwlOH.s 			page 222


 12598 2002 01        		.byte	0x1
 12599 2003 0000 0000 		.long	.LLST231
 12600 2007 21        		.uleb128 0x21
 12601 2008 0000 0000 		.long	.LASF147
 12602 200c 01        		.byte	0x1
 12603 200d 1702      		.word	0x217
 12604 200f 2500 0000 		.long	0x25
 12605 2013 0000 0000 		.long	.LLST232
 12606 2017 21        		.uleb128 0x21
 12607 2018 0000 0000 		.long	.LASF148
 12608 201c 01        		.byte	0x1
 12609 201d 1702      		.word	0x217
 12610 201f 2500 0000 		.long	0x25
 12611 2023 0000 0000 		.long	.LLST233
 12612 2027 3B        		.uleb128 0x3b
 12613 2028 6F75 7400 		.string	"out"
 12614 202c 01        		.byte	0x1
 12615 202d 1E02      		.word	0x21e
 12616 202f 6300 0000 		.long	0x63
 12617 2033 03        		.byte	0x3
 12618 2034 06        		.byte	0x6
 12619 2035 60        		.byte	0x60
 12620 2036 93        		.byte	0x93
 12621 2037 01        		.uleb128 0x1
 12622 2038 5B        		.byte	0x5b
 12623 2039 93        		.byte	0x93
 12624 203a 01        		.uleb128 0x1
 12625 203b 36        		.uleb128 0x36
 12626 203c 6F75 7400 		.string	"out"
 12627 2040 01        		.byte	0x1
 12628 2041 1E02      		.word	0x21e
 12629 2043 6300 0000 		.long	0x63
 12630 2047 29        		.uleb128 0x29
 12631 2048 0000 0000 		.long	.LASF123
 12632 204c 01        		.byte	0x1
 12633 204d 2102      		.word	0x221
 12634 204f E109 0000 		.long	0x9e1
 12635 2053 0000 0000 		.long	.LLST234
 12636 2057 00        		.byte	0x0
 12637 2058 1C        		.uleb128 0x1c
 12638 2059 4D08 0000 		.long	0x84d
 12639 205d 01        		.byte	0x1
 12640 205e 1202      		.word	0x212
 12641 2060 0000 0000 		.long	.LFB117
 12642 2064 0000 0000 		.long	.LFE117
 12643 2068 02        		.byte	0x2
 12644 2069 90        		.byte	0x90
 12645 206a 20        		.uleb128 0x20
 12646 206b 8E20 0000 		.long	0x208e
 12647 206f 1D        		.uleb128 0x1d
 12648 2070 0000 0000 		.long	.LASF115
 12649 2074 570B 0000 		.long	0xb57
 12650 2078 01        		.byte	0x1
 12651 2079 0000 0000 		.long	.LLST236
 12652 207d 21        		.uleb128 0x21
 12653 207e 0000 0000 		.long	.LASF147
 12654 2082 01        		.byte	0x1
GAS LISTING /var/folders/1s/lqjcb7x5323625d47g9gdgmr0000gp/T//ccbjwlOH.s 			page 223


 12655 2083 1202      		.word	0x212
 12656 2085 2500 0000 		.long	0x25
 12657 2089 0000 0000 		.long	.LLST237
 12658 208d 00        		.byte	0x0
 12659 208e 2C        		.uleb128 0x2c
 12660 208f FC01 0000 		.long	0x1fc
 12661 2093 01        		.byte	0x1
 12662 2094 B9        		.byte	0xb9
 12663 2095 0000 0000 		.long	.LFB74
 12664 2099 0000 0000 		.long	.LFE74
 12665 209d 02        		.byte	0x2
 12666 209e 90        		.byte	0x90
 12667 209f 20        		.uleb128 0x20
 12668 20a0 C220 0000 		.long	0x20c2
 12669 20a4 1D        		.uleb128 0x1d
 12670 20a5 0000 0000 		.long	.LASF115
 12671 20a9 730B 0000 		.long	0xb73
 12672 20ad 01        		.byte	0x1
 12673 20ae 0000 0000 		.long	.LLST239
 12674 20b2 33        		.uleb128 0x33
 12675 20b3 7268 7300 		.string	"rhs"
 12676 20b7 01        		.byte	0x1
 12677 20b8 B9        		.byte	0xb9
 12678 20b9 C220 0000 		.long	0x20c2
 12679 20bd 0000 0000 		.long	.LLST240
 12680 20c1 00        		.byte	0x0
 12681 20c2 14        		.uleb128 0x14
 12682 20c3 3B0A 0000 		.long	0xa3b
 12683 20c7 1B        		.uleb128 0x1b
 12684 20c8 DD00 0000 		.long	0xdd
 12685 20cc 01        		.byte	0x1
 12686 20cd 23        		.byte	0x23
 12687 20ce 00        		.byte	0x0
 12688 20cf E920 0000 		.long	0x20e9
 12689 20d3 19        		.uleb128 0x19
 12690 20d4 0000 0000 		.long	.LASF115
 12691 20d8 730B 0000 		.long	0xb73
 12692 20dc 01        		.byte	0x1
 12693 20dd 37        		.uleb128 0x37
 12694 20de 0000 0000 		.long	.LASF145
 12695 20e2 01        		.byte	0x1
 12696 20e3 23        		.byte	0x23
 12697 20e4 E920 0000 		.long	0x20e9
 12698 20e8 00        		.byte	0x0
 12699 20e9 14        		.uleb128 0x14
 12700 20ea 3B0A 0000 		.long	0xa3b
 12701 20ee 23        		.uleb128 0x23
 12702 20ef C720 0000 		.long	0x20c7
 12703 20f3 0000 0000 		.long	.LFB47
 12704 20f7 0000 0000 		.long	.LFE47
 12705 20fb 02        		.byte	0x2
 12706 20fc 90        		.byte	0x90
 12707 20fd 20        		.uleb128 0x20
 12708 20fe 2A21 0000 		.long	0x212a
 12709 2102 24        		.uleb128 0x24
 12710 2103 D320 0000 		.long	0x20d3
 12711 2107 0000 0000 		.long	.LLST242
GAS LISTING /var/folders/1s/lqjcb7x5323625d47g9gdgmr0000gp/T//ccbjwlOH.s 			page 224


 12712 210b 24        		.uleb128 0x24
 12713 210c DD20 0000 		.long	0x20dd
 12714 2110 0000 0000 		.long	.LLST243
 12715 2114 38        		.uleb128 0x38
 12716 2115 5C0B 0000 		.long	0xb5c
 12717 2119 0000 0000 		.long	.LBB249
 12718 211d 0000 0000 		.long	.LBE249
 12719 2121 01        		.byte	0x1
 12720 2122 25        		.byte	0x25
 12721 2123 20        		.uleb128 0x20
 12722 2124 680B 0000 		.long	0xb68
 12723 2128 00        		.byte	0x0
 12724 2129 00        		.byte	0x0
 12725 212a 23        		.uleb128 0x23
 12726 212b C720 0000 		.long	0x20c7
 12727 212f 0000 0000 		.long	.LFB46
 12728 2133 0000 0000 		.long	.LFE46
 12729 2137 02        		.byte	0x2
 12730 2138 90        		.byte	0x90
 12731 2139 20        		.uleb128 0x20
 12732 213a 6621 0000 		.long	0x2166
 12733 213e 24        		.uleb128 0x24
 12734 213f D320 0000 		.long	0x20d3
 12735 2143 0000 0000 		.long	.LLST245
 12736 2147 24        		.uleb128 0x24
 12737 2148 DD20 0000 		.long	0x20dd
 12738 214c 0000 0000 		.long	.LLST246
 12739 2150 38        		.uleb128 0x38
 12740 2151 5C0B 0000 		.long	0xb5c
 12741 2155 0000 0000 		.long	.LBB255
 12742 2159 0000 0000 		.long	.LBE255
 12743 215d 01        		.byte	0x1
 12744 215e 25        		.byte	0x25
 12745 215f 20        		.uleb128 0x20
 12746 2160 680B 0000 		.long	0xb68
 12747 2164 00        		.byte	0x0
 12748 2165 00        		.byte	0x0
 12749 2166 1B        		.uleb128 0x1b
 12750 2167 A501 0000 		.long	0x1a5
 12751 216b 01        		.byte	0x1
 12752 216c 67        		.byte	0x67
 12753 216d 00        		.byte	0x0
 12754 216e 8721 0000 		.long	0x2187
 12755 2172 19        		.uleb128 0x19
 12756 2173 0000 0000 		.long	.LASF115
 12757 2177 730B 0000 		.long	0xb73
 12758 217b 01        		.byte	0x1
 12759 217c 19        		.uleb128 0x19
 12760 217d 0000 0000 		.long	.LASF149
 12761 2181 8721 0000 		.long	0x2187
 12762 2185 01        		.byte	0x1
 12763 2186 00        		.byte	0x0
 12764 2187 14        		.uleb128 0x14
 12765 2188 2C00 0000 		.long	0x2c
 12766 218c 23        		.uleb128 0x23
 12767 218d 6621 0000 		.long	0x2166
 12768 2191 0000 0000 		.long	.LFB68
GAS LISTING /var/folders/1s/lqjcb7x5323625d47g9gdgmr0000gp/T//ccbjwlOH.s 			page 225


 12769 2195 0000 0000 		.long	.LFE68
 12770 2199 02        		.byte	0x2
 12771 219a 90        		.byte	0x90
 12772 219b 20        		.uleb128 0x20
 12773 219c AA21 0000 		.long	0x21aa
 12774 21a0 24        		.uleb128 0x24
 12775 21a1 7221 0000 		.long	0x2172
 12776 21a5 0000 0000 		.long	.LLST248
 12777 21a9 00        		.byte	0x0
 12778 21aa 3C        		.uleb128 0x3c
 12779 21ab 6621 0000 		.long	0x2166
 12780 21af 0000 0000 		.long	.LFB67
 12781 21b3 0000 0000 		.long	.LFE67
 12782 21b7 02        		.byte	0x2
 12783 21b8 90        		.byte	0x90
 12784 21b9 20        		.uleb128 0x20
 12785 21ba 24        		.uleb128 0x24
 12786 21bb 7221 0000 		.long	0x2172
 12787 21bf 0000 0000 		.long	.LLST250
 12788 21c3 00        		.byte	0x0
 12789 21c4 00        		.byte	0x0
 12790               		.section	.debug_abbrev
 12791 0000 01        		.uleb128 0x1
 12792 0001 11        		.uleb128 0x11
 12793 0002 01        		.byte	0x1
 12794 0003 25        		.uleb128 0x25
 12795 0004 0E        		.uleb128 0xe
 12796 0005 13        		.uleb128 0x13
 12797 0006 0B        		.uleb128 0xb
 12798 0007 03        		.uleb128 0x3
 12799 0008 0E        		.uleb128 0xe
 12800 0009 11        		.uleb128 0x11
 12801 000a 01        		.uleb128 0x1
 12802 000b 52        		.uleb128 0x52
 12803 000c 01        		.uleb128 0x1
 12804 000d 55        		.uleb128 0x55
 12805 000e 06        		.uleb128 0x6
 12806 000f 10        		.uleb128 0x10
 12807 0010 06        		.uleb128 0x6
 12808 0011 00        		.byte	0x0
 12809 0012 00        		.byte	0x0
 12810 0013 02        		.uleb128 0x2
 12811 0014 24        		.uleb128 0x24
 12812 0015 00        		.byte	0x0
 12813 0016 0B        		.uleb128 0xb
 12814 0017 0B        		.uleb128 0xb
 12815 0018 3E        		.uleb128 0x3e
 12816 0019 0B        		.uleb128 0xb
 12817 001a 03        		.uleb128 0x3
 12818 001b 0E        		.uleb128 0xe
 12819 001c 00        		.byte	0x0
 12820 001d 00        		.byte	0x0
 12821 001e 03        		.uleb128 0x3
 12822 001f 24        		.uleb128 0x24
 12823 0020 00        		.byte	0x0
 12824 0021 0B        		.uleb128 0xb
 12825 0022 0B        		.uleb128 0xb
GAS LISTING /var/folders/1s/lqjcb7x5323625d47g9gdgmr0000gp/T//ccbjwlOH.s 			page 226


 12826 0023 3E        		.uleb128 0x3e
 12827 0024 0B        		.uleb128 0xb
 12828 0025 03        		.uleb128 0x3
 12829 0026 08        		.uleb128 0x8
 12830 0027 00        		.byte	0x0
 12831 0028 00        		.byte	0x0
 12832 0029 04        		.uleb128 0x4
 12833 002a 24        		.uleb128 0x24
 12834 002b 00        		.byte	0x0
 12835 002c 0B        		.uleb128 0xb
 12836 002d 0B        		.uleb128 0xb
 12837 002e 3E        		.uleb128 0x3e
 12838 002f 0B        		.uleb128 0xb
 12839 0030 00        		.byte	0x0
 12840 0031 00        		.byte	0x0
 12841 0032 05        		.uleb128 0x5
 12842 0033 02        		.uleb128 0x2
 12843 0034 01        		.byte	0x1
 12844 0035 03        		.uleb128 0x3
 12845 0036 0E        		.uleb128 0xe
 12846 0037 0B        		.uleb128 0xb
 12847 0038 0B        		.uleb128 0xb
 12848 0039 3A        		.uleb128 0x3a
 12849 003a 0B        		.uleb128 0xb
 12850 003b 3B        		.uleb128 0x3b
 12851 003c 0B        		.uleb128 0xb
 12852 003d 01        		.uleb128 0x1
 12853 003e 13        		.uleb128 0x13
 12854 003f 00        		.byte	0x0
 12855 0040 00        		.byte	0x0
 12856 0041 06        		.uleb128 0x6
 12857 0042 0D        		.uleb128 0xd
 12858 0043 00        		.byte	0x0
 12859 0044 03        		.uleb128 0x3
 12860 0045 0E        		.uleb128 0xe
 12861 0046 3A        		.uleb128 0x3a
 12862 0047 0B        		.uleb128 0xb
 12863 0048 3B        		.uleb128 0x3b
 12864 0049 0B        		.uleb128 0xb
 12865 004a 49        		.uleb128 0x49
 12866 004b 13        		.uleb128 0x13
 12867 004c 38        		.uleb128 0x38
 12868 004d 0A        		.uleb128 0xa
 12869 004e 32        		.uleb128 0x32
 12870 004f 0B        		.uleb128 0xb
 12871 0050 00        		.byte	0x0
 12872 0051 00        		.byte	0x0
 12873 0052 07        		.uleb128 0x7
 12874 0053 0D        		.uleb128 0xd
 12875 0054 00        		.byte	0x0
 12876 0055 03        		.uleb128 0x3
 12877 0056 08        		.uleb128 0x8
 12878 0057 3A        		.uleb128 0x3a
 12879 0058 0B        		.uleb128 0xb
 12880 0059 3B        		.uleb128 0x3b
 12881 005a 0B        		.uleb128 0xb
 12882 005b 49        		.uleb128 0x49
GAS LISTING /var/folders/1s/lqjcb7x5323625d47g9gdgmr0000gp/T//ccbjwlOH.s 			page 227


 12883 005c 13        		.uleb128 0x13
 12884 005d 38        		.uleb128 0x38
 12885 005e 0A        		.uleb128 0xa
 12886 005f 32        		.uleb128 0x32
 12887 0060 0B        		.uleb128 0xb
 12888 0061 00        		.byte	0x0
 12889 0062 00        		.byte	0x0
 12890 0063 08        		.uleb128 0x8
 12891 0064 2E        		.uleb128 0x2e
 12892 0065 01        		.byte	0x1
 12893 0066 3F        		.uleb128 0x3f
 12894 0067 0C        		.uleb128 0xc
 12895 0068 03        		.uleb128 0x3
 12896 0069 0E        		.uleb128 0xe
 12897 006a 3A        		.uleb128 0x3a
 12898 006b 0B        		.uleb128 0xb
 12899 006c 3B        		.uleb128 0x3b
 12900 006d 0B        		.uleb128 0xb
 12901 006e 8740      		.uleb128 0x2007
 12902 0070 0E        		.uleb128 0xe
 12903 0071 32        		.uleb128 0x32
 12904 0072 0B        		.uleb128 0xb
 12905 0073 3C        		.uleb128 0x3c
 12906 0074 0C        		.uleb128 0xc
 12907 0075 01        		.uleb128 0x1
 12908 0076 13        		.uleb128 0x13
 12909 0077 00        		.byte	0x0
 12910 0078 00        		.byte	0x0
 12911 0079 09        		.uleb128 0x9
 12912 007a 05        		.uleb128 0x5
 12913 007b 00        		.byte	0x0
 12914 007c 49        		.uleb128 0x49
 12915 007d 13        		.uleb128 0x13
 12916 007e 34        		.uleb128 0x34
 12917 007f 0C        		.uleb128 0xc
 12918 0080 00        		.byte	0x0
 12919 0081 00        		.byte	0x0
 12920 0082 0A        		.uleb128 0xa
 12921 0083 2E        		.uleb128 0x2e
 12922 0084 01        		.byte	0x1
 12923 0085 3F        		.uleb128 0x3f
 12924 0086 0C        		.uleb128 0xc
 12925 0087 03        		.uleb128 0x3
 12926 0088 0E        		.uleb128 0xe
 12927 0089 3A        		.uleb128 0x3a
 12928 008a 0B        		.uleb128 0xb
 12929 008b 3B        		.uleb128 0x3b
 12930 008c 0B        		.uleb128 0xb
 12931 008d 3C        		.uleb128 0x3c
 12932 008e 0C        		.uleb128 0xc
 12933 008f 01        		.uleb128 0x1
 12934 0090 13        		.uleb128 0x13
 12935 0091 00        		.byte	0x0
 12936 0092 00        		.byte	0x0
 12937 0093 0B        		.uleb128 0xb
 12938 0094 05        		.uleb128 0x5
 12939 0095 00        		.byte	0x0
GAS LISTING /var/folders/1s/lqjcb7x5323625d47g9gdgmr0000gp/T//ccbjwlOH.s 			page 228


 12940 0096 49        		.uleb128 0x49
 12941 0097 13        		.uleb128 0x13
 12942 0098 00        		.byte	0x0
 12943 0099 00        		.byte	0x0
 12944 009a 0C        		.uleb128 0xc
 12945 009b 2E        		.uleb128 0x2e
 12946 009c 01        		.byte	0x1
 12947 009d 3F        		.uleb128 0x3f
 12948 009e 0C        		.uleb128 0xc
 12949 009f 03        		.uleb128 0x3
 12950 00a0 0E        		.uleb128 0xe
 12951 00a1 3A        		.uleb128 0x3a
 12952 00a2 0B        		.uleb128 0xb
 12953 00a3 3B        		.uleb128 0x3b
 12954 00a4 0B        		.uleb128 0xb
 12955 00a5 8740      		.uleb128 0x2007
 12956 00a7 0E        		.uleb128 0xe
 12957 00a8 49        		.uleb128 0x49
 12958 00a9 13        		.uleb128 0x13
 12959 00aa 3C        		.uleb128 0x3c
 12960 00ab 0C        		.uleb128 0xc
 12961 00ac 01        		.uleb128 0x1
 12962 00ad 13        		.uleb128 0x13
 12963 00ae 00        		.byte	0x0
 12964 00af 00        		.byte	0x0
 12965 00b0 0D        		.uleb128 0xd
 12966 00b1 2E        		.uleb128 0x2e
 12967 00b2 01        		.byte	0x1
 12968 00b3 3F        		.uleb128 0x3f
 12969 00b4 0C        		.uleb128 0xc
 12970 00b5 03        		.uleb128 0x3
 12971 00b6 0E        		.uleb128 0xe
 12972 00b7 3A        		.uleb128 0x3a
 12973 00b8 0B        		.uleb128 0xb
 12974 00b9 3B        		.uleb128 0x3b
 12975 00ba 0B        		.uleb128 0xb
 12976 00bb 8740      		.uleb128 0x2007
 12977 00bd 0E        		.uleb128 0xe
 12978 00be 3C        		.uleb128 0x3c
 12979 00bf 0C        		.uleb128 0xc
 12980 00c0 01        		.uleb128 0x1
 12981 00c1 13        		.uleb128 0x13
 12982 00c2 00        		.byte	0x0
 12983 00c3 00        		.byte	0x0
 12984 00c4 0E        		.uleb128 0xe
 12985 00c5 2E        		.uleb128 0x2e
 12986 00c6 01        		.byte	0x1
 12987 00c7 3F        		.uleb128 0x3f
 12988 00c8 0C        		.uleb128 0xc
 12989 00c9 03        		.uleb128 0x3
 12990 00ca 0E        		.uleb128 0xe
 12991 00cb 3A        		.uleb128 0x3a
 12992 00cc 0B        		.uleb128 0xb
 12993 00cd 3B        		.uleb128 0x3b
 12994 00ce 0B        		.uleb128 0xb
 12995 00cf 8740      		.uleb128 0x2007
 12996 00d1 0E        		.uleb128 0xe
GAS LISTING /var/folders/1s/lqjcb7x5323625d47g9gdgmr0000gp/T//ccbjwlOH.s 			page 229


 12997 00d2 49        		.uleb128 0x49
 12998 00d3 13        		.uleb128 0x13
 12999 00d4 32        		.uleb128 0x32
 13000 00d5 0B        		.uleb128 0xb
 13001 00d6 3C        		.uleb128 0x3c
 13002 00d7 0C        		.uleb128 0xc
 13003 00d8 01        		.uleb128 0x1
 13004 00d9 13        		.uleb128 0x13
 13005 00da 00        		.byte	0x0
 13006 00db 00        		.byte	0x0
 13007 00dc 0F        		.uleb128 0xf
 13008 00dd 2E        		.uleb128 0x2e
 13009 00de 01        		.byte	0x1
 13010 00df 3F        		.uleb128 0x3f
 13011 00e0 0C        		.uleb128 0xc
 13012 00e1 03        		.uleb128 0x3
 13013 00e2 0E        		.uleb128 0xe
 13014 00e3 3A        		.uleb128 0x3a
 13015 00e4 0B        		.uleb128 0xb
 13016 00e5 3B        		.uleb128 0x3b
 13017 00e6 0B        		.uleb128 0xb
 13018 00e7 8740      		.uleb128 0x2007
 13019 00e9 0E        		.uleb128 0xe
 13020 00ea 49        		.uleb128 0x49
 13021 00eb 13        		.uleb128 0x13
 13022 00ec 32        		.uleb128 0x32
 13023 00ed 0B        		.uleb128 0xb
 13024 00ee 3C        		.uleb128 0x3c
 13025 00ef 0C        		.uleb128 0xc
 13026 00f0 00        		.byte	0x0
 13027 00f1 00        		.byte	0x0
 13028 00f2 10        		.uleb128 0x10
 13029 00f3 0F        		.uleb128 0xf
 13030 00f4 00        		.byte	0x0
 13031 00f5 0B        		.uleb128 0xb
 13032 00f6 0B        		.uleb128 0xb
 13033 00f7 49        		.uleb128 0x49
 13034 00f8 13        		.uleb128 0x13
 13035 00f9 00        		.byte	0x0
 13036 00fa 00        		.byte	0x0
 13037 00fb 11        		.uleb128 0x11
 13038 00fc 13        		.uleb128 0x13
 13039 00fd 01        		.byte	0x1
 13040 00fe 0B        		.uleb128 0xb
 13041 00ff 0B        		.uleb128 0xb
 13042 0100 3A        		.uleb128 0x3a
 13043 0101 0B        		.uleb128 0xb
 13044 0102 3B        		.uleb128 0x3b
 13045 0103 0B        		.uleb128 0xb
 13046 0104 01        		.uleb128 0x1
 13047 0105 13        		.uleb128 0x13
 13048 0106 00        		.byte	0x0
 13049 0107 00        		.byte	0x0
 13050 0108 12        		.uleb128 0x12
 13051 0109 0D        		.uleb128 0xd
 13052 010a 00        		.byte	0x0
 13053 010b 03        		.uleb128 0x3
GAS LISTING /var/folders/1s/lqjcb7x5323625d47g9gdgmr0000gp/T//ccbjwlOH.s 			page 230


 13054 010c 0E        		.uleb128 0xe
 13055 010d 3A        		.uleb128 0x3a
 13056 010e 0B        		.uleb128 0xb
 13057 010f 3B        		.uleb128 0x3b
 13058 0110 0B        		.uleb128 0xb
 13059 0111 49        		.uleb128 0x49
 13060 0112 13        		.uleb128 0x13
 13061 0113 38        		.uleb128 0x38
 13062 0114 0A        		.uleb128 0xa
 13063 0115 00        		.byte	0x0
 13064 0116 00        		.byte	0x0
 13065 0117 13        		.uleb128 0x13
 13066 0118 15        		.uleb128 0x15
 13067 0119 01        		.byte	0x1
 13068 011a 01        		.uleb128 0x1
 13069 011b 13        		.uleb128 0x13
 13070 011c 00        		.byte	0x0
 13071 011d 00        		.byte	0x0
 13072 011e 14        		.uleb128 0x14
 13073 011f 26        		.uleb128 0x26
 13074 0120 00        		.byte	0x0
 13075 0121 49        		.uleb128 0x49
 13076 0122 13        		.uleb128 0x13
 13077 0123 00        		.byte	0x0
 13078 0124 00        		.byte	0x0
 13079 0125 15        		.uleb128 0x15
 13080 0126 10        		.uleb128 0x10
 13081 0127 00        		.byte	0x0
 13082 0128 0B        		.uleb128 0xb
 13083 0129 0B        		.uleb128 0xb
 13084 012a 49        		.uleb128 0x49
 13085 012b 13        		.uleb128 0x13
 13086 012c 00        		.byte	0x0
 13087 012d 00        		.byte	0x0
 13088 012e 16        		.uleb128 0x16
 13089 012f 1C        		.uleb128 0x1c
 13090 0130 00        		.byte	0x0
 13091 0131 49        		.uleb128 0x49
 13092 0132 13        		.uleb128 0x13
 13093 0133 38        		.uleb128 0x38
 13094 0134 0A        		.uleb128 0xa
 13095 0135 32        		.uleb128 0x32
 13096 0136 0B        		.uleb128 0xb
 13097 0137 00        		.byte	0x0
 13098 0138 00        		.byte	0x0
 13099 0139 17        		.uleb128 0x17
 13100 013a 2E        		.uleb128 0x2e
 13101 013b 01        		.byte	0x1
 13102 013c 3F        		.uleb128 0x3f
 13103 013d 0C        		.uleb128 0xc
 13104 013e 03        		.uleb128 0x3
 13105 013f 0E        		.uleb128 0xe
 13106 0140 3A        		.uleb128 0x3a
 13107 0141 0B        		.uleb128 0xb
 13108 0142 3B        		.uleb128 0x3b
 13109 0143 0B        		.uleb128 0xb
 13110 0144 3C        		.uleb128 0x3c
GAS LISTING /var/folders/1s/lqjcb7x5323625d47g9gdgmr0000gp/T//ccbjwlOH.s 			page 231


 13111 0145 0C        		.uleb128 0xc
 13112 0146 00        		.byte	0x0
 13113 0147 00        		.byte	0x0
 13114 0148 18        		.uleb128 0x18
 13115 0149 2E        		.uleb128 0x2e
 13116 014a 01        		.byte	0x1
 13117 014b 47        		.uleb128 0x47
 13118 014c 13        		.uleb128 0x13
 13119 014d 3A        		.uleb128 0x3a
 13120 014e 0B        		.uleb128 0xb
 13121 014f 3B        		.uleb128 0x3b
 13122 0150 05        		.uleb128 0x5
 13123 0151 20        		.uleb128 0x20
 13124 0152 0B        		.uleb128 0xb
 13125 0153 01        		.uleb128 0x1
 13126 0154 13        		.uleb128 0x13
 13127 0155 00        		.byte	0x0
 13128 0156 00        		.byte	0x0
 13129 0157 19        		.uleb128 0x19
 13130 0158 05        		.uleb128 0x5
 13131 0159 00        		.byte	0x0
 13132 015a 03        		.uleb128 0x3
 13133 015b 0E        		.uleb128 0xe
 13134 015c 49        		.uleb128 0x49
 13135 015d 13        		.uleb128 0x13
 13136 015e 34        		.uleb128 0x34
 13137 015f 0C        		.uleb128 0xc
 13138 0160 00        		.byte	0x0
 13139 0161 00        		.byte	0x0
 13140 0162 1A        		.uleb128 0x1a
 13141 0163 05        		.uleb128 0x5
 13142 0164 00        		.byte	0x0
 13143 0165 03        		.uleb128 0x3
 13144 0166 0E        		.uleb128 0xe
 13145 0167 3A        		.uleb128 0x3a
 13146 0168 0B        		.uleb128 0xb
 13147 0169 3B        		.uleb128 0x3b
 13148 016a 05        		.uleb128 0x5
 13149 016b 49        		.uleb128 0x49
 13150 016c 13        		.uleb128 0x13
 13151 016d 00        		.byte	0x0
 13152 016e 00        		.byte	0x0
 13153 016f 1B        		.uleb128 0x1b
 13154 0170 2E        		.uleb128 0x2e
 13155 0171 01        		.byte	0x1
 13156 0172 47        		.uleb128 0x47
 13157 0173 13        		.uleb128 0x13
 13158 0174 3A        		.uleb128 0x3a
 13159 0175 0B        		.uleb128 0xb
 13160 0176 3B        		.uleb128 0x3b
 13161 0177 0B        		.uleb128 0xb
 13162 0178 20        		.uleb128 0x20
 13163 0179 0B        		.uleb128 0xb
 13164 017a 01        		.uleb128 0x1
 13165 017b 13        		.uleb128 0x13
 13166 017c 00        		.byte	0x0
 13167 017d 00        		.byte	0x0
GAS LISTING /var/folders/1s/lqjcb7x5323625d47g9gdgmr0000gp/T//ccbjwlOH.s 			page 232


 13168 017e 1C        		.uleb128 0x1c
 13169 017f 2E        		.uleb128 0x2e
 13170 0180 01        		.byte	0x1
 13171 0181 47        		.uleb128 0x47
 13172 0182 13        		.uleb128 0x13
 13173 0183 3A        		.uleb128 0x3a
 13174 0184 0B        		.uleb128 0xb
 13175 0185 3B        		.uleb128 0x3b
 13176 0186 05        		.uleb128 0x5
 13177 0187 11        		.uleb128 0x11
 13178 0188 01        		.uleb128 0x1
 13179 0189 12        		.uleb128 0x12
 13180 018a 01        		.uleb128 0x1
 13181 018b 40        		.uleb128 0x40
 13182 018c 0A        		.uleb128 0xa
 13183 018d 01        		.uleb128 0x1
 13184 018e 13        		.uleb128 0x13
 13185 018f 00        		.byte	0x0
 13186 0190 00        		.byte	0x0
 13187 0191 1D        		.uleb128 0x1d
 13188 0192 05        		.uleb128 0x5
 13189 0193 00        		.byte	0x0
 13190 0194 03        		.uleb128 0x3
 13191 0195 0E        		.uleb128 0xe
 13192 0196 49        		.uleb128 0x49
 13193 0197 13        		.uleb128 0x13
 13194 0198 34        		.uleb128 0x34
 13195 0199 0C        		.uleb128 0xc
 13196 019a 02        		.uleb128 0x2
 13197 019b 06        		.uleb128 0x6
 13198 019c 00        		.byte	0x0
 13199 019d 00        		.byte	0x0
 13200 019e 1E        		.uleb128 0x1e
 13201 019f 05        		.uleb128 0x5
 13202 01a0 00        		.byte	0x0
 13203 01a1 03        		.uleb128 0x3
 13204 01a2 08        		.uleb128 0x8
 13205 01a3 3A        		.uleb128 0x3a
 13206 01a4 0B        		.uleb128 0xb
 13207 01a5 3B        		.uleb128 0x3b
 13208 01a6 05        		.uleb128 0x5
 13209 01a7 49        		.uleb128 0x49
 13210 01a8 13        		.uleb128 0x13
 13211 01a9 02        		.uleb128 0x2
 13212 01aa 0A        		.uleb128 0xa
 13213 01ab 00        		.byte	0x0
 13214 01ac 00        		.byte	0x0
 13215 01ad 1F        		.uleb128 0x1f
 13216 01ae 1D        		.uleb128 0x1d
 13217 01af 01        		.byte	0x1
 13218 01b0 31        		.uleb128 0x31
 13219 01b1 13        		.uleb128 0x13
 13220 01b2 11        		.uleb128 0x11
 13221 01b3 01        		.uleb128 0x1
 13222 01b4 12        		.uleb128 0x12
 13223 01b5 01        		.uleb128 0x1
 13224 01b6 58        		.uleb128 0x58
GAS LISTING /var/folders/1s/lqjcb7x5323625d47g9gdgmr0000gp/T//ccbjwlOH.s 			page 233


 13225 01b7 0B        		.uleb128 0xb
 13226 01b8 59        		.uleb128 0x59
 13227 01b9 05        		.uleb128 0x5
 13228 01ba 00        		.byte	0x0
 13229 01bb 00        		.byte	0x0
 13230 01bc 20        		.uleb128 0x20
 13231 01bd 05        		.uleb128 0x5
 13232 01be 00        		.byte	0x0
 13233 01bf 31        		.uleb128 0x31
 13234 01c0 13        		.uleb128 0x13
 13235 01c1 00        		.byte	0x0
 13236 01c2 00        		.byte	0x0
 13237 01c3 21        		.uleb128 0x21
 13238 01c4 05        		.uleb128 0x5
 13239 01c5 00        		.byte	0x0
 13240 01c6 03        		.uleb128 0x3
 13241 01c7 0E        		.uleb128 0xe
 13242 01c8 3A        		.uleb128 0x3a
 13243 01c9 0B        		.uleb128 0xb
 13244 01ca 3B        		.uleb128 0x3b
 13245 01cb 05        		.uleb128 0x5
 13246 01cc 49        		.uleb128 0x49
 13247 01cd 13        		.uleb128 0x13
 13248 01ce 02        		.uleb128 0x2
 13249 01cf 06        		.uleb128 0x6
 13250 01d0 00        		.byte	0x0
 13251 01d1 00        		.byte	0x0
 13252 01d2 22        		.uleb128 0x22
 13253 01d3 34        		.uleb128 0x34
 13254 01d4 00        		.byte	0x0
 13255 01d5 03        		.uleb128 0x3
 13256 01d6 0E        		.uleb128 0xe
 13257 01d7 3A        		.uleb128 0x3a
 13258 01d8 0B        		.uleb128 0xb
 13259 01d9 3B        		.uleb128 0x3b
 13260 01da 05        		.uleb128 0x5
 13261 01db 49        		.uleb128 0x49
 13262 01dc 13        		.uleb128 0x13
 13263 01dd 02        		.uleb128 0x2
 13264 01de 0A        		.uleb128 0xa
 13265 01df 00        		.byte	0x0
 13266 01e0 00        		.byte	0x0
 13267 01e1 23        		.uleb128 0x23
 13268 01e2 2E        		.uleb128 0x2e
 13269 01e3 01        		.byte	0x1
 13270 01e4 31        		.uleb128 0x31
 13271 01e5 13        		.uleb128 0x13
 13272 01e6 11        		.uleb128 0x11
 13273 01e7 01        		.uleb128 0x1
 13274 01e8 12        		.uleb128 0x12
 13275 01e9 01        		.uleb128 0x1
 13276 01ea 40        		.uleb128 0x40
 13277 01eb 0A        		.uleb128 0xa
 13278 01ec 01        		.uleb128 0x1
 13279 01ed 13        		.uleb128 0x13
 13280 01ee 00        		.byte	0x0
 13281 01ef 00        		.byte	0x0
GAS LISTING /var/folders/1s/lqjcb7x5323625d47g9gdgmr0000gp/T//ccbjwlOH.s 			page 234


 13282 01f0 24        		.uleb128 0x24
 13283 01f1 05        		.uleb128 0x5
 13284 01f2 00        		.byte	0x0
 13285 01f3 31        		.uleb128 0x31
 13286 01f4 13        		.uleb128 0x13
 13287 01f5 02        		.uleb128 0x2
 13288 01f6 06        		.uleb128 0x6
 13289 01f7 00        		.byte	0x0
 13290 01f8 00        		.byte	0x0
 13291 01f9 25        		.uleb128 0x25
 13292 01fa 05        		.uleb128 0x5
 13293 01fb 00        		.byte	0x0
 13294 01fc 31        		.uleb128 0x31
 13295 01fd 13        		.uleb128 0x13
 13296 01fe 02        		.uleb128 0x2
 13297 01ff 0A        		.uleb128 0xa
 13298 0200 00        		.byte	0x0
 13299 0201 00        		.byte	0x0
 13300 0202 26        		.uleb128 0x26
 13301 0203 05        		.uleb128 0x5
 13302 0204 00        		.byte	0x0
 13303 0205 03        		.uleb128 0x3
 13304 0206 0E        		.uleb128 0xe
 13305 0207 3A        		.uleb128 0x3a
 13306 0208 0B        		.uleb128 0xb
 13307 0209 3B        		.uleb128 0x3b
 13308 020a 05        		.uleb128 0x5
 13309 020b 49        		.uleb128 0x49
 13310 020c 13        		.uleb128 0x13
 13311 020d 02        		.uleb128 0x2
 13312 020e 0A        		.uleb128 0xa
 13313 020f 00        		.byte	0x0
 13314 0210 00        		.byte	0x0
 13315 0211 27        		.uleb128 0x27
 13316 0212 0B        		.uleb128 0xb
 13317 0213 01        		.byte	0x1
 13318 0214 11        		.uleb128 0x11
 13319 0215 01        		.uleb128 0x1
 13320 0216 12        		.uleb128 0x12
 13321 0217 01        		.uleb128 0x1
 13322 0218 00        		.byte	0x0
 13323 0219 00        		.byte	0x0
 13324 021a 28        		.uleb128 0x28
 13325 021b 34        		.uleb128 0x34
 13326 021c 00        		.byte	0x0
 13327 021d 03        		.uleb128 0x3
 13328 021e 08        		.uleb128 0x8
 13329 021f 3A        		.uleb128 0x3a
 13330 0220 0B        		.uleb128 0xb
 13331 0221 3B        		.uleb128 0x3b
 13332 0222 05        		.uleb128 0x5
 13333 0223 49        		.uleb128 0x49
 13334 0224 13        		.uleb128 0x13
 13335 0225 02        		.uleb128 0x2
 13336 0226 0A        		.uleb128 0xa
 13337 0227 00        		.byte	0x0
 13338 0228 00        		.byte	0x0
GAS LISTING /var/folders/1s/lqjcb7x5323625d47g9gdgmr0000gp/T//ccbjwlOH.s 			page 235


 13339 0229 29        		.uleb128 0x29
 13340 022a 34        		.uleb128 0x34
 13341 022b 00        		.byte	0x0
 13342 022c 03        		.uleb128 0x3
 13343 022d 0E        		.uleb128 0xe
 13344 022e 3A        		.uleb128 0x3a
 13345 022f 0B        		.uleb128 0xb
 13346 0230 3B        		.uleb128 0x3b
 13347 0231 05        		.uleb128 0x5
 13348 0232 49        		.uleb128 0x49
 13349 0233 13        		.uleb128 0x13
 13350 0234 02        		.uleb128 0x2
 13351 0235 06        		.uleb128 0x6
 13352 0236 00        		.byte	0x0
 13353 0237 00        		.byte	0x0
 13354 0238 2A        		.uleb128 0x2a
 13355 0239 34        		.uleb128 0x34
 13356 023a 00        		.byte	0x0
 13357 023b 03        		.uleb128 0x3
 13358 023c 08        		.uleb128 0x8
 13359 023d 3A        		.uleb128 0x3a
 13360 023e 0B        		.uleb128 0xb
 13361 023f 3B        		.uleb128 0x3b
 13362 0240 05        		.uleb128 0x5
 13363 0241 49        		.uleb128 0x49
 13364 0242 13        		.uleb128 0x13
 13365 0243 02        		.uleb128 0x2
 13366 0244 06        		.uleb128 0x6
 13367 0245 00        		.byte	0x0
 13368 0246 00        		.byte	0x0
 13369 0247 2B        		.uleb128 0x2b
 13370 0248 05        		.uleb128 0x5
 13371 0249 00        		.byte	0x0
 13372 024a 03        		.uleb128 0x3
 13373 024b 08        		.uleb128 0x8
 13374 024c 3A        		.uleb128 0x3a
 13375 024d 0B        		.uleb128 0xb
 13376 024e 3B        		.uleb128 0x3b
 13377 024f 05        		.uleb128 0x5
 13378 0250 49        		.uleb128 0x49
 13379 0251 13        		.uleb128 0x13
 13380 0252 02        		.uleb128 0x2
 13381 0253 06        		.uleb128 0x6
 13382 0254 00        		.byte	0x0
 13383 0255 00        		.byte	0x0
 13384 0256 2C        		.uleb128 0x2c
 13385 0257 2E        		.uleb128 0x2e
 13386 0258 01        		.byte	0x1
 13387 0259 47        		.uleb128 0x47
 13388 025a 13        		.uleb128 0x13
 13389 025b 3A        		.uleb128 0x3a
 13390 025c 0B        		.uleb128 0xb
 13391 025d 3B        		.uleb128 0x3b
 13392 025e 0B        		.uleb128 0xb
 13393 025f 11        		.uleb128 0x11
 13394 0260 01        		.uleb128 0x1
 13395 0261 12        		.uleb128 0x12
GAS LISTING /var/folders/1s/lqjcb7x5323625d47g9gdgmr0000gp/T//ccbjwlOH.s 			page 236


 13396 0262 01        		.uleb128 0x1
 13397 0263 40        		.uleb128 0x40
 13398 0264 0A        		.uleb128 0xa
 13399 0265 01        		.uleb128 0x1
 13400 0266 13        		.uleb128 0x13
 13401 0267 00        		.byte	0x0
 13402 0268 00        		.byte	0x0
 13403 0269 2D        		.uleb128 0x2d
 13404 026a 05        		.uleb128 0x5
 13405 026b 00        		.byte	0x0
 13406 026c 03        		.uleb128 0x3
 13407 026d 0E        		.uleb128 0xe
 13408 026e 3A        		.uleb128 0x3a
 13409 026f 0B        		.uleb128 0xb
 13410 0270 3B        		.uleb128 0x3b
 13411 0271 0B        		.uleb128 0xb
 13412 0272 49        		.uleb128 0x49
 13413 0273 13        		.uleb128 0x13
 13414 0274 02        		.uleb128 0x2
 13415 0275 06        		.uleb128 0x6
 13416 0276 00        		.byte	0x0
 13417 0277 00        		.byte	0x0
 13418 0278 2E        		.uleb128 0x2e
 13419 0279 34        		.uleb128 0x34
 13420 027a 00        		.byte	0x0
 13421 027b 03        		.uleb128 0x3
 13422 027c 0E        		.uleb128 0xe
 13423 027d 3A        		.uleb128 0x3a
 13424 027e 0B        		.uleb128 0xb
 13425 027f 3B        		.uleb128 0x3b
 13426 0280 0B        		.uleb128 0xb
 13427 0281 49        		.uleb128 0x49
 13428 0282 13        		.uleb128 0x13
 13429 0283 02        		.uleb128 0x2
 13430 0284 06        		.uleb128 0x6
 13431 0285 00        		.byte	0x0
 13432 0286 00        		.byte	0x0
 13433 0287 2F        		.uleb128 0x2f
 13434 0288 34        		.uleb128 0x34
 13435 0289 00        		.byte	0x0
 13436 028a 03        		.uleb128 0x3
 13437 028b 0E        		.uleb128 0xe
 13438 028c 3A        		.uleb128 0x3a
 13439 028d 0B        		.uleb128 0xb
 13440 028e 3B        		.uleb128 0x3b
 13441 028f 05        		.uleb128 0x5
 13442 0290 49        		.uleb128 0x49
 13443 0291 13        		.uleb128 0x13
 13444 0292 00        		.byte	0x0
 13445 0293 00        		.byte	0x0
 13446 0294 30        		.uleb128 0x30
 13447 0295 0B        		.uleb128 0xb
 13448 0296 01        		.byte	0x1
 13449 0297 55        		.uleb128 0x55
 13450 0298 06        		.uleb128 0x6
 13451 0299 01        		.uleb128 0x1
 13452 029a 13        		.uleb128 0x13
GAS LISTING /var/folders/1s/lqjcb7x5323625d47g9gdgmr0000gp/T//ccbjwlOH.s 			page 237


 13453 029b 00        		.byte	0x0
 13454 029c 00        		.byte	0x0
 13455 029d 31        		.uleb128 0x31
 13456 029e 01        		.uleb128 0x1
 13457 029f 01        		.byte	0x1
 13458 02a0 49        		.uleb128 0x49
 13459 02a1 13        		.uleb128 0x13
 13460 02a2 01        		.uleb128 0x1
 13461 02a3 13        		.uleb128 0x13
 13462 02a4 00        		.byte	0x0
 13463 02a5 00        		.byte	0x0
 13464 02a6 32        		.uleb128 0x32
 13465 02a7 21        		.uleb128 0x21
 13466 02a8 00        		.byte	0x0
 13467 02a9 49        		.uleb128 0x49
 13468 02aa 13        		.uleb128 0x13
 13469 02ab 2F        		.uleb128 0x2f
 13470 02ac 0B        		.uleb128 0xb
 13471 02ad 00        		.byte	0x0
 13472 02ae 00        		.byte	0x0
 13473 02af 33        		.uleb128 0x33
 13474 02b0 05        		.uleb128 0x5
 13475 02b1 00        		.byte	0x0
 13476 02b2 03        		.uleb128 0x3
 13477 02b3 08        		.uleb128 0x8
 13478 02b4 3A        		.uleb128 0x3a
 13479 02b5 0B        		.uleb128 0xb
 13480 02b6 3B        		.uleb128 0x3b
 13481 02b7 0B        		.uleb128 0xb
 13482 02b8 49        		.uleb128 0x49
 13483 02b9 13        		.uleb128 0x13
 13484 02ba 02        		.uleb128 0x2
 13485 02bb 06        		.uleb128 0x6
 13486 02bc 00        		.byte	0x0
 13487 02bd 00        		.byte	0x0
 13488 02be 34        		.uleb128 0x34
 13489 02bf 34        		.uleb128 0x34
 13490 02c0 00        		.byte	0x0
 13491 02c1 03        		.uleb128 0x3
 13492 02c2 08        		.uleb128 0x8
 13493 02c3 3A        		.uleb128 0x3a
 13494 02c4 0B        		.uleb128 0xb
 13495 02c5 3B        		.uleb128 0x3b
 13496 02c6 0B        		.uleb128 0xb
 13497 02c7 49        		.uleb128 0x49
 13498 02c8 13        		.uleb128 0x13
 13499 02c9 02        		.uleb128 0x2
 13500 02ca 0A        		.uleb128 0xa
 13501 02cb 00        		.byte	0x0
 13502 02cc 00        		.byte	0x0
 13503 02cd 35        		.uleb128 0x35
 13504 02ce 2E        		.uleb128 0x2e
 13505 02cf 01        		.byte	0x1
 13506 02d0 3F        		.uleb128 0x3f
 13507 02d1 0C        		.uleb128 0xc
 13508 02d2 03        		.uleb128 0x3
 13509 02d3 0E        		.uleb128 0xe
GAS LISTING /var/folders/1s/lqjcb7x5323625d47g9gdgmr0000gp/T//ccbjwlOH.s 			page 238


 13510 02d4 3A        		.uleb128 0x3a
 13511 02d5 0B        		.uleb128 0xb
 13512 02d6 3B        		.uleb128 0x3b
 13513 02d7 05        		.uleb128 0x5
 13514 02d8 8740      		.uleb128 0x2007
 13515 02da 0E        		.uleb128 0xe
 13516 02db 49        		.uleb128 0x49
 13517 02dc 13        		.uleb128 0x13
 13518 02dd 11        		.uleb128 0x11
 13519 02de 01        		.uleb128 0x1
 13520 02df 12        		.uleb128 0x12
 13521 02e0 01        		.uleb128 0x1
 13522 02e1 40        		.uleb128 0x40
 13523 02e2 0A        		.uleb128 0xa
 13524 02e3 01        		.uleb128 0x1
 13525 02e4 13        		.uleb128 0x13
 13526 02e5 00        		.byte	0x0
 13527 02e6 00        		.byte	0x0
 13528 02e7 36        		.uleb128 0x36
 13529 02e8 34        		.uleb128 0x34
 13530 02e9 00        		.byte	0x0
 13531 02ea 03        		.uleb128 0x3
 13532 02eb 08        		.uleb128 0x8
 13533 02ec 3A        		.uleb128 0x3a
 13534 02ed 0B        		.uleb128 0xb
 13535 02ee 3B        		.uleb128 0x3b
 13536 02ef 05        		.uleb128 0x5
 13537 02f0 49        		.uleb128 0x49
 13538 02f1 13        		.uleb128 0x13
 13539 02f2 00        		.byte	0x0
 13540 02f3 00        		.byte	0x0
 13541 02f4 37        		.uleb128 0x37
 13542 02f5 05        		.uleb128 0x5
 13543 02f6 00        		.byte	0x0
 13544 02f7 03        		.uleb128 0x3
 13545 02f8 0E        		.uleb128 0xe
 13546 02f9 3A        		.uleb128 0x3a
 13547 02fa 0B        		.uleb128 0xb
 13548 02fb 3B        		.uleb128 0x3b
 13549 02fc 0B        		.uleb128 0xb
 13550 02fd 49        		.uleb128 0x49
 13551 02fe 13        		.uleb128 0x13
 13552 02ff 00        		.byte	0x0
 13553 0300 00        		.byte	0x0
 13554 0301 38        		.uleb128 0x38
 13555 0302 1D        		.uleb128 0x1d
 13556 0303 01        		.byte	0x1
 13557 0304 31        		.uleb128 0x31
 13558 0305 13        		.uleb128 0x13
 13559 0306 11        		.uleb128 0x11
 13560 0307 01        		.uleb128 0x1
 13561 0308 12        		.uleb128 0x12
 13562 0309 01        		.uleb128 0x1
 13563 030a 58        		.uleb128 0x58
 13564 030b 0B        		.uleb128 0xb
 13565 030c 59        		.uleb128 0x59
 13566 030d 0B        		.uleb128 0xb
GAS LISTING /var/folders/1s/lqjcb7x5323625d47g9gdgmr0000gp/T//ccbjwlOH.s 			page 239


 13567 030e 00        		.byte	0x0
 13568 030f 00        		.byte	0x0
 13569 0310 39        		.uleb128 0x39
 13570 0311 34        		.uleb128 0x34
 13571 0312 00        		.byte	0x0
 13572 0313 02        		.uleb128 0x2
 13573 0314 0A        		.uleb128 0xa
 13574 0315 00        		.byte	0x0
 13575 0316 00        		.byte	0x0
 13576 0317 3A        		.uleb128 0x3a
 13577 0318 05        		.uleb128 0x5
 13578 0319 00        		.byte	0x0
 13579 031a 03        		.uleb128 0x3
 13580 031b 08        		.uleb128 0x8
 13581 031c 3A        		.uleb128 0x3a
 13582 031d 0B        		.uleb128 0xb
 13583 031e 3B        		.uleb128 0x3b
 13584 031f 0B        		.uleb128 0xb
 13585 0320 49        		.uleb128 0x49
 13586 0321 13        		.uleb128 0x13
 13587 0322 00        		.byte	0x0
 13588 0323 00        		.byte	0x0
 13589 0324 3B        		.uleb128 0x3b
 13590 0325 34        		.uleb128 0x34
 13591 0326 00        		.byte	0x0
 13592 0327 03        		.uleb128 0x3
 13593 0328 08        		.uleb128 0x8
 13594 0329 3A        		.uleb128 0x3a
 13595 032a 0B        		.uleb128 0xb
 13596 032b 3B        		.uleb128 0x3b
 13597 032c 05        		.uleb128 0x5
 13598 032d 49        		.uleb128 0x49
 13599 032e 13        		.uleb128 0x13
 13600 032f 32        		.uleb128 0x32
 13601 0330 0B        		.uleb128 0xb
 13602 0331 02        		.uleb128 0x2
 13603 0332 0A        		.uleb128 0xa
 13604 0333 00        		.byte	0x0
 13605 0334 00        		.byte	0x0
 13606 0335 3C        		.uleb128 0x3c
 13607 0336 2E        		.uleb128 0x2e
 13608 0337 01        		.byte	0x1
 13609 0338 31        		.uleb128 0x31
 13610 0339 13        		.uleb128 0x13
 13611 033a 11        		.uleb128 0x11
 13612 033b 01        		.uleb128 0x1
 13613 033c 12        		.uleb128 0x12
 13614 033d 01        		.uleb128 0x1
 13615 033e 40        		.uleb128 0x40
 13616 033f 0A        		.uleb128 0xa
 13617 0340 00        		.byte	0x0
 13618 0341 00        		.byte	0x0
 13619 0342 00        		.byte	0x0
 13620               		.section	.debug_pubnames,"",@progbits
 13621 0000 BB05 0000 		.long	0x5bb
 13622 0004 0200      		.word	0x2
 13623 0006 0000 0000 		.long	.Ldebug_info0
GAS LISTING /var/folders/1s/lqjcb7x5323625d47g9gdgmr0000gp/T//ccbjwlOH.s 			page 240


 13624 000a C521 0000 		.long	0x21c5
 13625 000e 780B 0000 		.long	0xb78
 13626 0012 5374 7269 		.string	"String::charAt"
 13626      6E67 3A3A 
 13626      6368 6172 
 13626      4174 00
 13627 0021 CC0B 0000 		.long	0xbcc
 13628 0025 5374 7269 		.string	"String::setCharAt"
 13628      6E67 3A3A 
 13628      7365 7443 
 13628      6861 7241 
 13628      7400 
 13629 0037 110C 0000 		.long	0xc11
 13630 003b 5374 7269 		.string	"String::operator[]"
 13630      6E67 3A3A 
 13630      6F70 6572 
 13630      6174 6F72 
 13630      5B5D 00
 13631 004e 590C 0000 		.long	0xc59
 13632 0052 5374 7269 		.string	"String::operator[]"
 13632      6E67 3A3A 
 13632      6F70 6572 
 13632      6174 6F72 
 13632      5B5D 00
 13633 0065 830C 0000 		.long	0xc83
 13634 0069 5374 7269 		.string	"String::replace"
 13634      6E67 3A3A 
 13634      7265 706C 
 13634      6163 6500 
 13635 0079 E00C 0000 		.long	0xce0
 13636 007d 5374 7269 		.string	"String::toInt"
 13636      6E67 3A3A 
 13636      746F 496E 
 13636      7400 
 13637 008b 060D 0000 		.long	0xd06
 13638 008f 5374 7269 		.string	"String::trim"
 13638      6E67 3A3A 
 13638      7472 696D 
 13638      00
 13639 009c 4C0D 0000 		.long	0xd4c
 13640 00a0 5374 7269 		.string	"String::toUpperCase"
 13640      6E67 3A3A 
 13640      746F 5570 
 13640      7065 7243 
 13640      6173 6500 
 13641 00b4 8A0D 0000 		.long	0xd8a
 13642 00b8 5374 7269 		.string	"String::toLowerCase"
 13642      6E67 3A3A 
 13642      746F 4C6F 
 13642      7765 7243 
 13642      6173 6500 
 13643 00cc C80D 0000 		.long	0xdc8
 13644 00d0 5374 7269 		.string	"String::equalsIgnoreCase"
 13644      6E67 3A3A 
 13644      6571 7561 
 13644      6C73 4967 
 13644      6E6F 7265 
GAS LISTING /var/folders/1s/lqjcb7x5323625d47g9gdgmr0000gp/T//ccbjwlOH.s 			page 241


 13645 00e9 200E 0000 		.long	0xe20
 13646 00ed 5374 7269 		.string	"String::lastIndexOf"
 13646      6E67 3A3A 
 13646      6C61 7374 
 13646      496E 6465 
 13646      784F 6600 
 13647 0101 920E 0000 		.long	0xe92
 13648 0105 5374 7269 		.string	"String::lastIndexOf"
 13648      6E67 3A3A 
 13648      6C61 7374 
 13648      496E 6465 
 13648      784F 6600 
 13649 0119 CC0E 0000 		.long	0xecc
 13650 011d 5374 7269 		.string	"String::indexOf"
 13650      6E67 3A3A 
 13650      696E 6465 
 13650      784F 6600 
 13651 012d 260F 0000 		.long	0xf26
 13652 0131 5374 7269 		.string	"String::indexOf"
 13652      6E67 3A3A 
 13652      696E 6465 
 13652      784F 6600 
 13653 0141 600F 0000 		.long	0xf60
 13654 0145 5374 7269 		.string	"String::lastIndexOf"
 13654      6E67 3A3A 
 13654      6C61 7374 
 13654      496E 6465 
 13654      784F 6600 
 13655 0159 C50F 0000 		.long	0xfc5
 13656 015d 5374 7269 		.string	"String::lastIndexOf"
 13656      6E67 3A3A 
 13656      6C61 7374 
 13656      496E 6465 
 13656      784F 6600 
 13657 0171 FB0F 0000 		.long	0xffb
 13658 0175 5374 7269 		.string	"String::indexOf"
 13658      6E67 3A3A 
 13658      696E 6465 
 13658      784F 6600 
 13659 0185 5010 0000 		.long	0x1050
 13660 0189 5374 7269 		.string	"String::indexOf"
 13660      6E67 3A3A 
 13660      696E 6465 
 13660      784F 6600 
 13661 0199 8410 0000 		.long	0x1084
 13662 019d 5374 7269 		.string	"String::getBytes"
 13662      6E67 3A3A 
 13662      6765 7442 
 13662      7974 6573 
 13662      00
 13663 01ae E810 0000 		.long	0x10e8
 13664 01b2 5374 7269 		.string	"String::endsWith"
 13664      6E67 3A3A 
 13664      656E 6473 
 13664      5769 7468 
 13664      00
 13665 01c3 2211 0000 		.long	0x1122
GAS LISTING /var/folders/1s/lqjcb7x5323625d47g9gdgmr0000gp/T//ccbjwlOH.s 			page 242


 13666 01c7 5374 7269 		.string	"String::equals"
 13666      6E67 3A3A 
 13666      6571 7561 
 13666      6C73 00
 13667 01d6 5811 0000 		.long	0x1158
 13668 01da 5374 7269 		.string	"String::compareTo"
 13668      6E67 3A3A 
 13668      636F 6D70 
 13668      6172 6554 
 13668      6F00 
 13669 01ec 9111 0000 		.long	0x1191
 13670 01f0 5374 7269 		.string	"String::operator>="
 13670      6E67 3A3A 
 13670      6F70 6572 
 13670      6174 6F72 
 13670      3E3D 00
 13671 0203 CC11 0000 		.long	0x11cc
 13672 0207 5374 7269 		.string	"String::operator<="
 13672      6E67 3A3A 
 13672      6F70 6572 
 13672      6174 6F72 
 13672      3C3D 00
 13673 021a 0712 0000 		.long	0x1207
 13674 021e 5374 7269 		.string	"String::operator>"
 13674      6E67 3A3A 
 13674      6F70 6572 
 13674      6174 6F72 
 13674      3E00 
 13675 0230 4212 0000 		.long	0x1242
 13676 0234 5374 7269 		.string	"String::operator<"
 13676      6E67 3A3A 
 13676      6F70 6572 
 13676      6174 6F72 
 13676      3C00 
 13677 0246 7D12 0000 		.long	0x127d
 13678 024a 5374 7269 		.string	"String::equals"
 13678      6E67 3A3A 
 13678      6571 7561 
 13678      6C73 00
 13679 0259 B712 0000 		.long	0x12b7
 13680 025d 5374 7269 		.string	"String::startsWith"
 13680      6E67 3A3A 
 13680      7374 6172 
 13680      7473 5769 
 13680      7468 00
 13681 0270 0113 0000 		.long	0x1301
 13682 0274 5374 7269 		.string	"String::startsWith"
 13682      6E67 3A3A 
 13682      7374 6172 
 13682      7473 5769 
 13682      7468 00
 13683 0287 3B13 0000 		.long	0x133b
 13684 028b 5374 7269 		.string	"String::changeBuffer"
 13684      6E67 3A3A 
 13684      6368 616E 
 13684      6765 4275 
 13684      6666 6572 
GAS LISTING /var/folders/1s/lqjcb7x5323625d47g9gdgmr0000gp/T//ccbjwlOH.s 			page 243


 13685 02a0 7E13 0000 		.long	0x137e
 13686 02a4 5374 7269 		.string	"String::replace"
 13686      6E67 3A3A 
 13686      7265 706C 
 13686      6163 6500 
 13687 02b4 5614 0000 		.long	0x1456
 13688 02b8 5374 7269 		.string	"String::reserve"
 13688      6E67 3A3A 
 13688      7265 7365 
 13688      7276 6500 
 13689 02c8 8A14 0000 		.long	0x148a
 13690 02cc 5374 7269 		.string	"String::concat"
 13690      6E67 3A3A 
 13690      636F 6E63 
 13690      6174 00
 13691 02db DC14 0000 		.long	0x14dc
 13692 02df 5374 7269 		.string	"String::concat"
 13692      6E67 3A3A 
 13692      636F 6E63 
 13692      6174 00
 13693 02ee 3415 0000 		.long	0x1534
 13694 02f2 5374 7269 		.string	"String::concat"
 13694      6E67 3A3A 
 13694      636F 6E63 
 13694      6174 00
 13695 0301 8915 0000 		.long	0x1589
 13696 0305 5374 7269 		.string	"String::concat"
 13696      6E67 3A3A 
 13696      636F 6E63 
 13696      6174 00
 13697 0314 DE15 0000 		.long	0x15de
 13698 0318 5374 7269 		.string	"String::concat"
 13698      6E67 3A3A 
 13698      636F 6E63 
 13698      6174 00
 13699 0327 3316 0000 		.long	0x1633
 13700 032b 5374 7269 		.string	"String::concat"
 13700      6E67 3A3A 
 13700      636F 6E63 
 13700      6174 00
 13701 033a 8516 0000 		.long	0x1685
 13702 033e 5374 7269 		.string	"String::concat"
 13702      6E67 3A3A 
 13702      636F 6E63 
 13702      6174 00
 13703 034d D516 0000 		.long	0x16d5
 13704 0351 5374 7269 		.string	"String::concat"
 13704      6E67 3A3A 
 13704      636F 6E63 
 13704      6174 00
 13705 0360 0917 0000 		.long	0x1709
 13706 0364 5374 7269 		.string	"String::concat"
 13706      6E67 3A3A 
 13706      636F 6E63 
 13706      6174 00
 13707 0373 4017 0000 		.long	0x1740
 13708 0377 5374 7269 		.string	"String::invalidate"
GAS LISTING /var/folders/1s/lqjcb7x5323625d47g9gdgmr0000gp/T//ccbjwlOH.s 			page 244


 13708      6E67 3A3A 
 13708      696E 7661 
 13708      6C69 6461 
 13708      7465 00
 13709 038a 6517 0000 		.long	0x1765
 13710 038e 6F70 6572 		.string	"operator+"
 13710      6174 6F72 
 13710      2B00 
 13711 0398 CB17 0000 		.long	0x17cb
 13712 039c 6F70 6572 		.string	"operator+"
 13712      6174 6F72 
 13712      2B00 
 13713 03a6 1B18 0000 		.long	0x181b
 13714 03aa 6F70 6572 		.string	"operator+"
 13714      6174 6F72 
 13714      2B00 
 13715 03b4 6B18 0000 		.long	0x186b
 13716 03b8 6F70 6572 		.string	"operator+"
 13716      6174 6F72 
 13716      2B00 
 13717 03c2 BB18 0000 		.long	0x18bb
 13718 03c6 6F70 6572 		.string	"operator+"
 13718      6174 6F72 
 13718      2B00 
 13719 03d0 0B19 0000 		.long	0x190b
 13720 03d4 6F70 6572 		.string	"operator+"
 13720      6174 6F72 
 13720      2B00 
 13721 03de 5919 0000 		.long	0x1959
 13722 03e2 6F70 6572 		.string	"operator+"
 13722      6174 6F72 
 13722      2B00 
 13723 03ec A919 0000 		.long	0x19a9
 13724 03f0 6F70 6572 		.string	"operator+"
 13724      6174 6F72 
 13724      2B00 
 13725 03fa FE19 0000 		.long	0x19fe
 13726 03fe 5374 7269 		.string	"String::copy"
 13726      6E67 3A3A 
 13726      636F 7079 
 13726      00
 13727 040b 631A 0000 		.long	0x1a63
 13728 040f 5374 7269 		.string	"String::String"
 13728      6E67 3A3A 
 13728      5374 7269 
 13728      6E67 00
 13729 041e 9F1A 0000 		.long	0x1a9f
 13730 0422 5374 7269 		.string	"String::String"
 13730      6E67 3A3A 
 13730      5374 7269 
 13730      6E67 00
 13731 0431 DB1A 0000 		.long	0x1adb
 13732 0435 5374 7269 		.string	"String::operator="
 13732      6E67 3A3A 
 13732      6F70 6572 
 13732      6174 6F72 
 13732      3D00 
GAS LISTING /var/folders/1s/lqjcb7x5323625d47g9gdgmr0000gp/T//ccbjwlOH.s 			page 245


 13733 0447 3C1B 0000 		.long	0x1b3c
 13734 044b 5374 7269 		.string	"String::String"
 13734      6E67 3A3A 
 13734      5374 7269 
 13734      6E67 00
 13735 045a 8F1B 0000 		.long	0x1b8f
 13736 045e 5374 7269 		.string	"String::String"
 13736      6E67 3A3A 
 13736      5374 7269 
 13736      6E67 00
 13737 046d 0F1C 0000 		.long	0x1c0f
 13738 0471 5374 7269 		.string	"String::String"
 13738      6E67 3A3A 
 13738      5374 7269 
 13738      6E67 00
 13739 0480 621C 0000 		.long	0x1c62
 13740 0484 5374 7269 		.string	"String::String"
 13740      6E67 3A3A 
 13740      5374 7269 
 13740      6E67 00
 13741 0493 E21C 0000 		.long	0x1ce2
 13742 0497 5374 7269 		.string	"String::String"
 13742      6E67 3A3A 
 13742      5374 7269 
 13742      6E67 00
 13743 04a6 351D 0000 		.long	0x1d35
 13744 04aa 5374 7269 		.string	"String::String"
 13744      6E67 3A3A 
 13744      5374 7269 
 13744      6E67 00
 13745 04b9 B51D 0000 		.long	0x1db5
 13746 04bd 5374 7269 		.string	"String::String"
 13746      6E67 3A3A 
 13746      5374 7269 
 13746      6E67 00
 13747 04cc 081E 0000 		.long	0x1e08
 13748 04d0 5374 7269 		.string	"String::String"
 13748      6E67 3A3A 
 13748      5374 7269 
 13748      6E67 00
 13749 04df 881E 0000 		.long	0x1e88
 13750 04e3 5374 7269 		.string	"String::String"
 13750      6E67 3A3A 
 13750      5374 7269 
 13750      6E67 00
 13751 04f2 DB1E 0000 		.long	0x1edb
 13752 04f6 5374 7269 		.string	"String::String"
 13752      6E67 3A3A 
 13752      5374 7269 
 13752      6E67 00
 13753 0505 4E1F 0000 		.long	0x1f4e
 13754 0509 5374 7269 		.string	"String::String"
 13754      6E67 3A3A 
 13754      5374 7269 
 13754      6E67 00
 13755 0518 981F 0000 		.long	0x1f98
 13756 051c 5374 7269 		.string	"String::String"
GAS LISTING /var/folders/1s/lqjcb7x5323625d47g9gdgmr0000gp/T//ccbjwlOH.s 			page 246


 13756      6E67 3A3A 
 13756      5374 7269 
 13756      6E67 00
 13757 052b E21F 0000 		.long	0x1fe2
 13758 052f 5374 7269 		.string	"String::substring"
 13758      6E67 3A3A 
 13758      7375 6273 
 13758      7472 696E 
 13758      6700 
 13759 0541 5820 0000 		.long	0x2058
 13760 0545 5374 7269 		.string	"String::substring"
 13760      6E67 3A3A 
 13760      7375 6273 
 13760      7472 696E 
 13760      6700 
 13761 0557 8E20 0000 		.long	0x208e
 13762 055b 5374 7269 		.string	"String::operator="
 13762      6E67 3A3A 
 13762      6F70 6572 
 13762      6174 6F72 
 13762      3D00 
 13763 056d EE20 0000 		.long	0x20ee
 13764 0571 5374 7269 		.string	"String::String"
 13764      6E67 3A3A 
 13764      5374 7269 
 13764      6E67 00
 13765 0580 2A21 0000 		.long	0x212a
 13766 0584 5374 7269 		.string	"String::String"
 13766      6E67 3A3A 
 13766      5374 7269 
 13766      6E67 00
 13767 0593 8C21 0000 		.long	0x218c
 13768 0597 5374 7269 		.string	"String::~String"
 13768      6E67 3A3A 
 13768      7E53 7472 
 13768      696E 6700 
 13769 05a7 AA21 0000 		.long	0x21aa
 13770 05ab 5374 7269 		.string	"String::~String"
 13770      6E67 3A3A 
 13770      7E53 7472 
 13770      696E 6700 
 13771 05bb 0000 0000 		.long	0x0
 13772               		.section	.debug_aranges,"",@progbits
 13773 0000 5C02 0000 		.long	0x25c
 13774 0004 0200      		.word	0x2
 13775 0006 0000 0000 		.long	.Ldebug_info0
 13776 000a 04        		.byte	0x4
 13777 000b 00        		.byte	0x0
 13778 000c 0000      		.word	0x0
 13779 000e 0000      		.word	0x0
 13780 0010 0000 0000 		.long	.LFB104
 13781 0014 2200 0000 		.long	.LFE104-.LFB104
 13782 0018 0000 0000 		.long	.LFB105
 13783 001c 1A00 0000 		.long	.LFE105-.LFB105
 13784 0020 0000 0000 		.long	.LFB106
 13785 0024 2A00 0000 		.long	.LFE106-.LFB106
 13786 0028 0000 0000 		.long	.LFB107
GAS LISTING /var/folders/1s/lqjcb7x5323625d47g9gdgmr0000gp/T//ccbjwlOH.s 			page 247


 13787 002c 2200 0000 		.long	.LFE107-.LFB107
 13788 0030 0000 0000 		.long	.LFB119
 13789 0034 1E00 0000 		.long	.LFE119-.LFB119
 13790 0038 0000 0000 		.long	.LFB124
 13791 003c 2200 0000 		.long	.LFE124-.LFB124
 13792 0040 0000 0000 		.long	.LFB123
 13793 0044 B600 0000 		.long	.LFE123-.LFB123
 13794 0048 0000 0000 		.long	.LFB122
 13795 004c 2800 0000 		.long	.LFE122-.LFB122
 13796 0050 0000 0000 		.long	.LFB121
 13797 0054 2800 0000 		.long	.LFE121-.LFB121
 13798 0058 0000 0000 		.long	.LFB100
 13799 005c 7800 0000 		.long	.LFE100-.LFB100
 13800 0060 0000 0000 		.long	.LFB116
 13801 0064 9C00 0000 		.long	.LFE116-.LFB116
 13802 0068 0000 0000 		.long	.LFB115
 13803 006c 1C00 0000 		.long	.LFE115-.LFB115
 13804 0070 0000 0000 		.long	.LFB112
 13805 0074 3C00 0000 		.long	.LFE112-.LFB112
 13806 0078 0000 0000 		.long	.LFB111
 13807 007c 0A00 0000 		.long	.LFE111-.LFB111
 13808 0080 0000 0000 		.long	.LFB114
 13809 0084 6E00 0000 		.long	.LFE114-.LFB114
 13810 0088 0000 0000 		.long	.LFB113
 13811 008c 1000 0000 		.long	.LFE113-.LFB113
 13812 0090 0000 0000 		.long	.LFB110
 13813 0094 3C00 0000 		.long	.LFE110-.LFB110
 13814 0098 0000 0000 		.long	.LFB109
 13815 009c 0A00 0000 		.long	.LFE109-.LFB109
 13816 00a0 0000 0000 		.long	.LFB108
 13817 00a4 5A00 0000 		.long	.LFE108-.LFB108
 13818 00a8 0000 0000 		.long	.LFB103
 13819 00ac 4400 0000 		.long	.LFE103-.LFB103
 13820 00b0 0000 0000 		.long	.LFB95
 13821 00b4 4600 0000 		.long	.LFE95-.LFB95
 13822 00b8 0000 0000 		.long	.LFB93
 13823 00bc 6600 0000 		.long	.LFE93-.LFB93
 13824 00c0 0000 0000 		.long	.LFB99
 13825 00c4 1000 0000 		.long	.LFE99-.LFB99
 13826 00c8 0000 0000 		.long	.LFB98
 13827 00cc 1200 0000 		.long	.LFE98-.LFB98
 13828 00d0 0000 0000 		.long	.LFB97
 13829 00d4 1200 0000 		.long	.LFE97-.LFB97
 13830 00d8 0000 0000 		.long	.LFB96
 13831 00dc 0E00 0000 		.long	.LFE96-.LFB96
 13832 00e0 0000 0000 		.long	.LFB94
 13833 00e4 2C00 0000 		.long	.LFE94-.LFB94
 13834 00e8 0000 0000 		.long	.LFB102
 13835 00ec 4600 0000 		.long	.LFE102-.LFB102
 13836 00f0 0000 0000 		.long	.LFB101
 13837 00f4 2600 0000 		.long	.LFE101-.LFB101
 13838 00f8 0000 0000 		.long	.LFB72
 13839 00fc 3400 0000 		.long	.LFE72-.LFB72
 13840 0100 0000 0000 		.long	.LFB120
 13841 0104 0A02 0000 		.long	.LFE120-.LFB120
 13842 0108 0000 0000 		.long	.LFB71
 13843 010c 3800 0000 		.long	.LFE71-.LFB71
GAS LISTING /var/folders/1s/lqjcb7x5323625d47g9gdgmr0000gp/T//ccbjwlOH.s 			page 248


 13844 0110 0000 0000 		.long	.LFB77
 13845 0114 5A00 0000 		.long	.LFE77-.LFB77
 13846 0118 0000 0000 		.long	.LFB84
 13847 011c 6400 0000 		.long	.LFE84-.LFB84
 13848 0120 0000 0000 		.long	.LFB83
 13849 0124 6400 0000 		.long	.LFE83-.LFB83
 13850 0128 0000 0000 		.long	.LFB82
 13851 012c 5A00 0000 		.long	.LFE82-.LFB82
 13852 0130 0000 0000 		.long	.LFB81
 13853 0134 6200 0000 		.long	.LFE81-.LFB81
 13854 0138 0000 0000 		.long	.LFB80
 13855 013c 5800 0000 		.long	.LFE80-.LFB80
 13856 0140 0000 0000 		.long	.LFB79
 13857 0144 2800 0000 		.long	.LFE79-.LFB79
 13858 0148 0000 0000 		.long	.LFB78
 13859 014c 2000 0000 		.long	.LFE78-.LFB78
 13860 0150 0000 0000 		.long	.LFB76
 13861 0154 1000 0000 		.long	.LFE76-.LFB76
 13862 0158 0000 0000 		.long	.LFB70
 13863 015c 2400 0000 		.long	.LFE70-.LFB70
 13864 0160 0000 0000 		.long	.LFB92
 13865 0164 2200 0000 		.long	.LFE92-.LFB92
 13866 0168 0000 0000 		.long	.LFB91
 13867 016c 2200 0000 		.long	.LFE91-.LFB91
 13868 0170 0000 0000 		.long	.LFB90
 13869 0174 2200 0000 		.long	.LFE90-.LFB90
 13870 0178 0000 0000 		.long	.LFB89
 13871 017c 2200 0000 		.long	.LFE89-.LFB89
 13872 0180 0000 0000 		.long	.LFB88
 13873 0184 2200 0000 		.long	.LFE88-.LFB88
 13874 0188 0000 0000 		.long	.LFB87
 13875 018c 2200 0000 		.long	.LFE87-.LFB87
 13876 0190 0000 0000 		.long	.LFB86
 13877 0194 3800 0000 		.long	.LFE86-.LFB86
 13878 0198 0000 0000 		.long	.LFB85
 13879 019c 2C00 0000 		.long	.LFE85-.LFB85
 13880 01a0 0000 0000 		.long	.LFB73
 13881 01a4 4200 0000 		.long	.LFE73-.LFB73
 13882 01a8 0000 0000 		.long	.LFB44
 13883 01ac 3400 0000 		.long	.LFE44-.LFB44
 13884 01b0 0000 0000 		.long	.LFB43
 13885 01b4 3400 0000 		.long	.LFE43-.LFB43
 13886 01b8 0000 0000 		.long	.LFB75
 13887 01bc 3200 0000 		.long	.LFE75-.LFB75
 13888 01c0 0000 0000 		.long	.LFB65
 13889 01c4 6400 0000 		.long	.LFE65-.LFB65
 13890 01c8 0000 0000 		.long	.LFB64
 13891 01cc 6400 0000 		.long	.LFE64-.LFB64
 13892 01d0 0000 0000 		.long	.LFB62
 13893 01d4 6400 0000 		.long	.LFE62-.LFB62
 13894 01d8 0000 0000 		.long	.LFB61
 13895 01dc 6400 0000 		.long	.LFE61-.LFB61
 13896 01e0 0000 0000 		.long	.LFB59
 13897 01e4 6200 0000 		.long	.LFE59-.LFB59
 13898 01e8 0000 0000 		.long	.LFB58
 13899 01ec 6200 0000 		.long	.LFE58-.LFB58
 13900 01f0 0000 0000 		.long	.LFB56
GAS LISTING /var/folders/1s/lqjcb7x5323625d47g9gdgmr0000gp/T//ccbjwlOH.s 			page 249


 13901 01f4 6200 0000 		.long	.LFE56-.LFB56
 13902 01f8 0000 0000 		.long	.LFB55
 13903 01fc 6200 0000 		.long	.LFE55-.LFB55
 13904 0200 0000 0000 		.long	.LFB53
 13905 0204 6400 0000 		.long	.LFE53-.LFB53
 13906 0208 0000 0000 		.long	.LFB52
 13907 020c 6400 0000 		.long	.LFE52-.LFB52
 13908 0210 0000 0000 		.long	.LFB50
 13909 0214 3400 0000 		.long	.LFE50-.LFB50
 13910 0218 0000 0000 		.long	.LFB49
 13911 021c 3400 0000 		.long	.LFE49-.LFB49
 13912 0220 0000 0000 		.long	.LFB118
 13913 0224 8E00 0000 		.long	.LFE118-.LFB118
 13914 0228 0000 0000 		.long	.LFB117
 13915 022c 1800 0000 		.long	.LFE117-.LFB117
 13916 0230 0000 0000 		.long	.LFB74
 13917 0234 2E00 0000 		.long	.LFE74-.LFB74
 13918 0238 0000 0000 		.long	.LFB47
 13919 023c 1600 0000 		.long	.LFE47-.LFB47
 13920 0240 0000 0000 		.long	.LFB46
 13921 0244 1600 0000 		.long	.LFE46-.LFB46
 13922 0248 0000 0000 		.long	.LFB68
 13923 024c 0C00 0000 		.long	.LFE68-.LFB68
 13924 0250 0000 0000 		.long	.LFB67
 13925 0254 0C00 0000 		.long	.LFE67-.LFB67
 13926 0258 0000 0000 		.long	0x0
 13927 025c 0000 0000 		.long	0x0
 13928               		.section	.debug_ranges,"",@progbits
 13929               	.Ldebug_ranges0:
 13930 0000 0000 0000 		.long	.LBB100
 13931 0004 0000 0000 		.long	.LBE100
 13932 0008 0000 0000 		.long	.LBB103
 13933 000c 0000 0000 		.long	.LBE103
 13934 0010 0000 0000 		.long	0x0
 13935 0014 0000 0000 		.long	0x0
 13936 0018 0000 0000 		.long	.Ltext0
 13937 001c 0000 0000 		.long	.Letext0
 13938 0020 0000 0000 		.long	.LFB104
 13939 0024 0000 0000 		.long	.LFE104
 13940 0028 0000 0000 		.long	.LFB105
 13941 002c 0000 0000 		.long	.LFE105
 13942 0030 0000 0000 		.long	.LFB106
 13943 0034 0000 0000 		.long	.LFE106
 13944 0038 0000 0000 		.long	.LFB107
 13945 003c 0000 0000 		.long	.LFE107
 13946 0040 0000 0000 		.long	.LFB119
 13947 0044 0000 0000 		.long	.LFE119
 13948 0048 0000 0000 		.long	.LFB124
 13949 004c 0000 0000 		.long	.LFE124
 13950 0050 0000 0000 		.long	.LFB123
 13951 0054 0000 0000 		.long	.LFE123
 13952 0058 0000 0000 		.long	.LFB122
 13953 005c 0000 0000 		.long	.LFE122
 13954 0060 0000 0000 		.long	.LFB121
 13955 0064 0000 0000 		.long	.LFE121
 13956 0068 0000 0000 		.long	.LFB100
 13957 006c 0000 0000 		.long	.LFE100
GAS LISTING /var/folders/1s/lqjcb7x5323625d47g9gdgmr0000gp/T//ccbjwlOH.s 			page 250


 13958 0070 0000 0000 		.long	.LFB116
 13959 0074 0000 0000 		.long	.LFE116
 13960 0078 0000 0000 		.long	.LFB115
 13961 007c 0000 0000 		.long	.LFE115
 13962 0080 0000 0000 		.long	.LFB112
 13963 0084 0000 0000 		.long	.LFE112
 13964 0088 0000 0000 		.long	.LFB111
 13965 008c 0000 0000 		.long	.LFE111
 13966 0090 0000 0000 		.long	.LFB114
 13967 0094 0000 0000 		.long	.LFE114
 13968 0098 0000 0000 		.long	.LFB113
 13969 009c 0000 0000 		.long	.LFE113
 13970 00a0 0000 0000 		.long	.LFB110
 13971 00a4 0000 0000 		.long	.LFE110
 13972 00a8 0000 0000 		.long	.LFB109
 13973 00ac 0000 0000 		.long	.LFE109
 13974 00b0 0000 0000 		.long	.LFB108
 13975 00b4 0000 0000 		.long	.LFE108
 13976 00b8 0000 0000 		.long	.LFB103
 13977 00bc 0000 0000 		.long	.LFE103
 13978 00c0 0000 0000 		.long	.LFB95
 13979 00c4 0000 0000 		.long	.LFE95
 13980 00c8 0000 0000 		.long	.LFB93
 13981 00cc 0000 0000 		.long	.LFE93
 13982 00d0 0000 0000 		.long	.LFB99
 13983 00d4 0000 0000 		.long	.LFE99
 13984 00d8 0000 0000 		.long	.LFB98
 13985 00dc 0000 0000 		.long	.LFE98
 13986 00e0 0000 0000 		.long	.LFB97
 13987 00e4 0000 0000 		.long	.LFE97
 13988 00e8 0000 0000 		.long	.LFB96
 13989 00ec 0000 0000 		.long	.LFE96
 13990 00f0 0000 0000 		.long	.LFB94
 13991 00f4 0000 0000 		.long	.LFE94
 13992 00f8 0000 0000 		.long	.LFB102
 13993 00fc 0000 0000 		.long	.LFE102
 13994 0100 0000 0000 		.long	.LFB101
 13995 0104 0000 0000 		.long	.LFE101
 13996 0108 0000 0000 		.long	.LFB72
 13997 010c 0000 0000 		.long	.LFE72
 13998 0110 0000 0000 		.long	.LFB120
 13999 0114 0000 0000 		.long	.LFE120
 14000 0118 0000 0000 		.long	.LFB71
 14001 011c 0000 0000 		.long	.LFE71
 14002 0120 0000 0000 		.long	.LFB77
 14003 0124 0000 0000 		.long	.LFE77
 14004 0128 0000 0000 		.long	.LFB84
 14005 012c 0000 0000 		.long	.LFE84
 14006 0130 0000 0000 		.long	.LFB83
 14007 0134 0000 0000 		.long	.LFE83
 14008 0138 0000 0000 		.long	.LFB82
 14009 013c 0000 0000 		.long	.LFE82
 14010 0140 0000 0000 		.long	.LFB81
 14011 0144 0000 0000 		.long	.LFE81
 14012 0148 0000 0000 		.long	.LFB80
 14013 014c 0000 0000 		.long	.LFE80
 14014 0150 0000 0000 		.long	.LFB79
GAS LISTING /var/folders/1s/lqjcb7x5323625d47g9gdgmr0000gp/T//ccbjwlOH.s 			page 251


 14015 0154 0000 0000 		.long	.LFE79
 14016 0158 0000 0000 		.long	.LFB78
 14017 015c 0000 0000 		.long	.LFE78
 14018 0160 0000 0000 		.long	.LFB76
 14019 0164 0000 0000 		.long	.LFE76
 14020 0168 0000 0000 		.long	.LFB70
 14021 016c 0000 0000 		.long	.LFE70
 14022 0170 0000 0000 		.long	.LFB92
 14023 0174 0000 0000 		.long	.LFE92
 14024 0178 0000 0000 		.long	.LFB91
 14025 017c 0000 0000 		.long	.LFE91
 14026 0180 0000 0000 		.long	.LFB90
 14027 0184 0000 0000 		.long	.LFE90
 14028 0188 0000 0000 		.long	.LFB89
 14029 018c 0000 0000 		.long	.LFE89
 14030 0190 0000 0000 		.long	.LFB88
 14031 0194 0000 0000 		.long	.LFE88
 14032 0198 0000 0000 		.long	.LFB87
 14033 019c 0000 0000 		.long	.LFE87
 14034 01a0 0000 0000 		.long	.LFB86
 14035 01a4 0000 0000 		.long	.LFE86
 14036 01a8 0000 0000 		.long	.LFB85
 14037 01ac 0000 0000 		.long	.LFE85
 14038 01b0 0000 0000 		.long	.LFB73
 14039 01b4 0000 0000 		.long	.LFE73
 14040 01b8 0000 0000 		.long	.LFB44
 14041 01bc 0000 0000 		.long	.LFE44
 14042 01c0 0000 0000 		.long	.LFB43
 14043 01c4 0000 0000 		.long	.LFE43
 14044 01c8 0000 0000 		.long	.LFB75
 14045 01cc 0000 0000 		.long	.LFE75
 14046 01d0 0000 0000 		.long	.LFB65
 14047 01d4 0000 0000 		.long	.LFE65
 14048 01d8 0000 0000 		.long	.LFB64
 14049 01dc 0000 0000 		.long	.LFE64
 14050 01e0 0000 0000 		.long	.LFB62
 14051 01e4 0000 0000 		.long	.LFE62
 14052 01e8 0000 0000 		.long	.LFB61
 14053 01ec 0000 0000 		.long	.LFE61
 14054 01f0 0000 0000 		.long	.LFB59
 14055 01f4 0000 0000 		.long	.LFE59
 14056 01f8 0000 0000 		.long	.LFB58
 14057 01fc 0000 0000 		.long	.LFE58
 14058 0200 0000 0000 		.long	.LFB56
 14059 0204 0000 0000 		.long	.LFE56
 14060 0208 0000 0000 		.long	.LFB55
 14061 020c 0000 0000 		.long	.LFE55
 14062 0210 0000 0000 		.long	.LFB53
 14063 0214 0000 0000 		.long	.LFE53
 14064 0218 0000 0000 		.long	.LFB52
 14065 021c 0000 0000 		.long	.LFE52
 14066 0220 0000 0000 		.long	.LFB50
 14067 0224 0000 0000 		.long	.LFE50
 14068 0228 0000 0000 		.long	.LFB49
 14069 022c 0000 0000 		.long	.LFE49
 14070 0230 0000 0000 		.long	.LFB118
 14071 0234 0000 0000 		.long	.LFE118
GAS LISTING /var/folders/1s/lqjcb7x5323625d47g9gdgmr0000gp/T//ccbjwlOH.s 			page 252


 14072 0238 0000 0000 		.long	.LFB117
 14073 023c 0000 0000 		.long	.LFE117
 14074 0240 0000 0000 		.long	.LFB74
 14075 0244 0000 0000 		.long	.LFE74
 14076 0248 0000 0000 		.long	.LFB47
 14077 024c 0000 0000 		.long	.LFE47
 14078 0250 0000 0000 		.long	.LFB46
 14079 0254 0000 0000 		.long	.LFE46
 14080 0258 0000 0000 		.long	.LFB68
 14081 025c 0000 0000 		.long	.LFE68
 14082 0260 0000 0000 		.long	.LFB67
 14083 0264 0000 0000 		.long	.LFE67
 14084 0268 0000 0000 		.long	0x0
 14085 026c 0000 0000 		.long	0x0
 14086               		.section	.debug_line
 14087 0000 0811 0000 		.long	.LELT0-.LSLT0
 14088               	.LSLT0:
 14089 0004 0200      		.word	0x2
 14090 0006 8100 0000 		.long	.LELTP0-.LASLTP0
 14091               	.LASLTP0:
 14092 000a 01        		.byte	0x1
 14093 000b 01        		.byte	0x1
 14094 000c F6        		.byte	0xf6
 14095 000d F5        		.byte	0xf5
 14096 000e 0A        		.byte	0xa
 14097 000f 00        		.byte	0x0
 14098 0010 01        		.byte	0x1
 14099 0011 01        		.byte	0x1
 14100 0012 01        		.byte	0x1
 14101 0013 01        		.byte	0x1
 14102 0014 00        		.byte	0x0
 14103 0015 00        		.byte	0x0
 14104 0016 00        		.byte	0x0
 14105 0017 01        		.byte	0x1
 14106 0018 2F41 7070 		.ascii	"/Applications/Arduino.app/Contents/Resources/Java/hardware/a"
 14106      6C69 6361 
 14106      7469 6F6E 
 14106      732F 4172 
 14106      6475 696E 
 14107 0054 7264 7569 		.ascii	"rduino/avr/cores/arduino"
 14107      6E6F 2F61 
 14107      7672 2F63 
 14107      6F72 6573 
 14107      2F61 7264 
 14108 006c 00        		.byte	0
 14109 006d 00        		.byte	0x0
 14110 006e 5753 7472 		.string	"WString.cpp"
 14110      696E 672E 
 14110      6370 7000 
 14111 007a 01        		.uleb128 0x1
 14112 007b 00        		.uleb128 0x0
 14113 007c 00        		.uleb128 0x0
 14114 007d 5753 7472 		.string	"WString.h"
 14114      696E 672E 
 14114      6800 
 14115 0087 01        		.uleb128 0x1
 14116 0088 00        		.uleb128 0x0
GAS LISTING /var/folders/1s/lqjcb7x5323625d47g9gdgmr0000gp/T//ccbjwlOH.s 			page 253


 14117 0089 00        		.uleb128 0x0
 14118 008a 00        		.byte	0x0
 14119               	.LELTP0:
 14120 008b 00        		.byte	0x0
 14121 008c 05        		.uleb128 0x5
 14122 008d 02        		.byte	0x2
 14123 008e 0000 0000 		.long	.Letext0
 14124 0092 00        		.byte	0x0
 14125 0093 01        		.uleb128 0x1
 14126 0094 01        		.byte	0x1
 14127 0095 00        		.byte	0x0
 14128 0096 05        		.uleb128 0x5
 14129 0097 02        		.byte	0x2
 14130 0098 0000 0000 		.long	.LSM0
 14131 009c 03        		.byte	0x3
 14132 009d AA03      		.sleb128 426
 14133 009f 01        		.byte	0x1
 14134 00a0 00        		.byte	0x0
 14135 00a1 05        		.uleb128 0x5
 14136 00a2 02        		.byte	0x2
 14137 00a3 0000 0000 		.long	.LSM1
 14138 00a7 2A        		.byte	0x2a
 14139 00a8 00        		.byte	0x0
 14140 00a9 05        		.uleb128 0x5
 14141 00aa 02        		.byte	0x2
 14142 00ab 0000 0000 		.long	.LSM2
 14143 00af 15        		.byte	0x15
 14144 00b0 00        		.byte	0x0
 14145 00b1 05        		.uleb128 0x5
 14146 00b2 02        		.byte	0x2
 14147 00b3 0000 0000 		.long	.LSM3
 14148 00b7 03        		.byte	0x3
 14149 00b8 6C        		.sleb128 -20
 14150 00b9 01        		.byte	0x1
 14151 00ba 00        		.byte	0x0
 14152 00bb 05        		.uleb128 0x5
 14153 00bc 02        		.byte	0x2
 14154 00bd 0000 0000 		.long	.LFE104
 14155 00c1 00        		.byte	0x0
 14156 00c2 01        		.uleb128 0x1
 14157 00c3 01        		.byte	0x1
 14158 00c4 00        		.byte	0x0
 14159 00c5 05        		.uleb128 0x5
 14160 00c6 02        		.byte	0x2
 14161 00c7 0000 0000 		.long	.LSM4
 14162 00cb 03        		.byte	0x3
 14163 00cc AF03      		.sleb128 431
 14164 00ce 01        		.byte	0x1
 14165 00cf 00        		.byte	0x0
 14166 00d0 05        		.uleb128 0x5
 14167 00d1 02        		.byte	0x2
 14168 00d2 0000 0000 		.long	.LSM5
 14169 00d6 16        		.byte	0x16
 14170 00d7 00        		.byte	0x0
 14171 00d8 05        		.uleb128 0x5
 14172 00d9 02        		.byte	0x2
 14173 00da 0000 0000 		.long	.LFE105
GAS LISTING /var/folders/1s/lqjcb7x5323625d47g9gdgmr0000gp/T//ccbjwlOH.s 			page 254


 14174 00de 00        		.byte	0x0
 14175 00df 01        		.uleb128 0x1
 14176 00e0 01        		.byte	0x1
 14177 00e1 00        		.byte	0x0
 14178 00e2 05        		.uleb128 0x5
 14179 00e3 02        		.byte	0x2
 14180 00e4 0000 0000 		.long	.LSM6
 14181 00e8 03        		.byte	0x3
 14182 00e9 B403      		.sleb128 436
 14183 00eb 01        		.byte	0x1
 14184 00ec 00        		.byte	0x0
 14185 00ed 05        		.uleb128 0x5
 14186 00ee 02        		.byte	0x2
 14187 00ef 0000 0000 		.long	.LSM7
 14188 00f3 17        		.byte	0x17
 14189 00f4 00        		.byte	0x0
 14190 00f5 05        		.uleb128 0x5
 14191 00f6 02        		.byte	0x2
 14192 00f7 0000 0000 		.long	.LSM8
 14193 00fb 15        		.byte	0x15
 14194 00fc 00        		.byte	0x0
 14195 00fd 05        		.uleb128 0x5
 14196 00fe 02        		.byte	0x2
 14197 00ff 0000 0000 		.long	.LSM9
 14198 0103 17        		.byte	0x17
 14199 0104 00        		.byte	0x0
 14200 0105 05        		.uleb128 0x5
 14201 0106 02        		.byte	0x2
 14202 0107 0000 0000 		.long	.LSM10
 14203 010b 15        		.byte	0x15
 14204 010c 00        		.byte	0x0
 14205 010d 05        		.uleb128 0x5
 14206 010e 02        		.byte	0x2
 14207 010f 0000 0000 		.long	.LFE106
 14208 0113 00        		.byte	0x0
 14209 0114 01        		.uleb128 0x1
 14210 0115 01        		.byte	0x1
 14211 0116 00        		.byte	0x0
 14212 0117 05        		.uleb128 0x5
 14213 0118 02        		.byte	0x2
 14214 0119 0000 0000 		.long	.LSM11
 14215 011d 03        		.byte	0x3
 14216 011e BE03      		.sleb128 446
 14217 0120 01        		.byte	0x1
 14218 0121 00        		.byte	0x0
 14219 0122 05        		.uleb128 0x5
 14220 0123 02        		.byte	0x2
 14221 0124 0000 0000 		.long	.LSM12
 14222 0128 16        		.byte	0x16
 14223 0129 00        		.byte	0x0
 14224 012a 05        		.uleb128 0x5
 14225 012b 02        		.byte	0x2
 14226 012c 0000 0000 		.long	.LSM13
 14227 0130 15        		.byte	0x15
 14228 0131 00        		.byte	0x0
 14229 0132 05        		.uleb128 0x5
 14230 0133 02        		.byte	0x2
GAS LISTING /var/folders/1s/lqjcb7x5323625d47g9gdgmr0000gp/T//ccbjwlOH.s 			page 255


 14231 0134 0000 0000 		.long	.LSM14
 14232 0138 15        		.byte	0x15
 14233 0139 00        		.byte	0x0
 14234 013a 05        		.uleb128 0x5
 14235 013b 02        		.byte	0x2
 14236 013c 0000 0000 		.long	.LFE107
 14237 0140 00        		.byte	0x0
 14238 0141 01        		.uleb128 0x1
 14239 0142 01        		.byte	0x1
 14240 0143 00        		.byte	0x0
 14241 0144 05        		.uleb128 0x5
 14242 0145 02        		.byte	0x2
 14243 0146 0000 0000 		.long	.LSM15
 14244 014a 03        		.byte	0x3
 14245 014b AB04      		.sleb128 555
 14246 014d 01        		.byte	0x1
 14247 014e 00        		.byte	0x0
 14248 014f 05        		.uleb128 0x5
 14249 0150 02        		.byte	0x2
 14250 0151 0000 0000 		.long	.LSM16
 14251 0155 16        		.byte	0x16
 14252 0156 00        		.byte	0x0
 14253 0157 05        		.uleb128 0x5
 14254 0158 02        		.byte	0x2
 14255 0159 0000 0000 		.long	.LSM17
 14256 015d 16        		.byte	0x16
 14257 015e 00        		.byte	0x0
 14258 015f 05        		.uleb128 0x5
 14259 0160 02        		.byte	0x2
 14260 0161 0000 0000 		.long	.LSM18
 14261 0165 13        		.byte	0x13
 14262 0166 00        		.byte	0x0
 14263 0167 05        		.uleb128 0x5
 14264 0168 02        		.byte	0x2
 14265 0169 0000 0000 		.long	.LFE119
 14266 016d 00        		.byte	0x0
 14267 016e 01        		.uleb128 0x1
 14268 016f 01        		.byte	0x1
 14269 0170 00        		.byte	0x0
 14270 0171 05        		.uleb128 0x5
 14271 0172 02        		.byte	0x2
 14272 0173 0000 0000 		.long	.LSM19
 14273 0177 03        		.byte	0x3
 14274 0178 FE04      		.sleb128 638
 14275 017a 01        		.byte	0x1
 14276 017b 00        		.byte	0x0
 14277 017c 05        		.uleb128 0x5
 14278 017d 02        		.byte	0x2
 14279 017e 0000 0000 		.long	.LSM20
 14280 0182 16        		.byte	0x16
 14281 0183 00        		.byte	0x0
 14282 0184 05        		.uleb128 0x5
 14283 0185 02        		.byte	0x2
 14284 0186 0000 0000 		.long	.LSM21
 14285 018a 16        		.byte	0x16
 14286 018b 00        		.byte	0x0
 14287 018c 05        		.uleb128 0x5
GAS LISTING /var/folders/1s/lqjcb7x5323625d47g9gdgmr0000gp/T//ccbjwlOH.s 			page 256


 14288 018d 02        		.byte	0x2
 14289 018e 0000 0000 		.long	.LFE124
 14290 0192 00        		.byte	0x0
 14291 0193 01        		.uleb128 0x1
 14292 0194 01        		.byte	0x1
 14293 0195 00        		.byte	0x0
 14294 0196 05        		.uleb128 0x5
 14295 0197 02        		.byte	0x2
 14296 0198 0000 0000 		.long	.LSM22
 14297 019c 03        		.byte	0x3
 14298 019d EE04      		.sleb128 622
 14299 019f 01        		.byte	0x1
 14300 01a0 00        		.byte	0x0
 14301 01a1 05        		.uleb128 0x5
 14302 01a2 02        		.byte	0x2
 14303 01a3 0000 0000 		.long	.LSM23
 14304 01a7 16        		.byte	0x16
 14305 01a8 00        		.byte	0x0
 14306 01a9 05        		.uleb128 0x5
 14307 01aa 02        		.byte	0x2
 14308 01ab 0000 0000 		.long	.LSM24
 14309 01af 16        		.byte	0x16
 14310 01b0 00        		.byte	0x0
 14311 01b1 05        		.uleb128 0x5
 14312 01b2 02        		.byte	0x2
 14313 01b3 0000 0000 		.long	.LSM25
 14314 01b7 15        		.byte	0x15
 14315 01b8 00        		.byte	0x0
 14316 01b9 05        		.uleb128 0x5
 14317 01ba 02        		.byte	0x2
 14318 01bb 0000 0000 		.long	.LSM26
 14319 01bf 15        		.byte	0x15
 14320 01c0 00        		.byte	0x0
 14321 01c1 05        		.uleb128 0x5
 14322 01c2 02        		.byte	0x2
 14323 01c3 0000 0000 		.long	.LSM27
 14324 01c7 15        		.byte	0x15
 14325 01c8 00        		.byte	0x0
 14326 01c9 05        		.uleb128 0x5
 14327 01ca 02        		.byte	0x2
 14328 01cb 0000 0000 		.long	.LSM28
 14329 01cf 15        		.byte	0x15
 14330 01d0 00        		.byte	0x0
 14331 01d1 05        		.uleb128 0x5
 14332 01d2 02        		.byte	0x2
 14333 01d3 0000 0000 		.long	.LSM29
 14334 01d7 15        		.byte	0x15
 14335 01d8 00        		.byte	0x0
 14336 01d9 05        		.uleb128 0x5
 14337 01da 02        		.byte	0x2
 14338 01db 0000 0000 		.long	.LSM30
 14339 01df 15        		.byte	0x15
 14340 01e0 00        		.byte	0x0
 14341 01e1 05        		.uleb128 0x5
 14342 01e2 02        		.byte	0x2
 14343 01e3 0000 0000 		.long	.LFE123
 14344 01e7 00        		.byte	0x0
GAS LISTING /var/folders/1s/lqjcb7x5323625d47g9gdgmr0000gp/T//ccbjwlOH.s 			page 257


 14345 01e8 01        		.uleb128 0x1
 14346 01e9 01        		.byte	0x1
 14347 01ea 00        		.byte	0x0
 14348 01eb 05        		.uleb128 0x5
 14349 01ec 02        		.byte	0x2
 14350 01ed 0000 0000 		.long	.LSM31
 14351 01f1 03        		.byte	0x3
 14352 01f2 E604      		.sleb128 614
 14353 01f4 01        		.byte	0x1
 14354 01f5 00        		.byte	0x0
 14355 01f6 05        		.uleb128 0x5
 14356 01f7 02        		.byte	0x2
 14357 01f8 0000 0000 		.long	.LSM32
 14358 01fc 16        		.byte	0x16
 14359 01fd 00        		.byte	0x0
 14360 01fe 05        		.uleb128 0x5
 14361 01ff 02        		.byte	0x2
 14362 0200 0000 0000 		.long	.LSM33
 14363 0204 16        		.byte	0x16
 14364 0205 00        		.byte	0x0
 14365 0206 05        		.uleb128 0x5
 14366 0207 02        		.byte	0x2
 14367 0208 0000 0000 		.long	.LSM34
 14368 020c 13        		.byte	0x13
 14369 020d 00        		.byte	0x0
 14370 020e 05        		.uleb128 0x5
 14371 020f 02        		.byte	0x2
 14372 0210 0000 0000 		.long	.LSM35
 14373 0214 17        		.byte	0x17
 14374 0215 00        		.byte	0x0
 14375 0216 05        		.uleb128 0x5
 14376 0217 02        		.byte	0x2
 14377 0218 0000 0000 		.long	.LFE122
 14378 021c 00        		.byte	0x0
 14379 021d 01        		.uleb128 0x1
 14380 021e 01        		.byte	0x1
 14381 021f 00        		.byte	0x0
 14382 0220 05        		.uleb128 0x5
 14383 0221 02        		.byte	0x2
 14384 0222 0000 0000 		.long	.LSM36
 14385 0226 03        		.byte	0x3
 14386 0227 DE04      		.sleb128 606
 14387 0229 01        		.byte	0x1
 14388 022a 00        		.byte	0x0
 14389 022b 05        		.uleb128 0x5
 14390 022c 02        		.byte	0x2
 14391 022d 0000 0000 		.long	.LSM37
 14392 0231 16        		.byte	0x16
 14393 0232 00        		.byte	0x0
 14394 0233 05        		.uleb128 0x5
 14395 0234 02        		.byte	0x2
 14396 0235 0000 0000 		.long	.LSM38
 14397 0239 16        		.byte	0x16
 14398 023a 00        		.byte	0x0
 14399 023b 05        		.uleb128 0x5
 14400 023c 02        		.byte	0x2
 14401 023d 0000 0000 		.long	.LSM39
GAS LISTING /var/folders/1s/lqjcb7x5323625d47g9gdgmr0000gp/T//ccbjwlOH.s 			page 258


 14402 0241 13        		.byte	0x13
 14403 0242 00        		.byte	0x0
 14404 0243 05        		.uleb128 0x5
 14405 0244 02        		.byte	0x2
 14406 0245 0000 0000 		.long	.LSM40
 14407 0249 17        		.byte	0x17
 14408 024a 00        		.byte	0x0
 14409 024b 05        		.uleb128 0x5
 14410 024c 02        		.byte	0x2
 14411 024d 0000 0000 		.long	.LFE121
 14412 0251 00        		.byte	0x0
 14413 0252 01        		.uleb128 0x1
 14414 0253 01        		.byte	0x1
 14415 0254 00        		.byte	0x0
 14416 0255 05        		.uleb128 0x5
 14417 0256 02        		.byte	0x2
 14418 0257 0000 0000 		.long	.LSM41
 14419 025b 03        		.byte	0x3
 14420 025c 8703      		.sleb128 391
 14421 025e 01        		.byte	0x1
 14422 025f 00        		.byte	0x0
 14423 0260 05        		.uleb128 0x5
 14424 0261 02        		.byte	0x2
 14425 0262 0000 0000 		.long	.LSM42
 14426 0266 16        		.byte	0x16
 14427 0267 00        		.byte	0x0
 14428 0268 05        		.uleb128 0x5
 14429 0269 02        		.byte	0x2
 14430 026a 0000 0000 		.long	.LSM43
 14431 026e 15        		.byte	0x15
 14432 026f 00        		.byte	0x0
 14433 0270 05        		.uleb128 0x5
 14434 0271 02        		.byte	0x2
 14435 0272 0000 0000 		.long	.LSM44
 14436 0276 15        		.byte	0x15
 14437 0277 00        		.byte	0x0
 14438 0278 05        		.uleb128 0x5
 14439 0279 02        		.byte	0x2
 14440 027a 0000 0000 		.long	.LSM45
 14441 027e 15        		.byte	0x15
 14442 027f 00        		.byte	0x0
 14443 0280 05        		.uleb128 0x5
 14444 0281 02        		.byte	0x2
 14445 0282 0000 0000 		.long	.LSM46
 14446 0286 15        		.byte	0x15
 14447 0287 00        		.byte	0x0
 14448 0288 05        		.uleb128 0x5
 14449 0289 02        		.byte	0x2
 14450 028a 0000 0000 		.long	.LSM47
 14451 028e 16        		.byte	0x16
 14452 028f 00        		.byte	0x0
 14453 0290 05        		.uleb128 0x5
 14454 0291 02        		.byte	0x2
 14455 0292 0000 0000 		.long	.LSM48
 14456 0296 13        		.byte	0x13
 14457 0297 00        		.byte	0x0
 14458 0298 05        		.uleb128 0x5
GAS LISTING /var/folders/1s/lqjcb7x5323625d47g9gdgmr0000gp/T//ccbjwlOH.s 			page 259


 14459 0299 02        		.byte	0x2
 14460 029a 0000 0000 		.long	.LSM49
 14461 029e 18        		.byte	0x18
 14462 029f 00        		.byte	0x0
 14463 02a0 05        		.uleb128 0x5
 14464 02a1 02        		.byte	0x2
 14465 02a2 0000 0000 		.long	.LFE100
 14466 02a6 00        		.byte	0x0
 14467 02a7 01        		.uleb128 0x1
 14468 02a8 01        		.byte	0x1
 14469 02a9 00        		.byte	0x0
 14470 02aa 05        		.uleb128 0x5
 14471 02ab 02        		.byte	0x2
 14472 02ac 0000 0000 		.long	.LSM50
 14473 02b0 03        		.byte	0x3
 14474 02b1 8404      		.sleb128 516
 14475 02b3 01        		.byte	0x1
 14476 02b4 00        		.byte	0x0
 14477 02b5 05        		.uleb128 0x5
 14478 02b6 02        		.byte	0x2
 14479 02b7 0000 0000 		.long	.LSM51
 14480 02bb 16        		.byte	0x16
 14481 02bc 00        		.byte	0x0
 14482 02bd 05        		.uleb128 0x5
 14483 02be 02        		.byte	0x2
 14484 02bf 0000 0000 		.long	.LSM52
 14485 02c3 15        		.byte	0x15
 14486 02c4 00        		.byte	0x0
 14487 02c5 05        		.uleb128 0x5
 14488 02c6 02        		.byte	0x2
 14489 02c7 0000 0000 		.long	.LSM53
 14490 02cb 16        		.byte	0x16
 14491 02cc 00        		.byte	0x0
 14492 02cd 05        		.uleb128 0x5
 14493 02ce 02        		.byte	0x2
 14494 02cf 0000 0000 		.long	.LSM54
 14495 02d3 15        		.byte	0x15
 14496 02d4 00        		.byte	0x0
 14497 02d5 05        		.uleb128 0x5
 14498 02d6 02        		.byte	0x2
 14499 02d7 0000 0000 		.long	.LSM55
 14500 02db 15        		.byte	0x15
 14501 02dc 00        		.byte	0x0
 14502 02dd 05        		.uleb128 0x5
 14503 02de 02        		.byte	0x2
 14504 02df 0000 0000 		.long	.LSM56
 14505 02e3 15        		.byte	0x15
 14506 02e4 00        		.byte	0x0
 14507 02e5 05        		.uleb128 0x5
 14508 02e6 02        		.byte	0x2
 14509 02e7 0000 0000 		.long	.LSM57
 14510 02eb 11        		.byte	0x11
 14511 02ec 00        		.byte	0x0
 14512 02ed 05        		.uleb128 0x5
 14513 02ee 02        		.byte	0x2
 14514 02ef 0000 0000 		.long	.LSM58
 14515 02f3 1A        		.byte	0x1a
GAS LISTING /var/folders/1s/lqjcb7x5323625d47g9gdgmr0000gp/T//ccbjwlOH.s 			page 260


 14516 02f4 00        		.byte	0x0
 14517 02f5 05        		.uleb128 0x5
 14518 02f6 02        		.byte	0x2
 14519 02f7 0000 0000 		.long	.LFE116
 14520 02fb 00        		.byte	0x0
 14521 02fc 01        		.uleb128 0x1
 14522 02fd 01        		.byte	0x1
 14523 02fe 00        		.byte	0x0
 14524 02ff 05        		.uleb128 0x5
 14525 0300 02        		.byte	0x2
 14526 0301 0000 0000 		.long	.LSM59
 14527 0305 03        		.byte	0x3
 14528 0306 FF03      		.sleb128 511
 14529 0308 01        		.byte	0x1
 14530 0309 00        		.byte	0x0
 14531 030a 05        		.uleb128 0x5
 14532 030b 02        		.byte	0x2
 14533 030c 0000 0000 		.long	.LSM60
 14534 0310 16        		.byte	0x16
 14535 0311 00        		.byte	0x0
 14536 0312 05        		.uleb128 0x5
 14537 0313 02        		.byte	0x2
 14538 0314 0000 0000 		.long	.LSM61
 14539 0318 15        		.byte	0x15
 14540 0319 00        		.byte	0x0
 14541 031a 05        		.uleb128 0x5
 14542 031b 02        		.byte	0x2
 14543 031c 0000 0000 		.long	.LFE115
 14544 0320 00        		.byte	0x0
 14545 0321 01        		.uleb128 0x1
 14546 0322 01        		.byte	0x1
 14547 0323 00        		.byte	0x0
 14548 0324 05        		.uleb128 0x5
 14549 0325 02        		.byte	0x2
 14550 0326 0000 0000 		.long	.LSM62
 14551 032a 03        		.byte	0x3
 14552 032b E703      		.sleb128 487
 14553 032d 01        		.byte	0x1
 14554 032e 00        		.byte	0x0
 14555 032f 05        		.uleb128 0x5
 14556 0330 02        		.byte	0x2
 14557 0331 0000 0000 		.long	.LSM63
 14558 0335 16        		.byte	0x16
 14559 0336 00        		.byte	0x0
 14560 0337 05        		.uleb128 0x5
 14561 0338 02        		.byte	0x2
 14562 0339 0000 0000 		.long	.LSM64
 14563 033d 15        		.byte	0x15
 14564 033e 00        		.byte	0x0
 14565 033f 05        		.uleb128 0x5
 14566 0340 02        		.byte	0x2
 14567 0341 0000 0000 		.long	.LSM65
 14568 0345 15        		.byte	0x15
 14569 0346 00        		.byte	0x0
 14570 0347 05        		.uleb128 0x5
 14571 0348 02        		.byte	0x2
 14572 0349 0000 0000 		.long	.LSM66
GAS LISTING /var/folders/1s/lqjcb7x5323625d47g9gdgmr0000gp/T//ccbjwlOH.s 			page 261


 14573 034d 15        		.byte	0x15
 14574 034e 00        		.byte	0x0
 14575 034f 05        		.uleb128 0x5
 14576 0350 02        		.byte	0x2
 14577 0351 0000 0000 		.long	.LSM67
 14578 0355 15        		.byte	0x15
 14579 0356 00        		.byte	0x0
 14580 0357 05        		.uleb128 0x5
 14581 0358 02        		.byte	0x2
 14582 0359 0000 0000 		.long	.LFE112
 14583 035d 00        		.byte	0x0
 14584 035e 01        		.uleb128 0x1
 14585 035f 01        		.byte	0x1
 14586 0360 00        		.byte	0x0
 14587 0361 05        		.uleb128 0x5
 14588 0362 02        		.byte	0x2
 14589 0363 0000 0000 		.long	.LSM68
 14590 0367 03        		.byte	0x3
 14591 0368 E203      		.sleb128 482
 14592 036a 01        		.byte	0x1
 14593 036b 00        		.byte	0x0
 14594 036c 05        		.uleb128 0x5
 14595 036d 02        		.byte	0x2
 14596 036e 0000 0000 		.long	.LSM69
 14597 0372 16        		.byte	0x16
 14598 0373 00        		.byte	0x0
 14599 0374 05        		.uleb128 0x5
 14600 0375 02        		.byte	0x2
 14601 0376 0000 0000 		.long	.LSM70
 14602 037a 15        		.byte	0x15
 14603 037b 00        		.byte	0x0
 14604 037c 05        		.uleb128 0x5
 14605 037d 02        		.byte	0x2
 14606 037e 0000 0000 		.long	.LFE111
 14607 0382 00        		.byte	0x0
 14608 0383 01        		.uleb128 0x1
 14609 0384 01        		.byte	0x1
 14610 0385 00        		.byte	0x0
 14611 0386 05        		.uleb128 0x5
 14612 0387 02        		.byte	0x2
 14613 0388 0000 0000 		.long	.LSM71
 14614 038c 03        		.byte	0x3
 14615 038d F403      		.sleb128 500
 14616 038f 01        		.byte	0x1
 14617 0390 00        		.byte	0x0
 14618 0391 05        		.uleb128 0x5
 14619 0392 02        		.byte	0x2
 14620 0393 0000 0000 		.long	.LSM72
 14621 0397 16        		.byte	0x16
 14622 0398 00        		.byte	0x0
 14623 0399 05        		.uleb128 0x5
 14624 039a 02        		.byte	0x2
 14625 039b 0000 0000 		.long	.LSM73
 14626 039f 15        		.byte	0x15
 14627 03a0 00        		.byte	0x0
 14628 03a1 05        		.uleb128 0x5
 14629 03a2 02        		.byte	0x2
GAS LISTING /var/folders/1s/lqjcb7x5323625d47g9gdgmr0000gp/T//ccbjwlOH.s 			page 262


 14630 03a3 0000 0000 		.long	.LSM74
 14631 03a7 15        		.byte	0x15
 14632 03a8 00        		.byte	0x0
 14633 03a9 05        		.uleb128 0x5
 14634 03aa 02        		.byte	0x2
 14635 03ab 0000 0000 		.long	.LSM75
 14636 03af 15        		.byte	0x15
 14637 03b0 00        		.byte	0x0
 14638 03b1 05        		.uleb128 0x5
 14639 03b2 02        		.byte	0x2
 14640 03b3 0000 0000 		.long	.LSM76
 14641 03b7 15        		.byte	0x15
 14642 03b8 00        		.byte	0x0
 14643 03b9 05        		.uleb128 0x5
 14644 03ba 02        		.byte	0x2
 14645 03bb 0000 0000 		.long	.LSM77
 14646 03bf 15        		.byte	0x15
 14647 03c0 00        		.byte	0x0
 14648 03c1 05        		.uleb128 0x5
 14649 03c2 02        		.byte	0x2
 14650 03c3 0000 0000 		.long	.LSM78
 14651 03c7 15        		.byte	0x15
 14652 03c8 00        		.byte	0x0
 14653 03c9 05        		.uleb128 0x5
 14654 03ca 02        		.byte	0x2
 14655 03cb 0000 0000 		.long	.LSM79
 14656 03cf 15        		.byte	0x15
 14657 03d0 00        		.byte	0x0
 14658 03d1 05        		.uleb128 0x5
 14659 03d2 02        		.byte	0x2
 14660 03d3 0000 0000 		.long	.LFE114
 14661 03d7 00        		.byte	0x0
 14662 03d8 01        		.uleb128 0x1
 14663 03d9 01        		.byte	0x1
 14664 03da 00        		.byte	0x0
 14665 03db 05        		.uleb128 0x5
 14666 03dc 02        		.byte	0x2
 14667 03dd 0000 0000 		.long	.LSM80
 14668 03e1 03        		.byte	0x3
 14669 03e2 EF03      		.sleb128 495
 14670 03e4 01        		.byte	0x1
 14671 03e5 00        		.byte	0x0
 14672 03e6 05        		.uleb128 0x5
 14673 03e7 02        		.byte	0x2
 14674 03e8 0000 0000 		.long	.LSM81
 14675 03ec 16        		.byte	0x16
 14676 03ed 00        		.byte	0x0
 14677 03ee 05        		.uleb128 0x5
 14678 03ef 02        		.byte	0x2
 14679 03f0 0000 0000 		.long	.LSM82
 14680 03f4 15        		.byte	0x15
 14681 03f5 00        		.byte	0x0
 14682 03f6 05        		.uleb128 0x5
 14683 03f7 02        		.byte	0x2
 14684 03f8 0000 0000 		.long	.LFE113
 14685 03fc 00        		.byte	0x0
 14686 03fd 01        		.uleb128 0x1
GAS LISTING /var/folders/1s/lqjcb7x5323625d47g9gdgmr0000gp/T//ccbjwlOH.s 			page 263


 14687 03fe 01        		.byte	0x1
 14688 03ff 00        		.byte	0x0
 14689 0400 05        		.uleb128 0x5
 14690 0401 02        		.byte	0x2
 14691 0402 0000 0000 		.long	.LSM83
 14692 0406 03        		.byte	0x3
 14693 0407 DA03      		.sleb128 474
 14694 0409 01        		.byte	0x1
 14695 040a 00        		.byte	0x0
 14696 040b 05        		.uleb128 0x5
 14697 040c 02        		.byte	0x2
 14698 040d 0000 0000 		.long	.LSM84
 14699 0411 16        		.byte	0x16
 14700 0412 00        		.byte	0x0
 14701 0413 05        		.uleb128 0x5
 14702 0414 02        		.byte	0x2
 14703 0415 0000 0000 		.long	.LSM85
 14704 0419 15        		.byte	0x15
 14705 041a 00        		.byte	0x0
 14706 041b 05        		.uleb128 0x5
 14707 041c 02        		.byte	0x2
 14708 041d 0000 0000 		.long	.LSM86
 14709 0421 15        		.byte	0x15
 14710 0422 00        		.byte	0x0
 14711 0423 05        		.uleb128 0x5
 14712 0424 02        		.byte	0x2
 14713 0425 0000 0000 		.long	.LSM87
 14714 0429 15        		.byte	0x15
 14715 042a 00        		.byte	0x0
 14716 042b 05        		.uleb128 0x5
 14717 042c 02        		.byte	0x2
 14718 042d 0000 0000 		.long	.LSM88
 14719 0431 15        		.byte	0x15
 14720 0432 00        		.byte	0x0
 14721 0433 05        		.uleb128 0x5
 14722 0434 02        		.byte	0x2
 14723 0435 0000 0000 		.long	.LFE110
 14724 0439 00        		.byte	0x0
 14725 043a 01        		.uleb128 0x1
 14726 043b 01        		.byte	0x1
 14727 043c 00        		.byte	0x0
 14728 043d 05        		.uleb128 0x5
 14729 043e 02        		.byte	0x2
 14730 043f 0000 0000 		.long	.LSM89
 14731 0443 03        		.byte	0x3
 14732 0444 D503      		.sleb128 469
 14733 0446 01        		.byte	0x1
 14734 0447 00        		.byte	0x0
 14735 0448 05        		.uleb128 0x5
 14736 0449 02        		.byte	0x2
 14737 044a 0000 0000 		.long	.LSM90
 14738 044e 16        		.byte	0x16
 14739 044f 00        		.byte	0x0
 14740 0450 05        		.uleb128 0x5
 14741 0451 02        		.byte	0x2
 14742 0452 0000 0000 		.long	.LSM91
 14743 0456 15        		.byte	0x15
GAS LISTING /var/folders/1s/lqjcb7x5323625d47g9gdgmr0000gp/T//ccbjwlOH.s 			page 264


 14744 0457 00        		.byte	0x0
 14745 0458 05        		.uleb128 0x5
 14746 0459 02        		.byte	0x2
 14747 045a 0000 0000 		.long	.LFE109
 14748 045e 00        		.byte	0x0
 14749 045f 01        		.uleb128 0x1
 14750 0460 01        		.byte	0x1
 14751 0461 00        		.byte	0x0
 14752 0462 05        		.uleb128 0x5
 14753 0463 02        		.byte	0x2
 14754 0464 0000 0000 		.long	.LSM92
 14755 0468 03        		.byte	0x3
 14756 0469 C403      		.sleb128 452
 14757 046b 01        		.byte	0x1
 14758 046c 00        		.byte	0x0
 14759 046d 05        		.uleb128 0x5
 14760 046e 02        		.byte	0x2
 14761 046f 0000 0000 		.long	.LSM93
 14762 0473 16        		.byte	0x16
 14763 0474 00        		.byte	0x0
 14764 0475 05        		.uleb128 0x5
 14765 0476 02        		.byte	0x2
 14766 0477 0000 0000 		.long	.LSM94
 14767 047b 15        		.byte	0x15
 14768 047c 00        		.byte	0x0
 14769 047d 05        		.uleb128 0x5
 14770 047e 02        		.byte	0x2
 14771 047f 0000 0000 		.long	.LSM95
 14772 0483 15        		.byte	0x15
 14773 0484 00        		.byte	0x0
 14774 0485 05        		.uleb128 0x5
 14775 0486 02        		.byte	0x2
 14776 0487 0000 0000 		.long	.LSM96
 14777 048b 17        		.byte	0x17
 14778 048c 00        		.byte	0x0
 14779 048d 05        		.uleb128 0x5
 14780 048e 02        		.byte	0x2
 14781 048f 0000 0000 		.long	.LSM97
 14782 0493 16        		.byte	0x16
 14783 0494 00        		.byte	0x0
 14784 0495 05        		.uleb128 0x5
 14785 0496 02        		.byte	0x2
 14786 0497 0000 0000 		.long	.LSM98
 14787 049b 15        		.byte	0x15
 14788 049c 00        		.byte	0x0
 14789 049d 05        		.uleb128 0x5
 14790 049e 02        		.byte	0x2
 14791 049f 0000 0000 		.long	.LSM99
 14792 04a3 15        		.byte	0x15
 14793 04a4 00        		.byte	0x0
 14794 04a5 05        		.uleb128 0x5
 14795 04a6 02        		.byte	0x2
 14796 04a7 0000 0000 		.long	.LFE108
 14797 04ab 00        		.byte	0x0
 14798 04ac 01        		.uleb128 0x1
 14799 04ad 01        		.byte	0x1
 14800 04ae 00        		.byte	0x0
GAS LISTING /var/folders/1s/lqjcb7x5323625d47g9gdgmr0000gp/T//ccbjwlOH.s 			page 265


 14801 04af 05        		.uleb128 0x5
 14802 04b0 02        		.byte	0x2
 14803 04b1 0000 0000 		.long	.LSM100
 14804 04b5 03        		.byte	0x3
 14805 04b6 A003      		.sleb128 416
 14806 04b8 01        		.byte	0x1
 14807 04b9 00        		.byte	0x0
 14808 04ba 05        		.uleb128 0x5
 14809 04bb 02        		.byte	0x2
 14810 04bc 0000 0000 		.long	.LSM101
 14811 04c0 16        		.byte	0x16
 14812 04c1 00        		.byte	0x0
 14813 04c2 05        		.uleb128 0x5
 14814 04c3 02        		.byte	0x2
 14815 04c4 0000 0000 		.long	.LSM102
 14816 04c8 15        		.byte	0x15
 14817 04c9 00        		.byte	0x0
 14818 04ca 05        		.uleb128 0x5
 14819 04cb 02        		.byte	0x2
 14820 04cc 0000 0000 		.long	.LSM103
 14821 04d0 15        		.byte	0x15
 14822 04d1 00        		.byte	0x0
 14823 04d2 05        		.uleb128 0x5
 14824 04d3 02        		.byte	0x2
 14825 04d4 0000 0000 		.long	.LFE103
 14826 04d8 00        		.byte	0x0
 14827 04d9 01        		.uleb128 0x1
 14828 04da 01        		.byte	0x1
 14829 04db 00        		.byte	0x0
 14830 04dc 05        		.uleb128 0x5
 14831 04dd 02        		.byte	0x2
 14832 04de 0000 0000 		.long	.LSM104
 14833 04e2 03        		.byte	0x3
 14834 04e3 EC02      		.sleb128 364
 14835 04e5 01        		.byte	0x1
 14836 04e6 00        		.byte	0x0
 14837 04e7 05        		.uleb128 0x5
 14838 04e8 02        		.byte	0x2
 14839 04e9 0000 0000 		.long	.LSM105
 14840 04ed 16        		.byte	0x16
 14841 04ee 00        		.byte	0x0
 14842 04ef 05        		.uleb128 0x5
 14843 04f0 02        		.byte	0x2
 14844 04f1 0000 0000 		.long	.LSM106
 14845 04f5 15        		.byte	0x15
 14846 04f6 00        		.byte	0x0
 14847 04f7 05        		.uleb128 0x5
 14848 04f8 02        		.byte	0x2
 14849 04f9 0000 0000 		.long	.LSM107
 14850 04fd 15        		.byte	0x15
 14851 04fe 00        		.byte	0x0
 14852 04ff 05        		.uleb128 0x5
 14853 0500 02        		.byte	0x2
 14854 0501 0000 0000 		.long	.LSM108
 14855 0505 15        		.byte	0x15
 14856 0506 00        		.byte	0x0
 14857 0507 05        		.uleb128 0x5
GAS LISTING /var/folders/1s/lqjcb7x5323625d47g9gdgmr0000gp/T//ccbjwlOH.s 			page 266


 14858 0508 02        		.byte	0x2
 14859 0509 0000 0000 		.long	.LFE95
 14860 050d 00        		.byte	0x0
 14861 050e 01        		.uleb128 0x1
 14862 050f 01        		.byte	0x1
 14863 0510 00        		.byte	0x0
 14864 0511 05        		.uleb128 0x5
 14865 0512 02        		.byte	0x2
 14866 0513 0000 0000 		.long	.LSM109
 14867 0517 03        		.byte	0x3
 14868 0518 DD02      		.sleb128 349
 14869 051a 01        		.byte	0x1
 14870 051b 00        		.byte	0x0
 14871 051c 05        		.uleb128 0x5
 14872 051d 02        		.byte	0x2
 14873 051e 0000 0000 		.long	.LSM110
 14874 0522 16        		.byte	0x16
 14875 0523 00        		.byte	0x0
 14876 0524 05        		.uleb128 0x5
 14877 0525 02        		.byte	0x2
 14878 0526 0000 0000 		.long	.LSM111
 14879 052a 15        		.byte	0x15
 14880 052b 00        		.byte	0x0
 14881 052c 05        		.uleb128 0x5
 14882 052d 02        		.byte	0x2
 14883 052e 0000 0000 		.long	.LSM112
 14884 0532 15        		.byte	0x15
 14885 0533 00        		.byte	0x0
 14886 0534 05        		.uleb128 0x5
 14887 0535 02        		.byte	0x2
 14888 0536 0000 0000 		.long	.LSM113
 14889 053a 17        		.byte	0x17
 14890 053b 00        		.byte	0x0
 14891 053c 05        		.uleb128 0x5
 14892 053d 02        		.byte	0x2
 14893 053e 0000 0000 		.long	.LSM114
 14894 0542 15        		.byte	0x15
 14895 0543 00        		.byte	0x0
 14896 0544 05        		.uleb128 0x5
 14897 0545 02        		.byte	0x2
 14898 0546 0000 0000 		.long	.LFE93
 14899 054a 00        		.byte	0x0
 14900 054b 01        		.uleb128 0x1
 14901 054c 01        		.byte	0x1
 14902 054d 00        		.byte	0x0
 14903 054e 05        		.uleb128 0x5
 14904 054f 02        		.byte	0x2
 14905 0550 0000 0000 		.long	.LSM115
 14906 0554 03        		.byte	0x3
 14907 0555 8203      		.sleb128 386
 14908 0557 01        		.byte	0x1
 14909 0558 00        		.byte	0x0
 14910 0559 05        		.uleb128 0x5
 14911 055a 02        		.byte	0x2
 14912 055b 0000 0000 		.long	.LSM116
 14913 055f 16        		.byte	0x16
 14914 0560 00        		.byte	0x0
GAS LISTING /var/folders/1s/lqjcb7x5323625d47g9gdgmr0000gp/T//ccbjwlOH.s 			page 267


 14915 0561 05        		.uleb128 0x5
 14916 0562 02        		.byte	0x2
 14917 0563 0000 0000 		.long	.LSM117
 14918 0567 15        		.byte	0x15
 14919 0568 00        		.byte	0x0
 14920 0569 05        		.uleb128 0x5
 14921 056a 02        		.byte	0x2
 14922 056b 0000 0000 		.long	.LFE99
 14923 056f 00        		.byte	0x0
 14924 0570 01        		.uleb128 0x1
 14925 0571 01        		.byte	0x1
 14926 0572 00        		.byte	0x0
 14927 0573 05        		.uleb128 0x5
 14928 0574 02        		.byte	0x2
 14929 0575 0000 0000 		.long	.LSM118
 14930 0579 03        		.byte	0x3
 14931 057a FD02      		.sleb128 381
 14932 057c 01        		.byte	0x1
 14933 057d 00        		.byte	0x0
 14934 057e 05        		.uleb128 0x5
 14935 057f 02        		.byte	0x2
 14936 0580 0000 0000 		.long	.LSM119
 14937 0584 16        		.byte	0x16
 14938 0585 00        		.byte	0x0
 14939 0586 05        		.uleb128 0x5
 14940 0587 02        		.byte	0x2
 14941 0588 0000 0000 		.long	.LSM120
 14942 058c 15        		.byte	0x15
 14943 058d 00        		.byte	0x0
 14944 058e 05        		.uleb128 0x5
 14945 058f 02        		.byte	0x2
 14946 0590 0000 0000 		.long	.LFE98
 14947 0594 00        		.byte	0x0
 14948 0595 01        		.uleb128 0x1
 14949 0596 01        		.byte	0x1
 14950 0597 00        		.byte	0x0
 14951 0598 05        		.uleb128 0x5
 14952 0599 02        		.byte	0x2
 14953 059a 0000 0000 		.long	.LSM121
 14954 059e 03        		.byte	0x3
 14955 059f F802      		.sleb128 376
 14956 05a1 01        		.byte	0x1
 14957 05a2 00        		.byte	0x0
 14958 05a3 05        		.uleb128 0x5
 14959 05a4 02        		.byte	0x2
 14960 05a5 0000 0000 		.long	.LSM122
 14961 05a9 16        		.byte	0x16
 14962 05aa 00        		.byte	0x0
 14963 05ab 05        		.uleb128 0x5
 14964 05ac 02        		.byte	0x2
 14965 05ad 0000 0000 		.long	.LSM123
 14966 05b1 15        		.byte	0x15
 14967 05b2 00        		.byte	0x0
 14968 05b3 05        		.uleb128 0x5
 14969 05b4 02        		.byte	0x2
 14970 05b5 0000 0000 		.long	.LFE97
 14971 05b9 00        		.byte	0x0
GAS LISTING /var/folders/1s/lqjcb7x5323625d47g9gdgmr0000gp/T//ccbjwlOH.s 			page 268


 14972 05ba 01        		.uleb128 0x1
 14973 05bb 01        		.byte	0x1
 14974 05bc 00        		.byte	0x0
 14975 05bd 05        		.uleb128 0x5
 14976 05be 02        		.byte	0x2
 14977 05bf 0000 0000 		.long	.LSM124
 14978 05c3 03        		.byte	0x3
 14979 05c4 F302      		.sleb128 371
 14980 05c6 01        		.byte	0x1
 14981 05c7 00        		.byte	0x0
 14982 05c8 05        		.uleb128 0x5
 14983 05c9 02        		.byte	0x2
 14984 05ca 0000 0000 		.long	.LSM125
 14985 05ce 16        		.byte	0x16
 14986 05cf 00        		.byte	0x0
 14987 05d0 05        		.uleb128 0x5
 14988 05d1 02        		.byte	0x2
 14989 05d2 0000 0000 		.long	.LSM126
 14990 05d6 15        		.byte	0x15
 14991 05d7 00        		.byte	0x0
 14992 05d8 05        		.uleb128 0x5
 14993 05d9 02        		.byte	0x2
 14994 05da 0000 0000 		.long	.LFE96
 14995 05de 00        		.byte	0x0
 14996 05df 01        		.uleb128 0x1
 14997 05e0 01        		.byte	0x1
 14998 05e1 00        		.byte	0x0
 14999 05e2 05        		.uleb128 0x5
 15000 05e3 02        		.byte	0x2
 15001 05e4 0000 0000 		.long	.LSM127
 15002 05e8 03        		.byte	0x3
 15003 05e9 E702      		.sleb128 359
 15004 05eb 01        		.byte	0x1
 15005 05ec 00        		.byte	0x0
 15006 05ed 05        		.uleb128 0x5
 15007 05ee 02        		.byte	0x2
 15008 05ef 0000 0000 		.long	.LSM128
 15009 05f3 16        		.byte	0x16
 15010 05f4 00        		.byte	0x0
 15011 05f5 05        		.uleb128 0x5
 15012 05f6 02        		.byte	0x2
 15013 05f7 0000 0000 		.long	.LSM129
 15014 05fb 15        		.byte	0x15
 15015 05fc 00        		.byte	0x0
 15016 05fd 05        		.uleb128 0x5
 15017 05fe 02        		.byte	0x2
 15018 05ff 0000 0000 		.long	.LFE94
 15019 0603 00        		.byte	0x0
 15020 0604 01        		.uleb128 0x1
 15021 0605 01        		.byte	0x1
 15022 0606 00        		.byte	0x0
 15023 0607 05        		.uleb128 0x5
 15024 0608 02        		.byte	0x2
 15025 0609 0000 0000 		.long	.LSM130
 15026 060d 03        		.byte	0x3
 15027 060e 9A03      		.sleb128 410
 15028 0610 01        		.byte	0x1
GAS LISTING /var/folders/1s/lqjcb7x5323625d47g9gdgmr0000gp/T//ccbjwlOH.s 			page 269


 15029 0611 00        		.byte	0x0
 15030 0612 05        		.uleb128 0x5
 15031 0613 02        		.byte	0x2
 15032 0614 0000 0000 		.long	.LSM131
 15033 0618 16        		.byte	0x16
 15034 0619 00        		.byte	0x0
 15035 061a 05        		.uleb128 0x5
 15036 061b 02        		.byte	0x2
 15037 061c 0000 0000 		.long	.LSM132
 15038 0620 15        		.byte	0x15
 15039 0621 00        		.byte	0x0
 15040 0622 05        		.uleb128 0x5
 15041 0623 02        		.byte	0x2
 15042 0624 0000 0000 		.long	.LSM133
 15043 0628 15        		.byte	0x15
 15044 0629 00        		.byte	0x0
 15045 062a 05        		.uleb128 0x5
 15046 062b 02        		.byte	0x2
 15047 062c 0000 0000 		.long	.LFE102
 15048 0630 00        		.byte	0x0
 15049 0631 01        		.uleb128 0x1
 15050 0632 01        		.byte	0x1
 15051 0633 00        		.byte	0x0
 15052 0634 05        		.uleb128 0x5
 15053 0635 02        		.byte	0x2
 15054 0636 0000 0000 		.long	.LSM134
 15055 063a 03        		.byte	0x3
 15056 063b 9403      		.sleb128 404
 15057 063d 01        		.byte	0x1
 15058 063e 00        		.byte	0x0
 15059 063f 05        		.uleb128 0x5
 15060 0640 02        		.byte	0x2
 15061 0641 0000 0000 		.long	.LSM135
 15062 0645 16        		.byte	0x16
 15063 0646 00        		.byte	0x0
 15064 0647 05        		.uleb128 0x5
 15065 0648 02        		.byte	0x2
 15066 0649 0000 0000 		.long	.LSM136
 15067 064d 15        		.byte	0x15
 15068 064e 00        		.byte	0x0
 15069 064f 05        		.uleb128 0x5
 15070 0650 02        		.byte	0x2
 15071 0651 0000 0000 		.long	.LSM137
 15072 0655 15        		.byte	0x15
 15073 0656 00        		.byte	0x0
 15074 0657 05        		.uleb128 0x5
 15075 0658 02        		.byte	0x2
 15076 0659 0000 0000 		.long	.LFE101
 15077 065d 00        		.byte	0x0
 15078 065e 01        		.uleb128 0x1
 15079 065f 01        		.byte	0x1
 15080 0660 00        		.byte	0x0
 15081 0661 05        		.uleb128 0x5
 15082 0662 02        		.byte	0x2
 15083 0663 0000 0000 		.long	.LSM138
 15084 0667 9C        		.byte	0x9c
 15085 0668 00        		.byte	0x0
GAS LISTING /var/folders/1s/lqjcb7x5323625d47g9gdgmr0000gp/T//ccbjwlOH.s 			page 270


 15086 0669 05        		.uleb128 0x5
 15087 066a 02        		.byte	0x2
 15088 066b 0000 0000 		.long	.LSM139
 15089 066f 16        		.byte	0x16
 15090 0670 00        		.byte	0x0
 15091 0671 05        		.uleb128 0x5
 15092 0672 02        		.byte	0x2
 15093 0673 0000 0000 		.long	.LSM140
 15094 0677 15        		.byte	0x15
 15095 0678 00        		.byte	0x0
 15096 0679 05        		.uleb128 0x5
 15097 067a 02        		.byte	0x2
 15098 067b 0000 0000 		.long	.LSM141
 15099 067f 15        		.byte	0x15
 15100 0680 00        		.byte	0x0
 15101 0681 05        		.uleb128 0x5
 15102 0682 02        		.byte	0x2
 15103 0683 0000 0000 		.long	.LSM142
 15104 0687 15        		.byte	0x15
 15105 0688 00        		.byte	0x0
 15106 0689 05        		.uleb128 0x5
 15107 068a 02        		.byte	0x2
 15108 068b 0000 0000 		.long	.LSM143
 15109 068f 18        		.byte	0x18
 15110 0690 00        		.byte	0x0
 15111 0691 05        		.uleb128 0x5
 15112 0692 02        		.byte	0x2
 15113 0693 0000 0000 		.long	.LFE72
 15114 0697 00        		.byte	0x0
 15115 0698 01        		.uleb128 0x1
 15116 0699 01        		.byte	0x1
 15117 069a 00        		.byte	0x0
 15118 069b 05        		.uleb128 0x5
 15119 069c 02        		.byte	0x2
 15120 069d 0000 0000 		.long	.LSM144
 15121 06a1 03        		.byte	0x3
 15122 06a2 B304      		.sleb128 563
 15123 06a4 01        		.byte	0x1
 15124 06a5 00        		.byte	0x0
 15125 06a6 05        		.uleb128 0x5
 15126 06a7 02        		.byte	0x2
 15127 06a8 0000 0000 		.long	.LSM145
 15128 06ac 16        		.byte	0x16
 15129 06ad 00        		.byte	0x0
 15130 06ae 05        		.uleb128 0x5
 15131 06af 02        		.byte	0x2
 15132 06b0 0000 0000 		.long	.LSM146
 15133 06b4 15        		.byte	0x15
 15134 06b5 00        		.byte	0x0
 15135 06b6 05        		.uleb128 0x5
 15136 06b7 02        		.byte	0x2
 15137 06b8 0000 0000 		.long	.LSM147
 15138 06bc 15        		.byte	0x15
 15139 06bd 00        		.byte	0x0
 15140 06be 05        		.uleb128 0x5
 15141 06bf 02        		.byte	0x2
 15142 06c0 0000 0000 		.long	.LSM148
GAS LISTING /var/folders/1s/lqjcb7x5323625d47g9gdgmr0000gp/T//ccbjwlOH.s 			page 271


 15143 06c4 16        		.byte	0x16
 15144 06c5 00        		.byte	0x0
 15145 06c6 05        		.uleb128 0x5
 15146 06c7 02        		.byte	0x2
 15147 06c8 0000 0000 		.long	.LSM149
 15148 06cc 16        		.byte	0x16
 15149 06cd 00        		.byte	0x0
 15150 06ce 05        		.uleb128 0x5
 15151 06cf 02        		.byte	0x2
 15152 06d0 0000 0000 		.long	.LSM150
 15153 06d4 15        		.byte	0x15
 15154 06d5 00        		.byte	0x0
 15155 06d6 05        		.uleb128 0x5
 15156 06d7 02        		.byte	0x2
 15157 06d8 0000 0000 		.long	.LSM151
 15158 06dc 12        		.byte	0x12
 15159 06dd 00        		.byte	0x0
 15160 06de 05        		.uleb128 0x5
 15161 06df 02        		.byte	0x2
 15162 06e0 0000 0000 		.long	.LSM152
 15163 06e4 18        		.byte	0x18
 15164 06e5 00        		.byte	0x0
 15165 06e6 05        		.uleb128 0x5
 15166 06e7 02        		.byte	0x2
 15167 06e8 0000 0000 		.long	.LSM153
 15168 06ec 22        		.byte	0x22
 15169 06ed 00        		.byte	0x0
 15170 06ee 05        		.uleb128 0x5
 15171 06ef 02        		.byte	0x2
 15172 06f0 0000 0000 		.long	.LSM154
 15173 06f4 03        		.byte	0x3
 15174 06f5 75        		.sleb128 -11
 15175 06f6 01        		.byte	0x1
 15176 06f7 00        		.byte	0x0
 15177 06f8 05        		.uleb128 0x5
 15178 06f9 02        		.byte	0x2
 15179 06fa 0000 0000 		.long	.LSM155
 15180 06fe 15        		.byte	0x15
 15181 06ff 00        		.byte	0x0
 15182 0700 05        		.uleb128 0x5
 15183 0701 02        		.byte	0x2
 15184 0702 0000 0000 		.long	.LSM156
 15185 0706 15        		.byte	0x15
 15186 0707 00        		.byte	0x0
 15187 0708 05        		.uleb128 0x5
 15188 0709 02        		.byte	0x2
 15189 070a 0000 0000 		.long	.LSM157
 15190 070e 15        		.byte	0x15
 15191 070f 00        		.byte	0x0
 15192 0710 05        		.uleb128 0x5
 15193 0711 02        		.byte	0x2
 15194 0712 0000 0000 		.long	.LSM158
 15195 0716 15        		.byte	0x15
 15196 0717 00        		.byte	0x0
 15197 0718 05        		.uleb128 0x5
 15198 0719 02        		.byte	0x2
 15199 071a 0000 0000 		.long	.LSM159
GAS LISTING /var/folders/1s/lqjcb7x5323625d47g9gdgmr0000gp/T//ccbjwlOH.s 			page 272


 15200 071e 15        		.byte	0x15
 15201 071f 00        		.byte	0x0
 15202 0720 05        		.uleb128 0x5
 15203 0721 02        		.byte	0x2
 15204 0722 0000 0000 		.long	.LSM160
 15205 0726 15        		.byte	0x15
 15206 0727 00        		.byte	0x0
 15207 0728 05        		.uleb128 0x5
 15208 0729 02        		.byte	0x2
 15209 072a 0000 0000 		.long	.LSM161
 15210 072e 0D        		.byte	0xd
 15211 072f 00        		.byte	0x0
 15212 0730 05        		.uleb128 0x5
 15213 0731 02        		.byte	0x2
 15214 0732 0000 0000 		.long	.LSM162
 15215 0736 1D        		.byte	0x1d
 15216 0737 00        		.byte	0x0
 15217 0738 05        		.uleb128 0x5
 15218 0739 02        		.byte	0x2
 15219 073a 0000 0000 		.long	.LSM163
 15220 073e 18        		.byte	0x18
 15221 073f 00        		.byte	0x0
 15222 0740 05        		.uleb128 0x5
 15223 0741 02        		.byte	0x2
 15224 0742 0000 0000 		.long	.LSM164
 15225 0746 15        		.byte	0x15
 15226 0747 00        		.byte	0x0
 15227 0748 05        		.uleb128 0x5
 15228 0749 02        		.byte	0x2
 15229 074a 0000 0000 		.long	.LSM165
 15230 074e 12        		.byte	0x12
 15231 074f 00        		.byte	0x0
 15232 0750 05        		.uleb128 0x5
 15233 0751 02        		.byte	0x2
 15234 0752 0000 0000 		.long	.LSM166
 15235 0756 18        		.byte	0x18
 15236 0757 00        		.byte	0x0
 15237 0758 05        		.uleb128 0x5
 15238 0759 02        		.byte	0x2
 15239 075a 0000 0000 		.long	.LSM167
 15240 075e 15        		.byte	0x15
 15241 075f 00        		.byte	0x0
 15242 0760 05        		.uleb128 0x5
 15243 0761 02        		.byte	0x2
 15244 0762 0000 0000 		.long	.LSM168
 15245 0766 16        		.byte	0x16
 15246 0767 00        		.byte	0x0
 15247 0768 05        		.uleb128 0x5
 15248 0769 02        		.byte	0x2
 15249 076a 0000 0000 		.long	.LSM169
 15250 076e 15        		.byte	0x15
 15251 076f 00        		.byte	0x0
 15252 0770 05        		.uleb128 0x5
 15253 0771 02        		.byte	0x2
 15254 0772 0000 0000 		.long	.LSM170
 15255 0776 15        		.byte	0x15
 15256 0777 00        		.byte	0x0
GAS LISTING /var/folders/1s/lqjcb7x5323625d47g9gdgmr0000gp/T//ccbjwlOH.s 			page 273


 15257 0778 05        		.uleb128 0x5
 15258 0779 02        		.byte	0x2
 15259 077a 0000 0000 		.long	.LSM171
 15260 077e 15        		.byte	0x15
 15261 077f 00        		.byte	0x0
 15262 0780 05        		.uleb128 0x5
 15263 0781 02        		.byte	0x2
 15264 0782 0000 0000 		.long	.LSM172
 15265 0786 15        		.byte	0x15
 15266 0787 00        		.byte	0x0
 15267 0788 05        		.uleb128 0x5
 15268 0789 02        		.byte	0x2
 15269 078a 0000 0000 		.long	.LSM173
 15270 078e 15        		.byte	0x15
 15271 078f 00        		.byte	0x0
 15272 0790 05        		.uleb128 0x5
 15273 0791 02        		.byte	0x2
 15274 0792 0000 0000 		.long	.LSM174
 15275 0796 15        		.byte	0x15
 15276 0797 00        		.byte	0x0
 15277 0798 05        		.uleb128 0x5
 15278 0799 02        		.byte	0x2
 15279 079a 0000 0000 		.long	.LSM175
 15280 079e 0D        		.byte	0xd
 15281 079f 00        		.byte	0x0
 15282 07a0 05        		.uleb128 0x5
 15283 07a1 02        		.byte	0x2
 15284 07a2 0000 0000 		.long	.LSM176
 15285 07a6 15        		.byte	0x15
 15286 07a7 00        		.byte	0x0
 15287 07a8 05        		.uleb128 0x5
 15288 07a9 02        		.byte	0x2
 15289 07aa 0000 0000 		.long	.LSM177
 15290 07ae 1D        		.byte	0x1d
 15291 07af 00        		.byte	0x0
 15292 07b0 05        		.uleb128 0x5
 15293 07b1 02        		.byte	0x2
 15294 07b2 0000 0000 		.long	.LFE120
 15295 07b6 00        		.byte	0x0
 15296 07b7 01        		.uleb128 0x1
 15297 07b8 01        		.byte	0x1
 15298 07b9 00        		.byte	0x0
 15299 07ba 05        		.uleb128 0x5
 15300 07bb 02        		.byte	0x2
 15301 07bc 0000 0000 		.long	.LSM178
 15302 07c0 92        		.byte	0x92
 15303 07c1 00        		.byte	0x0
 15304 07c2 05        		.uleb128 0x5
 15305 07c3 02        		.byte	0x2
 15306 07c4 0000 0000 		.long	.LSM179
 15307 07c8 16        		.byte	0x16
 15308 07c9 00        		.byte	0x0
 15309 07ca 05        		.uleb128 0x5
 15310 07cb 02        		.byte	0x2
 15311 07cc 0000 0000 		.long	.LSM180
 15312 07d0 15        		.byte	0x15
 15313 07d1 00        		.byte	0x0
GAS LISTING /var/folders/1s/lqjcb7x5323625d47g9gdgmr0000gp/T//ccbjwlOH.s 			page 274


 15314 07d2 05        		.uleb128 0x5
 15315 07d3 02        		.byte	0x2
 15316 07d4 0000 0000 		.long	.LSM181
 15317 07d8 15        		.byte	0x15
 15318 07d9 00        		.byte	0x0
 15319 07da 05        		.uleb128 0x5
 15320 07db 02        		.byte	0x2
 15321 07dc 0000 0000 		.long	.LSM182
 15322 07e0 18        		.byte	0x18
 15323 07e1 00        		.byte	0x0
 15324 07e2 05        		.uleb128 0x5
 15325 07e3 02        		.byte	0x2
 15326 07e4 0000 0000 		.long	.LFE71
 15327 07e8 00        		.byte	0x0
 15328 07e9 01        		.uleb128 0x1
 15329 07ea 01        		.byte	0x1
 15330 07eb 00        		.byte	0x0
 15331 07ec 05        		.uleb128 0x5
 15332 07ed 02        		.byte	0x2
 15333 07ee 0000 0000 		.long	.LSM183
 15334 07f2 F5        		.byte	0xf5
 15335 07f3 00        		.byte	0x0
 15336 07f4 05        		.uleb128 0x5
 15337 07f5 02        		.byte	0x2
 15338 07f6 0000 0000 		.long	.LSM184
 15339 07fa 16        		.byte	0x16
 15340 07fb 00        		.byte	0x0
 15341 07fc 05        		.uleb128 0x5
 15342 07fd 02        		.byte	0x2
 15343 07fe 0000 0000 		.long	.LSM185
 15344 0802 15        		.byte	0x15
 15345 0803 00        		.byte	0x0
 15346 0804 05        		.uleb128 0x5
 15347 0805 02        		.byte	0x2
 15348 0806 0000 0000 		.long	.LSM186
 15349 080a 15        		.byte	0x15
 15350 080b 00        		.byte	0x0
 15351 080c 05        		.uleb128 0x5
 15352 080d 02        		.byte	0x2
 15353 080e 0000 0000 		.long	.LSM187
 15354 0812 12        		.byte	0x12
 15355 0813 00        		.byte	0x0
 15356 0814 05        		.uleb128 0x5
 15357 0815 02        		.byte	0x2
 15358 0816 0000 0000 		.long	.LSM188
 15359 081a 17        		.byte	0x17
 15360 081b 00        		.byte	0x0
 15361 081c 05        		.uleb128 0x5
 15362 081d 02        		.byte	0x2
 15363 081e 0000 0000 		.long	.LSM189
 15364 0822 15        		.byte	0x15
 15365 0823 00        		.byte	0x0
 15366 0824 05        		.uleb128 0x5
 15367 0825 02        		.byte	0x2
 15368 0826 0000 0000 		.long	.LSM190
 15369 082a 15        		.byte	0x15
 15370 082b 00        		.byte	0x0
GAS LISTING /var/folders/1s/lqjcb7x5323625d47g9gdgmr0000gp/T//ccbjwlOH.s 			page 275


 15371 082c 05        		.uleb128 0x5
 15372 082d 02        		.byte	0x2
 15373 082e 0000 0000 		.long	.LSM191
 15374 0832 15        		.byte	0x15
 15375 0833 00        		.byte	0x0
 15376 0834 05        		.uleb128 0x5
 15377 0835 02        		.byte	0x2
 15378 0836 0000 0000 		.long	.LSM192
 15379 083a 15        		.byte	0x15
 15380 083b 00        		.byte	0x0
 15381 083c 05        		.uleb128 0x5
 15382 083d 02        		.byte	0x2
 15383 083e 0000 0000 		.long	.LFE77
 15384 0842 00        		.byte	0x0
 15385 0843 01        		.uleb128 0x1
 15386 0844 01        		.byte	0x1
 15387 0845 00        		.byte	0x0
 15388 0846 05        		.uleb128 0x5
 15389 0847 02        		.byte	0x2
 15390 0848 0000 0000 		.long	.LSM193
 15391 084c 03        		.byte	0x3
 15392 084d 9602      		.sleb128 278
 15393 084f 01        		.byte	0x1
 15394 0850 00        		.byte	0x0
 15395 0851 05        		.uleb128 0x5
 15396 0852 02        		.byte	0x2
 15397 0853 0000 0000 		.long	.LSM194
 15398 0857 17        		.byte	0x17
 15399 0858 00        		.byte	0x0
 15400 0859 05        		.uleb128 0x5
 15401 085a 02        		.byte	0x2
 15402 085b 0000 0000 		.long	.LSM195
 15403 085f 15        		.byte	0x15
 15404 0860 00        		.byte	0x0
 15405 0861 05        		.uleb128 0x5
 15406 0862 02        		.byte	0x2
 15407 0863 0000 0000 		.long	.LSM196
 15408 0867 15        		.byte	0x15
 15409 0868 00        		.byte	0x0
 15410 0869 05        		.uleb128 0x5
 15411 086a 02        		.byte	0x2
 15412 086b 0000 0000 		.long	.LFE84
 15413 086f 00        		.byte	0x0
 15414 0870 01        		.uleb128 0x1
 15415 0871 01        		.byte	0x1
 15416 0872 00        		.byte	0x0
 15417 0873 05        		.uleb128 0x5
 15418 0874 02        		.byte	0x2
 15419 0875 0000 0000 		.long	.LSM197
 15420 0879 03        		.byte	0x3
 15421 087a 8F02      		.sleb128 271
 15422 087c 01        		.byte	0x1
 15423 087d 00        		.byte	0x0
 15424 087e 05        		.uleb128 0x5
 15425 087f 02        		.byte	0x2
 15426 0880 0000 0000 		.long	.LSM198
 15427 0884 17        		.byte	0x17
GAS LISTING /var/folders/1s/lqjcb7x5323625d47g9gdgmr0000gp/T//ccbjwlOH.s 			page 276


 15428 0885 00        		.byte	0x0
 15429 0886 05        		.uleb128 0x5
 15430 0887 02        		.byte	0x2
 15431 0888 0000 0000 		.long	.LSM199
 15432 088c 15        		.byte	0x15
 15433 088d 00        		.byte	0x0
 15434 088e 05        		.uleb128 0x5
 15435 088f 02        		.byte	0x2
 15436 0890 0000 0000 		.long	.LSM200
 15437 0894 15        		.byte	0x15
 15438 0895 00        		.byte	0x0
 15439 0896 05        		.uleb128 0x5
 15440 0897 02        		.byte	0x2
 15441 0898 0000 0000 		.long	.LFE83
 15442 089c 00        		.byte	0x0
 15443 089d 01        		.uleb128 0x1
 15444 089e 01        		.byte	0x1
 15445 089f 00        		.byte	0x0
 15446 08a0 05        		.uleb128 0x5
 15447 08a1 02        		.byte	0x2
 15448 08a2 0000 0000 		.long	.LSM201
 15449 08a6 03        		.byte	0x3
 15450 08a7 8802      		.sleb128 264
 15451 08a9 01        		.byte	0x1
 15452 08aa 00        		.byte	0x0
 15453 08ab 05        		.uleb128 0x5
 15454 08ac 02        		.byte	0x2
 15455 08ad 0000 0000 		.long	.LSM202
 15456 08b1 17        		.byte	0x17
 15457 08b2 00        		.byte	0x0
 15458 08b3 05        		.uleb128 0x5
 15459 08b4 02        		.byte	0x2
 15460 08b5 0000 0000 		.long	.LSM203
 15461 08b9 15        		.byte	0x15
 15462 08ba 00        		.byte	0x0
 15463 08bb 05        		.uleb128 0x5
 15464 08bc 02        		.byte	0x2
 15465 08bd 0000 0000 		.long	.LSM204
 15466 08c1 15        		.byte	0x15
 15467 08c2 00        		.byte	0x0
 15468 08c3 05        		.uleb128 0x5
 15469 08c4 02        		.byte	0x2
 15470 08c5 0000 0000 		.long	.LFE82
 15471 08c9 00        		.byte	0x0
 15472 08ca 01        		.uleb128 0x1
 15473 08cb 01        		.byte	0x1
 15474 08cc 00        		.byte	0x0
 15475 08cd 05        		.uleb128 0x5
 15476 08ce 02        		.byte	0x2
 15477 08cf 0000 0000 		.long	.LSM205
 15478 08d3 03        		.byte	0x3
 15479 08d4 8102      		.sleb128 257
 15480 08d6 01        		.byte	0x1
 15481 08d7 00        		.byte	0x0
 15482 08d8 05        		.uleb128 0x5
 15483 08d9 02        		.byte	0x2
 15484 08da 0000 0000 		.long	.LSM206
GAS LISTING /var/folders/1s/lqjcb7x5323625d47g9gdgmr0000gp/T//ccbjwlOH.s 			page 277


 15485 08de 17        		.byte	0x17
 15486 08df 00        		.byte	0x0
 15487 08e0 05        		.uleb128 0x5
 15488 08e1 02        		.byte	0x2
 15489 08e2 0000 0000 		.long	.LSM207
 15490 08e6 15        		.byte	0x15
 15491 08e7 00        		.byte	0x0
 15492 08e8 05        		.uleb128 0x5
 15493 08e9 02        		.byte	0x2
 15494 08ea 0000 0000 		.long	.LSM208
 15495 08ee 15        		.byte	0x15
 15496 08ef 00        		.byte	0x0
 15497 08f0 05        		.uleb128 0x5
 15498 08f1 02        		.byte	0x2
 15499 08f2 0000 0000 		.long	.LFE81
 15500 08f6 00        		.byte	0x0
 15501 08f7 01        		.uleb128 0x1
 15502 08f8 01        		.byte	0x1
 15503 08f9 00        		.byte	0x0
 15504 08fa 05        		.uleb128 0x5
 15505 08fb 02        		.byte	0x2
 15506 08fc 0000 0000 		.long	.LSM209
 15507 0900 03        		.byte	0x3
 15508 0901 FA01      		.sleb128 250
 15509 0903 01        		.byte	0x1
 15510 0904 00        		.byte	0x0
 15511 0905 05        		.uleb128 0x5
 15512 0906 02        		.byte	0x2
 15513 0907 0000 0000 		.long	.LSM210
 15514 090b 17        		.byte	0x17
 15515 090c 00        		.byte	0x0
 15516 090d 05        		.uleb128 0x5
 15517 090e 02        		.byte	0x2
 15518 090f 0000 0000 		.long	.LSM211
 15519 0913 15        		.byte	0x15
 15520 0914 00        		.byte	0x0
 15521 0915 05        		.uleb128 0x5
 15522 0916 02        		.byte	0x2
 15523 0917 0000 0000 		.long	.LSM212
 15524 091b 15        		.byte	0x15
 15525 091c 00        		.byte	0x0
 15526 091d 05        		.uleb128 0x5
 15527 091e 02        		.byte	0x2
 15528 091f 0000 0000 		.long	.LFE80
 15529 0923 00        		.byte	0x0
 15530 0924 01        		.uleb128 0x1
 15531 0925 01        		.byte	0x1
 15532 0926 00        		.byte	0x0
 15533 0927 05        		.uleb128 0x5
 15534 0928 02        		.byte	0x2
 15535 0929 0000 0000 		.long	.LSM213
 15536 092d 03        		.byte	0x3
 15537 092e F201      		.sleb128 242
 15538 0930 01        		.byte	0x1
 15539 0931 00        		.byte	0x0
 15540 0932 05        		.uleb128 0x5
 15541 0933 02        		.byte	0x2
GAS LISTING /var/folders/1s/lqjcb7x5323625d47g9gdgmr0000gp/T//ccbjwlOH.s 			page 278


 15542 0934 0000 0000 		.long	.LSM214
 15543 0938 17        		.byte	0x17
 15544 0939 00        		.byte	0x0
 15545 093a 05        		.uleb128 0x5
 15546 093b 02        		.byte	0x2
 15547 093c 0000 0000 		.long	.LSM215
 15548 0940 15        		.byte	0x15
 15549 0941 00        		.byte	0x0
 15550 0942 05        		.uleb128 0x5
 15551 0943 02        		.byte	0x2
 15552 0944 0000 0000 		.long	.LSM216
 15553 0948 15        		.byte	0x15
 15554 0949 00        		.byte	0x0
 15555 094a 05        		.uleb128 0x5
 15556 094b 02        		.byte	0x2
 15557 094c 0000 0000 		.long	.LSM217
 15558 0950 15        		.byte	0x15
 15559 0951 00        		.byte	0x0
 15560 0952 05        		.uleb128 0x5
 15561 0953 02        		.byte	0x2
 15562 0954 0000 0000 		.long	.LFE79
 15563 0958 00        		.byte	0x0
 15564 0959 01        		.uleb128 0x1
 15565 095a 01        		.byte	0x1
 15566 095b 00        		.byte	0x0
 15567 095c 05        		.uleb128 0x5
 15568 095d 02        		.byte	0x2
 15569 095e 0000 0000 		.long	.LSM218
 15570 0962 03        		.byte	0x3
 15571 0963 EC01      		.sleb128 236
 15572 0965 01        		.byte	0x1
 15573 0966 00        		.byte	0x0
 15574 0967 05        		.uleb128 0x5
 15575 0968 02        		.byte	0x2
 15576 0969 0000 0000 		.long	.LSM219
 15577 096d 16        		.byte	0x16
 15578 096e 00        		.byte	0x0
 15579 096f 05        		.uleb128 0x5
 15580 0970 02        		.byte	0x2
 15581 0971 0000 0000 		.long	.LSM220
 15582 0975 15        		.byte	0x15
 15583 0976 00        		.byte	0x0
 15584 0977 05        		.uleb128 0x5
 15585 0978 02        		.byte	0x2
 15586 0979 0000 0000 		.long	.LSM221
 15587 097d 15        		.byte	0x15
 15588 097e 00        		.byte	0x0
 15589 097f 05        		.uleb128 0x5
 15590 0980 02        		.byte	0x2
 15591 0981 0000 0000 		.long	.LFE78
 15592 0985 00        		.byte	0x0
 15593 0986 01        		.uleb128 0x1
 15594 0987 01        		.byte	0x1
 15595 0988 00        		.byte	0x0
 15596 0989 05        		.uleb128 0x5
 15597 098a 02        		.byte	0x2
 15598 098b 0000 0000 		.long	.LSM222
GAS LISTING /var/folders/1s/lqjcb7x5323625d47g9gdgmr0000gp/T//ccbjwlOH.s 			page 279


 15599 098f F0        		.byte	0xf0
 15600 0990 00        		.byte	0x0
 15601 0991 05        		.uleb128 0x5
 15602 0992 02        		.byte	0x2
 15603 0993 0000 0000 		.long	.LSM223
 15604 0997 16        		.byte	0x16
 15605 0998 00        		.byte	0x0
 15606 0999 05        		.uleb128 0x5
 15607 099a 02        		.byte	0x2
 15608 099b 0000 0000 		.long	.LSM224
 15609 099f 15        		.byte	0x15
 15610 09a0 00        		.byte	0x0
 15611 09a1 05        		.uleb128 0x5
 15612 09a2 02        		.byte	0x2
 15613 09a3 0000 0000 		.long	.LFE76
 15614 09a7 00        		.byte	0x0
 15615 09a8 01        		.uleb128 0x1
 15616 09a9 01        		.byte	0x1
 15617 09aa 00        		.byte	0x0
 15618 09ab 05        		.uleb128 0x5
 15619 09ac 02        		.byte	0x2
 15620 09ad 0000 0000 		.long	.LSM225
 15621 09b1 8B        		.byte	0x8b
 15622 09b2 00        		.byte	0x0
 15623 09b3 05        		.uleb128 0x5
 15624 09b4 02        		.byte	0x2
 15625 09b5 0000 0000 		.long	.LSM226
 15626 09b9 16        		.byte	0x16
 15627 09ba 00        		.byte	0x0
 15628 09bb 05        		.uleb128 0x5
 15629 09bc 02        		.byte	0x2
 15630 09bd 0000 0000 		.long	.LSM227
 15631 09c1 15        		.byte	0x15
 15632 09c2 00        		.byte	0x0
 15633 09c3 05        		.uleb128 0x5
 15634 09c4 02        		.byte	0x2
 15635 09c5 0000 0000 		.long	.LSM228
 15636 09c9 15        		.byte	0x15
 15637 09ca 00        		.byte	0x0
 15638 09cb 05        		.uleb128 0x5
 15639 09cc 02        		.byte	0x2
 15640 09cd 0000 0000 		.long	.LSM229
 15641 09d1 15        		.byte	0x15
 15642 09d2 00        		.byte	0x0
 15643 09d3 05        		.uleb128 0x5
 15644 09d4 02        		.byte	0x2
 15645 09d5 0000 0000 		.long	.LFE70
 15646 09d9 00        		.byte	0x0
 15647 09da 01        		.uleb128 0x1
 15648 09db 01        		.byte	0x1
 15649 09dc 00        		.byte	0x0
 15650 09dd 05        		.uleb128 0x5
 15651 09de 02        		.byte	0x2
 15652 09df 0000 0000 		.long	.LSM230
 15653 09e3 03        		.byte	0x3
 15654 09e4 D202      		.sleb128 338
 15655 09e6 01        		.byte	0x1
GAS LISTING /var/folders/1s/lqjcb7x5323625d47g9gdgmr0000gp/T//ccbjwlOH.s 			page 280


 15656 09e7 00        		.byte	0x0
 15657 09e8 05        		.uleb128 0x5
 15658 09e9 02        		.byte	0x2
 15659 09ea 0000 0000 		.long	.LSM231
 15660 09ee 17        		.byte	0x17
 15661 09ef 00        		.byte	0x0
 15662 09f0 05        		.uleb128 0x5
 15663 09f1 02        		.byte	0x2
 15664 09f2 0000 0000 		.long	.LSM232
 15665 09f6 16        		.byte	0x16
 15666 09f7 00        		.byte	0x0
 15667 09f8 05        		.uleb128 0x5
 15668 09f9 02        		.byte	0x2
 15669 09fa 0000 0000 		.long	.LFE92
 15670 09fe 00        		.byte	0x0
 15671 09ff 01        		.uleb128 0x1
 15672 0a00 01        		.byte	0x1
 15673 0a01 00        		.byte	0x0
 15674 0a02 05        		.uleb128 0x5
 15675 0a03 02        		.byte	0x2
 15676 0a04 0000 0000 		.long	.LSM233
 15677 0a08 03        		.byte	0x3
 15678 0a09 CB02      		.sleb128 331
 15679 0a0b 01        		.byte	0x1
 15680 0a0c 00        		.byte	0x0
 15681 0a0d 05        		.uleb128 0x5
 15682 0a0e 02        		.byte	0x2
 15683 0a0f 0000 0000 		.long	.LSM234
 15684 0a13 17        		.byte	0x17
 15685 0a14 00        		.byte	0x0
 15686 0a15 05        		.uleb128 0x5
 15687 0a16 02        		.byte	0x2
 15688 0a17 0000 0000 		.long	.LSM235
 15689 0a1b 16        		.byte	0x16
 15690 0a1c 00        		.byte	0x0
 15691 0a1d 05        		.uleb128 0x5
 15692 0a1e 02        		.byte	0x2
 15693 0a1f 0000 0000 		.long	.LFE91
 15694 0a23 00        		.byte	0x0
 15695 0a24 01        		.uleb128 0x1
 15696 0a25 01        		.byte	0x1
 15697 0a26 00        		.byte	0x0
 15698 0a27 05        		.uleb128 0x5
 15699 0a28 02        		.byte	0x2
 15700 0a29 0000 0000 		.long	.LSM236
 15701 0a2d 03        		.byte	0x3
 15702 0a2e C402      		.sleb128 324
 15703 0a30 01        		.byte	0x1
 15704 0a31 00        		.byte	0x0
 15705 0a32 05        		.uleb128 0x5
 15706 0a33 02        		.byte	0x2
 15707 0a34 0000 0000 		.long	.LSM237
 15708 0a38 17        		.byte	0x17
 15709 0a39 00        		.byte	0x0
 15710 0a3a 05        		.uleb128 0x5
 15711 0a3b 02        		.byte	0x2
 15712 0a3c 0000 0000 		.long	.LSM238
GAS LISTING /var/folders/1s/lqjcb7x5323625d47g9gdgmr0000gp/T//ccbjwlOH.s 			page 281


 15713 0a40 16        		.byte	0x16
 15714 0a41 00        		.byte	0x0
 15715 0a42 05        		.uleb128 0x5
 15716 0a43 02        		.byte	0x2
 15717 0a44 0000 0000 		.long	.LFE90
 15718 0a48 00        		.byte	0x0
 15719 0a49 01        		.uleb128 0x1
 15720 0a4a 01        		.byte	0x1
 15721 0a4b 00        		.byte	0x0
 15722 0a4c 05        		.uleb128 0x5
 15723 0a4d 02        		.byte	0x2
 15724 0a4e 0000 0000 		.long	.LSM239
 15725 0a52 03        		.byte	0x3
 15726 0a53 BD02      		.sleb128 317
 15727 0a55 01        		.byte	0x1
 15728 0a56 00        		.byte	0x0
 15729 0a57 05        		.uleb128 0x5
 15730 0a58 02        		.byte	0x2
 15731 0a59 0000 0000 		.long	.LSM240
 15732 0a5d 17        		.byte	0x17
 15733 0a5e 00        		.byte	0x0
 15734 0a5f 05        		.uleb128 0x5
 15735 0a60 02        		.byte	0x2
 15736 0a61 0000 0000 		.long	.LSM241
 15737 0a65 16        		.byte	0x16
 15738 0a66 00        		.byte	0x0
 15739 0a67 05        		.uleb128 0x5
 15740 0a68 02        		.byte	0x2
 15741 0a69 0000 0000 		.long	.LFE89
 15742 0a6d 00        		.byte	0x0
 15743 0a6e 01        		.uleb128 0x1
 15744 0a6f 01        		.byte	0x1
 15745 0a70 00        		.byte	0x0
 15746 0a71 05        		.uleb128 0x5
 15747 0a72 02        		.byte	0x2
 15748 0a73 0000 0000 		.long	.LSM242
 15749 0a77 03        		.byte	0x3
 15750 0a78 B602      		.sleb128 310
 15751 0a7a 01        		.byte	0x1
 15752 0a7b 00        		.byte	0x0
 15753 0a7c 05        		.uleb128 0x5
 15754 0a7d 02        		.byte	0x2
 15755 0a7e 0000 0000 		.long	.LSM243
 15756 0a82 17        		.byte	0x17
 15757 0a83 00        		.byte	0x0
 15758 0a84 05        		.uleb128 0x5
 15759 0a85 02        		.byte	0x2
 15760 0a86 0000 0000 		.long	.LSM244
 15761 0a8a 16        		.byte	0x16
 15762 0a8b 00        		.byte	0x0
 15763 0a8c 05        		.uleb128 0x5
 15764 0a8d 02        		.byte	0x2
 15765 0a8e 0000 0000 		.long	.LFE88
 15766 0a92 00        		.byte	0x0
 15767 0a93 01        		.uleb128 0x1
 15768 0a94 01        		.byte	0x1
 15769 0a95 00        		.byte	0x0
GAS LISTING /var/folders/1s/lqjcb7x5323625d47g9gdgmr0000gp/T//ccbjwlOH.s 			page 282


 15770 0a96 05        		.uleb128 0x5
 15771 0a97 02        		.byte	0x2
 15772 0a98 0000 0000 		.long	.LSM245
 15773 0a9c 03        		.byte	0x3
 15774 0a9d AF02      		.sleb128 303
 15775 0a9f 01        		.byte	0x1
 15776 0aa0 00        		.byte	0x0
 15777 0aa1 05        		.uleb128 0x5
 15778 0aa2 02        		.byte	0x2
 15779 0aa3 0000 0000 		.long	.LSM246
 15780 0aa7 17        		.byte	0x17
 15781 0aa8 00        		.byte	0x0
 15782 0aa9 05        		.uleb128 0x5
 15783 0aaa 02        		.byte	0x2
 15784 0aab 0000 0000 		.long	.LSM247
 15785 0aaf 16        		.byte	0x16
 15786 0ab0 00        		.byte	0x0
 15787 0ab1 05        		.uleb128 0x5
 15788 0ab2 02        		.byte	0x2
 15789 0ab3 0000 0000 		.long	.LFE87
 15790 0ab7 00        		.byte	0x0
 15791 0ab8 01        		.uleb128 0x1
 15792 0ab9 01        		.byte	0x1
 15793 0aba 00        		.byte	0x0
 15794 0abb 05        		.uleb128 0x5
 15795 0abc 02        		.byte	0x2
 15796 0abd 0000 0000 		.long	.LSM248
 15797 0ac1 03        		.byte	0x3
 15798 0ac2 A802      		.sleb128 296
 15799 0ac4 01        		.byte	0x1
 15800 0ac5 00        		.byte	0x0
 15801 0ac6 05        		.uleb128 0x5
 15802 0ac7 02        		.byte	0x2
 15803 0ac8 0000 0000 		.long	.LSM249
 15804 0acc 17        		.byte	0x17
 15805 0acd 00        		.byte	0x0
 15806 0ace 05        		.uleb128 0x5
 15807 0acf 02        		.byte	0x2
 15808 0ad0 0000 0000 		.long	.LSM250
 15809 0ad4 16        		.byte	0x16
 15810 0ad5 00        		.byte	0x0
 15811 0ad6 05        		.uleb128 0x5
 15812 0ad7 02        		.byte	0x2
 15813 0ad8 0000 0000 		.long	.LFE86
 15814 0adc 00        		.byte	0x0
 15815 0add 01        		.uleb128 0x1
 15816 0ade 01        		.byte	0x1
 15817 0adf 00        		.byte	0x0
 15818 0ae0 05        		.uleb128 0x5
 15819 0ae1 02        		.byte	0x2
 15820 0ae2 0000 0000 		.long	.LSM251
 15821 0ae6 03        		.byte	0x3
 15822 0ae7 A102      		.sleb128 289
 15823 0ae9 01        		.byte	0x1
 15824 0aea 00        		.byte	0x0
 15825 0aeb 05        		.uleb128 0x5
 15826 0aec 02        		.byte	0x2
GAS LISTING /var/folders/1s/lqjcb7x5323625d47g9gdgmr0000gp/T//ccbjwlOH.s 			page 283


 15827 0aed 0000 0000 		.long	.LSM252
 15828 0af1 17        		.byte	0x17
 15829 0af2 00        		.byte	0x0
 15830 0af3 05        		.uleb128 0x5
 15831 0af4 02        		.byte	0x2
 15832 0af5 0000 0000 		.long	.LSM253
 15833 0af9 16        		.byte	0x16
 15834 0afa 00        		.byte	0x0
 15835 0afb 05        		.uleb128 0x5
 15836 0afc 02        		.byte	0x2
 15837 0afd 0000 0000 		.long	.LFE85
 15838 0b01 00        		.byte	0x0
 15839 0b02 01        		.uleb128 0x1
 15840 0b03 01        		.byte	0x1
 15841 0b04 00        		.byte	0x0
 15842 0b05 05        		.uleb128 0x5
 15843 0b06 02        		.byte	0x2
 15844 0b07 0000 0000 		.long	.LSM254
 15845 0b0b AB        		.byte	0xab
 15846 0b0c 00        		.byte	0x0
 15847 0b0d 05        		.uleb128 0x5
 15848 0b0e 02        		.byte	0x2
 15849 0b0f 0000 0000 		.long	.LSM255
 15850 0b13 16        		.byte	0x16
 15851 0b14 00        		.byte	0x0
 15852 0b15 05        		.uleb128 0x5
 15853 0b16 02        		.byte	0x2
 15854 0b17 0000 0000 		.long	.LSM256
 15855 0b1b 15        		.byte	0x15
 15856 0b1c 00        		.byte	0x0
 15857 0b1d 05        		.uleb128 0x5
 15858 0b1e 02        		.byte	0x2
 15859 0b1f 0000 0000 		.long	.LSM257
 15860 0b23 17        		.byte	0x17
 15861 0b24 00        		.byte	0x0
 15862 0b25 05        		.uleb128 0x5
 15863 0b26 02        		.byte	0x2
 15864 0b27 0000 0000 		.long	.LSM258
 15865 0b2b 15        		.byte	0x15
 15866 0b2c 00        		.byte	0x0
 15867 0b2d 05        		.uleb128 0x5
 15868 0b2e 02        		.byte	0x2
 15869 0b2f 0000 0000 		.long	.LSM259
 15870 0b33 16        		.byte	0x16
 15871 0b34 00        		.byte	0x0
 15872 0b35 05        		.uleb128 0x5
 15873 0b36 02        		.byte	0x2
 15874 0b37 0000 0000 		.long	.LFE73
 15875 0b3b 00        		.byte	0x0
 15876 0b3c 01        		.uleb128 0x1
 15877 0b3d 01        		.byte	0x1
 15878 0b3e 00        		.byte	0x0
 15879 0b3f 05        		.uleb128 0x5
 15880 0b40 02        		.byte	0x2
 15881 0b41 0000 0000 		.long	.LSM260
 15882 0b45 30        		.byte	0x30
 15883 0b46 00        		.byte	0x0
GAS LISTING /var/folders/1s/lqjcb7x5323625d47g9gdgmr0000gp/T//ccbjwlOH.s 			page 284


 15884 0b47 05        		.uleb128 0x5
 15885 0b48 02        		.byte	0x2
 15886 0b49 0000 0000 		.long	.LSM261
 15887 0b4d 69        		.byte	0x69
 15888 0b4e 00        		.byte	0x0
 15889 0b4f 05        		.uleb128 0x5
 15890 0b50 02        		.byte	0x2
 15891 0b51 0000 0000 		.long	.LSM262
 15892 0b55 15        		.byte	0x15
 15893 0b56 00        		.byte	0x0
 15894 0b57 05        		.uleb128 0x5
 15895 0b58 02        		.byte	0x2
 15896 0b59 0000 0000 		.long	.LSM263
 15897 0b5d 15        		.byte	0x15
 15898 0b5e 00        		.byte	0x0
 15899 0b5f 05        		.uleb128 0x5
 15900 0b60 02        		.byte	0x2
 15901 0b61 0000 0000 		.long	.LSM264
 15902 0b65 15        		.byte	0x15
 15903 0b66 00        		.byte	0x0
 15904 0b67 05        		.uleb128 0x5
 15905 0b68 02        		.byte	0x2
 15906 0b69 0000 0000 		.long	.LSM265
 15907 0b6d 03        		.byte	0x3
 15908 0b6e AB7F      		.sleb128 -85
 15909 0b70 01        		.byte	0x1
 15910 0b71 00        		.byte	0x0
 15911 0b72 05        		.uleb128 0x5
 15912 0b73 02        		.byte	0x2
 15913 0b74 0000 0000 		.long	.LSM266
 15914 0b78 15        		.byte	0x15
 15915 0b79 00        		.byte	0x0
 15916 0b7a 05        		.uleb128 0x5
 15917 0b7b 02        		.byte	0x2
 15918 0b7c 0000 0000 		.long	.LFE44
 15919 0b80 00        		.byte	0x0
 15920 0b81 01        		.uleb128 0x1
 15921 0b82 01        		.byte	0x1
 15922 0b83 00        		.byte	0x0
 15923 0b84 05        		.uleb128 0x5
 15924 0b85 02        		.byte	0x2
 15925 0b86 0000 0000 		.long	.LSM267
 15926 0b8a 30        		.byte	0x30
 15927 0b8b 00        		.byte	0x0
 15928 0b8c 05        		.uleb128 0x5
 15929 0b8d 02        		.byte	0x2
 15930 0b8e 0000 0000 		.long	.LSM268
 15931 0b92 69        		.byte	0x69
 15932 0b93 00        		.byte	0x0
 15933 0b94 05        		.uleb128 0x5
 15934 0b95 02        		.byte	0x2
 15935 0b96 0000 0000 		.long	.LSM269
 15936 0b9a 15        		.byte	0x15
 15937 0b9b 00        		.byte	0x0
 15938 0b9c 05        		.uleb128 0x5
 15939 0b9d 02        		.byte	0x2
 15940 0b9e 0000 0000 		.long	.LSM270
GAS LISTING /var/folders/1s/lqjcb7x5323625d47g9gdgmr0000gp/T//ccbjwlOH.s 			page 285


 15941 0ba2 15        		.byte	0x15
 15942 0ba3 00        		.byte	0x0
 15943 0ba4 05        		.uleb128 0x5
 15944 0ba5 02        		.byte	0x2
 15945 0ba6 0000 0000 		.long	.LSM271
 15946 0baa 15        		.byte	0x15
 15947 0bab 00        		.byte	0x0
 15948 0bac 05        		.uleb128 0x5
 15949 0bad 02        		.byte	0x2
 15950 0bae 0000 0000 		.long	.LSM272
 15951 0bb2 03        		.byte	0x3
 15952 0bb3 AB7F      		.sleb128 -85
 15953 0bb5 01        		.byte	0x1
 15954 0bb6 00        		.byte	0x0
 15955 0bb7 05        		.uleb128 0x5
 15956 0bb8 02        		.byte	0x2
 15957 0bb9 0000 0000 		.long	.LSM273
 15958 0bbd 15        		.byte	0x15
 15959 0bbe 00        		.byte	0x0
 15960 0bbf 05        		.uleb128 0x5
 15961 0bc0 02        		.byte	0x2
 15962 0bc1 0000 0000 		.long	.LFE43
 15963 0bc5 00        		.byte	0x0
 15964 0bc6 01        		.uleb128 0x1
 15965 0bc7 01        		.byte	0x1
 15966 0bc8 00        		.byte	0x0
 15967 0bc9 05        		.uleb128 0x5
 15968 0bca 02        		.byte	0x2
 15969 0bcb 0000 0000 		.long	.LSM274
 15970 0bcf E4        		.byte	0xe4
 15971 0bd0 00        		.byte	0x0
 15972 0bd1 05        		.uleb128 0x5
 15973 0bd2 02        		.byte	0x2
 15974 0bd3 0000 0000 		.long	.LSM275
 15975 0bd7 16        		.byte	0x16
 15976 0bd8 00        		.byte	0x0
 15977 0bd9 05        		.uleb128 0x5
 15978 0bda 02        		.byte	0x2
 15979 0bdb 0000 0000 		.long	.LSM276
 15980 0bdf 15        		.byte	0x15
 15981 0be0 00        		.byte	0x0
 15982 0be1 05        		.uleb128 0x5
 15983 0be2 02        		.byte	0x2
 15984 0be3 0000 0000 		.long	.LSM277
 15985 0be7 17        		.byte	0x17
 15986 0be8 00        		.byte	0x0
 15987 0be9 05        		.uleb128 0x5
 15988 0bea 02        		.byte	0x2
 15989 0beb 0000 0000 		.long	.LFE75
 15990 0bef 00        		.byte	0x0
 15991 0bf0 01        		.uleb128 0x1
 15992 0bf1 01        		.byte	0x1
 15993 0bf2 00        		.byte	0x0
 15994 0bf3 05        		.uleb128 0x5
 15995 0bf4 02        		.byte	0x2
 15996 0bf5 0000 0000 		.long	.LSM278
 15997 0bf9 72        		.byte	0x72
GAS LISTING /var/folders/1s/lqjcb7x5323625d47g9gdgmr0000gp/T//ccbjwlOH.s 			page 286


 15998 0bfa 00        		.byte	0x0
 15999 0bfb 05        		.uleb128 0x5
 16000 0bfc 02        		.byte	0x2
 16001 0bfd 0000 0000 		.long	.LSM279
 16002 0c01 27        		.byte	0x27
 16003 0c02 00        		.byte	0x0
 16004 0c03 05        		.uleb128 0x5
 16005 0c04 02        		.byte	0x2
 16006 0c05 0000 0000 		.long	.LSM280
 16007 0c09 15        		.byte	0x15
 16008 0c0a 00        		.byte	0x0
 16009 0c0b 05        		.uleb128 0x5
 16010 0c0c 02        		.byte	0x2
 16011 0c0d 0000 0000 		.long	.LSM281
 16012 0c11 15        		.byte	0x15
 16013 0c12 00        		.byte	0x0
 16014 0c13 05        		.uleb128 0x5
 16015 0c14 02        		.byte	0x2
 16016 0c15 0000 0000 		.long	.LSM282
 16017 0c19 15        		.byte	0x15
 16018 0c1a 00        		.byte	0x0
 16019 0c1b 05        		.uleb128 0x5
 16020 0c1c 02        		.byte	0x2
 16021 0c1d 0000 0000 		.long	.LSM283
 16022 0c21 03        		.byte	0x3
 16023 0c22 6E        		.sleb128 -18
 16024 0c23 01        		.byte	0x1
 16025 0c24 00        		.byte	0x0
 16026 0c25 05        		.uleb128 0x5
 16027 0c26 02        		.byte	0x2
 16028 0c27 0000 0000 		.long	.LSM284
 16029 0c2b 15        		.byte	0x15
 16030 0c2c 00        		.byte	0x0
 16031 0c2d 05        		.uleb128 0x5
 16032 0c2e 02        		.byte	0x2
 16033 0c2f 0000 0000 		.long	.LSM285
 16034 0c33 15        		.byte	0x15
 16035 0c34 00        		.byte	0x0
 16036 0c35 05        		.uleb128 0x5
 16037 0c36 02        		.byte	0x2
 16038 0c37 0000 0000 		.long	.LFE65
 16039 0c3b 00        		.byte	0x0
 16040 0c3c 01        		.uleb128 0x1
 16041 0c3d 01        		.byte	0x1
 16042 0c3e 00        		.byte	0x0
 16043 0c3f 05        		.uleb128 0x5
 16044 0c40 02        		.byte	0x2
 16045 0c41 0000 0000 		.long	.LSM286
 16046 0c45 72        		.byte	0x72
 16047 0c46 00        		.byte	0x0
 16048 0c47 05        		.uleb128 0x5
 16049 0c48 02        		.byte	0x2
 16050 0c49 0000 0000 		.long	.LSM287
 16051 0c4d 27        		.byte	0x27
 16052 0c4e 00        		.byte	0x0
 16053 0c4f 05        		.uleb128 0x5
 16054 0c50 02        		.byte	0x2
GAS LISTING /var/folders/1s/lqjcb7x5323625d47g9gdgmr0000gp/T//ccbjwlOH.s 			page 287


 16055 0c51 0000 0000 		.long	.LSM288
 16056 0c55 15        		.byte	0x15
 16057 0c56 00        		.byte	0x0
 16058 0c57 05        		.uleb128 0x5
 16059 0c58 02        		.byte	0x2
 16060 0c59 0000 0000 		.long	.LSM289
 16061 0c5d 15        		.byte	0x15
 16062 0c5e 00        		.byte	0x0
 16063 0c5f 05        		.uleb128 0x5
 16064 0c60 02        		.byte	0x2
 16065 0c61 0000 0000 		.long	.LSM290
 16066 0c65 15        		.byte	0x15
 16067 0c66 00        		.byte	0x0
 16068 0c67 05        		.uleb128 0x5
 16069 0c68 02        		.byte	0x2
 16070 0c69 0000 0000 		.long	.LSM291
 16071 0c6d 03        		.byte	0x3
 16072 0c6e 6E        		.sleb128 -18
 16073 0c6f 01        		.byte	0x1
 16074 0c70 00        		.byte	0x0
 16075 0c71 05        		.uleb128 0x5
 16076 0c72 02        		.byte	0x2
 16077 0c73 0000 0000 		.long	.LSM292
 16078 0c77 15        		.byte	0x15
 16079 0c78 00        		.byte	0x0
 16080 0c79 05        		.uleb128 0x5
 16081 0c7a 02        		.byte	0x2
 16082 0c7b 0000 0000 		.long	.LSM293
 16083 0c7f 15        		.byte	0x15
 16084 0c80 00        		.byte	0x0
 16085 0c81 05        		.uleb128 0x5
 16086 0c82 02        		.byte	0x2
 16087 0c83 0000 0000 		.long	.LFE64
 16088 0c87 00        		.byte	0x0
 16089 0c88 01        		.uleb128 0x1
 16090 0c89 01        		.byte	0x1
 16091 0c8a 00        		.byte	0x0
 16092 0c8b 05        		.uleb128 0x5
 16093 0c8c 02        		.byte	0x2
 16094 0c8d 0000 0000 		.long	.LSM294
 16095 0c91 6A        		.byte	0x6a
 16096 0c92 00        		.byte	0x0
 16097 0c93 05        		.uleb128 0x5
 16098 0c94 02        		.byte	0x2
 16099 0c95 0000 0000 		.long	.LSM295
 16100 0c99 2F        		.byte	0x2f
 16101 0c9a 00        		.byte	0x0
 16102 0c9b 05        		.uleb128 0x5
 16103 0c9c 02        		.byte	0x2
 16104 0c9d 0000 0000 		.long	.LSM296
 16105 0ca1 15        		.byte	0x15
 16106 0ca2 00        		.byte	0x0
 16107 0ca3 05        		.uleb128 0x5
 16108 0ca4 02        		.byte	0x2
 16109 0ca5 0000 0000 		.long	.LSM297
 16110 0ca9 15        		.byte	0x15
 16111 0caa 00        		.byte	0x0
GAS LISTING /var/folders/1s/lqjcb7x5323625d47g9gdgmr0000gp/T//ccbjwlOH.s 			page 288


 16112 0cab 05        		.uleb128 0x5
 16113 0cac 02        		.byte	0x2
 16114 0cad 0000 0000 		.long	.LSM298
 16115 0cb1 15        		.byte	0x15
 16116 0cb2 00        		.byte	0x0
 16117 0cb3 05        		.uleb128 0x5
 16118 0cb4 02        		.byte	0x2
 16119 0cb5 0000 0000 		.long	.LSM299
 16120 0cb9 03        		.byte	0x3
 16121 0cba 66        		.sleb128 -26
 16122 0cbb 01        		.byte	0x1
 16123 0cbc 00        		.byte	0x0
 16124 0cbd 05        		.uleb128 0x5
 16125 0cbe 02        		.byte	0x2
 16126 0cbf 0000 0000 		.long	.LSM300
 16127 0cc3 15        		.byte	0x15
 16128 0cc4 00        		.byte	0x0
 16129 0cc5 05        		.uleb128 0x5
 16130 0cc6 02        		.byte	0x2
 16131 0cc7 0000 0000 		.long	.LSM301
 16132 0ccb 15        		.byte	0x15
 16133 0ccc 00        		.byte	0x0
 16134 0ccd 05        		.uleb128 0x5
 16135 0cce 02        		.byte	0x2
 16136 0ccf 0000 0000 		.long	.LFE62
 16137 0cd3 00        		.byte	0x0
 16138 0cd4 01        		.uleb128 0x1
 16139 0cd5 01        		.byte	0x1
 16140 0cd6 00        		.byte	0x0
 16141 0cd7 05        		.uleb128 0x5
 16142 0cd8 02        		.byte	0x2
 16143 0cd9 0000 0000 		.long	.LSM302
 16144 0cdd 6A        		.byte	0x6a
 16145 0cde 00        		.byte	0x0
 16146 0cdf 05        		.uleb128 0x5
 16147 0ce0 02        		.byte	0x2
 16148 0ce1 0000 0000 		.long	.LSM303
 16149 0ce5 2F        		.byte	0x2f
 16150 0ce6 00        		.byte	0x0
 16151 0ce7 05        		.uleb128 0x5
 16152 0ce8 02        		.byte	0x2
 16153 0ce9 0000 0000 		.long	.LSM304
 16154 0ced 15        		.byte	0x15
 16155 0cee 00        		.byte	0x0
 16156 0cef 05        		.uleb128 0x5
 16157 0cf0 02        		.byte	0x2
 16158 0cf1 0000 0000 		.long	.LSM305
 16159 0cf5 15        		.byte	0x15
 16160 0cf6 00        		.byte	0x0
 16161 0cf7 05        		.uleb128 0x5
 16162 0cf8 02        		.byte	0x2
 16163 0cf9 0000 0000 		.long	.LSM306
 16164 0cfd 15        		.byte	0x15
 16165 0cfe 00        		.byte	0x0
 16166 0cff 05        		.uleb128 0x5
 16167 0d00 02        		.byte	0x2
 16168 0d01 0000 0000 		.long	.LSM307
GAS LISTING /var/folders/1s/lqjcb7x5323625d47g9gdgmr0000gp/T//ccbjwlOH.s 			page 289


 16169 0d05 03        		.byte	0x3
 16170 0d06 66        		.sleb128 -26
 16171 0d07 01        		.byte	0x1
 16172 0d08 00        		.byte	0x0
 16173 0d09 05        		.uleb128 0x5
 16174 0d0a 02        		.byte	0x2
 16175 0d0b 0000 0000 		.long	.LSM308
 16176 0d0f 15        		.byte	0x15
 16177 0d10 00        		.byte	0x0
 16178 0d11 05        		.uleb128 0x5
 16179 0d12 02        		.byte	0x2
 16180 0d13 0000 0000 		.long	.LSM309
 16181 0d17 15        		.byte	0x15
 16182 0d18 00        		.byte	0x0
 16183 0d19 05        		.uleb128 0x5
 16184 0d1a 02        		.byte	0x2
 16185 0d1b 0000 0000 		.long	.LFE61
 16186 0d1f 00        		.byte	0x0
 16187 0d20 01        		.uleb128 0x1
 16188 0d21 01        		.byte	0x1
 16189 0d22 00        		.byte	0x0
 16190 0d23 05        		.uleb128 0x5
 16191 0d24 02        		.byte	0x2
 16192 0d25 0000 0000 		.long	.LSM310
 16193 0d29 62        		.byte	0x62
 16194 0d2a 00        		.byte	0x0
 16195 0d2b 05        		.uleb128 0x5
 16196 0d2c 02        		.byte	0x2
 16197 0d2d 0000 0000 		.long	.LSM311
 16198 0d31 37        		.byte	0x37
 16199 0d32 00        		.byte	0x0
 16200 0d33 05        		.uleb128 0x5
 16201 0d34 02        		.byte	0x2
 16202 0d35 0000 0000 		.long	.LSM312
 16203 0d39 15        		.byte	0x15
 16204 0d3a 00        		.byte	0x0
 16205 0d3b 05        		.uleb128 0x5
 16206 0d3c 02        		.byte	0x2
 16207 0d3d 0000 0000 		.long	.LSM313
 16208 0d41 15        		.byte	0x15
 16209 0d42 00        		.byte	0x0
 16210 0d43 05        		.uleb128 0x5
 16211 0d44 02        		.byte	0x2
 16212 0d45 0000 0000 		.long	.LSM314
 16213 0d49 15        		.byte	0x15
 16214 0d4a 00        		.byte	0x0
 16215 0d4b 05        		.uleb128 0x5
 16216 0d4c 02        		.byte	0x2
 16217 0d4d 0000 0000 		.long	.LSM315
 16218 0d51 03        		.byte	0x3
 16219 0d52 5E        		.sleb128 -34
 16220 0d53 01        		.byte	0x1
 16221 0d54 00        		.byte	0x0
 16222 0d55 05        		.uleb128 0x5
 16223 0d56 02        		.byte	0x2
 16224 0d57 0000 0000 		.long	.LSM316
 16225 0d5b 15        		.byte	0x15
GAS LISTING /var/folders/1s/lqjcb7x5323625d47g9gdgmr0000gp/T//ccbjwlOH.s 			page 290


 16226 0d5c 00        		.byte	0x0
 16227 0d5d 05        		.uleb128 0x5
 16228 0d5e 02        		.byte	0x2
 16229 0d5f 0000 0000 		.long	.LSM317
 16230 0d63 15        		.byte	0x15
 16231 0d64 00        		.byte	0x0
 16232 0d65 05        		.uleb128 0x5
 16233 0d66 02        		.byte	0x2
 16234 0d67 0000 0000 		.long	.LFE59
 16235 0d6b 00        		.byte	0x0
 16236 0d6c 01        		.uleb128 0x1
 16237 0d6d 01        		.byte	0x1
 16238 0d6e 00        		.byte	0x0
 16239 0d6f 05        		.uleb128 0x5
 16240 0d70 02        		.byte	0x2
 16241 0d71 0000 0000 		.long	.LSM318
 16242 0d75 62        		.byte	0x62
 16243 0d76 00        		.byte	0x0
 16244 0d77 05        		.uleb128 0x5
 16245 0d78 02        		.byte	0x2
 16246 0d79 0000 0000 		.long	.LSM319
 16247 0d7d 37        		.byte	0x37
 16248 0d7e 00        		.byte	0x0
 16249 0d7f 05        		.uleb128 0x5
 16250 0d80 02        		.byte	0x2
 16251 0d81 0000 0000 		.long	.LSM320
 16252 0d85 15        		.byte	0x15
 16253 0d86 00        		.byte	0x0
 16254 0d87 05        		.uleb128 0x5
 16255 0d88 02        		.byte	0x2
 16256 0d89 0000 0000 		.long	.LSM321
 16257 0d8d 15        		.byte	0x15
 16258 0d8e 00        		.byte	0x0
 16259 0d8f 05        		.uleb128 0x5
 16260 0d90 02        		.byte	0x2
 16261 0d91 0000 0000 		.long	.LSM322
 16262 0d95 15        		.byte	0x15
 16263 0d96 00        		.byte	0x0
 16264 0d97 05        		.uleb128 0x5
 16265 0d98 02        		.byte	0x2
 16266 0d99 0000 0000 		.long	.LSM323
 16267 0d9d 03        		.byte	0x3
 16268 0d9e 5E        		.sleb128 -34
 16269 0d9f 01        		.byte	0x1
 16270 0da0 00        		.byte	0x0
 16271 0da1 05        		.uleb128 0x5
 16272 0da2 02        		.byte	0x2
 16273 0da3 0000 0000 		.long	.LSM324
 16274 0da7 15        		.byte	0x15
 16275 0da8 00        		.byte	0x0
 16276 0da9 05        		.uleb128 0x5
 16277 0daa 02        		.byte	0x2
 16278 0dab 0000 0000 		.long	.LSM325
 16279 0daf 15        		.byte	0x15
 16280 0db0 00        		.byte	0x0
 16281 0db1 05        		.uleb128 0x5
 16282 0db2 02        		.byte	0x2
GAS LISTING /var/folders/1s/lqjcb7x5323625d47g9gdgmr0000gp/T//ccbjwlOH.s 			page 291


 16283 0db3 0000 0000 		.long	.LFE58
 16284 0db7 00        		.byte	0x0
 16285 0db8 01        		.uleb128 0x1
 16286 0db9 01        		.byte	0x1
 16287 0dba 00        		.byte	0x0
 16288 0dbb 05        		.uleb128 0x5
 16289 0dbc 02        		.byte	0x2
 16290 0dbd 0000 0000 		.long	.LSM326
 16291 0dc1 5A        		.byte	0x5a
 16292 0dc2 00        		.byte	0x0
 16293 0dc3 05        		.uleb128 0x5
 16294 0dc4 02        		.byte	0x2
 16295 0dc5 0000 0000 		.long	.LSM327
 16296 0dc9 3F        		.byte	0x3f
 16297 0dca 00        		.byte	0x0
 16298 0dcb 05        		.uleb128 0x5
 16299 0dcc 02        		.byte	0x2
 16300 0dcd 0000 0000 		.long	.LSM328
 16301 0dd1 15        		.byte	0x15
 16302 0dd2 00        		.byte	0x0
 16303 0dd3 05        		.uleb128 0x5
 16304 0dd4 02        		.byte	0x2
 16305 0dd5 0000 0000 		.long	.LSM329
 16306 0dd9 15        		.byte	0x15
 16307 0dda 00        		.byte	0x0
 16308 0ddb 05        		.uleb128 0x5
 16309 0ddc 02        		.byte	0x2
 16310 0ddd 0000 0000 		.long	.LSM330
 16311 0de1 15        		.byte	0x15
 16312 0de2 00        		.byte	0x0
 16313 0de3 05        		.uleb128 0x5
 16314 0de4 02        		.byte	0x2
 16315 0de5 0000 0000 		.long	.LSM331
 16316 0de9 03        		.byte	0x3
 16317 0dea 56        		.sleb128 -42
 16318 0deb 01        		.byte	0x1
 16319 0dec 00        		.byte	0x0
 16320 0ded 05        		.uleb128 0x5
 16321 0dee 02        		.byte	0x2
 16322 0def 0000 0000 		.long	.LSM332
 16323 0df3 15        		.byte	0x15
 16324 0df4 00        		.byte	0x0
 16325 0df5 05        		.uleb128 0x5
 16326 0df6 02        		.byte	0x2
 16327 0df7 0000 0000 		.long	.LSM333
 16328 0dfb 15        		.byte	0x15
 16329 0dfc 00        		.byte	0x0
 16330 0dfd 05        		.uleb128 0x5
 16331 0dfe 02        		.byte	0x2
 16332 0dff 0000 0000 		.long	.LFE56
 16333 0e03 00        		.byte	0x0
 16334 0e04 01        		.uleb128 0x1
 16335 0e05 01        		.byte	0x1
 16336 0e06 00        		.byte	0x0
 16337 0e07 05        		.uleb128 0x5
 16338 0e08 02        		.byte	0x2
 16339 0e09 0000 0000 		.long	.LSM334
GAS LISTING /var/folders/1s/lqjcb7x5323625d47g9gdgmr0000gp/T//ccbjwlOH.s 			page 292


 16340 0e0d 5A        		.byte	0x5a
 16341 0e0e 00        		.byte	0x0
 16342 0e0f 05        		.uleb128 0x5
 16343 0e10 02        		.byte	0x2
 16344 0e11 0000 0000 		.long	.LSM335
 16345 0e15 3F        		.byte	0x3f
 16346 0e16 00        		.byte	0x0
 16347 0e17 05        		.uleb128 0x5
 16348 0e18 02        		.byte	0x2
 16349 0e19 0000 0000 		.long	.LSM336
 16350 0e1d 15        		.byte	0x15
 16351 0e1e 00        		.byte	0x0
 16352 0e1f 05        		.uleb128 0x5
 16353 0e20 02        		.byte	0x2
 16354 0e21 0000 0000 		.long	.LSM337
 16355 0e25 15        		.byte	0x15
 16356 0e26 00        		.byte	0x0
 16357 0e27 05        		.uleb128 0x5
 16358 0e28 02        		.byte	0x2
 16359 0e29 0000 0000 		.long	.LSM338
 16360 0e2d 15        		.byte	0x15
 16361 0e2e 00        		.byte	0x0
 16362 0e2f 05        		.uleb128 0x5
 16363 0e30 02        		.byte	0x2
 16364 0e31 0000 0000 		.long	.LSM339
 16365 0e35 03        		.byte	0x3
 16366 0e36 56        		.sleb128 -42
 16367 0e37 01        		.byte	0x1
 16368 0e38 00        		.byte	0x0
 16369 0e39 05        		.uleb128 0x5
 16370 0e3a 02        		.byte	0x2
 16371 0e3b 0000 0000 		.long	.LSM340
 16372 0e3f 15        		.byte	0x15
 16373 0e40 00        		.byte	0x0
 16374 0e41 05        		.uleb128 0x5
 16375 0e42 02        		.byte	0x2
 16376 0e43 0000 0000 		.long	.LSM341
 16377 0e47 15        		.byte	0x15
 16378 0e48 00        		.byte	0x0
 16379 0e49 05        		.uleb128 0x5
 16380 0e4a 02        		.byte	0x2
 16381 0e4b 0000 0000 		.long	.LFE55
 16382 0e4f 00        		.byte	0x0
 16383 0e50 01        		.uleb128 0x1
 16384 0e51 01        		.byte	0x1
 16385 0e52 00        		.byte	0x0
 16386 0e53 05        		.uleb128 0x5
 16387 0e54 02        		.byte	0x2
 16388 0e55 0000 0000 		.long	.LSM342
 16389 0e59 52        		.byte	0x52
 16390 0e5a 00        		.byte	0x0
 16391 0e5b 05        		.uleb128 0x5
 16392 0e5c 02        		.byte	0x2
 16393 0e5d 0000 0000 		.long	.LSM343
 16394 0e61 47        		.byte	0x47
 16395 0e62 00        		.byte	0x0
 16396 0e63 05        		.uleb128 0x5
GAS LISTING /var/folders/1s/lqjcb7x5323625d47g9gdgmr0000gp/T//ccbjwlOH.s 			page 293


 16397 0e64 02        		.byte	0x2
 16398 0e65 0000 0000 		.long	.LSM344
 16399 0e69 15        		.byte	0x15
 16400 0e6a 00        		.byte	0x0
 16401 0e6b 05        		.uleb128 0x5
 16402 0e6c 02        		.byte	0x2
 16403 0e6d 0000 0000 		.long	.LSM345
 16404 0e71 15        		.byte	0x15
 16405 0e72 00        		.byte	0x0
 16406 0e73 05        		.uleb128 0x5
 16407 0e74 02        		.byte	0x2
 16408 0e75 0000 0000 		.long	.LSM346
 16409 0e79 15        		.byte	0x15
 16410 0e7a 00        		.byte	0x0
 16411 0e7b 05        		.uleb128 0x5
 16412 0e7c 02        		.byte	0x2
 16413 0e7d 0000 0000 		.long	.LSM347
 16414 0e81 03        		.byte	0x3
 16415 0e82 4E        		.sleb128 -50
 16416 0e83 01        		.byte	0x1
 16417 0e84 00        		.byte	0x0
 16418 0e85 05        		.uleb128 0x5
 16419 0e86 02        		.byte	0x2
 16420 0e87 0000 0000 		.long	.LSM348
 16421 0e8b 15        		.byte	0x15
 16422 0e8c 00        		.byte	0x0
 16423 0e8d 05        		.uleb128 0x5
 16424 0e8e 02        		.byte	0x2
 16425 0e8f 0000 0000 		.long	.LSM349
 16426 0e93 15        		.byte	0x15
 16427 0e94 00        		.byte	0x0
 16428 0e95 05        		.uleb128 0x5
 16429 0e96 02        		.byte	0x2
 16430 0e97 0000 0000 		.long	.LFE53
 16431 0e9b 00        		.byte	0x0
 16432 0e9c 01        		.uleb128 0x1
 16433 0e9d 01        		.byte	0x1
 16434 0e9e 00        		.byte	0x0
 16435 0e9f 05        		.uleb128 0x5
 16436 0ea0 02        		.byte	0x2
 16437 0ea1 0000 0000 		.long	.LSM350
 16438 0ea5 52        		.byte	0x52
 16439 0ea6 00        		.byte	0x0
 16440 0ea7 05        		.uleb128 0x5
 16441 0ea8 02        		.byte	0x2
 16442 0ea9 0000 0000 		.long	.LSM351
 16443 0ead 47        		.byte	0x47
 16444 0eae 00        		.byte	0x0
 16445 0eaf 05        		.uleb128 0x5
 16446 0eb0 02        		.byte	0x2
 16447 0eb1 0000 0000 		.long	.LSM352
 16448 0eb5 15        		.byte	0x15
 16449 0eb6 00        		.byte	0x0
 16450 0eb7 05        		.uleb128 0x5
 16451 0eb8 02        		.byte	0x2
 16452 0eb9 0000 0000 		.long	.LSM353
 16453 0ebd 15        		.byte	0x15
GAS LISTING /var/folders/1s/lqjcb7x5323625d47g9gdgmr0000gp/T//ccbjwlOH.s 			page 294


 16454 0ebe 00        		.byte	0x0
 16455 0ebf 05        		.uleb128 0x5
 16456 0ec0 02        		.byte	0x2
 16457 0ec1 0000 0000 		.long	.LSM354
 16458 0ec5 15        		.byte	0x15
 16459 0ec6 00        		.byte	0x0
 16460 0ec7 05        		.uleb128 0x5
 16461 0ec8 02        		.byte	0x2
 16462 0ec9 0000 0000 		.long	.LSM355
 16463 0ecd 03        		.byte	0x3
 16464 0ece 4E        		.sleb128 -50
 16465 0ecf 01        		.byte	0x1
 16466 0ed0 00        		.byte	0x0
 16467 0ed1 05        		.uleb128 0x5
 16468 0ed2 02        		.byte	0x2
 16469 0ed3 0000 0000 		.long	.LSM356
 16470 0ed7 15        		.byte	0x15
 16471 0ed8 00        		.byte	0x0
 16472 0ed9 05        		.uleb128 0x5
 16473 0eda 02        		.byte	0x2
 16474 0edb 0000 0000 		.long	.LSM357
 16475 0edf 15        		.byte	0x15
 16476 0ee0 00        		.byte	0x0
 16477 0ee1 05        		.uleb128 0x5
 16478 0ee2 02        		.byte	0x2
 16479 0ee3 0000 0000 		.long	.LFE52
 16480 0ee7 00        		.byte	0x0
 16481 0ee8 01        		.uleb128 0x1
 16482 0ee9 01        		.byte	0x1
 16483 0eea 00        		.byte	0x0
 16484 0eeb 05        		.uleb128 0x5
 16485 0eec 02        		.byte	0x2
 16486 0eed 0000 0000 		.long	.LSM358
 16487 0ef1 49        		.byte	0x49
 16488 0ef2 00        		.byte	0x0
 16489 0ef3 05        		.uleb128 0x5
 16490 0ef4 02        		.byte	0x2
 16491 0ef5 0000 0000 		.long	.LSM359
 16492 0ef9 50        		.byte	0x50
 16493 0efa 00        		.byte	0x0
 16494 0efb 05        		.uleb128 0x5
 16495 0efc 02        		.byte	0x2
 16496 0efd 0000 0000 		.long	.LSM360
 16497 0f01 15        		.byte	0x15
 16498 0f02 00        		.byte	0x0
 16499 0f03 05        		.uleb128 0x5
 16500 0f04 02        		.byte	0x2
 16501 0f05 0000 0000 		.long	.LSM361
 16502 0f09 15        		.byte	0x15
 16503 0f0a 00        		.byte	0x0
 16504 0f0b 05        		.uleb128 0x5
 16505 0f0c 02        		.byte	0x2
 16506 0f0d 0000 0000 		.long	.LSM362
 16507 0f11 15        		.byte	0x15
 16508 0f12 00        		.byte	0x0
 16509 0f13 05        		.uleb128 0x5
 16510 0f14 02        		.byte	0x2
GAS LISTING /var/folders/1s/lqjcb7x5323625d47g9gdgmr0000gp/T//ccbjwlOH.s 			page 295


 16511 0f15 0000 0000 		.long	.LSM363
 16512 0f19 03        		.byte	0x3
 16513 0f1a 45        		.sleb128 -59
 16514 0f1b 01        		.byte	0x1
 16515 0f1c 00        		.byte	0x0
 16516 0f1d 05        		.uleb128 0x5
 16517 0f1e 02        		.byte	0x2
 16518 0f1f 0000 0000 		.long	.LSM364
 16519 0f23 15        		.byte	0x15
 16520 0f24 00        		.byte	0x0
 16521 0f25 05        		.uleb128 0x5
 16522 0f26 02        		.byte	0x2
 16523 0f27 0000 0000 		.long	.LSM365
 16524 0f2b 15        		.byte	0x15
 16525 0f2c 00        		.byte	0x0
 16526 0f2d 05        		.uleb128 0x5
 16527 0f2e 02        		.byte	0x2
 16528 0f2f 0000 0000 		.long	.LSM366
 16529 0f33 15        		.byte	0x15
 16530 0f34 00        		.byte	0x0
 16531 0f35 05        		.uleb128 0x5
 16532 0f36 02        		.byte	0x2
 16533 0f37 0000 0000 		.long	.LFE50
 16534 0f3b 00        		.byte	0x0
 16535 0f3c 01        		.uleb128 0x1
 16536 0f3d 01        		.byte	0x1
 16537 0f3e 00        		.byte	0x0
 16538 0f3f 05        		.uleb128 0x5
 16539 0f40 02        		.byte	0x2
 16540 0f41 0000 0000 		.long	.LSM367
 16541 0f45 49        		.byte	0x49
 16542 0f46 00        		.byte	0x0
 16543 0f47 05        		.uleb128 0x5
 16544 0f48 02        		.byte	0x2
 16545 0f49 0000 0000 		.long	.LSM368
 16546 0f4d 50        		.byte	0x50
 16547 0f4e 00        		.byte	0x0
 16548 0f4f 05        		.uleb128 0x5
 16549 0f50 02        		.byte	0x2
 16550 0f51 0000 0000 		.long	.LSM369
 16551 0f55 15        		.byte	0x15
 16552 0f56 00        		.byte	0x0
 16553 0f57 05        		.uleb128 0x5
 16554 0f58 02        		.byte	0x2
 16555 0f59 0000 0000 		.long	.LSM370
 16556 0f5d 15        		.byte	0x15
 16557 0f5e 00        		.byte	0x0
 16558 0f5f 05        		.uleb128 0x5
 16559 0f60 02        		.byte	0x2
 16560 0f61 0000 0000 		.long	.LSM371
 16561 0f65 15        		.byte	0x15
 16562 0f66 00        		.byte	0x0
 16563 0f67 05        		.uleb128 0x5
 16564 0f68 02        		.byte	0x2
 16565 0f69 0000 0000 		.long	.LSM372
 16566 0f6d 03        		.byte	0x3
 16567 0f6e 45        		.sleb128 -59
GAS LISTING /var/folders/1s/lqjcb7x5323625d47g9gdgmr0000gp/T//ccbjwlOH.s 			page 296


 16568 0f6f 01        		.byte	0x1
 16569 0f70 00        		.byte	0x0
 16570 0f71 05        		.uleb128 0x5
 16571 0f72 02        		.byte	0x2
 16572 0f73 0000 0000 		.long	.LSM373
 16573 0f77 15        		.byte	0x15
 16574 0f78 00        		.byte	0x0
 16575 0f79 05        		.uleb128 0x5
 16576 0f7a 02        		.byte	0x2
 16577 0f7b 0000 0000 		.long	.LSM374
 16578 0f7f 15        		.byte	0x15
 16579 0f80 00        		.byte	0x0
 16580 0f81 05        		.uleb128 0x5
 16581 0f82 02        		.byte	0x2
 16582 0f83 0000 0000 		.long	.LSM375
 16583 0f87 15        		.byte	0x15
 16584 0f88 00        		.byte	0x0
 16585 0f89 05        		.uleb128 0x5
 16586 0f8a 02        		.byte	0x2
 16587 0f8b 0000 0000 		.long	.LFE49
 16588 0f8f 00        		.byte	0x0
 16589 0f90 01        		.uleb128 0x1
 16590 0f91 01        		.byte	0x1
 16591 0f92 00        		.byte	0x0
 16592 0f93 05        		.uleb128 0x5
 16593 0f94 02        		.byte	0x2
 16594 0f95 0000 0000 		.long	.LSM376
 16595 0f99 03        		.byte	0x3
 16596 0f9a 9604      		.sleb128 534
 16597 0f9c 01        		.byte	0x1
 16598 0f9d 00        		.byte	0x0
 16599 0f9e 05        		.uleb128 0x5
 16600 0f9f 02        		.byte	0x2
 16601 0fa0 0000 0000 		.long	.LSM377
 16602 0fa4 16        		.byte	0x16
 16603 0fa5 00        		.byte	0x0
 16604 0fa6 05        		.uleb128 0x5
 16605 0fa7 02        		.byte	0x2
 16606 0fa8 0000 0000 		.long	.LSM378
 16607 0fac 19        		.byte	0x19
 16608 0fad 00        		.byte	0x0
 16609 0fae 05        		.uleb128 0x5
 16610 0faf 02        		.byte	0x2
 16611 0fb0 0000 0000 		.long	.LSM379
 16612 0fb4 15        		.byte	0x15
 16613 0fb5 00        		.byte	0x0
 16614 0fb6 05        		.uleb128 0x5
 16615 0fb7 02        		.byte	0x2
 16616 0fb8 0000 0000 		.long	.LSM380
 16617 0fbc 16        		.byte	0x16
 16618 0fbd 00        		.byte	0x0
 16619 0fbe 05        		.uleb128 0x5
 16620 0fbf 02        		.byte	0x2
 16621 0fc0 0000 0000 		.long	.LSM381
 16622 0fc4 15        		.byte	0x15
 16623 0fc5 00        		.byte	0x0
 16624 0fc6 05        		.uleb128 0x5
GAS LISTING /var/folders/1s/lqjcb7x5323625d47g9gdgmr0000gp/T//ccbjwlOH.s 			page 297


 16625 0fc7 02        		.byte	0x2
 16626 0fc8 0000 0000 		.long	.LSM382
 16627 0fcc 15        		.byte	0x15
 16628 0fcd 00        		.byte	0x0
 16629 0fce 05        		.uleb128 0x5
 16630 0fcf 02        		.byte	0x2
 16631 0fd0 0000 0000 		.long	.LSM383
 16632 0fd4 15        		.byte	0x15
 16633 0fd5 00        		.byte	0x0
 16634 0fd6 05        		.uleb128 0x5
 16635 0fd7 02        		.byte	0x2
 16636 0fd8 0000 0000 		.long	.LSM384
 16637 0fdc 16        		.byte	0x16
 16638 0fdd 00        		.byte	0x0
 16639 0fde 05        		.uleb128 0x5
 16640 0fdf 02        		.byte	0x2
 16641 0fe0 0000 0000 		.long	.LFE118
 16642 0fe4 00        		.byte	0x0
 16643 0fe5 01        		.uleb128 0x1
 16644 0fe6 01        		.byte	0x1
 16645 0fe7 00        		.byte	0x0
 16646 0fe8 05        		.uleb128 0x5
 16647 0fe9 02        		.byte	0x2
 16648 0fea 0000 0000 		.long	.LSM385
 16649 0fee 03        		.byte	0x3
 16650 0fef 9104      		.sleb128 529
 16651 0ff1 01        		.byte	0x1
 16652 0ff2 00        		.byte	0x0
 16653 0ff3 05        		.uleb128 0x5
 16654 0ff4 02        		.byte	0x2
 16655 0ff5 0000 0000 		.long	.LSM386
 16656 0ff9 16        		.byte	0x16
 16657 0ffa 00        		.byte	0x0
 16658 0ffb 05        		.uleb128 0x5
 16659 0ffc 02        		.byte	0x2
 16660 0ffd 0000 0000 		.long	.LSM387
 16661 1001 15        		.byte	0x15
 16662 1002 00        		.byte	0x0
 16663 1003 05        		.uleb128 0x5
 16664 1004 02        		.byte	0x2
 16665 1005 0000 0000 		.long	.LFE117
 16666 1009 00        		.byte	0x0
 16667 100a 01        		.uleb128 0x1
 16668 100b 01        		.byte	0x1
 16669 100c 00        		.byte	0x0
 16670 100d 05        		.uleb128 0x5
 16671 100e 02        		.byte	0x2
 16672 100f 0000 0000 		.long	.LSM388
 16673 1013 CC        		.byte	0xcc
 16674 1014 00        		.byte	0x0
 16675 1015 05        		.uleb128 0x5
 16676 1016 02        		.byte	0x2
 16677 1017 0000 0000 		.long	.LSM389
 16678 101b 16        		.byte	0x16
 16679 101c 00        		.byte	0x0
 16680 101d 05        		.uleb128 0x5
 16681 101e 02        		.byte	0x2
GAS LISTING /var/folders/1s/lqjcb7x5323625d47g9gdgmr0000gp/T//ccbjwlOH.s 			page 298


 16682 101f 0000 0000 		.long	.LSM390
 16683 1023 16        		.byte	0x16
 16684 1024 00        		.byte	0x0
 16685 1025 05        		.uleb128 0x5
 16686 1026 02        		.byte	0x2
 16687 1027 0000 0000 		.long	.LSM391
 16688 102b 15        		.byte	0x15
 16689 102c 00        		.byte	0x0
 16690 102d 05        		.uleb128 0x5
 16691 102e 02        		.byte	0x2
 16692 102f 0000 0000 		.long	.LSM392
 16693 1033 17        		.byte	0x17
 16694 1034 00        		.byte	0x0
 16695 1035 05        		.uleb128 0x5
 16696 1036 02        		.byte	0x2
 16697 1037 0000 0000 		.long	.LFE74
 16698 103b 00        		.byte	0x0
 16699 103c 01        		.uleb128 0x1
 16700 103d 01        		.byte	0x1
 16701 103e 00        		.byte	0x0
 16702 103f 05        		.uleb128 0x5
 16703 1040 02        		.byte	0x2
 16704 1041 0000 0000 		.long	.LSM393
 16705 1045 36        		.byte	0x36
 16706 1046 00        		.byte	0x0
 16707 1047 05        		.uleb128 0x5
 16708 1048 02        		.byte	0x2
 16709 1049 0000 0000 		.long	.LSM394
 16710 104d 63        		.byte	0x63
 16711 104e 00        		.byte	0x0
 16712 104f 05        		.uleb128 0x5
 16713 1050 02        		.byte	0x2
 16714 1051 0000 0000 		.long	.LSM395
 16715 1055 15        		.byte	0x15
 16716 1056 00        		.byte	0x0
 16717 1057 05        		.uleb128 0x5
 16718 1058 02        		.byte	0x2
 16719 1059 0000 0000 		.long	.LSM396
 16720 105d 15        		.byte	0x15
 16721 105e 00        		.byte	0x0
 16722 105f 05        		.uleb128 0x5
 16723 1060 02        		.byte	0x2
 16724 1061 0000 0000 		.long	.LSM397
 16725 1065 15        		.byte	0x15
 16726 1066 00        		.byte	0x0
 16727 1067 05        		.uleb128 0x5
 16728 1068 02        		.byte	0x2
 16729 1069 0000 0000 		.long	.LSM398
 16730 106d 03        		.byte	0x3
 16731 106e B17F      		.sleb128 -79
 16732 1070 01        		.byte	0x1
 16733 1071 00        		.byte	0x0
 16734 1072 05        		.uleb128 0x5
 16735 1073 02        		.byte	0x2
 16736 1074 0000 0000 		.long	.LSM399
 16737 1078 15        		.byte	0x15
 16738 1079 00        		.byte	0x0
GAS LISTING /var/folders/1s/lqjcb7x5323625d47g9gdgmr0000gp/T//ccbjwlOH.s 			page 299


 16739 107a 05        		.uleb128 0x5
 16740 107b 02        		.byte	0x2
 16741 107c 0000 0000 		.long	.LFE47
 16742 1080 00        		.byte	0x0
 16743 1081 01        		.uleb128 0x1
 16744 1082 01        		.byte	0x1
 16745 1083 00        		.byte	0x0
 16746 1084 05        		.uleb128 0x5
 16747 1085 02        		.byte	0x2
 16748 1086 0000 0000 		.long	.LSM400
 16749 108a 36        		.byte	0x36
 16750 108b 00        		.byte	0x0
 16751 108c 05        		.uleb128 0x5
 16752 108d 02        		.byte	0x2
 16753 108e 0000 0000 		.long	.LSM401
 16754 1092 63        		.byte	0x63
 16755 1093 00        		.byte	0x0
 16756 1094 05        		.uleb128 0x5
 16757 1095 02        		.byte	0x2
 16758 1096 0000 0000 		.long	.LSM402
 16759 109a 15        		.byte	0x15
 16760 109b 00        		.byte	0x0
 16761 109c 05        		.uleb128 0x5
 16762 109d 02        		.byte	0x2
 16763 109e 0000 0000 		.long	.LSM403
 16764 10a2 15        		.byte	0x15
 16765 10a3 00        		.byte	0x0
 16766 10a4 05        		.uleb128 0x5
 16767 10a5 02        		.byte	0x2
 16768 10a6 0000 0000 		.long	.LSM404
 16769 10aa 15        		.byte	0x15
 16770 10ab 00        		.byte	0x0
 16771 10ac 05        		.uleb128 0x5
 16772 10ad 02        		.byte	0x2
 16773 10ae 0000 0000 		.long	.LSM405
 16774 10b2 03        		.byte	0x3
 16775 10b3 B17F      		.sleb128 -79
 16776 10b5 01        		.byte	0x1
 16777 10b6 00        		.byte	0x0
 16778 10b7 05        		.uleb128 0x5
 16779 10b8 02        		.byte	0x2
 16780 10b9 0000 0000 		.long	.LSM406
 16781 10bd 15        		.byte	0x15
 16782 10be 00        		.byte	0x0
 16783 10bf 05        		.uleb128 0x5
 16784 10c0 02        		.byte	0x2
 16785 10c1 0000 0000 		.long	.LFE46
 16786 10c5 00        		.byte	0x0
 16787 10c6 01        		.uleb128 0x1
 16788 10c7 01        		.byte	0x1
 16789 10c8 00        		.byte	0x0
 16790 10c9 05        		.uleb128 0x5
 16791 10ca 02        		.byte	0x2
 16792 10cb 0000 0000 		.long	.LSM407
 16793 10cf 7A        		.byte	0x7a
 16794 10d0 00        		.byte	0x0
 16795 10d1 05        		.uleb128 0x5
GAS LISTING /var/folders/1s/lqjcb7x5323625d47g9gdgmr0000gp/T//ccbjwlOH.s 			page 300


 16796 10d2 02        		.byte	0x2
 16797 10d3 0000 0000 		.long	.LSM408
 16798 10d7 16        		.byte	0x16
 16799 10d8 00        		.byte	0x0
 16800 10d9 05        		.uleb128 0x5
 16801 10da 02        		.byte	0x2
 16802 10db 0000 0000 		.long	.LSM409
 16803 10df 15        		.byte	0x15
 16804 10e0 00        		.byte	0x0
 16805 10e1 05        		.uleb128 0x5
 16806 10e2 02        		.byte	0x2
 16807 10e3 0000 0000 		.long	.LFE68
 16808 10e7 00        		.byte	0x0
 16809 10e8 01        		.uleb128 0x1
 16810 10e9 01        		.byte	0x1
 16811 10ea 00        		.byte	0x0
 16812 10eb 05        		.uleb128 0x5
 16813 10ec 02        		.byte	0x2
 16814 10ed 0000 0000 		.long	.LSM410
 16815 10f1 7A        		.byte	0x7a
 16816 10f2 00        		.byte	0x0
 16817 10f3 05        		.uleb128 0x5
 16818 10f4 02        		.byte	0x2
 16819 10f5 0000 0000 		.long	.LSM411
 16820 10f9 16        		.byte	0x16
 16821 10fa 00        		.byte	0x0
 16822 10fb 05        		.uleb128 0x5
 16823 10fc 02        		.byte	0x2
 16824 10fd 0000 0000 		.long	.LSM412
 16825 1101 15        		.byte	0x15
 16826 1102 00        		.byte	0x0
 16827 1103 05        		.uleb128 0x5
 16828 1104 02        		.byte	0x2
 16829 1105 0000 0000 		.long	.LFE67
 16830 1109 00        		.byte	0x0
 16831 110a 01        		.uleb128 0x1
 16832 110b 01        		.byte	0x1
 16833               	.LELT0:
 16834 110c 1900 0000 		.section	.debug_str,"MS",@progbits,1
 16834      0200 1300 
 16834      0000 0101 
 16834      FB0E 0D00 
 16834      0101 0101 
 16835               	.LASF8:
 16836 0000 6361 7061 		.string	"capacity"
 16836      6369 7479 
 16836      00
 16837               	.LASF42:
 16838 0009 5F5A 4E4B 		.string	"_ZNK6String9compareToERKS_"
 16838      3653 7472 
 16838      696E 6739 
 16838      636F 6D70 
 16838      6172 6554 
 16839               	.LASF32:
 16840 0024 5F5A 4E36 		.string	"_ZN6StringpLEPKc"
 16840      5374 7269 
 16840      6E67 704C 
GAS LISTING /var/folders/1s/lqjcb7x5323625d47g9gdgmr0000gp/T//ccbjwlOH.s 			page 301


 16840      4550 4B63 
 16840      00
 16841               	.LASF149:
 16842 0035 5F5F 696E 		.string	"__in_chrg"
 16842      5F63 6872 
 16842      6700 
 16843               	.LASF78:
 16844 003f 696E 6465 		.string	"indexOf"
 16844      784F 6600 
 16845               	.LASF58:
 16846 0047 6F70 6572 		.string	"operator>="
 16846      6174 6F72 
 16846      3E3D 00
 16847               	.LASF107:
 16848 0052 5F5A 4E36 		.string	"_ZN6String12changeBufferEj"
 16848      5374 7269 
 16848      6E67 3132 
 16848      6368 616E 
 16848      6765 4275 
 16849               	.LASF110:
 16850 006d 5F5A 4E36 		.string	"_ZN6String4copyEPKcj"
 16850      5374 7269 
 16850      6E67 3463 
 16850      6F70 7945 
 16850      504B 636A 
 16851               	.LASF68:
 16852 0082 5F5A 4E4B 		.string	"_ZNK6String6charAtEj"
 16852      3653 7472 
 16852      696E 6736 
 16852      6368 6172 
 16852      4174 456A 
 16853               	.LASF99:
 16854 0097 5F5A 4E36 		.string	"_ZN6String4trimEv"
 16854      5374 7269 
 16854      6E67 3474 
 16854      7269 6D45 
 16854      7600 
 16855               	.LASF73:
 16856 00a9 6765 7442 		.string	"getBytes"
 16856      7974 6573 
 16856      00
 16857               	.LASF86:
 16858 00b2 5F5A 4E4B 		.string	"_ZNK6String11lastIndexOfERKS_"
 16858      3653 7472 
 16858      696E 6731 
 16858      316C 6173 
 16858      7449 6E64 
 16859               	.LASF118:
 16860 00d0 6475 6D6D 		.string	"dummy_writable_char"
 16860      795F 7772 
 16860      6974 6162 
 16860      6C65 5F63 
 16860      6861 7200 
 16861               	.LASF66:
 16862 00e4 5F5A 4E4B 		.string	"_ZNK6String8endsWithERKS_"
 16862      3653 7472 
 16862      696E 6738 
GAS LISTING /var/folders/1s/lqjcb7x5323625d47g9gdgmr0000gp/T//ccbjwlOH.s 			page 302


 16862      656E 6473 
 16862      5769 7468 
 16863               	.LASF97:
 16864 00fe 5F5A 4E36 		.string	"_ZN6String11toUpperCaseEv"
 16864      5374 7269 
 16864      6E67 3131 
 16864      746F 5570 
 16864      7065 7243 
 16865               	.LASF45:
 16866 0118 5F5A 4E4B 		.string	"_ZNK6String6equalsEPKc"
 16866      3653 7472 
 16866      696E 6736 
 16866      6571 7561 
 16866      6C73 4550 
 16867               	.LASF112:
 16868 012f 5F5F 7066 		.string	"__pfn"
 16868      6E00 
 16869               	.LASF6:
 16870 0135 6C6F 6E67 		.string	"long long unsigned int"
 16870      206C 6F6E 
 16870      6720 756E 
 16870      7369 676E 
 16870      6564 2069 
 16871               	.LASF139:
 16872 014c 5F5A 706C 		.string	"_ZplRK15StringSumHelperj"
 16872      524B 3135 
 16872      5374 7269 
 16872      6E67 5375 
 16872      6D48 656C 
 16873               	.LASF70:
 16874 0165 5F5A 4E4B 		.string	"_ZNK6StringixEj"
 16874      3653 7472 
 16874      696E 6769 
 16874      7845 6A00 
 16875               	.LASF135:
 16876 0175 6469 6666 		.string	"diff"
 16876      00
 16877               	.LASF11:
 16878 017a 7E53 7472 		.string	"~String"
 16878      696E 6700 
 16879               	.LASF43:
 16880 0182 6571 7561 		.string	"equals"
 16880      6C73 00
 16881               	.LASF150:
 16882 0189 474E 5520 		.string	"GNU C++ 4.3.2"
 16882      432B 2B20 
 16882      342E 332E 
 16882      3200 
 16883               	.LASF85:
 16884 0197 5F5A 4E4B 		.string	"_ZNK6String11lastIndexOfEcj"
 16884      3653 7472 
 16884      696E 6731 
 16884      316C 6173 
 16884      7449 6E64 
 16885               	.LASF148:
 16886 01b3 7269 6768 		.string	"right"
 16886      7400 
GAS LISTING /var/folders/1s/lqjcb7x5323625d47g9gdgmr0000gp/T//ccbjwlOH.s 			page 303


 16887               	.LASF5:
 16888 01b9 6C6F 6E67 		.string	"long long int"
 16888      206C 6F6E 
 16888      6720 696E 
 16888      7400 
 16889               	.LASF2:
 16890 01c7 7369 676E 		.string	"signed char"
 16890      6564 2063 
 16890      6861 7200 
 16891               	.LASF61:
 16892 01d3 5F5A 4E4B 		.string	"_ZNK6String16equalsIgnoreCaseERKS_"
 16892      3653 7472 
 16892      696E 6731 
 16892      3665 7175 
 16892      616C 7349 
 16893               	.LASF51:
 16894 01f6 5F5A 4E4B 		.string	"_ZNK6StringneEPKc"
 16894      3653 7472 
 16894      696E 676E 
 16894      6545 504B 
 16894      6300 
 16895               	.LASF114:
 16896 0208 5374 7269 		.string	"StringSumHelper"
 16896      6E67 5375 
 16896      6D48 656C 
 16896      7065 7200 
 16897               	.LASF81:
 16898 0218 5F5A 4E4B 		.string	"_ZNK6String7indexOfERKS_"
 16898      3653 7472 
 16898      696E 6737 
 16898      696E 6465 
 16898      784F 6645 
 16899               	.LASF95:
 16900 0231 5F5A 4E36 		.string	"_ZN6String11toLowerCaseEv"
 16900      5374 7269 
 16900      6E67 3131 
 16900      746F 4C6F 
 16900      7765 7243 
 16901               	.LASF123:
 16902 024b 7465 6D70 		.string	"temp"
 16902      00
 16903               	.LASF1:
 16904 0250 6C6F 6E67 		.string	"long int"
 16904      2069 6E74 
 16904      00
 16905               	.LASF133:
 16906 0259 7772 6974 		.string	"writeTo"
 16906      6554 6F00 
 16907               	.LASF41:
 16908 0261 636F 6D70 		.string	"compareTo"
 16908      6172 6554 
 16908      6F00 
 16909               	.LASF49:
 16910 026b 6F70 6572 		.string	"operator!="
 16910      6174 6F72 
 16910      213D 00
 16911               	.LASF76:
GAS LISTING /var/folders/1s/lqjcb7x5323625d47g9gdgmr0000gp/T//ccbjwlOH.s 			page 304


 16912 0276 746F 4368 		.string	"toCharArray"
 16912      6172 4172 
 16912      7261 7900 
 16913               	.LASF89:
 16914 0282 5F5A 4E4B 		.string	"_ZNK6String9substringEj"
 16914      3653 7472 
 16914      696E 6739 
 16914      7375 6273 
 16914      7472 696E 
 16915               	.LASF104:
 16916 029a 696E 7661 		.string	"invalidate"
 16916      6C69 6461 
 16916      7465 00
 16917               	.LASF134:
 16918 02a5 6E65 776C 		.string	"newlen"
 16918      656E 00
 16919               	.LASF130:
 16920 02ac 7265 6164 		.string	"readFrom"
 16920      4672 6F6D 
 16920      00
 16921               	.LASF77:
 16922 02b5 5F5A 4E4B 		.string	"_ZNK6String11toCharArrayEPcjj"
 16922      3653 7472 
 16922      696E 6731 
 16922      3174 6F43 
 16922      6861 7241 
 16923               	.LASF125:
 16924 02d3 6275 6673 		.string	"bufsize"
 16924      697A 6500 
 16925               	.LASF115:
 16926 02db 7468 6973 		.string	"this"
 16926      00
 16927               	.LASF23:
 16928 02e0 5F5A 4E36 		.string	"_ZN6String6concatEPKc"
 16928      5374 7269 
 16928      6E67 3663 
 16928      6F6E 6361 
 16928      7445 504B 
 16929               	.LASF122:
 16930 02f6 7465 6D70 		.string	"tempchar"
 16930      6368 6172 
 16930      00
 16931               	.LASF75:
 16932 02ff 5F5A 4E4B 		.string	"_ZNK6String8getBytesEPhjj"
 16932      3653 7472 
 16932      696E 6738 
 16932      6765 7442 
 16932      7974 6573 
 16933               	.LASF126:
 16934 0319 6373 7472 		.string	"cstr"
 16934      00
 16935               	.LASF21:
 16936 031e 636F 6E63 		.string	"concat"
 16936      6174 00
 16937               	.LASF26:
 16938 0325 5F5A 4E36 		.string	"_ZN6String6concatEi"
 16938      5374 7269 
GAS LISTING /var/folders/1s/lqjcb7x5323625d47g9gdgmr0000gp/T//ccbjwlOH.s 			page 305


 16938      6E67 3663 
 16938      6F6E 6361 
 16938      7445 6900 
 16939               	.LASF55:
 16940 0339 5F5A 4E4B 		.string	"_ZNK6StringgtERKS_"
 16940      3653 7472 
 16940      696E 6767 
 16940      7445 524B 
 16940      535F 00
 16941               	.LASF15:
 16942 034c 5F5A 4E36 		.string	"_ZN6String7reserveEj"
 16942      5374 7269 
 16942      6E67 3772 
 16942      6573 6572 
 16942      7665 456A 
 16943               	.LASF83:
 16944 0361 6C61 7374 		.string	"lastIndexOf"
 16944      496E 6465 
 16944      784F 6600 
 16945               	.LASF29:
 16946 036d 5F5A 4E36 		.string	"_ZN6String6concatEm"
 16946      5374 7269 
 16946      6E67 3663 
 16946      6F6E 6361 
 16946      7445 6D00 
 16947               	.LASF79:
 16948 0381 5F5A 4E4B 		.string	"_ZNK6String7indexOfEc"
 16948      3653 7472 
 16948      696E 6737 
 16948      696E 6465 
 16948      784F 6645 
 16949               	.LASF0:
 16950 0397 756E 7369 		.string	"unsigned int"
 16950      676E 6564 
 16950      2069 6E74 
 16950      00
 16951               	.LASF119:
 16952 03a4 6265 6769 		.string	"begin"
 16952      6E00 
 16953               	.LASF92:
 16954 03aa 5F5A 4E36 		.string	"_ZN6String7replaceEcc"
 16954      5374 7269 
 16954      6E67 3772 
 16954      6570 6C61 
 16954      6365 4563 
 16955               	.LASF4:
 16956 03c0 6C6F 6E67 		.string	"long unsigned int"
 16956      2075 6E73 
 16956      6967 6E65 
 16956      6420 696E 
 16956      7400 
 16957               	.LASF131:
 16958 03d2 666F 756E 		.string	"foundAt"
 16958      6441 7400 
 16959               	.LASF74:
 16960 03da 5F5A 4E36 		.string	"_ZN6String9setCharAtEjc"
 16960      5374 7269 
GAS LISTING /var/folders/1s/lqjcb7x5323625d47g9gdgmr0000gp/T//ccbjwlOH.s 			page 306


 16960      6E67 3973 
 16960      6574 4368 
 16960      6172 4174 
 16961               	.LASF71:
 16962 03f2 5F5A 4E36 		.string	"_ZN6StringixEj"
 16962      5374 7269 
 16962      6E67 6978 
 16962      456A 00
 16963               	.LASF20:
 16964 0401 5F5A 4E36 		.string	"_ZN6StringaSEPKc"
 16964      5374 7269 
 16964      6E67 6153 
 16964      4550 4B63 
 16964      00
 16965               	.LASF132:
 16966 0412 7369 7A65 		.string	"size"
 16966      00
 16967               	.LASF67:
 16968 0417 6368 6172 		.string	"charAt"
 16968      4174 00
 16969               	.LASF96:
 16970 041e 746F 5570 		.string	"toUpperCase"
 16970      7065 7243 
 16970      6173 6500 
 16971               	.LASF60:
 16972 042a 6571 7561 		.string	"equalsIgnoreCase"
 16972      6C73 4967 
 16972      6E6F 7265 
 16972      4361 7365 
 16972      00
 16973               	.LASF88:
 16974 043b 7375 6273 		.string	"substring"
 16974      7472 696E 
 16974      6700 
 16975               	.LASF24:
 16976 0445 5F5A 4E36 		.string	"_ZN6String6concatEc"
 16976      5374 7269 
 16976      6E67 3663 
 16976      6F6E 6361 
 16976      7445 6300 
 16977               	.LASF98:
 16978 0459 7472 696D 		.string	"trim"
 16978      00
 16979               	.LASF25:
 16980 045e 5F5A 4E36 		.string	"_ZN6String6concatEh"
 16980      5374 7269 
 16980      6E67 3663 
 16980      6F6E 6361 
 16980      7445 6800 
 16981               	.LASF12:
 16982 0472 5374 7269 		.string	"StringIfHelper"
 16982      6E67 4966 
 16982      4865 6C70 
 16982      6572 00
 16983               	.LASF27:
 16984 0481 5F5A 4E36 		.string	"_ZN6String6concatEj"
 16984      5374 7269 
GAS LISTING /var/folders/1s/lqjcb7x5323625d47g9gdgmr0000gp/T//ccbjwlOH.s 			page 307


 16984      6E67 3663 
 16984      6F6E 6361 
 16984      7445 6A00 
 16985               	.LASF28:
 16986 0495 5F5A 4E36 		.string	"_ZN6String6concatEl"
 16986      5374 7269 
 16986      6E67 3663 
 16986      6F6E 6361 
 16986      7445 6C00 
 16987               	.LASF22:
 16988 04a9 5F5A 4E36 		.string	"_ZN6String6concatERKS_"
 16988      5374 7269 
 16988      6E67 3663 
 16988      6F6E 6361 
 16988      7445 524B 
 16989               	.LASF64:
 16990 04c0 5F5A 4E4B 		.string	"_ZNK6String10startsWithERKS_j"
 16990      3653 7472 
 16990      696E 6731 
 16990      3073 7461 
 16990      7274 7357 
 16991               	.LASF87:
 16992 04de 5F5A 4E4B 		.string	"_ZNK6String11lastIndexOfERKS_j"
 16992      3653 7472 
 16992      696E 6731 
 16992      316C 6173 
 16992      7449 6E64 
 16993               	.LASF105:
 16994 04fd 5F5A 4E36 		.string	"_ZN6String10invalidateEv"
 16994      5374 7269 
 16994      6E67 3130 
 16994      696E 7661 
 16994      6C69 6461 
 16995               	.LASF109:
 16996 0516 636F 7079 		.string	"copy"
 16996      00
 16997               	.LASF69:
 16998 051b 6F70 6572 		.string	"operator[]"
 16998      6174 6F72 
 16998      5B5D 00
 16999               	.LASF144:
 17000 0526 5F5A 706C 		.string	"_ZplRK15StringSumHelperRK6String"
 17000      524B 3135 
 17000      5374 7269 
 17000      6E67 5375 
 17000      6D48 656C 
 17001               	.LASF62:
 17002 0547 7374 6172 		.string	"startsWith"
 17002      7473 5769 
 17002      7468 00
 17003               	.LASF31:
 17004 0552 5F5A 4E36 		.string	"_ZN6StringpLERKS_"
 17004      5374 7269 
 17004      6E67 704C 
 17004      4552 4B53 
 17004      5F00 
 17005               	.LASF30:
GAS LISTING /var/folders/1s/lqjcb7x5323625d47g9gdgmr0000gp/T//ccbjwlOH.s 			page 308


 17006 0564 6F70 6572 		.string	"operator+="
 17006      6174 6F72 
 17006      2B3D 00
 17007               	.LASF33:
 17008 056f 5F5A 4E36 		.string	"_ZN6StringpLEc"
 17008      5374 7269 
 17008      6E67 704C 
 17008      4563 00
 17009               	.LASF17:
 17010 057e 5F5A 4E4B 		.string	"_ZNK6String6lengthEv"
 17010      3653 7472 
 17010      696E 6736 
 17010      6C65 6E67 
 17010      7468 4576 
 17011               	.LASF120:
 17012 0593 6672 6F6D 		.string	"fromIndex"
 17012      496E 6465 
 17012      7800 
 17013               	.LASF34:
 17014 059d 5F5A 4E36 		.string	"_ZN6StringpLEh"
 17014      5374 7269 
 17014      6E67 704C 
 17014      4568 00
 17015               	.LASF35:
 17016 05ac 5F5A 4E36 		.string	"_ZN6StringpLEi"
 17016      5374 7269 
 17016      6E67 704C 
 17016      4569 00
 17017               	.LASF36:
 17018 05bb 5F5A 4E36 		.string	"_ZN6StringpLEj"
 17018      5374 7269 
 17018      6E67 704C 
 17018      456A 00
 17019               	.LASF37:
 17020 05ca 5F5A 4E36 		.string	"_ZN6StringpLEl"
 17020      5374 7269 
 17020      6E67 704C 
 17020      456C 00
 17021               	.LASF38:
 17022 05d9 5F5A 4E36 		.string	"_ZN6StringpLEm"
 17022      5374 7269 
 17022      6E67 704C 
 17022      456D 00
 17023               	.LASF93:
 17024 05e8 5F5A 4E36 		.string	"_ZN6String7replaceERKS_S1_"
 17024      5374 7269 
 17024      6E67 3772 
 17024      6570 6C61 
 17024      6365 4552 
 17025               	.LASF124:
 17026 0603 7468 6543 		.string	"theChar"
 17026      6861 7200 
 17027               	.LASF102:
 17028 060b 696E 6974 		.string	"init"
 17028      00
 17029               	.LASF47:
 17030 0610 5F5A 4E4B 		.string	"_ZNK6StringeqERKS_"
GAS LISTING /var/folders/1s/lqjcb7x5323625d47g9gdgmr0000gp/T//ccbjwlOH.s 			page 309


 17030      3653 7472 
 17030      696E 6765 
 17030      7145 524B 
 17030      535F 00
 17031               	.LASF40:
 17032 0623 5F5A 4E4B 		.string	"_ZNK6StringcvMS_KFvvEEv"
 17032      3653 7472 
 17032      696E 6763 
 17032      764D 535F 
 17032      4B46 7676 
 17033               	.LASF136:
 17034 063b 6F70 6572 		.string	"operator+"
 17034      6174 6F72 
 17034      2B00 
 17035               	.LASF65:
 17036 0645 656E 6473 		.string	"endsWith"
 17036      5769 7468 
 17036      00
 17037               	.LASF146:
 17038 064e 6261 7365 		.string	"base"
 17038      00
 17039               	.LASF44:
 17040 0653 5F5A 4E4B 		.string	"_ZNK6String6equalsERKS_"
 17040      3653 7472 
 17040      696E 6736 
 17040      6571 7561 
 17040      6C73 4552 
 17041               	.LASF72:
 17042 066b 7365 7443 		.string	"setCharAt"
 17042      6861 7241 
 17042      7400 
 17043               	.LASF3:
 17044 0675 756E 7369 		.string	"unsigned char"
 17044      676E 6564 
 17044      2063 6861 
 17044      7200 
 17045               	.LASF52:
 17046 0683 6F70 6572 		.string	"operator<"
 17046      6174 6F72 
 17046      3C00 
 17047               	.LASF18:
 17048 068d 6F70 6572 		.string	"operator="
 17048      6174 6F72 
 17048      3D00 
 17049               	.LASF54:
 17050 0697 6F70 6572 		.string	"operator>"
 17050      6174 6F72 
 17050      3E00 
 17051               	.LASF142:
 17052 06a1 5F5A 706C 		.string	"_ZplRK15StringSumHelperc"
 17052      524B 3135 
 17052      5374 7269 
 17052      6E67 5375 
 17052      6D48 656C 
 17053               	.LASF140:
 17054 06ba 5F5A 706C 		.string	"_ZplRK15StringSumHelperi"
 17054      524B 3135 
GAS LISTING /var/folders/1s/lqjcb7x5323625d47g9gdgmr0000gp/T//ccbjwlOH.s 			page 310


 17054      5374 7269 
 17054      6E67 5375 
 17054      6D48 656C 
 17055               	.LASF138:
 17056 06d3 5F5A 706C 		.string	"_ZplRK15StringSumHelperl"
 17056      524B 3135 
 17056      5374 7269 
 17056      6E67 5375 
 17056      6D48 656C 
 17057               	.LASF137:
 17058 06ec 5F5A 706C 		.string	"_ZplRK15StringSumHelperm"
 17058      524B 3135 
 17058      5374 7269 
 17058      6E67 5375 
 17058      6D48 656C 
 17059               	.LASF48:
 17060 0705 5F5A 4E4B 		.string	"_ZNK6StringeqEPKc"
 17060      3653 7472 
 17060      696E 6765 
 17060      7145 504B 
 17060      6300 
 17061               	.LASF145:
 17062 0717 7661 6C75 		.string	"value"
 17062      6500 
 17063               	.LASF14:
 17064 071d 5F5A 4E4B 		.string	"_ZNK6String14StringIfHelperEv"
 17064      3653 7472 
 17064      696E 6731 
 17064      3453 7472 
 17064      696E 6749 
 17065               	.LASF128:
 17066 073b 6D61 7853 		.string	"maxStrLen"
 17066      7472 4C65 
 17066      6E00 
 17067               	.LASF111:
 17068 0745 6368 6172 		.string	"char"
 17068      00
 17069               	.LASF151:
 17070 074a 2F41 7070 		.ascii	"/Applications/Arduino.app/Conten"
 17070      6C69 6361 
 17070      7469 6F6E 
 17070      732F 4172 
 17070      6475 696E 
 17071 076a 7473 2F52 		.string	"ts/Resources/Java/hardware/arduino/avr/cores/arduino/WString.cpp"
 17071      6573 6F75 
 17071      7263 6573 
 17071      2F4A 6176 
 17071      612F 6861 
 17072               	.LASF16:
 17073 07ab 6C65 6E67 		.string	"length"
 17073      7468 00
 17074               	.LASF106:
 17075 07b2 6368 616E 		.string	"changeBuffer"
 17075      6765 4275 
 17075      6666 6572 
 17075      00
 17076               	.LASF129:
GAS LISTING /var/folders/1s/lqjcb7x5323625d47g9gdgmr0000gp/T//ccbjwlOH.s 			page 311


 17077 07bf 6E65 7762 		.string	"newbuffer"
 17077      7566 6665 
 17077      7200 
 17078               	.LASF56:
 17079 07c9 6F70 6572 		.string	"operator<="
 17079      6174 6F72 
 17079      3C3D 00
 17080               	.LASF63:
 17081 07d4 5F5A 4E4B 		.string	"_ZNK6String10startsWithERKS_"
 17081      3653 7472 
 17081      696E 6731 
 17081      3073 7461 
 17081      7274 7357 
 17082               	.LASF116:
 17083 07f1 696E 6465 		.string	"index"
 17083      7800 
 17084               	.LASF91:
 17085 07f7 7265 706C 		.string	"replace"
 17085      6163 6500 
 17086               	.LASF108:
 17087 07ff 5F5A 4E36 		.string	"_ZN6String6concatEPKcj"
 17087      5374 7269 
 17087      6E67 3663 
 17087      6F6E 6361 
 17087      7445 504B 
 17088               	.LASF7:
 17089 0816 6275 6666 		.string	"buffer"
 17089      6572 00
 17090               	.LASF141:
 17091 081d 5F5A 706C 		.string	"_ZplRK15StringSumHelperh"
 17091      524B 3135 
 17091      5374 7269 
 17091      6E67 5375 
 17091      6D48 656C 
 17092               	.LASF94:
 17093 0836 746F 4C6F 		.string	"toLowerCase"
 17093      7765 7243 
 17093      6173 6500 
 17094               	.LASF10:
 17095 0842 5374 7269 		.string	"String"
 17095      6E67 00
 17096               	.LASF127:
 17097 0849 6F66 6673 		.string	"offset"
 17097      6574 00
 17098               	.LASF101:
 17099 0850 5F5A 4E4B 		.string	"_ZNK6String5toIntEv"
 17099      3653 7472 
 17099      696E 6735 
 17099      746F 496E 
 17099      7445 7600 
 17100               	.LASF57:
 17101 0864 5F5A 4E4B 		.string	"_ZNK6StringleERKS_"
 17101      3653 7472 
 17101      696E 676C 
 17101      6545 524B 
 17101      535F 00
 17102               	.LASF113:
GAS LISTING /var/folders/1s/lqjcb7x5323625d47g9gdgmr0000gp/T//ccbjwlOH.s 			page 312


 17103 0877 5F5F 6465 		.string	"__delta"
 17103      6C74 6100 
 17104               	.LASF80:
 17105 087f 5F5A 4E4B 		.string	"_ZNK6String7indexOfEcj"
 17105      3653 7472 
 17105      696E 6737 
 17105      696E 6465 
 17105      784F 6645 
 17106               	.LASF103:
 17107 0896 5F5A 4E36 		.string	"_ZN6String4initEv"
 17107      5374 7269 
 17107      6E67 3469 
 17107      6E69 7445 
 17107      7600 
 17108               	.LASF121:
 17109 08a8 666F 756E 		.string	"found"
 17109      6400 
 17110               	.LASF50:
 17111 08ae 5F5A 4E4B 		.string	"_ZNK6StringneERKS_"
 17111      3653 7472 
 17111      696E 676E 
 17111      6545 524B 
 17111      535F 00
 17112               	.LASF53:
 17113 08c1 5F5A 4E4B 		.string	"_ZNK6StringltERKS_"
 17113      3653 7472 
 17113      696E 676C 
 17113      7445 524B 
 17113      535F 00
 17114               	.LASF13:
 17115 08d4 7265 7365 		.string	"reserve"
 17115      7276 6500 
 17116               	.LASF46:
 17117 08dc 6F70 6572 		.string	"operator=="
 17117      6174 6F72 
 17117      3D3D 00
 17118               	.LASF9:
 17119 08e7 666C 6167 		.string	"flags"
 17119      7300 
 17120               	.LASF39:
 17121 08ed 6F70 6572 		.string	"operator void (String::*)()const"
 17121      6174 6F72 
 17121      2076 6F69 
 17121      6420 2853 
 17121      7472 696E 
 17122               	.LASF117:
 17123 090e 6669 6E64 		.string	"find"
 17123      00
 17124               	.LASF100:
 17125 0913 746F 496E 		.string	"toInt"
 17125      7400 
 17126               	.LASF90:
 17127 0919 5F5A 4E4B 		.string	"_ZNK6String9substringEjj"
 17127      3653 7472 
 17127      696E 6739 
 17127      7375 6273 
 17127      7472 696E 
GAS LISTING /var/folders/1s/lqjcb7x5323625d47g9gdgmr0000gp/T//ccbjwlOH.s 			page 313


 17128               	.LASF84:
 17129 0932 5F5A 4E4B 		.string	"_ZNK6String11lastIndexOfEc"
 17129      3653 7472 
 17129      696E 6731 
 17129      316C 6173 
 17129      7449 6E64 
 17130               	.LASF59:
 17131 094d 5F5A 4E4B 		.string	"_ZNK6StringgeERKS_"
 17131      3653 7472 
 17131      696E 6767 
 17131      6545 524B 
 17131      535F 00
 17132               	.LASF82:
 17133 0960 5F5A 4E4B 		.string	"_ZNK6String7indexOfERKS_j"
 17133      3653 7472 
 17133      696E 6737 
 17133      696E 6465 
 17133      784F 6645 
 17134               	.LASF19:
 17135 097a 5F5A 4E36 		.string	"_ZN6StringaSERKS_"
 17135      5374 7269 
 17135      6E67 6153 
 17135      4552 4B53 
 17135      5F00 
 17136               	.LASF147:
 17137 098c 6C65 6674 		.string	"left"
 17137      00
 17138               	.LASF143:
 17139 0991 5F5A 706C 		.string	"_ZplRK15StringSumHelperPKc"
 17139      524B 3135 
 17139      5374 7269 
 17139      6E67 5375 
 17139      6D48 656C 
GAS LISTING /var/folders/1s/lqjcb7x5323625d47g9gdgmr0000gp/T//ccbjwlOH.s 			page 314


DEFINED SYMBOLS
                            *ABS*:00000000 WString.cpp
/var/folders/1s/lqjcb7x5323625d47g9gdgmr0000gp/T//ccbjwlOH.s:2      *ABS*:0000003f __SREG__
/var/folders/1s/lqjcb7x5323625d47g9gdgmr0000gp/T//ccbjwlOH.s:3      *ABS*:0000003e __SP_H__
/var/folders/1s/lqjcb7x5323625d47g9gdgmr0000gp/T//ccbjwlOH.s:4      *ABS*:0000003d __SP_L__
/var/folders/1s/lqjcb7x5323625d47g9gdgmr0000gp/T//ccbjwlOH.s:5      *ABS*:00000034 __CCP__
/var/folders/1s/lqjcb7x5323625d47g9gdgmr0000gp/T//ccbjwlOH.s:6      *ABS*:00000000 __tmp_reg__
/var/folders/1s/lqjcb7x5323625d47g9gdgmr0000gp/T//ccbjwlOH.s:7      *ABS*:00000001 __zero_reg__
/var/folders/1s/lqjcb7x5323625d47g9gdgmr0000gp/T//ccbjwlOH.s:21     .text._ZNK6String6charAtEj:00000000 _ZNK6String6charAtEj
/var/folders/1s/lqjcb7x5323625d47g9gdgmr0000gp/T//ccbjwlOH.s:60     .text._ZN6String9setCharAtEjc:00000000 _ZN6String9setCharAtEjc
/var/folders/1s/lqjcb7x5323625d47g9gdgmr0000gp/T//ccbjwlOH.s:89     .text._ZN6StringixEj:00000000 _ZN6StringixEj
/var/folders/1s/lqjcb7x5323625d47g9gdgmr0000gp/T//ccbjwlOH.s:4210   .bss._ZZN6StringixEjE19dummy_writable_char:00000000 _ZZN6StringixEjE19dummy_writable_char
/var/folders/1s/lqjcb7x5323625d47g9gdgmr0000gp/T//ccbjwlOH.s:133    .text._ZNK6StringixEj:00000000 _ZNK6StringixEj
/var/folders/1s/lqjcb7x5323625d47g9gdgmr0000gp/T//ccbjwlOH.s:168    .text._ZN6String7replaceEcc:00000000 _ZN6String7replaceEcc
/var/folders/1s/lqjcb7x5323625d47g9gdgmr0000gp/T//ccbjwlOH.s:208    .text._ZNK6String5toIntEv:00000000 _ZNK6String5toIntEv
/var/folders/1s/lqjcb7x5323625d47g9gdgmr0000gp/T//ccbjwlOH.s:243    .text._ZN6String4trimEv:00000000 _ZN6String4trimEv
/var/folders/1s/lqjcb7x5323625d47g9gdgmr0000gp/T//ccbjwlOH.s:372    .text._ZN6String11toUpperCaseEv:00000000 _ZN6String11toUpperCaseEv
/var/folders/1s/lqjcb7x5323625d47g9gdgmr0000gp/T//ccbjwlOH.s:421    .text._ZN6String11toLowerCaseEv:00000000 _ZN6String11toLowerCaseEv
/var/folders/1s/lqjcb7x5323625d47g9gdgmr0000gp/T//ccbjwlOH.s:470    .text._ZNK6String16equalsIgnoreCaseERKS_:00000000 _ZNK6String16equalsIgnoreCaseERKS_
/var/folders/1s/lqjcb7x5323625d47g9gdgmr0000gp/T//ccbjwlOH.s:567    .text._ZNK6String11lastIndexOfERKS_j:00000000 _ZNK6String11lastIndexOfERKS_j
/var/folders/1s/lqjcb7x5323625d47g9gdgmr0000gp/T//ccbjwlOH.s:695    .text._ZNK6String11lastIndexOfERKS_:00000000 _ZNK6String11lastIndexOfERKS_
/var/folders/1s/lqjcb7x5323625d47g9gdgmr0000gp/T//ccbjwlOH.s:724    .text._ZNK6String7indexOfERKS_j:00000000 _ZNK6String7indexOfERKS_j
/var/folders/1s/lqjcb7x5323625d47g9gdgmr0000gp/T//ccbjwlOH.s:784    .text._ZNK6String7indexOfERKS_:00000000 _ZNK6String7indexOfERKS_
/var/folders/1s/lqjcb7x5323625d47g9gdgmr0000gp/T//ccbjwlOH.s:803    .text._ZNK6String11lastIndexOfEcj:00000000 _ZNK6String11lastIndexOfEcj
/var/folders/1s/lqjcb7x5323625d47g9gdgmr0000gp/T//ccbjwlOH.s:895    .text._ZNK6String11lastIndexOfEc:00000000 _ZNK6String11lastIndexOfEc
/var/folders/1s/lqjcb7x5323625d47g9gdgmr0000gp/T//ccbjwlOH.s:917    .text._ZNK6String7indexOfEcj:00000000 _ZNK6String7indexOfEcj
/var/folders/1s/lqjcb7x5323625d47g9gdgmr0000gp/T//ccbjwlOH.s:977    .text._ZNK6String7indexOfEc:00000000 _ZNK6String7indexOfEc
/var/folders/1s/lqjcb7x5323625d47g9gdgmr0000gp/T//ccbjwlOH.s:996    .text._ZNK6String8getBytesEPhjj:00000000 _ZNK6String8getBytesEPhjj
/var/folders/1s/lqjcb7x5323625d47g9gdgmr0000gp/T//ccbjwlOH.s:1077   .text._ZNK6String8endsWithERKS_:00000000 _ZNK6String8endsWithERKS_
/var/folders/1s/lqjcb7x5323625d47g9gdgmr0000gp/T//ccbjwlOH.s:1129   .text._ZNK6String6equalsEPKc:00000000 _ZNK6String6equalsEPKc
/var/folders/1s/lqjcb7x5323625d47g9gdgmr0000gp/T//ccbjwlOH.s:1195   .text._ZNK6String9compareToERKS_:00000000 _ZNK6String9compareToERKS_
/var/folders/1s/lqjcb7x5323625d47g9gdgmr0000gp/T//ccbjwlOH.s:1280   .text._ZNK6StringgeERKS_:00000000 _ZNK6StringgeERKS_
/var/folders/1s/lqjcb7x5323625d47g9gdgmr0000gp/T//ccbjwlOH.s:1302   .text._ZNK6StringleERKS_:00000000 _ZNK6StringleERKS_
/var/folders/1s/lqjcb7x5323625d47g9gdgmr0000gp/T//ccbjwlOH.s:1326   .text._ZNK6StringgtERKS_:00000000 _ZNK6StringgtERKS_
/var/folders/1s/lqjcb7x5323625d47g9gdgmr0000gp/T//ccbjwlOH.s:1350   .text._ZNK6StringltERKS_:00000000 _ZNK6StringltERKS_
/var/folders/1s/lqjcb7x5323625d47g9gdgmr0000gp/T//ccbjwlOH.s:1371   .text._ZNK6String6equalsERKS_:00000000 _ZNK6String6equalsERKS_
/var/folders/1s/lqjcb7x5323625d47g9gdgmr0000gp/T//ccbjwlOH.s:1412   .text._ZNK6String10startsWithERKS_j:00000000 _ZNK6String10startsWithERKS_j
/var/folders/1s/lqjcb7x5323625d47g9gdgmr0000gp/T//ccbjwlOH.s:1467   .text._ZNK6String10startsWithERKS_:00000000 _ZNK6String10startsWithERKS_
/var/folders/1s/lqjcb7x5323625d47g9gdgmr0000gp/T//ccbjwlOH.s:1503   .text._ZN6String12changeBufferEj:00000000 _ZN6String12changeBufferEj
/var/folders/1s/lqjcb7x5323625d47g9gdgmr0000gp/T//ccbjwlOH.s:1557   .text._ZN6String7replaceERKS_S1_:00000000 _ZN6String7replaceERKS_S1_
/var/folders/1s/lqjcb7x5323625d47g9gdgmr0000gp/T//ccbjwlOH.s:1923   .text._ZN6String7reserveEj:00000000 _ZN6String7reserveEj
/var/folders/1s/lqjcb7x5323625d47g9gdgmr0000gp/T//ccbjwlOH.s:1973   .text._ZN6String6concatEPKcj:00000000 _ZN6String6concatEPKcj
/var/folders/1s/lqjcb7x5323625d47g9gdgmr0000gp/T//ccbjwlOH.s:2052   .text._ZN6String6concatEm:00000000 _ZN6String6concatEm
/var/folders/1s/lqjcb7x5323625d47g9gdgmr0000gp/T//ccbjwlOH.s:2120   .text._ZN6String6concatEl:00000000 _ZN6String6concatEl
/var/folders/1s/lqjcb7x5323625d47g9gdgmr0000gp/T//ccbjwlOH.s:2188   .text._ZN6String6concatEj:00000000 _ZN6String6concatEj
/var/folders/1s/lqjcb7x5323625d47g9gdgmr0000gp/T//ccbjwlOH.s:2252   .text._ZN6String6concatEi:00000000 _ZN6String6concatEi
/var/folders/1s/lqjcb7x5323625d47g9gdgmr0000gp/T//ccbjwlOH.s:2320   .text._ZN6String6concatEh:00000000 _ZN6String6concatEh
/var/folders/1s/lqjcb7x5323625d47g9gdgmr0000gp/T//ccbjwlOH.s:2383   .text._ZN6String6concatEc:00000000 _ZN6String6concatEc
/var/folders/1s/lqjcb7x5323625d47g9gdgmr0000gp/T//ccbjwlOH.s:2422   .text._ZN6String6concatEPKc:00000000 _ZN6String6concatEPKc
/var/folders/1s/lqjcb7x5323625d47g9gdgmr0000gp/T//ccbjwlOH.s:2455   .text._ZN6String6concatERKS_:00000000 _ZN6String6concatERKS_
/var/folders/1s/lqjcb7x5323625d47g9gdgmr0000gp/T//ccbjwlOH.s:2478   .text._ZN6String10invalidateEv:00000000 _ZN6String10invalidateEv
/var/folders/1s/lqjcb7x5323625d47g9gdgmr0000gp/T//ccbjwlOH.s:2514   .text._ZplRK15StringSumHelperm:00000000 _ZplRK15StringSumHelperm
/var/folders/1s/lqjcb7x5323625d47g9gdgmr0000gp/T//ccbjwlOH.s:2550   .text._ZplRK15StringSumHelperl:00000000 _ZplRK15StringSumHelperl
/var/folders/1s/lqjcb7x5323625d47g9gdgmr0000gp/T//ccbjwlOH.s:2586   .text._ZplRK15StringSumHelperj:00000000 _ZplRK15StringSumHelperj
/var/folders/1s/lqjcb7x5323625d47g9gdgmr0000gp/T//ccbjwlOH.s:2622   .text._ZplRK15StringSumHelperi:00000000 _ZplRK15StringSumHelperi
/var/folders/1s/lqjcb7x5323625d47g9gdgmr0000gp/T//ccbjwlOH.s:2658   .text._ZplRK15StringSumHelperh:00000000 _ZplRK15StringSumHelperh
/var/folders/1s/lqjcb7x5323625d47g9gdgmr0000gp/T//ccbjwlOH.s:2694   .text._ZplRK15StringSumHelperc:00000000 _ZplRK15StringSumHelperc
GAS LISTING /var/folders/1s/lqjcb7x5323625d47g9gdgmr0000gp/T//ccbjwlOH.s 			page 315


/var/folders/1s/lqjcb7x5323625d47g9gdgmr0000gp/T//ccbjwlOH.s:2730   .text._ZplRK15StringSumHelperPKc:00000000 _ZplRK15StringSumHelperPKc
/var/folders/1s/lqjcb7x5323625d47g9gdgmr0000gp/T//ccbjwlOH.s:2781   .text._ZplRK15StringSumHelperRK6String:00000000 _ZplRK15StringSumHelperRK6String
/var/folders/1s/lqjcb7x5323625d47g9gdgmr0000gp/T//ccbjwlOH.s:2823   .text._ZN6String4copyEPKcj:00000000 _ZN6String4copyEPKcj
/var/folders/1s/lqjcb7x5323625d47g9gdgmr0000gp/T//ccbjwlOH.s:2877   .text._ZN6StringC1EPKc:00000000 _ZN6StringC1EPKc
/var/folders/1s/lqjcb7x5323625d47g9gdgmr0000gp/T//ccbjwlOH.s:2930   .text._ZN6StringC2EPKc:00000000 _ZN6StringC2EPKc
/var/folders/1s/lqjcb7x5323625d47g9gdgmr0000gp/T//ccbjwlOH.s:2983   .text._ZN6StringaSEPKc:00000000 _ZN6StringaSEPKc
/var/folders/1s/lqjcb7x5323625d47g9gdgmr0000gp/T//ccbjwlOH.s:3030   .text._ZN6StringC1Emh:00000000 _ZN6StringC1Emh
/var/folders/1s/lqjcb7x5323625d47g9gdgmr0000gp/T//ccbjwlOH.s:3108   .text._ZN6StringC2Emh:00000000 _ZN6StringC2Emh
/var/folders/1s/lqjcb7x5323625d47g9gdgmr0000gp/T//ccbjwlOH.s:3186   .text._ZN6StringC1Elh:00000000 _ZN6StringC1Elh
/var/folders/1s/lqjcb7x5323625d47g9gdgmr0000gp/T//ccbjwlOH.s:3264   .text._ZN6StringC2Elh:00000000 _ZN6StringC2Elh
/var/folders/1s/lqjcb7x5323625d47g9gdgmr0000gp/T//ccbjwlOH.s:3342   .text._ZN6StringC1Ejh:00000000 _ZN6StringC1Ejh
/var/folders/1s/lqjcb7x5323625d47g9gdgmr0000gp/T//ccbjwlOH.s:3420   .text._ZN6StringC2Ejh:00000000 _ZN6StringC2Ejh
/var/folders/1s/lqjcb7x5323625d47g9gdgmr0000gp/T//ccbjwlOH.s:3498   .text._ZN6StringC1Eih:00000000 _ZN6StringC1Eih
/var/folders/1s/lqjcb7x5323625d47g9gdgmr0000gp/T//ccbjwlOH.s:3576   .text._ZN6StringC2Eih:00000000 _ZN6StringC2Eih
/var/folders/1s/lqjcb7x5323625d47g9gdgmr0000gp/T//ccbjwlOH.s:3654   .text._ZN6StringC1Ehh:00000000 _ZN6StringC1Ehh
/var/folders/1s/lqjcb7x5323625d47g9gdgmr0000gp/T//ccbjwlOH.s:3733   .text._ZN6StringC2Ehh:00000000 _ZN6StringC2Ehh
/var/folders/1s/lqjcb7x5323625d47g9gdgmr0000gp/T//ccbjwlOH.s:3812   .text._ZN6StringC1Ec:00000000 _ZN6StringC1Ec
/var/folders/1s/lqjcb7x5323625d47g9gdgmr0000gp/T//ccbjwlOH.s:3867   .text._ZN6StringC2Ec:00000000 _ZN6StringC2Ec
/var/folders/1s/lqjcb7x5323625d47g9gdgmr0000gp/T//ccbjwlOH.s:3925   .text._ZNK6String9substringEjj:00000000 _ZNK6String9substringEjj
/var/folders/1s/lqjcb7x5323625d47g9gdgmr0000gp/T//ccbjwlOH.s:4028   .text._ZNK6String9substringEj:00000000 _ZNK6String9substringEj
/var/folders/1s/lqjcb7x5323625d47g9gdgmr0000gp/T//ccbjwlOH.s:4054   .text._ZN6StringaSERKS_:00000000 _ZN6StringaSERKS_
/var/folders/1s/lqjcb7x5323625d47g9gdgmr0000gp/T//ccbjwlOH.s:4098   .text._ZN6StringC1ERKS_:00000000 _ZN6StringC1ERKS_
/var/folders/1s/lqjcb7x5323625d47g9gdgmr0000gp/T//ccbjwlOH.s:4133   .text._ZN6StringC2ERKS_:00000000 _ZN6StringC2ERKS_
/var/folders/1s/lqjcb7x5323625d47g9gdgmr0000gp/T//ccbjwlOH.s:4168   .text._ZN6StringD1Ev:00000000 _ZN6StringD1Ev
/var/folders/1s/lqjcb7x5323625d47g9gdgmr0000gp/T//ccbjwlOH.s:4189   .text._ZN6StringD2Ev:00000000 _ZN6StringD2Ev

UNDEFINED SYMBOLS
__do_copy_data
__do_clear_bss
atol
isspace
memcpy
toupper
tolower
strstr
strrchr
strchr
strncpy
strcmp
strncmp
realloc
strcpy
memmove
ultoa
ltoa
utoa
itoa
free
