GAS LISTING /var/folders/1s/lqjcb7x5323625d47g9gdgmr0000gp/T//ccU6wS1s.s 			page 1


   1               		.file	"rtos.c"
   2               	__SREG__ = 0x3f
   3               	__SP_H__ = 0x3e
   4               	__SP_L__ = 0x3d
   5               	__CCP__  = 0x34
   6               	__tmp_reg__ = 0
   7               	__zero_reg__ = 1
   8               		.global __do_copy_data
   9               		.global __do_clear_bss
  10               		.section	.debug_abbrev,"",@progbits
  11               	.Ldebug_abbrev0:
  12               		.section	.debug_info,"",@progbits
  13               	.Ldebug_info0:
  14               		.section	.debug_line,"",@progbits
  15               	.Ldebug_line0:
  16               		.text
  17               	.Ltext0:
  18               		.section	.text._ZL10onTimerTicv,"ax",@progbits
  19               		.type	_ZL10onTimerTicv, @function
  20               	_ZL10onTimerTicv:
  21               	.LFB79:
  22               	.LSM0:
  23 0000 1F93      		push r17
  24 0002 CF93      		push r28
  25 0004 DF93      		push r29
  26               	/* prologue: function */
  27               	/* frame size = 0 */
  28               	.LBB26:
  29               	.LSM1:
  30 0006 1091 0000 		lds r17,_ZL5_time
  31 000a 1F5F      		subi r17,lo8(-(1))
  32 000c 1093 0000 		sts _ZL5_time,r17
  33 0010 6091 0000 		lds r22,_ZL17_noSuspendedTasks
  34 0014 70E0      		ldi r23,lo8(0)
  35               	.LVL0:
  36               	.L14:
  37               	.LSM2:
  38 0016 7617      		cp r23,r22
  39 0018 00F0      		brlo .+2
  40 001a 00C0      		rjmp .L17
  41               	.LVL1:
  42               	.L9:
  43               	.LBB27:
  44               	.LSM3:
  45 001c E72F      		mov r30,r23
  46 001e F0E0      		ldi r31,lo8(0)
  47 0020 EE0F      		lsl r30
  48 0022 FF1F      		rol r31
  49               	.LVL2:
  50 0024 E050      		subi r30,lo8(-(_ZL18_pSuspendedTaskAry))
  51 0026 F040      		sbci r31,hi8(-(_ZL18_pSuspendedTaskAry))
  52               	.LVL3:
  53 0028 C081      		ld r28,Z
  54 002a D181      		ldd r29,Z+1
  55               	.LSM4:
  56 002c 2B85      		ldd r18,Y+11
  57 002e 3C85      		ldd r19,Y+12
GAS LISTING /var/folders/1s/lqjcb7x5323625d47g9gdgmr0000gp/T//ccU6wS1s.s 			page 2


  58 0030 A901      		movw r20,r18
  59               	.LSM5:
  60 0032 8D81      		ldd r24,Y+5
  61 0034 1817      		cp r17,r24
  62 0036 01F4      		brne .+2
  63 0038 00C0      		rjmp .L18
  64               	.L3:
  65               	.LSM6:
  66 003a 8A85      		ldd r24,Y+10
  67 003c 8823      		tst r24
  68 003e 01F0      		breq .L4
  69               	.LSM7:
  70 0040 8150      		subi r24,lo8(-(-1))
  71 0042 8A87      		std Y+10,r24
  72 0044 8823      		tst r24
  73 0046 01F4      		brne .L4
  74               	.LSM8:
  75 0048 8D85      		ldd r24,Y+13
  76 004a 9E85      		ldd r25,Y+14
  77 004c 8070      		andi r24,lo8(-32768)
  78 004e 9078      		andi r25,hi8(-32768)
  79 0050 282B      		or r18,r24
  80 0052 392B      		or r19,r25
  81 0054 3C87      		std Y+12,r19
  82 0056 2B87      		std Y+11,r18
  83               	.L4:
  84               	.LSM9:
  85 0058 2417      		cp r18,r20
  86 005a 3507      		cpc r19,r21
  87 005c 01F4      		brne .+2
  88 005e 00C0      		rjmp .L5
  89               	.LBB28:
  90               	.LBB29:
  91               	.LBB30:
  92               	.LSM10:
  93 0060 8F85      		ldd r24,Y+15
  94 0062 8823      		tst r24
  95 0064 01F4      		brne .L15
  96 0066 4D85      		ldd r20,Y+13
  97 0068 5E85      		ldd r21,Y+14
  98               	.LVL4:
  99 006a CA01      		movw r24,r20
 100 006c 8227      		eor r24,r18
 101 006e 9327      		eor r25,r19
 102 0070 9F73      		andi r25,hi8(16383)
 103 0072 892B      		or r24,r25
 104 0074 01F0      		breq .L7
 105 0076 2423      		and r18,r20
 106 0078 3523      		and r19,r21
 107 007a 2070      		andi r18,lo8(-16384)
 108 007c 307C      		andi r19,hi8(-16384)
 109               	.LVL5:
 110               	.L15:
 111 007e 232B      		or r18,r19
 112 0080 01F0      		breq .L5
 113               	.L7:
 114               	.LBB31:
GAS LISTING /var/folders/1s/lqjcb7x5323625d47g9gdgmr0000gp/T//ccU6wS1s.s 			page 3


 115               	.LSM11:
 116 0082 EA81      		ldd r30,Y+2
 117               	.LVL6:
 118 0084 F0E0      		ldi r31,lo8(0)
 119               	.LVL7:
 120 0086 E050      		subi r30,lo8(-(_ZL14_noDueTasksAry))
 121 0088 F040      		sbci r31,hi8(-(_ZL14_noDueTasksAry))
 122 008a 8081      		ld r24,Z
 123 008c A82F      		mov r26,r24
 124 008e B0E0      		ldi r27,lo8(0)
 125 0090 AA0F      		lsl r26
 126 0092 BB1F      		rol r27
 127 0094 A050      		subi r26,lo8(-(_ZL15_pDueTaskAryAry))
 128 0096 B040      		sbci r27,hi8(-(_ZL15_pDueTaskAryAry))
 129 0098 CD93      		st X+,r28
 130 009a DC93      		st X,r29
 131 009c 8F5F      		subi r24,lo8(-(1))
 132 009e 8083      		st Z,r24
 133 00a0 6150      		subi r22,lo8(-(-1))
 134               	.LSM12:
 135 00a2 7617      		cp r23,r22
 136               	.LVL8:
 137 00a4 00F0      		brlo .+2
 138 00a6 00C0      		rjmp .L14
 139 00a8 272F      		mov r18,r23
 140               	.LVL9:
 141               	.L8:
 142               	.LSM13:
 143 00aa E22F      		mov r30,r18
 144 00ac F0E0      		ldi r31,lo8(0)
 145 00ae EE0F      		lsl r30
 146 00b0 FF1F      		rol r31
 147 00b2 DF01      		movw r26,r30
 148 00b4 A050      		subi r26,lo8(-(_ZL18_pSuspendedTaskAry+2))
 149 00b6 B040      		sbci r27,hi8(-(_ZL18_pSuspendedTaskAry+2))
 150 00b8 8D91      		ld r24,X+
 151 00ba 9C91      		ld r25,X
 152 00bc E050      		subi r30,lo8(-(_ZL18_pSuspendedTaskAry))
 153 00be F040      		sbci r31,hi8(-(_ZL18_pSuspendedTaskAry))
 154 00c0 9183      		std Z+1,r25
 155 00c2 8083      		st Z,r24
 156               	.LSM14:
 157 00c4 2F5F      		subi r18,lo8(-(1))
 158 00c6 2617      		cp r18,r22
 159 00c8 00F0      		brlo .L8
 160               	.LBE31:
 161               	.LBE30:
 162               	.LBE29:
 163               	.LBE28:
 164               	.LBE27:
 165               	.LSM15:
 166 00ca 7617      		cp r23,r22
 167 00cc 00F4      		brsh .+2
 168 00ce 00C0      		rjmp .L9
 169               	.LVL10:
 170               	.L17:
 171 00d0 6093 0000 		sts _ZL17_noSuspendedTasks,r22
GAS LISTING /var/folders/1s/lqjcb7x5323625d47g9gdgmr0000gp/T//ccU6wS1s.s 			page 4


 172               	.LBE26:
 173               	.LSM16:
 174 00d4 80E0      		ldi r24,lo8(0)
 175               	/* epilogue start */
 176 00d6 DF91      		pop r29
 177 00d8 CF91      		pop r28
 178               	.LVL11:
 179 00da 1F91      		pop r17
 180 00dc 0895      		ret
 181               	.LVL12:
 182               	.L5:
 183               	.LBB33:
 184               	.LBB32:
 185               	.LSM17:
 186 00de 7F5F      		subi r23,lo8(-(1))
 187               	.LVL13:
 188 00e0 00C0      		rjmp .L14
 189               	.LVL14:
 190               	.L18:
 191               	.LSM18:
 192 00e2 8D85      		ldd r24,Y+13
 193 00e4 9E85      		ldd r25,Y+14
 194 00e6 8070      		andi r24,lo8(16384)
 195 00e8 9074      		andi r25,hi8(16384)
 196 00ea 822B      		or r24,r18
 197 00ec 932B      		or r25,r19
 198 00ee 9C87      		std Y+12,r25
 199 00f0 8B87      		std Y+11,r24
 200 00f2 9C01      		movw r18,r24
 201 00f4 00C0      		rjmp .L3
 202               	.LBE32:
 203               	.LBE33:
 204               	.LFE79:
 205               		.size	_ZL10onTimerTicv, .-_ZL10onTimerTicv
 206               		.section	.text._ZL9sendEventj,"ax",@progbits
 207               		.type	_ZL9sendEventj, @function
 208               	_ZL9sendEventj:
 209               	.LFB81:
 210               	.LSM19:
 211               	.LVL15:
 212 0000 0F93      		push r16
 213 0002 1F93      		push r17
 214 0004 CF93      		push r28
 215 0006 DF93      		push r29
 216               	/* prologue: function */
 217               	/* frame size = 0 */
 218 0008 8C01      		movw r16,r24
 219               	.LBB34:
 220               	.LSM20:
 221 000a 6091 0000 		lds r22,_ZL17_noSuspendedTasks
 222 000e 70E0      		ldi r23,lo8(0)
 223               	.LVL16:
 224               	.L30:
 225               	.LSM21:
 226 0010 7617      		cp r23,r22
 227 0012 00F0      		brlo .+2
 228 0014 00C0      		rjmp .L31
GAS LISTING /var/folders/1s/lqjcb7x5323625d47g9gdgmr0000gp/T//ccU6wS1s.s 			page 5


 229               	.LVL17:
 230               	.L25:
 231               	.LBB35:
 232               	.LSM22:
 233 0016 E72F      		mov r30,r23
 234 0018 F0E0      		ldi r31,lo8(0)
 235 001a EE0F      		lsl r30
 236 001c FF1F      		rol r31
 237               	.LVL18:
 238 001e E050      		subi r30,lo8(-(_ZL18_pSuspendedTaskAry))
 239 0020 F040      		sbci r31,hi8(-(_ZL18_pSuspendedTaskAry))
 240               	.LVL19:
 241 0022 C081      		ld r28,Z
 242 0024 D181      		ldd r29,Z+1
 243               	.LSM23:
 244 0026 8B85      		ldd r24,Y+11
 245 0028 9C85      		ldd r25,Y+12
 246               	.LSM24:
 247 002a 4D85      		ldd r20,Y+13
 248 002c 5E85      		ldd r21,Y+14
 249 002e 9801      		movw r18,r16
 250 0030 2423      		and r18,r20
 251 0032 3523      		and r19,r21
 252 0034 282B      		or r18,r24
 253 0036 392B      		or r19,r25
 254 0038 3C87      		std Y+12,r19
 255 003a 2B87      		std Y+11,r18
 256               	.LSM25:
 257 003c 8217      		cp r24,r18
 258 003e 9307      		cpc r25,r19
 259 0040 01F4      		brne .+2
 260 0042 00C0      		rjmp .L21
 261               	.LBB36:
 262               	.LBB37:
 263               	.LBB38:
 264               	.LSM26:
 265 0044 8F85      		ldd r24,Y+15
 266               	.LVL20:
 267 0046 8823      		tst r24
 268 0048 01F4      		brne .L32
 269 004a C901      		movw r24,r18
 270 004c 8427      		eor r24,r20
 271 004e 9527      		eor r25,r21
 272 0050 9F73      		andi r25,hi8(16383)
 273 0052 892B      		or r24,r25
 274 0054 01F0      		breq .L23
 275 0056 4070      		andi r20,lo8(-16384)
 276 0058 507C      		andi r21,hi8(-16384)
 277 005a 4223      		and r20,r18
 278 005c 5323      		and r21,r19
 279 005e 452B      		or r20,r21
 280 0060 01F0      		breq .L21
 281               	.L23:
 282               	.LBB39:
 283               	.LSM27:
 284 0062 EA81      		ldd r30,Y+2
 285               	.LVL21:
GAS LISTING /var/folders/1s/lqjcb7x5323625d47g9gdgmr0000gp/T//ccU6wS1s.s 			page 6


 286 0064 F0E0      		ldi r31,lo8(0)
 287               	.LVL22:
 288 0066 E050      		subi r30,lo8(-(_ZL14_noDueTasksAry))
 289 0068 F040      		sbci r31,hi8(-(_ZL14_noDueTasksAry))
 290 006a 8081      		ld r24,Z
 291 006c A82F      		mov r26,r24
 292 006e B0E0      		ldi r27,lo8(0)
 293 0070 AA0F      		lsl r26
 294 0072 BB1F      		rol r27
 295 0074 A050      		subi r26,lo8(-(_ZL15_pDueTaskAryAry))
 296 0076 B040      		sbci r27,hi8(-(_ZL15_pDueTaskAryAry))
 297 0078 CD93      		st X+,r28
 298 007a DC93      		st X,r29
 299 007c 8F5F      		subi r24,lo8(-(1))
 300 007e 8083      		st Z,r24
 301 0080 6150      		subi r22,lo8(-(-1))
 302               	.LSM28:
 303 0082 7617      		cp r23,r22
 304               	.LVL23:
 305 0084 00F4      		brsh .L30
 306 0086 272F      		mov r18,r23
 307               	.LVL24:
 308               	.L24:
 309               	.LSM29:
 310 0088 E22F      		mov r30,r18
 311 008a F0E0      		ldi r31,lo8(0)
 312 008c EE0F      		lsl r30
 313 008e FF1F      		rol r31
 314 0090 DF01      		movw r26,r30
 315 0092 A050      		subi r26,lo8(-(_ZL18_pSuspendedTaskAry+2))
 316 0094 B040      		sbci r27,hi8(-(_ZL18_pSuspendedTaskAry+2))
 317 0096 8D91      		ld r24,X+
 318 0098 9C91      		ld r25,X
 319 009a E050      		subi r30,lo8(-(_ZL18_pSuspendedTaskAry))
 320 009c F040      		sbci r31,hi8(-(_ZL18_pSuspendedTaskAry))
 321 009e 9183      		std Z+1,r25
 322 00a0 8083      		st Z,r24
 323               	.LSM30:
 324 00a2 2F5F      		subi r18,lo8(-(1))
 325 00a4 2617      		cp r18,r22
 326 00a6 00F0      		brlo .L24
 327               	.LBE39:
 328               	.LBE38:
 329               	.LBE37:
 330               	.LBE36:
 331               	.LBE35:
 332               	.LSM31:
 333 00a8 7617      		cp r23,r22
 334 00aa 00F4      		brsh .+2
 335 00ac 00C0      		rjmp .L25
 336               	.LVL25:
 337               	.L31:
 338 00ae 6093 0000 		sts _ZL17_noSuspendedTasks,r22
 339               	.LBE34:
 340               	.LSM32:
 341 00b2 80E0      		ldi r24,lo8(0)
 342               	.LVL26:
GAS LISTING /var/folders/1s/lqjcb7x5323625d47g9gdgmr0000gp/T//ccU6wS1s.s 			page 7


 343               	/* epilogue start */
 344 00b4 DF91      		pop r29
 345 00b6 CF91      		pop r28
 346               	.LVL27:
 347 00b8 1F91      		pop r17
 348 00ba 0F91      		pop r16
 349               	.LVL28:
 350 00bc 0895      		ret
 351               	.LVL29:
 352               	.L32:
 353               	.LBB44:
 354               	.LBB43:
 355               	.LBB42:
 356               	.LBB41:
 357               	.LBB40:
 358               	.LSM33:
 359 00be 232B      		or r18,r19
 360 00c0 01F4      		brne .L23
 361               	.LVL30:
 362               	.L21:
 363               	.LBE40:
 364               	.LBE41:
 365               	.LBE42:
 366               	.LSM34:
 367 00c2 7F5F      		subi r23,lo8(-(1))
 368               	.LVL31:
 369 00c4 00C0      		rjmp .L30
 370               	.LBE43:
 371               	.LBE44:
 372               	.LFE81:
 373               		.size	_ZL9sendEventj, .-_ZL9sendEventj
 374               		.section	.text._ZL12waitForEventjhh,"ax",@progbits
 375               		.type	_ZL12waitForEventjhh, @function
 376               	_ZL12waitForEventjhh:
 377               	.LFB84:
 378               	.LSM35:
 379               	.LVL32:
 380 0000 0F93      		push r16
 381 0002 1F93      		push r17
 382 0004 CF93      		push r28
 383 0006 DF93      		push r29
 384               	/* prologue: function */
 385               	/* frame size = 0 */
 386 0008 8C01      		movw r16,r24
 387 000a 742F      		mov r23,r20
 388               	.LBB45:
 389               	.LSM36:
 390               	.LSM37:
 391 000c C091 0000 		lds r28,_ZL12_pActiveTask
 392 0010 D091 0000 		lds r29,(_ZL12_pActiveTask)+1
 393               	.LVL33:
 394               	.LSM38:
 395 0014 EA81      		ldd r30,Y+2
 396 0016 F0E0      		ldi r31,lo8(0)
 397 0018 E050      		subi r30,lo8(-(_ZL14_noDueTasksAry))
 398 001a F040      		sbci r31,hi8(-(_ZL14_noDueTasksAry))
 399 001c 8081      		ld r24,Z
GAS LISTING /var/folders/1s/lqjcb7x5323625d47g9gdgmr0000gp/T//ccU6wS1s.s 			page 8


 400               	.LVL34:
 401 001e 8150      		subi r24,lo8(-(-1))
 402 0020 8083      		st Z,r24
 403               	.LSM39:
 404 0022 8823      		tst r24
 405 0024 01F0      		breq .L34
 406               	.LVL35:
 407 0026 A0E0      		ldi r26,lo8(0)
 408 0028 B0E0      		ldi r27,hi8(0)
 409 002a 21E0      		ldi r18,lo8(1)
 410 002c 30E0      		ldi r19,hi8(1)
 411 002e 482F      		mov r20,r24
 412 0030 50E0      		ldi r21,lo8(0)
 413 0032 4F5F      		subi r20,lo8(-(1))
 414 0034 5F4F      		sbci r21,hi8(-(1))
 415               	.L35:
 416               	.LSM40:
 417 0036 AA0F      		lsl r26
 418 0038 BB1F      		rol r27
 419 003a FD01      		movw r30,r26
 420 003c E050      		subi r30,lo8(-(_ZL15_pDueTaskAryAry+2))
 421 003e F040      		sbci r31,hi8(-(_ZL15_pDueTaskAryAry+2))
 422 0040 8081      		ld r24,Z
 423 0042 9181      		ldd r25,Z+1
 424 0044 A050      		subi r26,lo8(-(_ZL15_pDueTaskAryAry))
 425 0046 B040      		sbci r27,hi8(-(_ZL15_pDueTaskAryAry))
 426 0048 8D93      		st X+,r24
 427 004a 9C93      		st X,r25
 428 004c D901      		movw r26,r18
 429 004e 2F5F      		subi r18,lo8(-(1))
 430 0050 3F4F      		sbci r19,hi8(-(1))
 431               	.LSM41:
 432 0052 2417      		cp r18,r20
 433 0054 3507      		cpc r19,r21
 434 0056 01F4      		brne .L35
 435               	.LVL36:
 436               	.L34:
 437               	.LBB46:
 438               	.LBB47:
 439               	.LSM42:
 440 0058 16FF      		sbrs r17,6
 441 005a 00C0      		rjmp .L36
 442               	.LSM43:
 443 005c 8D81      		ldd r24,Y+5
 444 005e 870F      		add r24,r23
 445 0060 8D83      		std Y+5,r24
 446 0062 9091 0000 		lds r25,_ZL5_time
 447 0066 891B      		sub r24,r25
 448 0068 1816      		cp __zero_reg__,r24
 449 006a 04F4      		brge .L43
 450               	.L37:
 451               	.LSM44:
 452 006c 1E87      		std Y+14,r17
 453 006e 0D87      		std Y+13,r16
 454               	.LSM45:
 455 0070 1F86      		std Y+15,__zero_reg__
 456 0072 6623      		tst r22
GAS LISTING /var/folders/1s/lqjcb7x5323625d47g9gdgmr0000gp/T//ccU6wS1s.s 			page 9


 457 0074 01F4      		brne .L40
 458 0076 81E0      		ldi r24,lo8(1)
 459 0078 8F87      		std Y+15,r24
 460               	.L40:
 461               	.LBE47:
 462               	.LBE46:
 463               	.LSM46:
 464 007a 8091 0000 		lds r24,_ZL17_noSuspendedTasks
 465 007e E82F      		mov r30,r24
 466 0080 F0E0      		ldi r31,lo8(0)
 467 0082 EE0F      		lsl r30
 468 0084 FF1F      		rol r31
 469 0086 E050      		subi r30,lo8(-(_ZL18_pSuspendedTaskAry))
 470 0088 F040      		sbci r31,hi8(-(_ZL18_pSuspendedTaskAry))
 471 008a D183      		std Z+1,r29
 472 008c C083      		st Z,r28
 473 008e 8F5F      		subi r24,lo8(-(1))
 474 0090 8093 0000 		sts _ZL17_noSuspendedTasks,r24
 475               	.LSM47:
 476 0094 D093 0000 		sts (_ZL15_pSuspendedTask)+1,r29
 477 0098 C093 0000 		sts _ZL15_pSuspendedTask,r28
 478               	.LSM48:
 479 009c 80E0      		ldi r24,lo8(_ZL8_taskAry)
 480 009e 90E0      		ldi r25,hi8(_ZL8_taskAry)
 481 00a0 9093 0000 		sts (_ZL12_pActiveTask)+1,r25
 482 00a4 8093 0000 		sts _ZL12_pActiveTask,r24
 483               	/* epilogue start */
 484               	.LBE45:
 485               	.LSM49:
 486 00a8 DF91      		pop r29
 487 00aa CF91      		pop r28
 488               	.LVL37:
 489 00ac 1F91      		pop r17
 490 00ae 0F91      		pop r16
 491               	.LVL38:
 492 00b0 0895      		ret
 493               	.LVL39:
 494               	.L36:
 495               	.LBB50:
 496               	.LBB49:
 497               	.LBB48:
 498               	.LSM50:
 499 00b2 7F3F      		cpi r23,lo8(-1)
 500 00b4 01F0      		breq .L39
 501               	.LSM51:
 502 00b6 7F5F      		subi r23,lo8(-(1))
 503               	.LVL40:
 504               	.L39:
 505               	.LSM52:
 506 00b8 7A87      		std Y+10,r23
 507 00ba 00C0      		rjmp .L37
 508               	.L43:
 509               	.LSM53:
 510 00bc 8889      		ldd r24,Y+16
 511 00be 8F3F      		cpi r24,lo8(-1)
 512 00c0 01F0      		breq .L38
 513               	.LSM54:
GAS LISTING /var/folders/1s/lqjcb7x5323625d47g9gdgmr0000gp/T//ccU6wS1s.s 			page 10


 514 00c2 8F5F      		subi r24,lo8(-(1))
 515 00c4 888B      		std Y+16,r24
 516               	.L38:
 517               	.LSM55:
 518 00c6 9F5F      		subi r25,lo8(-(1))
 519 00c8 9D83      		std Y+5,r25
 520 00ca 00C0      		rjmp .L37
 521               	.LBE48:
 522               	.LBE49:
 523               	.LBE50:
 524               	.LFE84:
 525               		.size	_ZL12waitForEventjhh, .-_ZL12waitForEventjhh
 526               		.section	.text._Z22rtos_enableIRQTimerTicv,"ax",@progbits
 527               		.weak	_Z22rtos_enableIRQTimerTicv
 528               		.type	_Z22rtos_enableIRQTimerTicv, @function
 529               	_Z22rtos_enableIRQTimerTicv:
 530               	.LFB76:
 531               	.LSM56:
 532               	/* prologue: function */
 533               	/* frame size = 0 */
 534               	.LSM57:
 535 0000 E0E7      		ldi r30,lo8(112)
 536 0002 F0E0      		ldi r31,hi8(112)
 537 0004 8081      		ld r24,Z
 538 0006 8160      		ori r24,lo8(1)
 539 0008 8083      		st Z,r24
 540               	/* epilogue start */
 541               	.LSM58:
 542 000a 0895      		ret
 543               	.LFE76:
 544               		.size	_Z22rtos_enableIRQTimerTicv, .-_Z22rtos_enableIRQTimerTicv
 545               		.section	.text.__vector_15,"ax",@progbits
 546               	.global	__vector_15
 547               		.type	__vector_15, @function
 548               	__vector_15:
 549               	.LFB80:
 550               	.LSM59:
 551               	/* prologue: naked */
 552               	/* frame size = 0 */
 553               	.LSM60:
 554               	/* #APP */
 555               	 ;  894 "code/RTOS/rtos.c" 1
 556 0000 0F92      		push r0 
 557 0002 0FB6      		in r0, __SREG__
 558 0004 0F92      		push r0 
 559 0006 1F92      		push r1 
 560 0008 2F92      		push r2 
 561 000a 3F92      		push r3 
 562 000c 4F92      		push r4 
 563 000e 5F92      		push r5 
 564 0010 6F92      		push r6 
 565 0012 7F92      		push r7 
 566 0014 8F92      		push r8 
 567 0016 9F92      		push r9 
 568 0018 AF92      		push r10 
 569 001a BF92      		push r11 
 570 001c CF92      		push r12 
GAS LISTING /var/folders/1s/lqjcb7x5323625d47g9gdgmr0000gp/T//ccU6wS1s.s 			page 11


 571 001e DF92      		push r13 
 572 0020 EF92      		push r14 
 573 0022 FF92      		push r15 
 574 0024 0F93      		push r16 
 575 0026 1F93      		push r17 
 576 0028 2F93      		push r18 
 577 002a 3F93      		push r19 
 578 002c 4F93      		push r20 
 579 002e 5F93      		push r21 
 580 0030 6F93      		push r22 
 581 0032 7F93      		push r23 
 582 0034 AF93      		push r26 
 583 0036 BF93      		push r27 
 584 0038 CF93      		push r28 
 585 003a DF93      		push r29 
 586 003c EF93      		push r30 
 587 003e FF93      		push r31 
 588               		
 589               	 ;  0 "" 2
 590               	 ;  894 "code/RTOS/rtos.c" 1
 591 0040 8F93      		push r24 
 592 0042 9F93      		push r25 
 593               		
 594               	 ;  0 "" 2
 595               	.LSM61:
 596               	 ;  901 "code/RTOS/rtos.c" 1
 597 0044 1124      		clr __zero_reg__ 
 598               		
 599               	 ;  0 "" 2
 600               	.LSM62:
 601               	/* #NOAPP */
 602 0046 0E94 0000 		call _ZL10onTimerTicv
 603 004a 8823      		tst r24
 604 004c 01F4      		brne .+2
 605 004e 00C0      		rjmp .L47
 606               	.LSM63:
 607 0050 A091 0000 		lds r26,_ZL12_pActiveTask
 608 0054 B091 0000 		lds r27,(_ZL12_pActiveTask)+1
 609 0058 8D91      		ld r24,X+
 610 005a 9C91      		ld r25,X
 611 005c 1197      		sbiw r26,1
 612 005e 9093 0000 		sts (_tmpVarCToAsm_u16)+1,r25
 613 0062 8093 0000 		sts _tmpVarCToAsm_u16,r24
 614               	/* #APP */
 615               	 ;  908 "code/RTOS/rtos.c" 1
 616 0066 0DB6      		in r0, __SP_L__ /* Save current stack pointer at known, fixed location */ 
 617 0068 0092 0000 		sts _tmpVarAsmToC_u16, r0 
 618 006c 0EB6      		in r0, __SP_H__ 
 619 006e 0092 0000 		sts _tmpVarAsmToC_u16+1, r0 
 620 0072 0090 0000 		lds r0, _tmpVarCToAsm_u16 
 621 0076 0DBE      		out __SP_L__, r0 /* Write l-byte of new stack pointer content */ 
 622 0078 0090 0000 		lds r0, _tmpVarCToAsm_u16+1 
 623 007c 0EBE      		out __SP_H__, r0 /* Write h-byte of new stack pointer content */ 
 624               		
 625               	 ;  0 "" 2
 626               	/* #NOAPP */
 627 007e 8091 0000 		lds r24,_tmpVarAsmToC_u16
GAS LISTING /var/folders/1s/lqjcb7x5323625d47g9gdgmr0000gp/T//ccU6wS1s.s 			page 12


 628 0082 9091 0000 		lds r25,(_tmpVarAsmToC_u16)+1
 629 0086 E091 0000 		lds r30,_ZL15_pSuspendedTask
 630 008a F091 0000 		lds r31,(_ZL15_pSuspendedTask)+1
 631 008e 9183      		std Z+1,r25
 632 0090 8083      		st Z,r24
 633               	.LSM64:
 634 0092 1B96      		adiw r26,11
 635 0094 8D91      		ld r24,X+
 636 0096 9C91      		ld r25,X
 637 0098 1C97      		sbiw r26,11+1
 638 009a 0097      		sbiw r24,0
 639 009c 01F0      		breq .L47
 640 009e 9093 0000 		sts (_tmpVarCToAsm_u16)+1,r25
 641 00a2 8093 0000 		sts _tmpVarCToAsm_u16,r24
 642 00a6 1C96      		adiw r26,11+1
 643 00a8 1C92      		st X,__zero_reg__
 644 00aa 1E92      		st -X,__zero_reg__
 645 00ac 1B97      		sbiw r26,11
 646               	/* #APP */
 647               	 ;  909 "code/RTOS/rtos.c" 1
 648 00ae 0090 0000 		lds r0, _tmpVarCToAsm_u16 
 649 00b2 0F92      		push r0 
 650 00b4 0090 0000 		lds r0, _tmpVarCToAsm_u16+1 
 651 00b8 0F92      		push r0 
 652               		
 653               	 ;  0 "" 2
 654               	/* #NOAPP */
 655               	.L47:
 656               	.LSM65:
 657               	/* #APP */
 658               	 ;  924 "code/RTOS/rtos.c" 1
 659 00ba 9F91      		pop r25 
 660 00bc 8F91      		pop r24 
 661 00be FF91      		pop r31 
 662 00c0 EF91      		pop r30 
 663 00c2 DF91      		pop r29 
 664 00c4 CF91      		pop r28 
 665 00c6 BF91      		pop r27 
 666 00c8 AF91      		pop r26 
 667 00ca 7F91      		pop r23 
 668 00cc 6F91      		pop r22 
 669 00ce 5F91      		pop r21 
 670 00d0 4F91      		pop r20 
 671 00d2 3F91      		pop r19 
 672 00d4 2F91      		pop r18 
 673 00d6 1F91      		pop r17 
 674 00d8 0F91      		pop r16 
 675 00da FF90      		pop r15 
 676 00dc EF90      		pop r14 
 677 00de DF90      		pop r13 
 678 00e0 CF90      		pop r12 
 679 00e2 BF90      		pop r11 
 680 00e4 AF90      		pop r10 
 681 00e6 9F90      		pop r9 
 682 00e8 8F90      		pop r8 
 683 00ea 7F90      		pop r7 
 684 00ec 6F90      		pop r6 
GAS LISTING /var/folders/1s/lqjcb7x5323625d47g9gdgmr0000gp/T//ccU6wS1s.s 			page 13


 685 00ee 5F90      		pop r5 
 686 00f0 4F90      		pop r4 
 687 00f2 3F90      		pop r3 
 688 00f4 2F90      		pop r2 
 689 00f6 1F90      		pop r1 
 690 00f8 0F90      		pop r0 
 691 00fa 0FBE      		out __SREG__, r0 
 692 00fc 0F90      		pop r0 
 693               		
 694               	 ;  0 "" 2
 695               	.LSM66:
 696               	 ;  934 "code/RTOS/rtos.c" 1
 697 00fe 1895      		reti 
 698               		
 699               	 ;  0 "" 2
 700               	/* epilogue start */
 701               	.LSM67:
 702               	/* #NOAPP */
 703               	.LFE80:
 704               		.size	__vector_15, .-__vector_15
 705               		.section	.text._Z14rtos_sendEventj,"ax",@progbits
 706               	.global	_Z14rtos_sendEventj
 707               		.type	_Z14rtos_sendEventj, @function
 708               	_Z14rtos_sendEventj:
 709               	.LFB82:
 710               	.LSM68:
 711               	.LVL41:
 712               	/* prologue: naked */
 713               	/* frame size = 0 */
 714               	.LSM69:
 715               	/* #APP */
 716               	 ;  1261 "code/RTOS/rtos.c" 1
 717 0000 F894      		cli 
 718               		
 719               	 ;  0 "" 2
 720               	.LSM70:
 721               	 ;  1267 "code/RTOS/rtos.c" 1
 722 0002 0F92      		push r0 
 723 0004 0FB6      		in r0, __SREG__
 724 0006 0F92      		push r0 
 725 0008 1F92      		push r1 
 726 000a 2F92      		push r2 
 727 000c 3F92      		push r3 
 728 000e 4F92      		push r4 
 729 0010 5F92      		push r5 
 730 0012 6F92      		push r6 
 731 0014 7F92      		push r7 
 732 0016 8F92      		push r8 
 733 0018 9F92      		push r9 
 734 001a AF92      		push r10 
 735 001c BF92      		push r11 
 736 001e CF92      		push r12 
 737 0020 DF92      		push r13 
 738 0022 EF92      		push r14 
 739 0024 FF92      		push r15 
 740 0026 0F93      		push r16 
 741 0028 1F93      		push r17 
GAS LISTING /var/folders/1s/lqjcb7x5323625d47g9gdgmr0000gp/T//ccU6wS1s.s 			page 14


 742 002a 2F93      		push r18 
 743 002c 3F93      		push r19 
 744 002e 4F93      		push r20 
 745 0030 5F93      		push r21 
 746 0032 6F93      		push r22 
 747 0034 7F93      		push r23 
 748 0036 AF93      		push r26 
 749 0038 BF93      		push r27 
 750 003a CF93      		push r28 
 751 003c DF93      		push r29 
 752 003e EF93      		push r30 
 753 0040 FF93      		push r31 
 754               		
 755               	 ;  0 "" 2
 756               	 ;  1267 "code/RTOS/rtos.c" 1
 757 0042 8F93      		push r24 
 758 0044 9F93      		push r25 
 759               		
 760               	 ;  0 "" 2
 761               	.LSM71:
 762               	 ;  1276 "code/RTOS/rtos.c" 1
 763               		LabelEntrySetEventForISR: 
 764               		
 765               	 ;  0 "" 2
 766               	.LSM72:
 767               	/* #NOAPP */
 768 0046 0E94 0000 		call _ZL9sendEventj
 769               	.LVL42:
 770 004a 8823      		tst r24
 771 004c 01F4      		brne .+2
 772 004e 00C0      		rjmp .L50
 773               	.LSM73:
 774 0050 A091 0000 		lds r26,_ZL12_pActiveTask
 775 0054 B091 0000 		lds r27,(_ZL12_pActiveTask)+1
 776 0058 8D91      		ld r24,X+
 777 005a 9C91      		ld r25,X
 778 005c 1197      		sbiw r26,1
 779 005e 9093 0000 		sts (_tmpVarCToAsm_u16)+1,r25
 780 0062 8093 0000 		sts _tmpVarCToAsm_u16,r24
 781               	/* #APP */
 782               	 ;  1286 "code/RTOS/rtos.c" 1
 783 0066 0DB6      		in r0, __SP_L__ /* Save current stack pointer at known, fixed location */ 
 784 0068 0092 0000 		sts _tmpVarAsmToC_u16, r0 
 785 006c 0EB6      		in r0, __SP_H__ 
 786 006e 0092 0000 		sts _tmpVarAsmToC_u16+1, r0 
 787 0072 0090 0000 		lds r0, _tmpVarCToAsm_u16 
 788 0076 0DBE      		out __SP_L__, r0 /* Write l-byte of new stack pointer content */ 
 789 0078 0090 0000 		lds r0, _tmpVarCToAsm_u16+1 
 790 007c 0EBE      		out __SP_H__, r0 /* Write h-byte of new stack pointer content */ 
 791               		
 792               	 ;  0 "" 2
 793               	/* #NOAPP */
 794 007e 8091 0000 		lds r24,_tmpVarAsmToC_u16
 795 0082 9091 0000 		lds r25,(_tmpVarAsmToC_u16)+1
 796 0086 E091 0000 		lds r30,_ZL15_pSuspendedTask
 797 008a F091 0000 		lds r31,(_ZL15_pSuspendedTask)+1
 798 008e 9183      		std Z+1,r25
GAS LISTING /var/folders/1s/lqjcb7x5323625d47g9gdgmr0000gp/T//ccU6wS1s.s 			page 15


 799 0090 8083      		st Z,r24
 800               	.LSM74:
 801 0092 1B96      		adiw r26,11
 802 0094 8D91      		ld r24,X+
 803 0096 9C91      		ld r25,X
 804 0098 1C97      		sbiw r26,11+1
 805 009a 0097      		sbiw r24,0
 806 009c 01F0      		breq .L50
 807 009e 9093 0000 		sts (_tmpVarCToAsm_u16)+1,r25
 808 00a2 8093 0000 		sts _tmpVarCToAsm_u16,r24
 809 00a6 1C96      		adiw r26,11+1
 810 00a8 1C92      		st X,__zero_reg__
 811 00aa 1E92      		st -X,__zero_reg__
 812 00ac 1B97      		sbiw r26,11
 813               	/* #APP */
 814               	 ;  1287 "code/RTOS/rtos.c" 1
 815 00ae 0090 0000 		lds r0, _tmpVarCToAsm_u16 
 816 00b2 0F92      		push r0 
 817 00b4 0090 0000 		lds r0, _tmpVarCToAsm_u16+1 
 818 00b8 0F92      		push r0 
 819               		
 820               	 ;  0 "" 2
 821               	/* #NOAPP */
 822               	.L50:
 823               	.LSM75:
 824               	/* #APP */
 825               	 ;  1294 "code/RTOS/rtos.c" 1
 826 00ba 9F91      		pop r25 
 827 00bc 8F91      		pop r24 
 828 00be FF91      		pop r31 
 829 00c0 EF91      		pop r30 
 830 00c2 DF91      		pop r29 
 831 00c4 CF91      		pop r28 
 832 00c6 BF91      		pop r27 
 833 00c8 AF91      		pop r26 
 834 00ca 7F91      		pop r23 
 835 00cc 6F91      		pop r22 
 836 00ce 5F91      		pop r21 
 837 00d0 4F91      		pop r20 
 838 00d2 3F91      		pop r19 
 839 00d4 2F91      		pop r18 
 840 00d6 1F91      		pop r17 
 841 00d8 0F91      		pop r16 
 842 00da FF90      		pop r15 
 843 00dc EF90      		pop r14 
 844 00de DF90      		pop r13 
 845 00e0 CF90      		pop r12 
 846 00e2 BF90      		pop r11 
 847 00e4 AF90      		pop r10 
 848 00e6 9F90      		pop r9 
 849 00e8 8F90      		pop r8 
 850 00ea 7F90      		pop r7 
 851 00ec 6F90      		pop r6 
 852 00ee 5F90      		pop r5 
 853 00f0 4F90      		pop r4 
 854 00f2 3F90      		pop r3 
 855 00f4 2F90      		pop r2 
GAS LISTING /var/folders/1s/lqjcb7x5323625d47g9gdgmr0000gp/T//ccU6wS1s.s 			page 16


 856 00f6 1F90      		pop r1 
 857 00f8 0F90      		pop r0 
 858 00fa 0FBE      		out __SREG__, r0 
 859 00fc 0F90      		pop r0 
 860               		
 861               	 ;  0 "" 2
 862               	.LSM76:
 863               	 ;  1300 "code/RTOS/rtos.c" 1
 864 00fe 1895      		reti 
 865               		
 866               	 ;  0 "" 2
 867               	/* epilogue start */
 868               	.LSM77:
 869               	/* #NOAPP */
 870               	.LFE82:
 871               		.size	_Z14rtos_sendEventj, .-_Z14rtos_sendEventj
 872               		.section	.text._Z17rtos_waitForEventjhh,"ax",@progbits
 873               	.global	_Z17rtos_waitForEventjhh
 874               		.type	_Z17rtos_waitForEventjhh, @function
 875               	_Z17rtos_waitForEventjhh:
 876               	.LFB85:
 877               	.LSM78:
 878               	.LVL43:
 879               	/* prologue: naked */
 880               	/* frame size = 0 */
 881               	.LSM79:
 882               	/* #APP */
 883               	 ;  1665 "code/RTOS/rtos.c" 1
 884 0000 F894      		cli 
 885               		
 886               	 ;  0 "" 2
 887               	.LSM80:
 888               	 ;  1670 "code/RTOS/rtos.c" 1
 889 0002 0F92      		push r0 
 890 0004 0FB6      		in r0, __SREG__
 891 0006 0F92      		push r0 
 892 0008 1F92      		push r1 
 893 000a 2F92      		push r2 
 894 000c 3F92      		push r3 
 895 000e 4F92      		push r4 
 896 0010 5F92      		push r5 
 897 0012 6F92      		push r6 
 898 0014 7F92      		push r7 
 899 0016 8F92      		push r8 
 900 0018 9F92      		push r9 
 901 001a AF92      		push r10 
 902 001c BF92      		push r11 
 903 001e CF92      		push r12 
 904 0020 DF92      		push r13 
 905 0022 EF92      		push r14 
 906 0024 FF92      		push r15 
 907 0026 0F93      		push r16 
 908 0028 1F93      		push r17 
 909 002a 2F93      		push r18 
 910 002c 3F93      		push r19 
 911 002e 4F93      		push r20 
 912 0030 5F93      		push r21 
GAS LISTING /var/folders/1s/lqjcb7x5323625d47g9gdgmr0000gp/T//ccU6wS1s.s 			page 17


 913 0032 6F93      		push r22 
 914 0034 7F93      		push r23 
 915 0036 AF93      		push r26 
 916 0038 BF93      		push r27 
 917 003a CF93      		push r28 
 918 003c DF93      		push r29 
 919 003e EF93      		push r30 
 920 0040 FF93      		push r31 
 921               		
 922               	 ;  0 "" 2
 923               	.LSM81:
 924               	/* #NOAPP */
 925 0042 0E94 0000 		call _ZL12waitForEventjhh
 926               	.LVL44:
 927               	.LSM82:
 928 0046 A091 0000 		lds r26,_ZL12_pActiveTask
 929 004a B091 0000 		lds r27,(_ZL12_pActiveTask)+1
 930 004e 8D91      		ld r24,X+
 931 0050 9C91      		ld r25,X
 932 0052 1197      		sbiw r26,1
 933 0054 9093 0000 		sts (_tmpVarCToAsm_u16)+1,r25
 934 0058 8093 0000 		sts _tmpVarCToAsm_u16,r24
 935               	/* #APP */
 936               	 ;  1686 "code/RTOS/rtos.c" 1
 937 005c 0DB6      		in r0, __SP_L__ /* Save current stack pointer at known, fixed location */ 
 938 005e 0092 0000 		sts _tmpVarAsmToC_u16, r0 
 939 0062 0EB6      		in r0, __SP_H__ 
 940 0064 0092 0000 		sts _tmpVarAsmToC_u16+1, r0 
 941 0068 0090 0000 		lds r0, _tmpVarCToAsm_u16 
 942 006c 0DBE      		out __SP_L__, r0 /* Write l-byte of new stack pointer content */ 
 943 006e 0090 0000 		lds r0, _tmpVarCToAsm_u16+1 
 944 0072 0EBE      		out __SP_H__, r0 /* Write h-byte of new stack pointer content */ 
 945               		
 946               	 ;  0 "" 2
 947               	/* #NOAPP */
 948 0074 8091 0000 		lds r24,_tmpVarAsmToC_u16
 949 0078 9091 0000 		lds r25,(_tmpVarAsmToC_u16)+1
 950 007c E091 0000 		lds r30,_ZL15_pSuspendedTask
 951 0080 F091 0000 		lds r31,(_ZL15_pSuspendedTask)+1
 952 0084 9183      		std Z+1,r25
 953 0086 8083      		st Z,r24
 954               	.LSM83:
 955 0088 1B96      		adiw r26,11
 956 008a 8D91      		ld r24,X+
 957 008c 9C91      		ld r25,X
 958 008e 1C97      		sbiw r26,11+1
 959 0090 0097      		sbiw r24,0
 960 0092 01F0      		breq .L53
 961 0094 9093 0000 		sts (_tmpVarCToAsm_u16)+1,r25
 962 0098 8093 0000 		sts _tmpVarCToAsm_u16,r24
 963 009c 1C96      		adiw r26,11+1
 964 009e 1C92      		st X,__zero_reg__
 965 00a0 1E92      		st -X,__zero_reg__
 966 00a2 1B97      		sbiw r26,11
 967               	/* #APP */
 968               	 ;  1693 "code/RTOS/rtos.c" 1
 969 00a4 0090 0000 		lds r0, _tmpVarCToAsm_u16 
GAS LISTING /var/folders/1s/lqjcb7x5323625d47g9gdgmr0000gp/T//ccU6wS1s.s 			page 18


 970 00a8 0F92      		push r0 
 971 00aa 0090 0000 		lds r0, _tmpVarCToAsm_u16+1 
 972 00ae 0F92      		push r0 
 973               		
 974               	 ;  0 "" 2
 975               	/* #NOAPP */
 976               	.L53:
 977               	.LSM84:
 978               	/* #APP */
 979               	 ;  1699 "code/RTOS/rtos.c" 1
 980 00b0 9F91      		pop r25 
 981 00b2 8F91      		pop r24 
 982 00b4 FF91      		pop r31 
 983 00b6 EF91      		pop r30 
 984 00b8 DF91      		pop r29 
 985 00ba CF91      		pop r28 
 986 00bc BF91      		pop r27 
 987 00be AF91      		pop r26 
 988 00c0 7F91      		pop r23 
 989 00c2 6F91      		pop r22 
 990 00c4 5F91      		pop r21 
 991 00c6 4F91      		pop r20 
 992 00c8 3F91      		pop r19 
 993 00ca 2F91      		pop r18 
 994 00cc 1F91      		pop r17 
 995 00ce 0F91      		pop r16 
 996 00d0 FF90      		pop r15 
 997 00d2 EF90      		pop r14 
 998 00d4 DF90      		pop r13 
 999 00d6 CF90      		pop r12 
 1000 00d8 BF90      		pop r11 
 1001 00da AF90      		pop r10 
 1002 00dc 9F90      		pop r9 
 1003 00de 8F90      		pop r8 
 1004 00e0 7F90      		pop r7 
 1005 00e2 6F90      		pop r6 
 1006 00e4 5F90      		pop r5 
 1007 00e6 4F90      		pop r4 
 1008 00e8 3F90      		pop r3 
 1009 00ea 2F90      		pop r2 
 1010 00ec 1F90      		pop r1 
 1011 00ee 0F90      		pop r0 
 1012 00f0 0FBE      		out __SREG__, r0 
 1013 00f2 0F90      		pop r0 
 1014               		
 1015               	 ;  0 "" 2
 1016               	.LSM85:
 1017               	 ;  1705 "code/RTOS/rtos.c" 1
 1018 00f4 1895      		reti 
 1019               		
 1020               	 ;  0 "" 2
 1021               	.LSM86:
 1022               	/* #NOAPP */
 1023 00f6 80E0      		ldi r24,lo8(0)
 1024 00f8 90E0      		ldi r25,hi8(0)
 1025               	/* epilogue start */
 1026               	.LFE85:
GAS LISTING /var/folders/1s/lqjcb7x5323625d47g9gdgmr0000gp/T//ccU6wS1s.s 			page 19


 1027               		.size	_Z17rtos_waitForEventjhh, .-_Z17rtos_waitForEventjhh
 1028               		.section	.text._Z26rtos_getTaskOverrunCounterhh,"ax",@progbits
 1029               	.global	_Z26rtos_getTaskOverrunCounterhh
 1030               		.type	_Z26rtos_getTaskOverrunCounterhh, @function
 1031               	_Z26rtos_getTaskOverrunCounterhh:
 1032               	.LFB86:
 1033               	.LSM87:
 1034               	.LVL45:
 1035               	/* prologue: function */
 1036               	/* frame size = 0 */
 1037               	.LBB51:
 1038               	.LSM88:
 1039 0000 6623      		tst r22
 1040 0002 01F4      		brne .L59
 1041               	.LSM89:
 1042 0004 90E0      		ldi r25,lo8(0)
 1043               	.LVL46:
 1044 0006 FC01      		movw r30,r24
 1045 0008 E295      		swap r30
 1046 000a F295      		swap r31
 1047 000c F07F      		andi r31,0xf0
 1048 000e FE27      		eor r31,r30
 1049 0010 E07F      		andi r30,0xf0
 1050 0012 FE27      		eor r31,r30
 1051 0014 E80F      		add r30,r24
 1052 0016 F91F      		adc r31,r25
 1053 0018 E050      		subi r30,lo8(-(_ZL8_taskAry))
 1054 001a F040      		sbci r31,hi8(-(_ZL8_taskAry))
 1055 001c 8089      		ldd r24,Z+16
 1056               	.LVL47:
 1057               	.LVL48:
 1058               	.LBE51:
 1059               	.LSM90:
 1060 001e 0895      		ret
 1061               	.LVL49:
 1062               	.L59:
 1063               	.LBB53:
 1064               	.LBB52:
 1065               	.LSM91:
 1066 0020 90E0      		ldi r25,lo8(0)
 1067               	.LSM92:
 1068               	/* #APP */
 1069               	 ;  1758 "code/RTOS/rtos.c" 1
 1070 0022 F894      		cli
 1071               	 ;  0 "" 2
 1072               	.LSM93:
 1073               	/* #NOAPP */
 1074 0024 FC01      		movw r30,r24
 1075               	.LVL50:
 1076 0026 E295      		swap r30
 1077 0028 F295      		swap r31
 1078 002a F07F      		andi r31,0xf0
 1079 002c FE27      		eor r31,r30
 1080 002e E07F      		andi r30,0xf0
 1081 0030 FE27      		eor r31,r30
 1082 0032 E80F      		add r30,r24
 1083 0034 F91F      		adc r31,r25
GAS LISTING /var/folders/1s/lqjcb7x5323625d47g9gdgmr0000gp/T//ccU6wS1s.s 			page 20


 1084 0036 E050      		subi r30,lo8(-(_ZL8_taskAry))
 1085 0038 F040      		sbci r31,hi8(-(_ZL8_taskAry))
 1086 003a 8089      		ldd r24,Z+16
 1087               	.LVL51:
 1088               	.LSM94:
 1089 003c 108A      		std Z+16,__zero_reg__
 1090               	.LSM95:
 1091               	/* #APP */
 1092               	 ;  1763 "code/RTOS/rtos.c" 1
 1093 003e 7894      		sei
 1094               	 ;  0 "" 2
 1095               	/* #NOAPP */
 1096 0040 0895      		ret
 1097               	.LBE52:
 1098               	.LBE53:
 1099               	.LFE86:
 1100               		.size	_Z26rtos_getTaskOverrunCounterhh, .-_Z26rtos_getTaskOverrunCounterhh
 1101               		.section	.text._Z20rtos_getStackReserveh,"ax",@progbits
 1102               	.global	_Z20rtos_getStackReserveh
 1103               		.type	_Z20rtos_getStackReserveh, @function
 1104               	_Z20rtos_getStackReserveh:
 1105               	.LFB87:
 1106               	.LSM96:
 1107               	.LVL52:
 1108               	/* prologue: function */
 1109               	/* frame size = 0 */
 1110               	.LBB54:
 1111               	.LSM97:
 1112 0000 90E0      		ldi r25,lo8(0)
 1113               	.LVL53:
 1114 0002 FC01      		movw r30,r24
 1115 0004 E295      		swap r30
 1116 0006 F295      		swap r31
 1117 0008 F07F      		andi r31,0xf0
 1118 000a FE27      		eor r31,r30
 1119 000c E07F      		andi r30,0xf0
 1120 000e FE27      		eor r31,r30
 1121 0010 E80F      		add r30,r24
 1122 0012 F91F      		adc r31,r25
 1123 0014 E050      		subi r30,lo8(-(_ZL8_taskAry))
 1124 0016 F040      		sbci r31,hi8(-(_ZL8_taskAry))
 1125 0018 A681      		ldd r26,Z+6
 1126 001a B781      		ldd r27,Z+7
 1127               	.LVL54:
 1128               	.LSM98:
 1129 001c 8C91      		ld r24,X
 1130               	.LVL55:
 1131 001e 8932      		cpi r24,lo8(41)
 1132 0020 01F4      		brne .L66
 1133 0022 FD01      		movw r30,r26
 1134               	.LVL56:
 1135               	.L63:
 1136               	.LSM99:
 1137 0024 3196      		adiw r30,1
 1138               	.LSM100:
 1139 0026 8081      		ld r24,Z
 1140 0028 8932      		cpi r24,lo8(41)
GAS LISTING /var/folders/1s/lqjcb7x5323625d47g9gdgmr0000gp/T//ccU6wS1s.s 			page 21


 1141 002a 01F0      		breq .L63
 1142 002c 9F01      		movw r18,r30
 1143 002e 2A1B      		sub r18,r26
 1144 0030 3B0B      		sbc r19,r27
 1145               	.LVL57:
 1146               	.L62:
 1147               	.LBE54:
 1148               	.LSM101:
 1149 0032 C901      		movw r24,r18
 1150               	/* epilogue start */
 1151 0034 0895      		ret
 1152               	.LVL58:
 1153               	.L66:
 1154               	.LBB55:
 1155               	.LSM102:
 1156 0036 20E0      		ldi r18,lo8(0)
 1157 0038 30E0      		ldi r19,hi8(0)
 1158 003a 00C0      		rjmp .L62
 1159               	.LBE55:
 1160               	.LFE87:
 1161               		.size	_Z20rtos_getStackReserveh, .-_Z20rtos_getStackReserveh
 1162               		.section	.text._Z19rtos_initializeTaskhPFvjEhPhjjhh,"ax",@progbits
 1163               	.global	_Z19rtos_initializeTaskhPFvjEhPhjjhh
 1164               		.type	_Z19rtos_initializeTaskhPFvjEhPhjjhh, @function
 1165               	_Z19rtos_initializeTaskhPFvjEhPhjjhh:
 1166               	.LFB88:
 1167               	.LSM103:
 1168               	.LVL59:
 1169 0000 AF92      		push r10
 1170               	.LVL60:
 1171 0002 CF92      		push r12
 1172               	.LVL61:
 1173 0004 EF92      		push r14
 1174               	.LVL62:
 1175 0006 FF92      		push r15
 1176 0008 0F93      		push r16
 1177               	.LVL63:
 1178 000a 1F93      		push r17
 1179 000c CF93      		push r28
 1180 000e DF93      		push r29
 1181               	/* prologue: function */
 1182               	/* frame size = 0 */
 1183 0010 9A2D      		mov r25,r10
 1184               	.LVL64:
 1185               	.LBB56:
 1186               	.LSM104:
 1187 0012 A82F      		mov r26,r24
 1188 0014 B0E0      		ldi r27,lo8(0)
 1189               	.LSM105:
 1190 0016 ED01      		movw r28,r26
 1191 0018 C295      		swap r28
 1192 001a D295      		swap r29
 1193 001c D07F      		andi r29,0xf0
 1194 001e DC27      		eor r29,r28
 1195 0020 C07F      		andi r28,0xf0
 1196 0022 DC27      		eor r29,r28
 1197 0024 FE01      		movw r30,r28
GAS LISTING /var/folders/1s/lqjcb7x5323625d47g9gdgmr0000gp/T//ccU6wS1s.s 			page 22


 1198 0026 EA0F      		add r30,r26
 1199 0028 FB1F      		adc r31,r27
 1200 002a E050      		subi r30,lo8(-(_ZL8_taskAry))
 1201 002c F040      		sbci r31,hi8(-(_ZL8_taskAry))
 1202 002e 7483      		std Z+4,r23
 1203 0030 6383      		std Z+3,r22
 1204               	.LSM106:
 1205 0032 3783      		std Z+7,r19
 1206 0034 2683      		std Z+6,r18
 1207               	.LSM107:
 1208 0036 1187      		std Z+9,r17
 1209 0038 0087      		std Z+8,r16
 1210               	.LVL65:
 1211               	.LSM108:
 1212 003a 4283      		std Z+2,r20
 1213               	.LSM109:
 1214 003c 1286      		std Z+10,__zero_reg__
 1215               	.LSM110:
 1216 003e 1582      		std Z+5,__zero_reg__
 1217               	.LBB57:
 1218               	.LBB58:
 1219               	.LSM111:
 1220 0040 F6FE      		sbrs r15,6
 1221 0042 00C0      		rjmp .L68
 1222               	.LVL66:
 1223               	.LSM112:
 1224 0044 A582      		std Z+5,r10
 1225 0046 2091 0000 		lds r18,_ZL5_time
 1226               	.LVL67:
 1227 004a 921B      		sub r25,r18
 1228 004c 1916      		cp __zero_reg__,r25
 1229 004e 04F4      		brge .L74
 1230               	.LVL68:
 1231               	.L69:
 1232               	.LSM113:
 1233 0050 FE01      		movw r30,r28
 1234 0052 EA0F      		add r30,r26
 1235 0054 FB1F      		adc r31,r27
 1236 0056 E050      		subi r30,lo8(-(_ZL8_taskAry))
 1237 0058 F040      		sbci r31,hi8(-(_ZL8_taskAry))
 1238 005a F686      		std Z+14,r15
 1239 005c E586      		std Z+13,r14
 1240               	.LSM114:
 1241 005e 1786      		std Z+15,__zero_reg__
 1242 0060 CC20      		tst r12
 1243               	.LVL69:
 1244 0062 01F4      		brne .L73
 1245 0064 81E0      		ldi r24,lo8(1)
 1246               	.LVL70:
 1247 0066 8787      		std Z+15,r24
 1248               	.LVL71:
 1249               	.L73:
 1250               	/* epilogue start */
 1251               	.LBE58:
 1252               	.LBE57:
 1253               	.LBE56:
 1254               	.LSM115:
GAS LISTING /var/folders/1s/lqjcb7x5323625d47g9gdgmr0000gp/T//ccU6wS1s.s 			page 23


 1255 0068 DF91      		pop r29
 1256 006a CF91      		pop r28
 1257 006c 1F91      		pop r17
 1258 006e 0F91      		pop r16
 1259               	.LVL72:
 1260 0070 FF90      		pop r15
 1261 0072 EF90      		pop r14
 1262               	.LVL73:
 1263 0074 CF90      		pop r12
 1264               	.LVL74:
 1265 0076 AF90      		pop r10
 1266 0078 0895      		ret
 1267               	.LVL75:
 1268               	.L68:
 1269               	.LBB61:
 1270               	.LBB60:
 1271               	.LBB59:
 1272               	.LSM116:
 1273 007a 9F3F      		cpi r25,lo8(-1)
 1274 007c 01F0      		breq .L71
 1275               	.LSM117:
 1276 007e 9F5F      		subi r25,lo8(-(1))
 1277               	.LVL76:
 1278               	.L71:
 1279               	.LSM118:
 1280 0080 FE01      		movw r30,r28
 1281 0082 EA0F      		add r30,r26
 1282 0084 FB1F      		adc r31,r27
 1283 0086 E050      		subi r30,lo8(-(_ZL8_taskAry))
 1284 0088 F040      		sbci r31,hi8(-(_ZL8_taskAry))
 1285 008a 9287      		std Z+10,r25
 1286 008c 00C0      		rjmp .L69
 1287               	.LVL77:
 1288               	.L74:
 1289               	.LSM119:
 1290 008e 8089      		ldd r24,Z+16
 1291               	.LVL78:
 1292 0090 8F3F      		cpi r24,lo8(-1)
 1293 0092 01F0      		breq .L70
 1294               	.LSM120:
 1295 0094 8F5F      		subi r24,lo8(-(1))
 1296 0096 808B      		std Z+16,r24
 1297               	.L70:
 1298               	.LSM121:
 1299 0098 FE01      		movw r30,r28
 1300 009a EA0F      		add r30,r26
 1301 009c FB1F      		adc r31,r27
 1302 009e E050      		subi r30,lo8(-(_ZL8_taskAry))
 1303 00a0 F040      		sbci r31,hi8(-(_ZL8_taskAry))
 1304 00a2 2F5F      		subi r18,lo8(-(1))
 1305 00a4 2583      		std Z+5,r18
 1306 00a6 00C0      		rjmp .L69
 1307               	.LBE59:
 1308               	.LBE60:
 1309               	.LBE61:
 1310               	.LFE88:
 1311               		.size	_Z19rtos_initializeTaskhPFvjEhPhjjhh, .-_Z19rtos_initializeTaskhPFvjEhPhjjhh
GAS LISTING /var/folders/1s/lqjcb7x5323625d47g9gdgmr0000gp/T//ccU6wS1s.s 			page 24


 1312               		.section	.text._Z13rtos_initRTOSv,"ax",@progbits
 1313               	.global	_Z13rtos_initRTOSv
 1314               		.type	_Z13rtos_initRTOSv, @function
 1315               	_Z13rtos_initRTOSv:
 1316               	.LFB89:
 1317               	.LSM122:
 1318               	/* prologue: function */
 1319               	/* frame size = 0 */
 1320               	.LBB63:
 1321               	.LSM123:
 1322 0000 0E94 0000 		call setup
 1323               	.LSM124:
 1324 0004 1092 0000 		sts _ZL17_noSuspendedTasks,__zero_reg__
 1325               	.LSM125:
 1326 0008 20E0      		ldi r18,lo8(_ZL8_taskAry)
 1327 000a 30E0      		ldi r19,hi8(_ZL8_taskAry)
 1328 000c 1092 0000 		sts (_ZL8_taskAry)+1,__zero_reg__
 1329 0010 1092 0000 		sts _ZL8_taskAry,__zero_reg__
 1330               	.LSM126:
 1331 0014 1092 0000 		sts _ZL8_taskAry+5,__zero_reg__
 1332               	.LSM127:
 1333 0018 1092 0000 		sts _ZL8_taskAry+10,__zero_reg__
 1334               	.LSM128:
 1335 001c 1092 0000 		sts (_ZL8_taskAry+11)+1,__zero_reg__
 1336 0020 1092 0000 		sts _ZL8_taskAry+11,__zero_reg__
 1337               	.LSM129:
 1338 0024 1092 0000 		sts (_ZL8_taskAry+13)+1,__zero_reg__
 1339 0028 1092 0000 		sts _ZL8_taskAry+13,__zero_reg__
 1340               	.LSM130:
 1341 002c 81E0      		ldi r24,lo8(1)
 1342 002e 8093 0000 		sts _ZL8_taskAry+15,r24
 1343               	.LSM131:
 1344 0032 1092 0000 		sts _ZL8_taskAry+16,__zero_reg__
 1345               	.LSM132:
 1346 0036 3093 0000 		sts (_ZL12_pActiveTask)+1,r19
 1347 003a 2093 0000 		sts _ZL12_pActiveTask,r18
 1348               	.LSM133:
 1349 003e 3093 0000 		sts (_ZL15_pSuspendedTask)+1,r19
 1350 0042 2093 0000 		sts _ZL15_pSuspendedTask,r18
 1351               	.LSM134:
 1352 0046 0E94 0000 		call _Z22rtos_enableIRQTimerTicv
 1353               	.L76:
 1354               	.LSM135:
 1355 004a 0E94 0000 		call loop
 1356 004e 00C0      		rjmp .L76
 1357               	.LBE63:
 1358               	.LFE89:
 1359               		.size	_Z13rtos_initRTOSv, .-_Z13rtos_initRTOSv
 1360               	.global	rtos_rtuinosStartupMsg
 1361               		.section	.progmem.rtuinos,"a",@progbits
 1362               		.type	rtos_rtuinosStartupMsg, @object
 1363               		.size	rtos_rtuinosStartupMsg, 251
 1364               	rtos_rtuinosStartupMsg:
 1365 0000 0D52 5475 		.ascii	"\rRTuinOS 1.0 for Arduino 1.0.5\nCopyright (C) 2012-2013 Pet"
 1365      696E 4F53 
 1365      2031 2E30 
 1365      2066 6F72 
GAS LISTING /var/folders/1s/lqjcb7x5323625d47g9gdgmr0000gp/T//ccU6wS1s.s 			page 25


 1365      2041 7264 
 1366 003a 6572 2056 		.ascii	"er Vranken (mailto:Peter_Vranken@Yahoo.de)\nThis is free sof"
 1366      7261 6E6B 
 1366      656E 2028 
 1366      6D61 696C 
 1366      746F 3A50 
 1367 0075 7477 6172 		.ascii	"tware; see the source for copying conditions. There is NO\nw"
 1367      653B 2073 
 1367      6565 2074 
 1367      6865 2073 
 1367      6F75 7263 
 1368 00b0 6172 7261 		.ascii	"arranty; n"
 1368      6E74 793B 
 1368      206E 
 1369 00ba 6F74 2065 		.string	"ot even for MERCHANTABILITY or FITNESS FOR A PARTICULAR PURPOSE."
 1369      7665 6E20 
 1369      666F 7220 
 1369      4D45 5243 
 1369      4841 4E54 
 1370               	.global	_tmpVarAsmToC_u16
 1371               		.section	.bss._tmpVarAsmToC_u16,"aw",@nobits
 1372               		.type	_tmpVarAsmToC_u16, @object
 1373               		.size	_tmpVarAsmToC_u16, 2
 1374               	_tmpVarAsmToC_u16:
 1375 0000 0000      		.skip 2,0
 1376               	.global	_tmpVarCToAsm_u16
 1377               		.section	.bss._tmpVarCToAsm_u16,"aw",@nobits
 1378               		.type	_tmpVarCToAsm_u16, @object
 1379               		.size	_tmpVarCToAsm_u16, 2
 1380               	_tmpVarCToAsm_u16:
 1381 0000 0000      		.skip 2,0
 1382               		.section	.data._ZL5_time,"aw",@progbits
 1383               		.type	_ZL5_time, @object
 1384               		.size	_ZL5_time, 1
 1385               	_ZL5_time:
 1386 0000 FF        		.byte	-1
 1387               		.section	.bss._ZL18_pSuspendedTaskAry,"aw",@nobits
 1388               		.type	_ZL18_pSuspendedTaskAry, @object
 1389               		.size	_ZL18_pSuspendedTaskAry, 0
 1390               	_ZL18_pSuspendedTaskAry:
 1391               		.section	.bss._ZL17_noSuspendedTasks,"aw",@nobits
 1392               		.type	_ZL17_noSuspendedTasks, @object
 1393               		.size	_ZL17_noSuspendedTasks, 1
 1394               	_ZL17_noSuspendedTasks:
 1395 0000 00        		.skip 1,0
 1396               		.section	.bss._ZL14_noDueTasksAry,"aw",@nobits
 1397               		.type	_ZL14_noDueTasksAry, @object
 1398               		.size	_ZL14_noDueTasksAry, 0
 1399               	_ZL14_noDueTasksAry:
 1400               		.section	.bss._ZL15_pDueTaskAryAry,"aw",@nobits
 1401               		.type	_ZL15_pDueTaskAryAry, @object
 1402               		.size	_ZL15_pDueTaskAryAry, 0
 1403               	_ZL15_pDueTaskAryAry:
 1404               		.section	.data._ZL12_pActiveTask,"aw",@progbits
 1405               		.type	_ZL12_pActiveTask, @object
 1406               		.size	_ZL12_pActiveTask, 2
 1407               	_ZL12_pActiveTask:
GAS LISTING /var/folders/1s/lqjcb7x5323625d47g9gdgmr0000gp/T//ccU6wS1s.s 			page 26


 1408 0000 0000      		.word	_ZL8_taskAry
 1409               		.section	.bss._ZL15_pSuspendedTask,"aw",@nobits
 1410               		.type	_ZL15_pSuspendedTask, @object
 1411               		.size	_ZL15_pSuspendedTask, 2
 1412               	_ZL15_pSuspendedTask:
 1413 0000 0000      		.skip 2,0
 1414               		.section	.bss._ZL8_taskAry,"aw",@nobits
 1415               		.type	_ZL8_taskAry, @object
 1416               		.size	_ZL8_taskAry, 17
 1417               	_ZL8_taskAry:
 1418 0000 0000 0000 		.skip 17,0
 1418      0000 0000 
 1418      0000 0000 
 1418      0000 0000 
 1418      00
 1419               		.section	.debug_frame,"",@progbits
 1420               	.Lframe0:
 1421 0000 0C00 0000 		.long	.LECIE0-.LSCIE0
 1422               	.LSCIE0:
 1423 0004 FFFF FFFF 		.long	0xffffffff
 1424 0008 01        		.byte	0x1
 1425 0009 00        		.string	""
 1426 000a 01        		.uleb128 0x1
 1427 000b 7F        		.sleb128 -1
 1428 000c 24        		.byte	0x24
 1429 000d 0C        		.byte	0xc
 1430 000e 20        		.uleb128 0x20
 1431 000f 00        		.uleb128 0x0
 1432               		.p2align	2
 1433               	.LECIE0:
 1434               	.LSFDE0:
 1435 0010 0C00 0000 		.long	.LEFDE0-.LASFDE0
 1436               	.LASFDE0:
 1437 0014 0000 0000 		.long	.Lframe0
 1438 0018 0000 0000 		.long	.LFB79
 1439 001c F600 0000 		.long	.LFE79-.LFB79
 1440               		.p2align	2
 1441               	.LEFDE0:
 1442               	.LSFDE2:
 1443 0020 0C00 0000 		.long	.LEFDE2-.LASFDE2
 1444               	.LASFDE2:
 1445 0024 0000 0000 		.long	.Lframe0
 1446 0028 0000 0000 		.long	.LFB81
 1447 002c C600 0000 		.long	.LFE81-.LFB81
 1448               		.p2align	2
 1449               	.LEFDE2:
 1450               	.LSFDE4:
 1451 0030 0C00 0000 		.long	.LEFDE4-.LASFDE4
 1452               	.LASFDE4:
 1453 0034 0000 0000 		.long	.Lframe0
 1454 0038 0000 0000 		.long	.LFB84
 1455 003c CC00 0000 		.long	.LFE84-.LFB84
 1456               		.p2align	2
 1457               	.LEFDE4:
 1458               	.LSFDE6:
 1459 0040 0C00 0000 		.long	.LEFDE6-.LASFDE6
 1460               	.LASFDE6:
GAS LISTING /var/folders/1s/lqjcb7x5323625d47g9gdgmr0000gp/T//ccU6wS1s.s 			page 27


 1461 0044 0000 0000 		.long	.Lframe0
 1462 0048 0000 0000 		.long	.LFB76
 1463 004c 0C00 0000 		.long	.LFE76-.LFB76
 1464               		.p2align	2
 1465               	.LEFDE6:
 1466               	.LSFDE8:
 1467 0050 0C00 0000 		.long	.LEFDE8-.LASFDE8
 1468               	.LASFDE8:
 1469 0054 0000 0000 		.long	.Lframe0
 1470 0058 0000 0000 		.long	.LFB80
 1471 005c 0001 0000 		.long	.LFE80-.LFB80
 1472               		.p2align	2
 1473               	.LEFDE8:
 1474               	.LSFDE10:
 1475 0060 0C00 0000 		.long	.LEFDE10-.LASFDE10
 1476               	.LASFDE10:
 1477 0064 0000 0000 		.long	.Lframe0
 1478 0068 0000 0000 		.long	.LFB82
 1479 006c 0001 0000 		.long	.LFE82-.LFB82
 1480               		.p2align	2
 1481               	.LEFDE10:
 1482               	.LSFDE12:
 1483 0070 0C00 0000 		.long	.LEFDE12-.LASFDE12
 1484               	.LASFDE12:
 1485 0074 0000 0000 		.long	.Lframe0
 1486 0078 0000 0000 		.long	.LFB85
 1487 007c FA00 0000 		.long	.LFE85-.LFB85
 1488               		.p2align	2
 1489               	.LEFDE12:
 1490               	.LSFDE14:
 1491 0080 0C00 0000 		.long	.LEFDE14-.LASFDE14
 1492               	.LASFDE14:
 1493 0084 0000 0000 		.long	.Lframe0
 1494 0088 0000 0000 		.long	.LFB86
 1495 008c 4200 0000 		.long	.LFE86-.LFB86
 1496               		.p2align	2
 1497               	.LEFDE14:
 1498               	.LSFDE16:
 1499 0090 0C00 0000 		.long	.LEFDE16-.LASFDE16
 1500               	.LASFDE16:
 1501 0094 0000 0000 		.long	.Lframe0
 1502 0098 0000 0000 		.long	.LFB87
 1503 009c 3C00 0000 		.long	.LFE87-.LFB87
 1504               		.p2align	2
 1505               	.LEFDE16:
 1506               	.LSFDE18:
 1507 00a0 0C00 0000 		.long	.LEFDE18-.LASFDE18
 1508               	.LASFDE18:
 1509 00a4 0000 0000 		.long	.Lframe0
 1510 00a8 0000 0000 		.long	.LFB88
 1511 00ac A800 0000 		.long	.LFE88-.LFB88
 1512               		.p2align	2
 1513               	.LEFDE18:
 1514               	.LSFDE20:
 1515 00b0 0C00 0000 		.long	.LEFDE20-.LASFDE20
 1516               	.LASFDE20:
 1517 00b4 0000 0000 		.long	.Lframe0
GAS LISTING /var/folders/1s/lqjcb7x5323625d47g9gdgmr0000gp/T//ccU6wS1s.s 			page 28


 1518 00b8 0000 0000 		.long	.LFB89
 1519 00bc 5000 0000 		.long	.LFE89-.LFB89
 1520               		.p2align	2
 1521               	.LEFDE20:
 1522               		.text
 1523               	.Letext0:
 1524               		.section	.debug_loc,"",@progbits
 1525               	.Ldebug_loc0:
 1526               	.LLST1:
 1527 0000 0000 0000 		.long	.LVL0
 1528 0004 0000 0000 		.long	.LVL2
 1529 0008 0600      		.word	0x6
 1530 000a 67        		.byte	0x67
 1531 000b 93        		.byte	0x93
 1532 000c 01        		.uleb128 0x1
 1533 000d 6F        		.byte	0x6f
 1534 000e 93        		.byte	0x93
 1535 000f 01        		.uleb128 0x1
 1536 0010 0000 0000 		.long	.LVL2
 1537 0014 0000 0000 		.long	.LVL6
 1538 0018 0600      		.word	0x6
 1539 001a 6E        		.byte	0x6e
 1540 001b 93        		.byte	0x93
 1541 001c 01        		.uleb128 0x1
 1542 001d 6F        		.byte	0x6f
 1543 001e 93        		.byte	0x93
 1544 001f 01        		.uleb128 0x1
 1545 0020 0000 0000 		.long	.LVL8
 1546 0024 0000 0000 		.long	.LVL9
 1547 0028 0100      		.word	0x1
 1548 002a 67        		.byte	0x67
 1549 002b 0000 0000 		.long	.LVL9
 1550 002f 0000 0000 		.long	.LVL10
 1551 0033 0100      		.word	0x1
 1552 0035 62        		.byte	0x62
 1553 0036 0000 0000 		.long	.LVL10
 1554 003a 0000 0000 		.long	.LVL12
 1555 003e 0600      		.word	0x6
 1556 0040 67        		.byte	0x67
 1557 0041 93        		.byte	0x93
 1558 0042 01        		.uleb128 0x1
 1559 0043 6F        		.byte	0x6f
 1560 0044 93        		.byte	0x93
 1561 0045 01        		.uleb128 0x1
 1562 0046 0000 0000 		.long	.LVL12
 1563 004a 0000 0000 		.long	.LVL13
 1564 004e 0600      		.word	0x6
 1565 0050 6E        		.byte	0x6e
 1566 0051 93        		.byte	0x93
 1567 0052 01        		.uleb128 0x1
 1568 0053 6F        		.byte	0x6f
 1569 0054 93        		.byte	0x93
 1570 0055 01        		.uleb128 0x1
 1571 0056 0000 0000 		.long	.LVL13
 1572 005a 0000 0000 		.long	.LVL14
 1573 005e 0600      		.word	0x6
 1574 0060 67        		.byte	0x67
GAS LISTING /var/folders/1s/lqjcb7x5323625d47g9gdgmr0000gp/T//ccU6wS1s.s 			page 29


 1575 0061 93        		.byte	0x93
 1576 0062 01        		.uleb128 0x1
 1577 0063 6F        		.byte	0x6f
 1578 0064 93        		.byte	0x93
 1579 0065 01        		.uleb128 0x1
 1580 0066 0000 0000 		.long	.LVL14
 1581 006a 0000 0000 		.long	.LFE79
 1582 006e 0600      		.word	0x6
 1583 0070 6E        		.byte	0x6e
 1584 0071 93        		.byte	0x93
 1585 0072 01        		.uleb128 0x1
 1586 0073 6F        		.byte	0x6f
 1587 0074 93        		.byte	0x93
 1588 0075 01        		.uleb128 0x1
 1589 0076 0000 0000 		.long	0x0
 1590 007a 0000 0000 		.long	0x0
 1591               	.LLST2:
 1592 007e 0000 0000 		.long	.LVL0
 1593 0082 0000 0000 		.long	.LVL11
 1594 0086 0600      		.word	0x6
 1595 0088 6C        		.byte	0x6c
 1596 0089 93        		.byte	0x93
 1597 008a 01        		.uleb128 0x1
 1598 008b 6D        		.byte	0x6d
 1599 008c 93        		.byte	0x93
 1600 008d 01        		.uleb128 0x1
 1601 008e 0000 0000 		.long	.LVL12
 1602 0092 0000 0000 		.long	.LFE79
 1603 0096 0600      		.word	0x6
 1604 0098 6C        		.byte	0x6c
 1605 0099 93        		.byte	0x93
 1606 009a 01        		.uleb128 0x1
 1607 009b 6D        		.byte	0x6d
 1608 009c 93        		.byte	0x93
 1609 009d 01        		.uleb128 0x1
 1610 009e 0000 0000 		.long	0x0
 1611 00a2 0000 0000 		.long	0x0
 1612               	.LLST3:
 1613 00a6 0000 0000 		.long	.LVL0
 1614 00aa 0000 0000 		.long	.LVL4
 1615 00ae 0600      		.word	0x6
 1616 00b0 64        		.byte	0x64
 1617 00b1 93        		.byte	0x93
 1618 00b2 01        		.uleb128 0x1
 1619 00b3 65        		.byte	0x65
 1620 00b4 93        		.byte	0x93
 1621 00b5 01        		.uleb128 0x1
 1622 00b6 0000 0000 		.long	.LVL5
 1623 00ba 0000 0000 		.long	.LFE79
 1624 00be 0600      		.word	0x6
 1625 00c0 64        		.byte	0x64
 1626 00c1 93        		.byte	0x93
 1627 00c2 01        		.uleb128 0x1
 1628 00c3 65        		.byte	0x65
 1629 00c4 93        		.byte	0x93
 1630 00c5 01        		.uleb128 0x1
 1631 00c6 0000 0000 		.long	0x0
GAS LISTING /var/folders/1s/lqjcb7x5323625d47g9gdgmr0000gp/T//ccU6wS1s.s 			page 30


 1632 00ca 0000 0000 		.long	0x0
 1633               	.LLST5:
 1634 00ce 0000 0000 		.long	.LVL15
 1635 00d2 0000 0000 		.long	.LVL16
 1636 00d6 0600      		.word	0x6
 1637 00d8 68        		.byte	0x68
 1638 00d9 93        		.byte	0x93
 1639 00da 01        		.uleb128 0x1
 1640 00db 69        		.byte	0x69
 1641 00dc 93        		.byte	0x93
 1642 00dd 01        		.uleb128 0x1
 1643 00de 0000 0000 		.long	.LVL16
 1644 00e2 0000 0000 		.long	.LVL28
 1645 00e6 0600      		.word	0x6
 1646 00e8 60        		.byte	0x60
 1647 00e9 93        		.byte	0x93
 1648 00ea 01        		.uleb128 0x1
 1649 00eb 61        		.byte	0x61
 1650 00ec 93        		.byte	0x93
 1651 00ed 01        		.uleb128 0x1
 1652 00ee 0000 0000 		.long	.LVL29
 1653 00f2 0000 0000 		.long	.LFE81
 1654 00f6 0600      		.word	0x6
 1655 00f8 60        		.byte	0x60
 1656 00f9 93        		.byte	0x93
 1657 00fa 01        		.uleb128 0x1
 1658 00fb 61        		.byte	0x61
 1659 00fc 93        		.byte	0x93
 1660 00fd 01        		.uleb128 0x1
 1661 00fe 0000 0000 		.long	0x0
 1662 0102 0000 0000 		.long	0x0
 1663               	.LLST6:
 1664 0106 0000 0000 		.long	.LVL16
 1665 010a 0000 0000 		.long	.LVL18
 1666 010e 0600      		.word	0x6
 1667 0110 67        		.byte	0x67
 1668 0111 93        		.byte	0x93
 1669 0112 01        		.uleb128 0x1
 1670 0113 6F        		.byte	0x6f
 1671 0114 93        		.byte	0x93
 1672 0115 01        		.uleb128 0x1
 1673 0116 0000 0000 		.long	.LVL18
 1674 011a 0000 0000 		.long	.LVL21
 1675 011e 0600      		.word	0x6
 1676 0120 6E        		.byte	0x6e
 1677 0121 93        		.byte	0x93
 1678 0122 01        		.uleb128 0x1
 1679 0123 6F        		.byte	0x6f
 1680 0124 93        		.byte	0x93
 1681 0125 01        		.uleb128 0x1
 1682 0126 0000 0000 		.long	.LVL23
 1683 012a 0000 0000 		.long	.LVL24
 1684 012e 0100      		.word	0x1
 1685 0130 67        		.byte	0x67
 1686 0131 0000 0000 		.long	.LVL24
 1687 0135 0000 0000 		.long	.LVL25
 1688 0139 0100      		.word	0x1
GAS LISTING /var/folders/1s/lqjcb7x5323625d47g9gdgmr0000gp/T//ccU6wS1s.s 			page 31


 1689 013b 62        		.byte	0x62
 1690 013c 0000 0000 		.long	.LVL25
 1691 0140 0000 0000 		.long	.LVL29
 1692 0144 0600      		.word	0x6
 1693 0146 67        		.byte	0x67
 1694 0147 93        		.byte	0x93
 1695 0148 01        		.uleb128 0x1
 1696 0149 6F        		.byte	0x6f
 1697 014a 93        		.byte	0x93
 1698 014b 01        		.uleb128 0x1
 1699 014c 0000 0000 		.long	.LVL29
 1700 0150 0000 0000 		.long	.LVL31
 1701 0154 0600      		.word	0x6
 1702 0156 6E        		.byte	0x6e
 1703 0157 93        		.byte	0x93
 1704 0158 01        		.uleb128 0x1
 1705 0159 6F        		.byte	0x6f
 1706 015a 93        		.byte	0x93
 1707 015b 01        		.uleb128 0x1
 1708 015c 0000 0000 		.long	.LVL31
 1709 0160 0000 0000 		.long	.LFE81
 1710 0164 0600      		.word	0x6
 1711 0166 67        		.byte	0x67
 1712 0167 93        		.byte	0x93
 1713 0168 01        		.uleb128 0x1
 1714 0169 6F        		.byte	0x6f
 1715 016a 93        		.byte	0x93
 1716 016b 01        		.uleb128 0x1
 1717 016c 0000 0000 		.long	0x0
 1718 0170 0000 0000 		.long	0x0
 1719               	.LLST7:
 1720 0174 0000 0000 		.long	.LVL16
 1721 0178 0000 0000 		.long	.LVL27
 1722 017c 0600      		.word	0x6
 1723 017e 6C        		.byte	0x6c
 1724 017f 93        		.byte	0x93
 1725 0180 01        		.uleb128 0x1
 1726 0181 6D        		.byte	0x6d
 1727 0182 93        		.byte	0x93
 1728 0183 01        		.uleb128 0x1
 1729 0184 0000 0000 		.long	.LVL29
 1730 0188 0000 0000 		.long	.LFE81
 1731 018c 0600      		.word	0x6
 1732 018e 6C        		.byte	0x6c
 1733 018f 93        		.byte	0x93
 1734 0190 01        		.uleb128 0x1
 1735 0191 6D        		.byte	0x6d
 1736 0192 93        		.byte	0x93
 1737 0193 01        		.uleb128 0x1
 1738 0194 0000 0000 		.long	0x0
 1739 0198 0000 0000 		.long	0x0
 1740               	.LLST8:
 1741 019c 0000 0000 		.long	.LVL16
 1742 01a0 0000 0000 		.long	.LVL20
 1743 01a4 0600      		.word	0x6
 1744 01a6 68        		.byte	0x68
 1745 01a7 93        		.byte	0x93
GAS LISTING /var/folders/1s/lqjcb7x5323625d47g9gdgmr0000gp/T//ccU6wS1s.s 			page 32


 1746 01a8 01        		.uleb128 0x1
 1747 01a9 69        		.byte	0x69
 1748 01aa 93        		.byte	0x93
 1749 01ab 01        		.uleb128 0x1
 1750 01ac 0000 0000 		.long	.LVL25
 1751 01b0 0000 0000 		.long	.LVL26
 1752 01b4 0600      		.word	0x6
 1753 01b6 68        		.byte	0x68
 1754 01b7 93        		.byte	0x93
 1755 01b8 01        		.uleb128 0x1
 1756 01b9 69        		.byte	0x69
 1757 01ba 93        		.byte	0x93
 1758 01bb 01        		.uleb128 0x1
 1759 01bc 0000 0000 		.long	.LVL30
 1760 01c0 0000 0000 		.long	.LFE81
 1761 01c4 0600      		.word	0x6
 1762 01c6 68        		.byte	0x68
 1763 01c7 93        		.byte	0x93
 1764 01c8 01        		.uleb128 0x1
 1765 01c9 69        		.byte	0x69
 1766 01ca 93        		.byte	0x93
 1767 01cb 01        		.uleb128 0x1
 1768 01cc 0000 0000 		.long	0x0
 1769 01d0 0000 0000 		.long	0x0
 1770               	.LLST10:
 1771 01d4 0000 0000 		.long	.LVL32
 1772 01d8 0000 0000 		.long	.LVL34
 1773 01dc 0600      		.word	0x6
 1774 01de 68        		.byte	0x68
 1775 01df 93        		.byte	0x93
 1776 01e0 01        		.uleb128 0x1
 1777 01e1 69        		.byte	0x69
 1778 01e2 93        		.byte	0x93
 1779 01e3 01        		.uleb128 0x1
 1780 01e4 0000 0000 		.long	.LVL34
 1781 01e8 0000 0000 		.long	.LVL38
 1782 01ec 0600      		.word	0x6
 1783 01ee 60        		.byte	0x60
 1784 01ef 93        		.byte	0x93
 1785 01f0 01        		.uleb128 0x1
 1786 01f1 61        		.byte	0x61
 1787 01f2 93        		.byte	0x93
 1788 01f3 01        		.uleb128 0x1
 1789 01f4 0000 0000 		.long	.LVL39
 1790 01f8 0000 0000 		.long	.LFE84
 1791 01fc 0600      		.word	0x6
 1792 01fe 60        		.byte	0x60
 1793 01ff 93        		.byte	0x93
 1794 0200 01        		.uleb128 0x1
 1795 0201 61        		.byte	0x61
 1796 0202 93        		.byte	0x93
 1797 0203 01        		.uleb128 0x1
 1798 0204 0000 0000 		.long	0x0
 1799 0208 0000 0000 		.long	0x0
 1800               	.LLST11:
 1801 020c 0000 0000 		.long	.LVL32
 1802 0210 0000 0000 		.long	.LVL35
GAS LISTING /var/folders/1s/lqjcb7x5323625d47g9gdgmr0000gp/T//ccU6wS1s.s 			page 33


 1803 0214 0100      		.word	0x1
 1804 0216 64        		.byte	0x64
 1805 0217 0000 0000 		.long	.LVL35
 1806 021b 0000 0000 		.long	.LFE84
 1807 021f 0100      		.word	0x1
 1808 0221 67        		.byte	0x67
 1809 0222 0000 0000 		.long	0x0
 1810 0226 0000 0000 		.long	0x0
 1811               	.LLST12:
 1812 022a 0000 0000 		.long	.LVL33
 1813 022e 0000 0000 		.long	.LVL37
 1814 0232 0600      		.word	0x6
 1815 0234 6C        		.byte	0x6c
 1816 0235 93        		.byte	0x93
 1817 0236 01        		.uleb128 0x1
 1818 0237 6D        		.byte	0x6d
 1819 0238 93        		.byte	0x93
 1820 0239 01        		.uleb128 0x1
 1821 023a 0000 0000 		.long	.LVL39
 1822 023e 0000 0000 		.long	.LFE84
 1823 0242 0600      		.word	0x6
 1824 0244 6C        		.byte	0x6c
 1825 0245 93        		.byte	0x93
 1826 0246 01        		.uleb128 0x1
 1827 0247 6D        		.byte	0x6d
 1828 0248 93        		.byte	0x93
 1829 0249 01        		.uleb128 0x1
 1830 024a 0000 0000 		.long	0x0
 1831 024e 0000 0000 		.long	0x0
 1832               	.LLST16:
 1833 0252 0000 0000 		.long	.LVL41
 1834 0256 0000 0000 		.long	.LVL42
 1835 025a 0600      		.word	0x6
 1836 025c 68        		.byte	0x68
 1837 025d 93        		.byte	0x93
 1838 025e 01        		.uleb128 0x1
 1839 025f 69        		.byte	0x69
 1840 0260 93        		.byte	0x93
 1841 0261 01        		.uleb128 0x1
 1842 0262 0000 0000 		.long	0x0
 1843 0266 0000 0000 		.long	0x0
 1844               	.LLST18:
 1845 026a 0000 0000 		.long	.LVL43
 1846 026e 0000 0000 		.long	.LVL44
 1847 0272 0600      		.word	0x6
 1848 0274 68        		.byte	0x68
 1849 0275 93        		.byte	0x93
 1850 0276 01        		.uleb128 0x1
 1851 0277 69        		.byte	0x69
 1852 0278 93        		.byte	0x93
 1853 0279 01        		.uleb128 0x1
 1854 027a 0000 0000 		.long	0x0
 1855 027e 0000 0000 		.long	0x0
 1856               	.LLST19:
 1857 0282 0000 0000 		.long	.LVL43
 1858 0286 0000 0000 		.long	.LVL44
 1859 028a 0100      		.word	0x1
GAS LISTING /var/folders/1s/lqjcb7x5323625d47g9gdgmr0000gp/T//ccU6wS1s.s 			page 34


 1860 028c 66        		.byte	0x66
 1861 028d 0000 0000 		.long	0x0
 1862 0291 0000 0000 		.long	0x0
 1863               	.LLST20:
 1864 0295 0000 0000 		.long	.LVL43
 1865 0299 0000 0000 		.long	.LVL44
 1866 029d 0100      		.word	0x1
 1867 029f 64        		.byte	0x64
 1868 02a0 0000 0000 		.long	0x0
 1869 02a4 0000 0000 		.long	0x0
 1870               	.LLST22:
 1871 02a8 0000 0000 		.long	.LVL45
 1872 02ac 0000 0000 		.long	.LVL46
 1873 02b0 0100      		.word	0x1
 1874 02b2 68        		.byte	0x68
 1875 02b3 0000 0000 		.long	.LVL46
 1876 02b7 0000 0000 		.long	.LVL47
 1877 02bb 0600      		.word	0x6
 1878 02bd 68        		.byte	0x68
 1879 02be 93        		.byte	0x93
 1880 02bf 01        		.uleb128 0x1
 1881 02c0 69        		.byte	0x69
 1882 02c1 93        		.byte	0x93
 1883 02c2 01        		.uleb128 0x1
 1884 02c3 0000 0000 		.long	.LVL49
 1885 02c7 0000 0000 		.long	.LVL50
 1886 02cb 0100      		.word	0x1
 1887 02cd 68        		.byte	0x68
 1888 02ce 0000 0000 		.long	0x0
 1889 02d2 0000 0000 		.long	0x0
 1890               	.LLST23:
 1891 02d6 0000 0000 		.long	.LVL47
 1892 02da 0000 0000 		.long	.LVL48
 1893 02de 0100      		.word	0x1
 1894 02e0 68        		.byte	0x68
 1895 02e1 0000 0000 		.long	.LVL51
 1896 02e5 0000 0000 		.long	.LFE86
 1897 02e9 0100      		.word	0x1
 1898 02eb 68        		.byte	0x68
 1899 02ec 0000 0000 		.long	0x0
 1900 02f0 0000 0000 		.long	0x0
 1901               	.LLST25:
 1902 02f4 0000 0000 		.long	.LVL52
 1903 02f8 0000 0000 		.long	.LVL53
 1904 02fc 0100      		.word	0x1
 1905 02fe 68        		.byte	0x68
 1906 02ff 0000 0000 		.long	.LVL53
 1907 0303 0000 0000 		.long	.LVL55
 1908 0307 0600      		.word	0x6
 1909 0309 68        		.byte	0x68
 1910 030a 93        		.byte	0x93
 1911 030b 01        		.uleb128 0x1
 1912 030c 69        		.byte	0x69
 1913 030d 93        		.byte	0x93
 1914 030e 01        		.uleb128 0x1
 1915 030f 0000 0000 		.long	0x0
 1916 0313 0000 0000 		.long	0x0
GAS LISTING /var/folders/1s/lqjcb7x5323625d47g9gdgmr0000gp/T//ccU6wS1s.s 			page 35


 1917               	.LLST26:
 1918 0317 0000 0000 		.long	.LVL54
 1919 031b 0000 0000 		.long	.LVL56
 1920 031f 0600      		.word	0x6
 1921 0321 6A        		.byte	0x6a
 1922 0322 93        		.byte	0x93
 1923 0323 01        		.uleb128 0x1
 1924 0324 6B        		.byte	0x6b
 1925 0325 93        		.byte	0x93
 1926 0326 01        		.uleb128 0x1
 1927 0327 0000 0000 		.long	.LVL56
 1928 032b 0000 0000 		.long	.LVL57
 1929 032f 0600      		.word	0x6
 1930 0331 6E        		.byte	0x6e
 1931 0332 93        		.byte	0x93
 1932 0333 01        		.uleb128 0x1
 1933 0334 6F        		.byte	0x6f
 1934 0335 93        		.byte	0x93
 1935 0336 01        		.uleb128 0x1
 1936 0337 0000 0000 		.long	.LVL57
 1937 033b 0000 0000 		.long	.LFE87
 1938 033f 0600      		.word	0x6
 1939 0341 6A        		.byte	0x6a
 1940 0342 93        		.byte	0x93
 1941 0343 01        		.uleb128 0x1
 1942 0344 6B        		.byte	0x6b
 1943 0345 93        		.byte	0x93
 1944 0346 01        		.uleb128 0x1
 1945 0347 0000 0000 		.long	0x0
 1946 034b 0000 0000 		.long	0x0
 1947               	.LLST28:
 1948 034f 0000 0000 		.long	.LVL59
 1949 0353 0000 0000 		.long	.LVL70
 1950 0357 0100      		.word	0x1
 1951 0359 68        		.byte	0x68
 1952 035a 0000 0000 		.long	.LVL71
 1953 035e 0000 0000 		.long	.LVL78
 1954 0362 0100      		.word	0x1
 1955 0364 68        		.byte	0x68
 1956 0365 0000 0000 		.long	0x0
 1957 0369 0000 0000 		.long	0x0
 1958               	.LLST29:
 1959 036d 0000 0000 		.long	.LVL59
 1960 0371 0000 0000 		.long	.LVL67
 1961 0375 0600      		.word	0x6
 1962 0377 62        		.byte	0x62
 1963 0378 93        		.byte	0x93
 1964 0379 01        		.uleb128 0x1
 1965 037a 63        		.byte	0x63
 1966 037b 93        		.byte	0x93
 1967 037c 01        		.uleb128 0x1
 1968 037d 0000 0000 		.long	.LVL68
 1969 0381 0000 0000 		.long	.LVL77
 1970 0385 0600      		.word	0x6
 1971 0387 62        		.byte	0x62
 1972 0388 93        		.byte	0x93
 1973 0389 01        		.uleb128 0x1
GAS LISTING /var/folders/1s/lqjcb7x5323625d47g9gdgmr0000gp/T//ccU6wS1s.s 			page 36


 1974 038a 63        		.byte	0x63
 1975 038b 93        		.byte	0x93
 1976 038c 01        		.uleb128 0x1
 1977 038d 0000 0000 		.long	0x0
 1978 0391 0000 0000 		.long	0x0
 1979               	.LLST30:
 1980 0395 0000 0000 		.long	.LVL59
 1981 0399 0000 0000 		.long	.LVL63
 1982 039d 0600      		.word	0x6
 1983 039f 60        		.byte	0x60
 1984 03a0 93        		.byte	0x93
 1985 03a1 01        		.uleb128 0x1
 1986 03a2 61        		.byte	0x61
 1987 03a3 93        		.byte	0x93
 1988 03a4 01        		.uleb128 0x1
 1989 03a5 0000 0000 		.long	.LVL65
 1990 03a9 0000 0000 		.long	.LVL72
 1991 03ad 0600      		.word	0x6
 1992 03af 60        		.byte	0x60
 1993 03b0 93        		.byte	0x93
 1994 03b1 01        		.uleb128 0x1
 1995 03b2 61        		.byte	0x61
 1996 03b3 93        		.byte	0x93
 1997 03b4 01        		.uleb128 0x1
 1998 03b5 0000 0000 		.long	.LVL75
 1999 03b9 0000 0000 		.long	.LFE88
 2000 03bd 0600      		.word	0x6
 2001 03bf 60        		.byte	0x60
 2002 03c0 93        		.byte	0x93
 2003 03c1 01        		.uleb128 0x1
 2004 03c2 61        		.byte	0x61
 2005 03c3 93        		.byte	0x93
 2006 03c4 01        		.uleb128 0x1
 2007 03c5 0000 0000 		.long	0x0
 2008 03c9 0000 0000 		.long	0x0
 2009               	.LLST31:
 2010 03cd 0000 0000 		.long	.LVL59
 2011 03d1 0000 0000 		.long	.LVL62
 2012 03d5 0600      		.word	0x6
 2013 03d7 5E        		.byte	0x5e
 2014 03d8 93        		.byte	0x93
 2015 03d9 01        		.uleb128 0x1
 2016 03da 5F        		.byte	0x5f
 2017 03db 93        		.byte	0x93
 2018 03dc 01        		.uleb128 0x1
 2019 03dd 0000 0000 		.long	.LVL66
 2020 03e1 0000 0000 		.long	.LVL73
 2021 03e5 0600      		.word	0x6
 2022 03e7 5E        		.byte	0x5e
 2023 03e8 93        		.byte	0x93
 2024 03e9 01        		.uleb128 0x1
 2025 03ea 5F        		.byte	0x5f
 2026 03eb 93        		.byte	0x93
 2027 03ec 01        		.uleb128 0x1
 2028 03ed 0000 0000 		.long	.LVL75
 2029 03f1 0000 0000 		.long	.LFE88
 2030 03f5 0600      		.word	0x6
GAS LISTING /var/folders/1s/lqjcb7x5323625d47g9gdgmr0000gp/T//ccU6wS1s.s 			page 37


 2031 03f7 5E        		.byte	0x5e
 2032 03f8 93        		.byte	0x93
 2033 03f9 01        		.uleb128 0x1
 2034 03fa 5F        		.byte	0x5f
 2035 03fb 93        		.byte	0x93
 2036 03fc 01        		.uleb128 0x1
 2037 03fd 0000 0000 		.long	0x0
 2038 0401 0000 0000 		.long	0x0
 2039               	.LLST32:
 2040 0405 0000 0000 		.long	.LVL59
 2041 0409 0000 0000 		.long	.LVL61
 2042 040d 0100      		.word	0x1
 2043 040f 5C        		.byte	0x5c
 2044 0410 0000 0000 		.long	.LVL69
 2045 0414 0000 0000 		.long	.LVL74
 2046 0418 0100      		.word	0x1
 2047 041a 5C        		.byte	0x5c
 2048 041b 0000 0000 		.long	0x0
 2049 041f 0000 0000 		.long	0x0
 2050               	.LLST33:
 2051 0423 0000 0000 		.long	.LVL59
 2052 0427 0000 0000 		.long	.LVL60
 2053 042b 0100      		.word	0x1
 2054 042d 5A        		.byte	0x5a
 2055 042e 0000 0000 		.long	.LVL64
 2056 0432 0000 0000 		.long	.LVL66
 2057 0436 0100      		.word	0x1
 2058 0438 5A        		.byte	0x5a
 2059 0439 0000 0000 		.long	.LVL66
 2060 043d 0000 0000 		.long	.LFE88
 2061 0441 0100      		.word	0x1
 2062 0443 69        		.byte	0x69
 2063 0444 0000 0000 		.long	0x0
 2064 0448 0000 0000 		.long	0x0
 2065               		.section	.debug_info
 2066 0000 DD08 0000 		.long	0x8dd
 2067 0004 0200      		.word	0x2
 2068 0006 0000 0000 		.long	.Ldebug_abbrev0
 2069 000a 04        		.byte	0x4
 2070 000b 01        		.uleb128 0x1
 2071 000c 0000 0000 		.long	.LASF75
 2072 0010 04        		.byte	0x4
 2073 0011 0000 0000 		.long	.LASF76
 2074 0015 0000 0000 		.long	.LASF77
 2075 0019 0000 0000 		.long	0x0
 2076 001d 0000 0000 		.long	0x0
 2077 0021 0000 0000 		.long	.Ldebug_ranges0+0x78
 2078 0025 0000 0000 		.long	.Ldebug_line0
 2079 0029 02        		.uleb128 0x2
 2080 002a 02        		.byte	0x2
 2081 002b 07        		.byte	0x7
 2082 002c 0000 0000 		.long	.LASF0
 2083 0030 03        		.uleb128 0x3
 2084 0031 02        		.byte	0x2
 2085 0032 05        		.byte	0x5
 2086 0033 696E 7400 		.string	"int"
 2087 0037 02        		.uleb128 0x2
GAS LISTING /var/folders/1s/lqjcb7x5323625d47g9gdgmr0000gp/T//ccU6wS1s.s 			page 38


 2088 0038 04        		.byte	0x4
 2089 0039 05        		.byte	0x5
 2090 003a 0000 0000 		.long	.LASF1
 2091 003e 04        		.uleb128 0x4
 2092 003f 0000 0000 		.long	.LASF3
 2093 0043 02        		.byte	0x2
 2094 0044 79        		.byte	0x79
 2095 0045 4900 0000 		.long	0x49
 2096 0049 02        		.uleb128 0x2
 2097 004a 01        		.byte	0x1
 2098 004b 06        		.byte	0x6
 2099 004c 0000 0000 		.long	.LASF2
 2100 0050 04        		.uleb128 0x4
 2101 0051 0000 0000 		.long	.LASF4
 2102 0055 02        		.byte	0x2
 2103 0056 7A        		.byte	0x7a
 2104 0057 5B00 0000 		.long	0x5b
 2105 005b 02        		.uleb128 0x2
 2106 005c 01        		.byte	0x1
 2107 005d 08        		.byte	0x8
 2108 005e 0000 0000 		.long	.LASF5
 2109 0062 04        		.uleb128 0x4
 2110 0063 0000 0000 		.long	.LASF6
 2111 0067 02        		.byte	0x2
 2112 0068 7C        		.byte	0x7c
 2113 0069 2900 0000 		.long	0x29
 2114 006d 02        		.uleb128 0x2
 2115 006e 04        		.byte	0x4
 2116 006f 07        		.byte	0x7
 2117 0070 0000 0000 		.long	.LASF7
 2118 0074 02        		.uleb128 0x2
 2119 0075 08        		.byte	0x8
 2120 0076 05        		.byte	0x5
 2121 0077 0000 0000 		.long	.LASF8
 2122 007b 02        		.uleb128 0x2
 2123 007c 08        		.byte	0x8
 2124 007d 07        		.byte	0x7
 2125 007e 0000 0000 		.long	.LASF9
 2126 0082 05        		.uleb128 0x5
 2127 0083 01        		.byte	0x1
 2128 0084 06        		.byte	0x6
 2129 0085 05        		.uleb128 0x5
 2130 0086 01        		.byte	0x1
 2131 0087 08        		.byte	0x8
 2132 0088 04        		.uleb128 0x4
 2133 0089 0000 0000 		.long	.LASF10
 2134 008d 03        		.byte	0x3
 2135 008e 5F        		.byte	0x5f
 2136 008f 5000 0000 		.long	0x50
 2137 0093 02        		.uleb128 0x2
 2138 0094 01        		.byte	0x1
 2139 0095 06        		.byte	0x6
 2140 0096 0000 0000 		.long	.LASF11
 2141 009a 06        		.uleb128 0x6
 2142 009b 5000 0000 		.long	0x50
 2143 009f 07        		.uleb128 0x7
 2144 00a0 0000 0000 		.long	.LASF12
GAS LISTING /var/folders/1s/lqjcb7x5323625d47g9gdgmr0000gp/T//ccU6wS1s.s 			page 39


 2145 00a4 04        		.byte	0x4
 2146 00a5 0E01      		.word	0x10e
 2147 00a7 5000 0000 		.long	0x50
 2148 00ab 07        		.uleb128 0x7
 2149 00ac 0000 0000 		.long	.LASF13
 2150 00b0 05        		.byte	0x5
 2151 00b1 5E01      		.word	0x15e
 2152 00b3 B700 0000 		.long	0xb7
 2153 00b7 08        		.uleb128 0x8
 2154 00b8 02        		.byte	0x2
 2155 00b9 BD00 0000 		.long	0xbd
 2156 00bd 09        		.uleb128 0x9
 2157 00be C800 0000 		.long	0xc8
 2158 00c2 0A        		.uleb128 0xa
 2159 00c3 6200 0000 		.long	0x62
 2160 00c7 00        		.byte	0x0
 2161 00c8 0B        		.uleb128 0xb
 2162 00c9 0000 0000 		.long	.LASF78
 2163 00cd 11        		.byte	0x11
 2164 00ce 01        		.byte	0x1
 2165 00cf 3601      		.word	0x136
 2166 00d1 7B01 0000 		.long	0x17b
 2167 00d5 0C        		.uleb128 0xc
 2168 00d6 0000 0000 		.long	.LASF14
 2169 00da 01        		.byte	0x1
 2170 00db 3B01      		.word	0x13b
 2171 00dd 6200 0000 		.long	0x62
 2172 00e1 02        		.byte	0x2
 2173 00e2 23        		.byte	0x23
 2174 00e3 00        		.uleb128 0x0
 2175 00e4 0C        		.uleb128 0xc
 2176 00e5 0000 0000 		.long	.LASF15
 2177 00e9 01        		.byte	0x1
 2178 00ea 3F01      		.word	0x13f
 2179 00ec 5000 0000 		.long	0x50
 2180 00f0 02        		.byte	0x2
 2181 00f1 23        		.byte	0x23
 2182 00f2 02        		.uleb128 0x2
 2183 00f3 0C        		.uleb128 0xc
 2184 00f4 0000 0000 		.long	.LASF16
 2185 00f8 01        		.byte	0x1
 2186 00f9 4401      		.word	0x144
 2187 00fb AB00 0000 		.long	0xab
 2188 00ff 02        		.byte	0x2
 2189 0100 23        		.byte	0x23
 2190 0101 03        		.uleb128 0x3
 2191 0102 0C        		.uleb128 0xc
 2192 0103 0000 0000 		.long	.LASF17
 2193 0107 01        		.byte	0x1
 2194 0108 4701      		.word	0x147
 2195 010a 9F00 0000 		.long	0x9f
 2196 010e 02        		.byte	0x2
 2197 010f 23        		.byte	0x23
 2198 0110 05        		.uleb128 0x5
 2199 0111 0C        		.uleb128 0xc
 2200 0112 0000 0000 		.long	.LASF18
 2201 0116 01        		.byte	0x1
GAS LISTING /var/folders/1s/lqjcb7x5323625d47g9gdgmr0000gp/T//ccU6wS1s.s 			page 40


 2202 0117 5801      		.word	0x158
 2203 0119 7B01 0000 		.long	0x17b
 2204 011d 02        		.byte	0x2
 2205 011e 23        		.byte	0x23
 2206 011f 06        		.uleb128 0x6
 2207 0120 0C        		.uleb128 0xc
 2208 0121 0000 0000 		.long	.LASF19
 2209 0125 01        		.byte	0x1
 2210 0126 5C01      		.word	0x15c
 2211 0128 6200 0000 		.long	0x62
 2212 012c 02        		.byte	0x2
 2213 012d 23        		.byte	0x23
 2214 012e 08        		.uleb128 0x8
 2215 012f 0C        		.uleb128 0xc
 2216 0130 0000 0000 		.long	.LASF20
 2217 0134 01        		.byte	0x1
 2218 0135 6401      		.word	0x164
 2219 0137 9F00 0000 		.long	0x9f
 2220 013b 02        		.byte	0x2
 2221 013c 23        		.byte	0x23
 2222 013d 0A        		.uleb128 0xa
 2223 013e 0C        		.uleb128 0xc
 2224 013f 0000 0000 		.long	.LASF21
 2225 0143 01        		.byte	0x1
 2226 0144 6C01      		.word	0x16c
 2227 0146 6200 0000 		.long	0x62
 2228 014a 02        		.byte	0x2
 2229 014b 23        		.byte	0x23
 2230 014c 0B        		.uleb128 0xb
 2231 014d 0C        		.uleb128 0xc
 2232 014e 0000 0000 		.long	.LASF22
 2233 0152 01        		.byte	0x1
 2234 0153 6F01      		.word	0x16f
 2235 0155 6200 0000 		.long	0x62
 2236 0159 02        		.byte	0x2
 2237 015a 23        		.byte	0x23
 2238 015b 0D        		.uleb128 0xd
 2239 015c 0C        		.uleb128 0xc
 2240 015d 0000 0000 		.long	.LASF23
 2241 0161 01        		.byte	0x1
 2242 0162 7201      		.word	0x172
 2243 0164 8800 0000 		.long	0x88
 2244 0168 02        		.byte	0x2
 2245 0169 23        		.byte	0x23
 2246 016a 0F        		.uleb128 0xf
 2247 016b 0C        		.uleb128 0xc
 2248 016c 0000 0000 		.long	.LASF24
 2249 0170 01        		.byte	0x1
 2250 0171 7C01      		.word	0x17c
 2251 0173 5000 0000 		.long	0x50
 2252 0177 02        		.byte	0x2
 2253 0178 23        		.byte	0x23
 2254 0179 10        		.uleb128 0x10
 2255 017a 00        		.byte	0x0
 2256 017b 08        		.uleb128 0x8
 2257 017c 02        		.byte	0x2
 2258 017d 5000 0000 		.long	0x50
GAS LISTING /var/folders/1s/lqjcb7x5323625d47g9gdgmr0000gp/T//ccU6wS1s.s 			page 41


 2259 0181 02        		.uleb128 0x2
 2260 0182 01        		.byte	0x1
 2261 0183 02        		.byte	0x2
 2262 0184 0000 0000 		.long	.LASF25
 2263 0188 02        		.uleb128 0x2
 2264 0189 04        		.byte	0x4
 2265 018a 04        		.byte	0x4
 2266 018b 0000 0000 		.long	.LASF26
 2267 018f 0D        		.uleb128 0xd
 2268 0190 0000 0000 		.long	.LASF30
 2269 0194 01        		.byte	0x1
 2270 0195 7202      		.word	0x272
 2271 0197 8800 0000 		.long	0x88
 2272 019b 03        		.byte	0x3
 2273 019c E801 0000 		.long	0x1e8
 2274 01a0 0E        		.uleb128 0xe
 2275 01a1 0000 0000 		.long	.LASF33
 2276 01a5 01        		.byte	0x1
 2277 01a6 7202      		.word	0x272
 2278 01a8 5000 0000 		.long	0x50
 2279 01ac 0F        		.uleb128 0xf
 2280 01ad 7054 00   		.string	"pT"
 2281 01b0 01        		.byte	0x1
 2282 01b1 7402      		.word	0x274
 2283 01b3 E801 0000 		.long	0x1e8
 2284 01b7 10        		.uleb128 0x10
 2285 01b8 0000 0000 		.long	.LASF27
 2286 01bc 01        		.byte	0x1
 2287 01bd 7502      		.word	0x275
 2288 01bf 6200 0000 		.long	0x62
 2289 01c3 10        		.uleb128 0x10
 2290 01c4 0000 0000 		.long	.LASF28
 2291 01c8 01        		.byte	0x1
 2292 01c9 7602      		.word	0x276
 2293 01cb 8800 0000 		.long	0x88
 2294 01cf 11        		.uleb128 0x11
 2295 01d0 0F        		.uleb128 0xf
 2296 01d1 7500      		.string	"u"
 2297 01d3 01        		.byte	0x1
 2298 01d4 8902      		.word	0x289
 2299 01d6 5000 0000 		.long	0x50
 2300 01da 10        		.uleb128 0x10
 2301 01db 0000 0000 		.long	.LASF29
 2302 01df 01        		.byte	0x1
 2303 01e0 8A02      		.word	0x28a
 2304 01e2 5000 0000 		.long	0x50
 2305 01e6 00        		.byte	0x0
 2306 01e7 00        		.byte	0x0
 2307 01e8 06        		.uleb128 0x6
 2308 01e9 ED01 0000 		.long	0x1ed
 2309 01ed 08        		.uleb128 0x8
 2310 01ee 02        		.byte	0x2
 2311 01ef C800 0000 		.long	0xc8
 2312 01f3 0D        		.uleb128 0xd
 2313 01f4 0000 0000 		.long	.LASF31
 2314 01f8 01        		.byte	0x1
 2315 01f9 B302      		.word	0x2b3
GAS LISTING /var/folders/1s/lqjcb7x5323625d47g9gdgmr0000gp/T//ccU6wS1s.s 			page 42


 2316 01fb 8800 0000 		.long	0x88
 2317 01ff 03        		.byte	0x3
 2318 0200 1102 0000 		.long	0x211
 2319 0204 10        		.uleb128 0x10
 2320 0205 0000 0000 		.long	.LASF32
 2321 0209 01        		.byte	0x1
 2322 020a B902      		.word	0x2b9
 2323 020c 3E00 0000 		.long	0x3e
 2324 0210 00        		.byte	0x0
 2325 0211 12        		.uleb128 0x12
 2326 0212 0000 0000 		.long	.LASF79
 2327 0216 01        		.byte	0x1
 2328 0217 3305      		.word	0x533
 2329 0219 03        		.byte	0x3
 2330 021a 4E02 0000 		.long	0x24e
 2331 021e 13        		.uleb128 0x13
 2332 021f 7054 00   		.string	"pT"
 2333 0222 01        		.byte	0x1
 2334 0223 3305      		.word	0x533
 2335 0225 E801 0000 		.long	0x1e8
 2336 0229 0E        		.uleb128 0xe
 2337 022a 0000 0000 		.long	.LASF22
 2338 022e 01        		.byte	0x1
 2339 022f 3305      		.word	0x533
 2340 0231 6200 0000 		.long	0x62
 2341 0235 13        		.uleb128 0x13
 2342 0236 616C 6C00 		.string	"all"
 2343 023a 01        		.byte	0x1
 2344 023b 3305      		.word	0x533
 2345 023d 8800 0000 		.long	0x88
 2346 0241 0E        		.uleb128 0xe
 2347 0242 0000 0000 		.long	.LASF34
 2348 0246 01        		.byte	0x1
 2349 0247 3305      		.word	0x533
 2350 0249 9F00 0000 		.long	0x9f
 2351 024d 00        		.byte	0x0
 2352 024e 14        		.uleb128 0x14
 2353 024f 0000 0000 		.long	.LASF37
 2354 0253 01        		.byte	0x1
 2355 0254 E502      		.word	0x2e5
 2356 0256 8800 0000 		.long	0x88
 2357 025a 0000 0000 		.long	.LFB79
 2358 025e 0000 0000 		.long	.LFE79
 2359 0262 02        		.byte	0x2
 2360 0263 90        		.byte	0x90
 2361 0264 20        		.uleb128 0x20
 2362 0265 E402 0000 		.long	0x2e4
 2363 0269 10        		.uleb128 0x10
 2364 026a 0000 0000 		.long	.LASF35
 2365 026e 01        		.byte	0x1
 2366 026f EA02      		.word	0x2ea
 2367 0271 8800 0000 		.long	0x88
 2368 0275 15        		.uleb128 0x15
 2369 0276 0000 0000 		.long	.LASF33
 2370 027a 01        		.byte	0x1
 2371 027b ED02      		.word	0x2ed
 2372 027d 5000 0000 		.long	0x50
GAS LISTING /var/folders/1s/lqjcb7x5323625d47g9gdgmr0000gp/T//ccU6wS1s.s 			page 43


 2373 0281 0000 0000 		.long	.LLST1
 2374 0285 16        		.uleb128 0x16
 2375 0286 0000 0000 		.long	.Ldebug_ranges0+0x0
 2376 028a 17        		.uleb128 0x17
 2377 028b 7054 00   		.string	"pT"
 2378 028e 01        		.byte	0x1
 2379 028f F002      		.word	0x2f0
 2380 0291 E801 0000 		.long	0x1e8
 2381 0295 0000 0000 		.long	.LLST2
 2382 0299 15        		.uleb128 0x15
 2383 029a 0000 0000 		.long	.LASF36
 2384 029e 01        		.byte	0x1
 2385 029f F502      		.word	0x2f5
 2386 02a1 E402 0000 		.long	0x2e4
 2387 02a5 0000 0000 		.long	.LLST3
 2388 02a9 18        		.uleb128 0x18
 2389 02aa 8F01 0000 		.long	0x18f
 2390 02ae 0000 0000 		.long	.LBB28
 2391 02b2 0000 0000 		.long	.LBE28
 2392 02b6 01        		.byte	0x1
 2393 02b7 0C03      		.word	0x30c
 2394 02b9 19        		.uleb128 0x19
 2395 02ba A001 0000 		.long	0x1a0
 2396 02be 1A        		.uleb128 0x1a
 2397 02bf AC01 0000 		.long	0x1ac
 2398 02c3 1A        		.uleb128 0x1a
 2399 02c4 B701 0000 		.long	0x1b7
 2400 02c8 1A        		.uleb128 0x1a
 2401 02c9 C301 0000 		.long	0x1c3
 2402 02cd 1B        		.uleb128 0x1b
 2403 02ce 0000 0000 		.long	.LBB31
 2404 02d2 0000 0000 		.long	.LBE31
 2405 02d6 1A        		.uleb128 0x1a
 2406 02d7 D001 0000 		.long	0x1d0
 2407 02db 1A        		.uleb128 0x1a
 2408 02dc DA01 0000 		.long	0x1da
 2409 02e0 00        		.byte	0x0
 2410 02e1 00        		.byte	0x0
 2411 02e2 00        		.byte	0x0
 2412 02e3 00        		.byte	0x0
 2413 02e4 06        		.uleb128 0x6
 2414 02e5 6200 0000 		.long	0x62
 2415 02e9 14        		.uleb128 0x14
 2416 02ea 0000 0000 		.long	.LASF38
 2417 02ee 01        		.byte	0x1
 2418 02ef C603      		.word	0x3c6
 2419 02f1 8800 0000 		.long	0x88
 2420 02f5 0000 0000 		.long	.LFB81
 2421 02f9 0000 0000 		.long	.LFE81
 2422 02fd 02        		.byte	0x2
 2423 02fe 90        		.byte	0x90
 2424 02ff 20        		.uleb128 0x20
 2425 0300 8B03 0000 		.long	0x38b
 2426 0304 1C        		.uleb128 0x1c
 2427 0305 0000 0000 		.long	.LASF21
 2428 0309 01        		.byte	0x1
 2429 030a C603      		.word	0x3c6
GAS LISTING /var/folders/1s/lqjcb7x5323625d47g9gdgmr0000gp/T//ccU6wS1s.s 			page 44


 2430 030c 6200 0000 		.long	0x62
 2431 0310 0000 0000 		.long	.LLST5
 2432 0314 10        		.uleb128 0x10
 2433 0315 0000 0000 		.long	.LASF35
 2434 0319 01        		.byte	0x1
 2435 031a CB03      		.word	0x3cb
 2436 031c 8800 0000 		.long	0x88
 2437 0320 15        		.uleb128 0x15
 2438 0321 0000 0000 		.long	.LASF33
 2439 0325 01        		.byte	0x1
 2440 0326 E703      		.word	0x3e7
 2441 0328 5000 0000 		.long	0x50
 2442 032c 0000 0000 		.long	.LLST6
 2443 0330 16        		.uleb128 0x16
 2444 0331 0000 0000 		.long	.Ldebug_ranges0+0x18
 2445 0335 17        		.uleb128 0x17
 2446 0336 7054 00   		.string	"pT"
 2447 0339 01        		.byte	0x1
 2448 033a EA03      		.word	0x3ea
 2449 033c E801 0000 		.long	0x1e8
 2450 0340 0000 0000 		.long	.LLST7
 2451 0344 15        		.uleb128 0x15
 2452 0345 0000 0000 		.long	.LASF36
 2453 0349 01        		.byte	0x1
 2454 034a EF03      		.word	0x3ef
 2455 034c E402 0000 		.long	0x2e4
 2456 0350 0000 0000 		.long	.LLST8
 2457 0354 1D        		.uleb128 0x1d
 2458 0355 8F01 0000 		.long	0x18f
 2459 0359 0000 0000 		.long	.Ldebug_ranges0+0x30
 2460 035d 01        		.byte	0x1
 2461 035e 2104      		.word	0x421
 2462 0360 19        		.uleb128 0x19
 2463 0361 A001 0000 		.long	0x1a0
 2464 0365 1A        		.uleb128 0x1a
 2465 0366 AC01 0000 		.long	0x1ac
 2466 036a 1A        		.uleb128 0x1a
 2467 036b B701 0000 		.long	0x1b7
 2468 036f 1A        		.uleb128 0x1a
 2469 0370 C301 0000 		.long	0x1c3
 2470 0374 1B        		.uleb128 0x1b
 2471 0375 0000 0000 		.long	.LBB39
 2472 0379 0000 0000 		.long	.LBE39
 2473 037d 1A        		.uleb128 0x1a
 2474 037e D001 0000 		.long	0x1d0
 2475 0382 1A        		.uleb128 0x1a
 2476 0383 DA01 0000 		.long	0x1da
 2477 0387 00        		.byte	0x0
 2478 0388 00        		.byte	0x0
 2479 0389 00        		.byte	0x0
 2480 038a 00        		.byte	0x0
 2481 038b 1E        		.uleb128 0x1e
 2482 038c 0000 0000 		.long	.LASF80
 2483 0390 01        		.byte	0x1
 2484 0391 DB05      		.word	0x5db
 2485 0393 0000 0000 		.long	.LFB84
 2486 0397 0000 0000 		.long	.LFE84
GAS LISTING /var/folders/1s/lqjcb7x5323625d47g9gdgmr0000gp/T//ccU6wS1s.s 			page 45


 2487 039b 02        		.byte	0x2
 2488 039c 90        		.byte	0x90
 2489 039d 20        		.uleb128 0x20
 2490 039e 3104 0000 		.long	0x431
 2491 03a2 1C        		.uleb128 0x1c
 2492 03a3 0000 0000 		.long	.LASF22
 2493 03a7 01        		.byte	0x1
 2494 03a8 DB05      		.word	0x5db
 2495 03aa 6200 0000 		.long	0x62
 2496 03ae 0000 0000 		.long	.LLST10
 2497 03b2 1F        		.uleb128 0x1f
 2498 03b3 616C 6C00 		.string	"all"
 2499 03b7 01        		.byte	0x1
 2500 03b8 DB05      		.word	0x5db
 2501 03ba 8800 0000 		.long	0x88
 2502 03be 01        		.byte	0x1
 2503 03bf 66        		.byte	0x66
 2504 03c0 1C        		.uleb128 0x1c
 2505 03c1 0000 0000 		.long	.LASF34
 2506 03c5 01        		.byte	0x1
 2507 03c6 DB05      		.word	0x5db
 2508 03c8 9F00 0000 		.long	0x9f
 2509 03cc 0000 0000 		.long	.LLST11
 2510 03d0 10        		.uleb128 0x10
 2511 03d1 0000 0000 		.long	.LASF32
 2512 03d5 01        		.byte	0x1
 2513 03d6 ED05      		.word	0x5ed
 2514 03d8 3E00 0000 		.long	0x3e
 2515 03dc 10        		.uleb128 0x10
 2516 03dd 0000 0000 		.long	.LASF39
 2517 03e1 01        		.byte	0x1
 2518 03e2 EE05      		.word	0x5ee
 2519 03e4 3E00 0000 		.long	0x3e
 2520 03e8 17        		.uleb128 0x17
 2521 03e9 7054 00   		.string	"pT"
 2522 03ec 01        		.byte	0x1
 2523 03ed F105      		.word	0x5f1
 2524 03ef E801 0000 		.long	0x1e8
 2525 03f3 0000 0000 		.long	.LLST12
 2526 03f7 10        		.uleb128 0x10
 2527 03f8 0000 0000 		.long	.LASF29
 2528 03fc 01        		.byte	0x1
 2529 03fd F205      		.word	0x5f2
 2530 03ff 5000 0000 		.long	0x50
 2531 0403 10        		.uleb128 0x10
 2532 0404 0000 0000 		.long	.LASF40
 2533 0408 01        		.byte	0x1
 2534 0409 F305      		.word	0x5f3
 2535 040b 5000 0000 		.long	0x50
 2536 040f 1D        		.uleb128 0x1d
 2537 0410 1102 0000 		.long	0x211
 2538 0414 0000 0000 		.long	.Ldebug_ranges0+0x48
 2539 0418 01        		.byte	0x1
 2540 0419 FB05      		.word	0x5fb
 2541 041b 19        		.uleb128 0x19
 2542 041c 4102 0000 		.long	0x241
 2543 0420 19        		.uleb128 0x19
GAS LISTING /var/folders/1s/lqjcb7x5323625d47g9gdgmr0000gp/T//ccU6wS1s.s 			page 46


 2544 0421 3502 0000 		.long	0x235
 2545 0425 19        		.uleb128 0x19
 2546 0426 2902 0000 		.long	0x229
 2547 042a 19        		.uleb128 0x19
 2548 042b 1E02 0000 		.long	0x21e
 2549 042f 00        		.byte	0x0
 2550 0430 00        		.byte	0x0
 2551 0431 20        		.uleb128 0x20
 2552 0432 01        		.byte	0x1
 2553 0433 0000 0000 		.long	.LASF81
 2554 0437 01        		.byte	0x1
 2555 0438 5002      		.word	0x250
 2556 043a 0000 0000 		.long	.LASF82
 2557 043e 0000 0000 		.long	.LFB76
 2558 0442 0000 0000 		.long	.LFE76
 2559 0446 02        		.byte	0x2
 2560 0447 90        		.byte	0x90
 2561 0448 20        		.uleb128 0x20
 2562 0449 21        		.uleb128 0x21
 2563 044a 01        		.byte	0x1
 2564 044b 0000 0000 		.long	.LASF83
 2565 044f 01        		.byte	0x1
 2566 0450 7203      		.word	0x372
 2567 0452 0000 0000 		.long	.LFB80
 2568 0456 0000 0000 		.long	.LFE80
 2569 045a 02        		.byte	0x2
 2570 045b 90        		.byte	0x90
 2571 045c 20        		.uleb128 0x20
 2572 045d 22        		.uleb128 0x22
 2573 045e 01        		.byte	0x1
 2574 045f 0000 0000 		.long	.LASF50
 2575 0463 01        		.byte	0x1
 2576 0464 E704      		.word	0x4e7
 2577 0466 0000 0000 		.long	.LASF52
 2578 046a 0000 0000 		.long	.LFB82
 2579 046e 0000 0000 		.long	.LFE82
 2580 0472 02        		.byte	0x2
 2581 0473 90        		.byte	0x90
 2582 0474 20        		.uleb128 0x20
 2583 0475 8A04 0000 		.long	0x48a
 2584 0479 1C        		.uleb128 0x1c
 2585 047a 0000 0000 		.long	.LASF27
 2586 047e 01        		.byte	0x1
 2587 047f E704      		.word	0x4e7
 2588 0481 6200 0000 		.long	0x62
 2589 0485 0000 0000 		.long	.LLST16
 2590 0489 00        		.byte	0x0
 2591 048a 23        		.uleb128 0x23
 2592 048b 01        		.byte	0x1
 2593 048c 0000 0000 		.long	.LASF41
 2594 0490 01        		.byte	0x1
 2595 0491 5F06      		.word	0x65f
 2596 0493 0000 0000 		.long	.LASF43
 2597 0497 6200 0000 		.long	0x62
 2598 049b 0000 0000 		.long	.LFB85
 2599 049f 0000 0000 		.long	.LFE85
 2600 04a3 02        		.byte	0x2
GAS LISTING /var/folders/1s/lqjcb7x5323625d47g9gdgmr0000gp/T//ccU6wS1s.s 			page 47


 2601 04a4 90        		.byte	0x90
 2602 04a5 20        		.uleb128 0x20
 2603 04a6 DB04 0000 		.long	0x4db
 2604 04aa 1C        		.uleb128 0x1c
 2605 04ab 0000 0000 		.long	.LASF22
 2606 04af 01        		.byte	0x1
 2607 04b0 5F06      		.word	0x65f
 2608 04b2 6200 0000 		.long	0x62
 2609 04b6 0000 0000 		.long	.LLST18
 2610 04ba 24        		.uleb128 0x24
 2611 04bb 616C 6C00 		.string	"all"
 2612 04bf 01        		.byte	0x1
 2613 04c0 5F06      		.word	0x65f
 2614 04c2 8800 0000 		.long	0x88
 2615 04c6 0000 0000 		.long	.LLST19
 2616 04ca 1C        		.uleb128 0x1c
 2617 04cb 0000 0000 		.long	.LASF34
 2618 04cf 01        		.byte	0x1
 2619 04d0 5F06      		.word	0x65f
 2620 04d2 9F00 0000 		.long	0x9f
 2621 04d6 0000 0000 		.long	.LLST20
 2622 04da 00        		.byte	0x0
 2623 04db 23        		.uleb128 0x23
 2624 04dc 01        		.byte	0x1
 2625 04dd 0000 0000 		.long	.LASF42
 2626 04e1 01        		.byte	0x1
 2627 04e2 D506      		.word	0x6d5
 2628 04e4 0000 0000 		.long	.LASF44
 2629 04e8 5000 0000 		.long	0x50
 2630 04ec 0000 0000 		.long	.LFB86
 2631 04f0 0000 0000 		.long	.LFE86
 2632 04f4 02        		.byte	0x2
 2633 04f5 90        		.byte	0x90
 2634 04f6 20        		.uleb128 0x20
 2635 04f7 4005 0000 		.long	0x540
 2636 04fb 1C        		.uleb128 0x1c
 2637 04fc 0000 0000 		.long	.LASF39
 2638 0500 01        		.byte	0x1
 2639 0501 D506      		.word	0x6d5
 2640 0503 5000 0000 		.long	0x50
 2641 0507 0000 0000 		.long	.LLST22
 2642 050b 25        		.uleb128 0x25
 2643 050c 0000 0000 		.long	.LASF45
 2644 0510 01        		.byte	0x1
 2645 0511 D506      		.word	0x6d5
 2646 0513 8800 0000 		.long	0x88
 2647 0517 01        		.byte	0x1
 2648 0518 66        		.byte	0x66
 2649 0519 1B        		.uleb128 0x1b
 2650 051a 0000 0000 		.long	.LBB52
 2651 051e 0000 0000 		.long	.LBE52
 2652 0522 15        		.uleb128 0x15
 2653 0523 0000 0000 		.long	.LASF46
 2654 0527 01        		.byte	0x1
 2655 0528 D906      		.word	0x6d9
 2656 052a 5000 0000 		.long	0x50
 2657 052e 0000 0000 		.long	.LLST23
GAS LISTING /var/folders/1s/lqjcb7x5323625d47g9gdgmr0000gp/T//ccU6wS1s.s 			page 48


 2658 0532 10        		.uleb128 0x10
 2659 0533 0000 0000 		.long	.LASF47
 2660 0537 01        		.byte	0x1
 2661 0538 DA06      		.word	0x6da
 2662 053a 4005 0000 		.long	0x540
 2663 053e 00        		.byte	0x0
 2664 053f 00        		.byte	0x0
 2665 0540 06        		.uleb128 0x6
 2666 0541 7B01 0000 		.long	0x17b
 2667 0545 23        		.uleb128 0x23
 2668 0546 01        		.byte	0x1
 2669 0547 0000 0000 		.long	.LASF48
 2670 054b 01        		.byte	0x1
 2671 054c 1B07      		.word	0x71b
 2672 054e 0000 0000 		.long	.LASF49
 2673 0552 6200 0000 		.long	0x62
 2674 0556 0000 0000 		.long	.LFB87
 2675 055a 0000 0000 		.long	.LFE87
 2676 055e 02        		.byte	0x2
 2677 055f 90        		.byte	0x90
 2678 0560 20        		.uleb128 0x20
 2679 0561 8505 0000 		.long	0x585
 2680 0565 1C        		.uleb128 0x1c
 2681 0566 0000 0000 		.long	.LASF39
 2682 056a 01        		.byte	0x1
 2683 056b 1B07      		.word	0x71b
 2684 056d 5000 0000 		.long	0x50
 2685 0571 0000 0000 		.long	.LLST25
 2686 0575 17        		.uleb128 0x17
 2687 0576 7370 00   		.string	"sp"
 2688 0579 01        		.byte	0x1
 2689 057a 1D07      		.word	0x71d
 2690 057c 7B01 0000 		.long	0x17b
 2691 0580 0000 0000 		.long	.LLST26
 2692 0584 00        		.byte	0x0
 2693 0585 22        		.uleb128 0x22
 2694 0586 01        		.byte	0x1
 2695 0587 0000 0000 		.long	.LASF51
 2696 058b 01        		.byte	0x1
 2697 058c 7B07      		.word	0x77b
 2698 058e 0000 0000 		.long	.LASF53
 2699 0592 0000 0000 		.long	.LFB88
 2700 0596 0000 0000 		.long	.LFE88
 2701 059a 02        		.byte	0x2
 2702 059b 90        		.byte	0x90
 2703 059c 20        		.uleb128 0x20
 2704 059d 4F06 0000 		.long	0x64f
 2705 05a1 1C        		.uleb128 0x1c
 2706 05a2 0000 0000 		.long	.LASF39
 2707 05a6 01        		.byte	0x1
 2708 05a7 7B07      		.word	0x77b
 2709 05a9 5000 0000 		.long	0x50
 2710 05ad 0000 0000 		.long	.LLST28
 2711 05b1 25        		.uleb128 0x25
 2712 05b2 0000 0000 		.long	.LASF16
 2713 05b6 01        		.byte	0x1
 2714 05b7 7B07      		.word	0x77b
GAS LISTING /var/folders/1s/lqjcb7x5323625d47g9gdgmr0000gp/T//ccU6wS1s.s 			page 49


 2715 05b9 AB00 0000 		.long	0xab
 2716 05bd 06        		.byte	0x6
 2717 05be 66        		.byte	0x66
 2718 05bf 93        		.byte	0x93
 2719 05c0 01        		.uleb128 0x1
 2720 05c1 67        		.byte	0x67
 2721 05c2 93        		.byte	0x93
 2722 05c3 01        		.uleb128 0x1
 2723 05c4 25        		.uleb128 0x25
 2724 05c5 0000 0000 		.long	.LASF15
 2725 05c9 01        		.byte	0x1
 2726 05ca 7B07      		.word	0x77b
 2727 05cc 5000 0000 		.long	0x50
 2728 05d0 01        		.byte	0x1
 2729 05d1 64        		.byte	0x64
 2730 05d2 1C        		.uleb128 0x1c
 2731 05d3 0000 0000 		.long	.LASF18
 2732 05d7 01        		.byte	0x1
 2733 05d8 7B07      		.word	0x77b
 2734 05da 4005 0000 		.long	0x540
 2735 05de 0000 0000 		.long	.LLST29
 2736 05e2 1C        		.uleb128 0x1c
 2737 05e3 0000 0000 		.long	.LASF19
 2738 05e7 01        		.byte	0x1
 2739 05e8 7B07      		.word	0x77b
 2740 05ea 6200 0000 		.long	0x62
 2741 05ee 0000 0000 		.long	.LLST30
 2742 05f2 1C        		.uleb128 0x1c
 2743 05f3 0000 0000 		.long	.LASF54
 2744 05f7 01        		.byte	0x1
 2745 05f8 7B07      		.word	0x77b
 2746 05fa 6200 0000 		.long	0x62
 2747 05fe 0000 0000 		.long	.LLST31
 2748 0602 1C        		.uleb128 0x1c
 2749 0603 0000 0000 		.long	.LASF55
 2750 0607 01        		.byte	0x1
 2751 0608 7B07      		.word	0x77b
 2752 060a 8800 0000 		.long	0x88
 2753 060e 0000 0000 		.long	.LLST32
 2754 0612 1C        		.uleb128 0x1c
 2755 0613 0000 0000 		.long	.LASF56
 2756 0617 01        		.byte	0x1
 2757 0618 7B07      		.word	0x77b
 2758 061a 9F00 0000 		.long	0x9f
 2759 061e 0000 0000 		.long	.LLST33
 2760 0622 0F        		.uleb128 0xf
 2761 0623 7054 00   		.string	"pT"
 2762 0626 01        		.byte	0x1
 2763 0627 7D07      		.word	0x77d
 2764 0629 E801 0000 		.long	0x1e8
 2765 062d 1D        		.uleb128 0x1d
 2766 062e 1102 0000 		.long	0x211
 2767 0632 0000 0000 		.long	.Ldebug_ranges0+0x60
 2768 0636 01        		.byte	0x1
 2769 0637 9107      		.word	0x791
 2770 0639 19        		.uleb128 0x19
 2771 063a 4102 0000 		.long	0x241
GAS LISTING /var/folders/1s/lqjcb7x5323625d47g9gdgmr0000gp/T//ccU6wS1s.s 			page 50


 2772 063e 19        		.uleb128 0x19
 2773 063f 3502 0000 		.long	0x235
 2774 0643 19        		.uleb128 0x19
 2775 0644 2902 0000 		.long	0x229
 2776 0648 19        		.uleb128 0x19
 2777 0649 1E02 0000 		.long	0x21e
 2778 064d 00        		.byte	0x0
 2779 064e 00        		.byte	0x0
 2780 064f 22        		.uleb128 0x22
 2781 0650 01        		.byte	0x1
 2782 0651 0000 0000 		.long	.LASF57
 2783 0655 01        		.byte	0x1
 2784 0656 C207      		.word	0x7c2
 2785 0658 0000 0000 		.long	.LASF58
 2786 065c 0000 0000 		.long	.LFB89
 2787 0660 0000 0000 		.long	.LFE89
 2788 0664 02        		.byte	0x2
 2789 0665 90        		.byte	0x90
 2790 0666 20        		.uleb128 0x20
 2791 0667 8F06 0000 		.long	0x68f
 2792 066b 10        		.uleb128 0x10
 2793 066c 0000 0000 		.long	.LASF39
 2794 0670 01        		.byte	0x1
 2795 0671 C507      		.word	0x7c5
 2796 0673 5000 0000 		.long	0x50
 2797 0677 10        		.uleb128 0x10
 2798 0678 0000 0000 		.long	.LASF59
 2799 067c 01        		.byte	0x1
 2800 067d C507      		.word	0x7c5
 2801 067f 5000 0000 		.long	0x50
 2802 0683 0F        		.uleb128 0xf
 2803 0684 7054 00   		.string	"pT"
 2804 0687 01        		.byte	0x1
 2805 0688 C607      		.word	0x7c6
 2806 068a ED01 0000 		.long	0x1ed
 2807 068e 00        		.byte	0x0
 2808 068f 26        		.uleb128 0x26
 2809 0690 5353 00   		.string	"SS"
 2810 0693 06        		.byte	0x6
 2811 0694 23        		.byte	0x23
 2812 0695 9A00 0000 		.long	0x9a
 2813 0699 35        		.byte	0x35
 2814 069a 27        		.uleb128 0x27
 2815 069b 0000 0000 		.long	.LASF60
 2816 069f 06        		.byte	0x6
 2817 06a0 24        		.byte	0x24
 2818 06a1 9A00 0000 		.long	0x9a
 2819 06a5 33        		.byte	0x33
 2820 06a6 27        		.uleb128 0x27
 2821 06a7 0000 0000 		.long	.LASF61
 2822 06ab 06        		.byte	0x6
 2823 06ac 25        		.byte	0x25
 2824 06ad 9A00 0000 		.long	0x9a
 2825 06b1 32        		.byte	0x32
 2826 06b2 26        		.uleb128 0x26
 2827 06b3 5343 4B00 		.string	"SCK"
 2828 06b7 06        		.byte	0x6
GAS LISTING /var/folders/1s/lqjcb7x5323625d47g9gdgmr0000gp/T//ccU6wS1s.s 			page 51


 2829 06b8 26        		.byte	0x26
 2830 06b9 9A00 0000 		.long	0x9a
 2831 06bd 34        		.byte	0x34
 2832 06be 26        		.uleb128 0x26
 2833 06bf 5344 4100 		.string	"SDA"
 2834 06c3 06        		.byte	0x6
 2835 06c4 28        		.byte	0x28
 2836 06c5 9A00 0000 		.long	0x9a
 2837 06c9 14        		.byte	0x14
 2838 06ca 26        		.uleb128 0x26
 2839 06cb 5343 4C00 		.string	"SCL"
 2840 06cf 06        		.byte	0x6
 2841 06d0 29        		.byte	0x29
 2842 06d1 9A00 0000 		.long	0x9a
 2843 06d5 15        		.byte	0x15
 2844 06d6 27        		.uleb128 0x27
 2845 06d7 0000 0000 		.long	.LASF62
 2846 06db 06        		.byte	0x6
 2847 06dc 2A        		.byte	0x2a
 2848 06dd 9A00 0000 		.long	0x9a
 2849 06e1 0D        		.byte	0xd
 2850 06e2 26        		.uleb128 0x26
 2851 06e3 4130 00   		.string	"A0"
 2852 06e6 06        		.byte	0x6
 2853 06e7 2C        		.byte	0x2c
 2854 06e8 9A00 0000 		.long	0x9a
 2855 06ec 36        		.byte	0x36
 2856 06ed 26        		.uleb128 0x26
 2857 06ee 4131 00   		.string	"A1"
 2858 06f1 06        		.byte	0x6
 2859 06f2 2D        		.byte	0x2d
 2860 06f3 9A00 0000 		.long	0x9a
 2861 06f7 37        		.byte	0x37
 2862 06f8 26        		.uleb128 0x26
 2863 06f9 4132 00   		.string	"A2"
 2864 06fc 06        		.byte	0x6
 2865 06fd 2E        		.byte	0x2e
 2866 06fe 9A00 0000 		.long	0x9a
 2867 0702 38        		.byte	0x38
 2868 0703 26        		.uleb128 0x26
 2869 0704 4133 00   		.string	"A3"
 2870 0707 06        		.byte	0x6
 2871 0708 2F        		.byte	0x2f
 2872 0709 9A00 0000 		.long	0x9a
 2873 070d 39        		.byte	0x39
 2874 070e 26        		.uleb128 0x26
 2875 070f 4134 00   		.string	"A4"
 2876 0712 06        		.byte	0x6
 2877 0713 30        		.byte	0x30
 2878 0714 9A00 0000 		.long	0x9a
 2879 0718 3A        		.byte	0x3a
 2880 0719 26        		.uleb128 0x26
 2881 071a 4135 00   		.string	"A5"
 2882 071d 06        		.byte	0x6
 2883 071e 31        		.byte	0x31
 2884 071f 9A00 0000 		.long	0x9a
 2885 0723 3B        		.byte	0x3b
GAS LISTING /var/folders/1s/lqjcb7x5323625d47g9gdgmr0000gp/T//ccU6wS1s.s 			page 52


 2886 0724 26        		.uleb128 0x26
 2887 0725 4136 00   		.string	"A6"
 2888 0728 06        		.byte	0x6
 2889 0729 32        		.byte	0x32
 2890 072a 9A00 0000 		.long	0x9a
 2891 072e 3C        		.byte	0x3c
 2892 072f 26        		.uleb128 0x26
 2893 0730 4137 00   		.string	"A7"
 2894 0733 06        		.byte	0x6
 2895 0734 33        		.byte	0x33
 2896 0735 9A00 0000 		.long	0x9a
 2897 0739 3D        		.byte	0x3d
 2898 073a 26        		.uleb128 0x26
 2899 073b 4138 00   		.string	"A8"
 2900 073e 06        		.byte	0x6
 2901 073f 34        		.byte	0x34
 2902 0740 9A00 0000 		.long	0x9a
 2903 0744 3E        		.byte	0x3e
 2904 0745 26        		.uleb128 0x26
 2905 0746 4139 00   		.string	"A9"
 2906 0749 06        		.byte	0x6
 2907 074a 35        		.byte	0x35
 2908 074b 9A00 0000 		.long	0x9a
 2909 074f 3F        		.byte	0x3f
 2910 0750 26        		.uleb128 0x26
 2911 0751 4131 3000 		.string	"A10"
 2912 0755 06        		.byte	0x6
 2913 0756 36        		.byte	0x36
 2914 0757 9A00 0000 		.long	0x9a
 2915 075b 40        		.byte	0x40
 2916 075c 26        		.uleb128 0x26
 2917 075d 4131 3100 		.string	"A11"
 2918 0761 06        		.byte	0x6
 2919 0762 37        		.byte	0x37
 2920 0763 9A00 0000 		.long	0x9a
 2921 0767 41        		.byte	0x41
 2922 0768 26        		.uleb128 0x26
 2923 0769 4131 3200 		.string	"A12"
 2924 076d 06        		.byte	0x6
 2925 076e 38        		.byte	0x38
 2926 076f 9A00 0000 		.long	0x9a
 2927 0773 42        		.byte	0x42
 2928 0774 26        		.uleb128 0x26
 2929 0775 4131 3300 		.string	"A13"
 2930 0779 06        		.byte	0x6
 2931 077a 39        		.byte	0x39
 2932 077b 9A00 0000 		.long	0x9a
 2933 077f 43        		.byte	0x43
 2934 0780 26        		.uleb128 0x26
 2935 0781 4131 3400 		.string	"A14"
 2936 0785 06        		.byte	0x6
 2937 0786 3A        		.byte	0x3a
 2938 0787 9A00 0000 		.long	0x9a
 2939 078b 44        		.byte	0x44
 2940 078c 26        		.uleb128 0x26
 2941 078d 4131 3500 		.string	"A15"
 2942 0791 06        		.byte	0x6
GAS LISTING /var/folders/1s/lqjcb7x5323625d47g9gdgmr0000gp/T//ccU6wS1s.s 			page 53


 2943 0792 3B        		.byte	0x3b
 2944 0793 9A00 0000 		.long	0x9a
 2945 0797 45        		.byte	0x45
 2946 0798 28        		.uleb128 0x28
 2947 0799 9300 0000 		.long	0x93
 2948 079d A807 0000 		.long	0x7a8
 2949 07a1 29        		.uleb128 0x29
 2950 07a2 A807 0000 		.long	0x7a8
 2951 07a6 FA        		.byte	0xfa
 2952 07a7 00        		.byte	0x0
 2953 07a8 05        		.uleb128 0x5
 2954 07a9 02        		.byte	0x2
 2955 07aa 07        		.byte	0x7
 2956 07ab 2A        		.uleb128 0x2a
 2957 07ac 0000 0000 		.long	.LASF72
 2958 07b0 01        		.byte	0x1
 2959 07b1 A401      		.word	0x1a4
 2960 07b3 BE07 0000 		.long	0x7be
 2961 07b7 01        		.byte	0x1
 2962 07b8 05        		.byte	0x5
 2963 07b9 03        		.byte	0x3
 2964 07ba 0000 0000 		.long	rtos_rtuinosStartupMsg
 2965 07be 06        		.uleb128 0x6
 2966 07bf 9807 0000 		.long	0x798
 2967 07c3 2B        		.uleb128 0x2b
 2968 07c4 0000 0000 		.long	.LASF63
 2969 07c8 01        		.byte	0x1
 2970 07c9 AC01      		.word	0x1ac
 2971 07cb 9F00 0000 		.long	0x9f
 2972 07cf 05        		.byte	0x5
 2973 07d0 03        		.byte	0x3
 2974 07d1 0000 0000 		.long	_ZL5_time
 2975 07d5 28        		.uleb128 0x28
 2976 07d6 C800 0000 		.long	0xc8
 2977 07da E507 0000 		.long	0x7e5
 2978 07de 29        		.uleb128 0x29
 2979 07df A807 0000 		.long	0x7a8
 2980 07e3 00        		.byte	0x0
 2981 07e4 00        		.byte	0x0
 2982 07e5 2B        		.uleb128 0x2b
 2983 07e6 0000 0000 		.long	.LASF64
 2984 07ea 01        		.byte	0x1
 2985 07eb B401      		.word	0x1b4
 2986 07ed D507 0000 		.long	0x7d5
 2987 07f1 05        		.byte	0x5
 2988 07f2 03        		.byte	0x3
 2989 07f3 0000 0000 		.long	_ZL8_taskAry
 2990 07f7 2C        		.uleb128 0x2c
 2991 07f8 0000 0000 		.long	.LASF65
 2992 07fc 01        		.byte	0x1
 2993 07fd B701      		.word	0x1b7
 2994 07ff E801 0000 		.long	0x1e8
 2995 0803 0000 0000 		.long	_ZL8_taskAry
 2996 0807 2B        		.uleb128 0x2b
 2997 0808 0000 0000 		.long	.LASF66
 2998 080c 01        		.byte	0x1
 2999 080d BB01      		.word	0x1bb
GAS LISTING /var/folders/1s/lqjcb7x5323625d47g9gdgmr0000gp/T//ccU6wS1s.s 			page 54


 3000 080f ED01 0000 		.long	0x1ed
 3001 0813 05        		.byte	0x5
 3002 0814 03        		.byte	0x3
 3003 0815 0000 0000 		.long	_ZL12_pActiveTask
 3004 0819 2B        		.uleb128 0x2b
 3005 081a 0000 0000 		.long	.LASF67
 3006 081e 01        		.byte	0x1
 3007 081f BF01      		.word	0x1bf
 3008 0821 ED01 0000 		.long	0x1ed
 3009 0825 05        		.byte	0x5
 3010 0826 03        		.byte	0x3
 3011 0827 0000 0000 		.long	_ZL15_pSuspendedTask
 3012 082b 28        		.uleb128 0x28
 3013 082c ED01 0000 		.long	0x1ed
 3014 0830 4708 0000 		.long	0x847
 3015 0834 2D        		.uleb128 0x2d
 3016 0835 A807 0000 		.long	0x7a8
 3017 0839 FFFF FFFF 		.long	0xffffffff
 3018 083d 2D        		.uleb128 0x2d
 3019 083e A807 0000 		.long	0x7a8
 3020 0842 FFFF FFFF 		.long	0xffffffff
 3021 0846 00        		.byte	0x0
 3022 0847 2B        		.uleb128 0x2b
 3023 0848 0000 0000 		.long	.LASF68
 3024 084c 01        		.byte	0x1
 3025 084d C301      		.word	0x1c3
 3026 084f 2B08 0000 		.long	0x82b
 3027 0853 05        		.byte	0x5
 3028 0854 03        		.byte	0x3
 3029 0855 0000 0000 		.long	_ZL15_pDueTaskAryAry
 3030 0859 28        		.uleb128 0x28
 3031 085a 5000 0000 		.long	0x50
 3032 085e 6C08 0000 		.long	0x86c
 3033 0862 2D        		.uleb128 0x2d
 3034 0863 A807 0000 		.long	0x7a8
 3035 0867 FFFF FFFF 		.long	0xffffffff
 3036 086b 00        		.byte	0x0
 3037 086c 2B        		.uleb128 0x2b
 3038 086d 0000 0000 		.long	.LASF69
 3039 0871 01        		.byte	0x1
 3040 0872 C601      		.word	0x1c6
 3041 0874 5908 0000 		.long	0x859
 3042 0878 05        		.byte	0x5
 3043 0879 03        		.byte	0x3
 3044 087a 0000 0000 		.long	_ZL14_noDueTasksAry
 3045 087e 28        		.uleb128 0x28
 3046 087f ED01 0000 		.long	0x1ed
 3047 0883 9108 0000 		.long	0x891
 3048 0887 2D        		.uleb128 0x2d
 3049 0888 A807 0000 		.long	0x7a8
 3050 088c FFFF FFFF 		.long	0xffffffff
 3051 0890 00        		.byte	0x0
 3052 0891 2B        		.uleb128 0x2b
 3053 0892 0000 0000 		.long	.LASF70
 3054 0896 01        		.byte	0x1
 3055 0897 C901      		.word	0x1c9
 3056 0899 7E08 0000 		.long	0x87e
GAS LISTING /var/folders/1s/lqjcb7x5323625d47g9gdgmr0000gp/T//ccU6wS1s.s 			page 55


 3057 089d 05        		.byte	0x5
 3058 089e 03        		.byte	0x3
 3059 089f 0000 0000 		.long	_ZL18_pSuspendedTaskAry
 3060 08a3 2B        		.uleb128 0x2b
 3061 08a4 0000 0000 		.long	.LASF71
 3062 08a8 01        		.byte	0x1
 3063 08a9 CC01      		.word	0x1cc
 3064 08ab 5000 0000 		.long	0x50
 3065 08af 05        		.byte	0x5
 3066 08b0 03        		.byte	0x3
 3067 08b1 0000 0000 		.long	_ZL17_noSuspendedTasks
 3068 08b5 2A        		.uleb128 0x2a
 3069 08b6 0000 0000 		.long	.LASF73
 3070 08ba 01        		.byte	0x1
 3071 08bb D501      		.word	0x1d5
 3072 08bd C808 0000 		.long	0x8c8
 3073 08c1 01        		.byte	0x1
 3074 08c2 05        		.byte	0x5
 3075 08c3 03        		.byte	0x3
 3076 08c4 0000 0000 		.long	_tmpVarAsmToC_u16
 3077 08c8 2E        		.uleb128 0x2e
 3078 08c9 6200 0000 		.long	0x62
 3079 08cd 2A        		.uleb128 0x2a
 3080 08ce 0000 0000 		.long	.LASF74
 3081 08d2 01        		.byte	0x1
 3082 08d3 D701      		.word	0x1d7
 3083 08d5 C808 0000 		.long	0x8c8
 3084 08d9 01        		.byte	0x1
 3085 08da 05        		.byte	0x5
 3086 08db 03        		.byte	0x3
 3087 08dc 0000 0000 		.long	_tmpVarCToAsm_u16
 3088 08e0 00        		.byte	0x0
 3089               		.section	.debug_abbrev
 3090 0000 01        		.uleb128 0x1
 3091 0001 11        		.uleb128 0x11
 3092 0002 01        		.byte	0x1
 3093 0003 25        		.uleb128 0x25
 3094 0004 0E        		.uleb128 0xe
 3095 0005 13        		.uleb128 0x13
 3096 0006 0B        		.uleb128 0xb
 3097 0007 03        		.uleb128 0x3
 3098 0008 0E        		.uleb128 0xe
 3099 0009 1B        		.uleb128 0x1b
 3100 000a 0E        		.uleb128 0xe
 3101 000b 11        		.uleb128 0x11
 3102 000c 01        		.uleb128 0x1
 3103 000d 52        		.uleb128 0x52
 3104 000e 01        		.uleb128 0x1
 3105 000f 55        		.uleb128 0x55
 3106 0010 06        		.uleb128 0x6
 3107 0011 10        		.uleb128 0x10
 3108 0012 06        		.uleb128 0x6
 3109 0013 00        		.byte	0x0
 3110 0014 00        		.byte	0x0
 3111 0015 02        		.uleb128 0x2
 3112 0016 24        		.uleb128 0x24
 3113 0017 00        		.byte	0x0
GAS LISTING /var/folders/1s/lqjcb7x5323625d47g9gdgmr0000gp/T//ccU6wS1s.s 			page 56


 3114 0018 0B        		.uleb128 0xb
 3115 0019 0B        		.uleb128 0xb
 3116 001a 3E        		.uleb128 0x3e
 3117 001b 0B        		.uleb128 0xb
 3118 001c 03        		.uleb128 0x3
 3119 001d 0E        		.uleb128 0xe
 3120 001e 00        		.byte	0x0
 3121 001f 00        		.byte	0x0
 3122 0020 03        		.uleb128 0x3
 3123 0021 24        		.uleb128 0x24
 3124 0022 00        		.byte	0x0
 3125 0023 0B        		.uleb128 0xb
 3126 0024 0B        		.uleb128 0xb
 3127 0025 3E        		.uleb128 0x3e
 3128 0026 0B        		.uleb128 0xb
 3129 0027 03        		.uleb128 0x3
 3130 0028 08        		.uleb128 0x8
 3131 0029 00        		.byte	0x0
 3132 002a 00        		.byte	0x0
 3133 002b 04        		.uleb128 0x4
 3134 002c 16        		.uleb128 0x16
 3135 002d 00        		.byte	0x0
 3136 002e 03        		.uleb128 0x3
 3137 002f 0E        		.uleb128 0xe
 3138 0030 3A        		.uleb128 0x3a
 3139 0031 0B        		.uleb128 0xb
 3140 0032 3B        		.uleb128 0x3b
 3141 0033 0B        		.uleb128 0xb
 3142 0034 49        		.uleb128 0x49
 3143 0035 13        		.uleb128 0x13
 3144 0036 00        		.byte	0x0
 3145 0037 00        		.byte	0x0
 3146 0038 05        		.uleb128 0x5
 3147 0039 24        		.uleb128 0x24
 3148 003a 00        		.byte	0x0
 3149 003b 0B        		.uleb128 0xb
 3150 003c 0B        		.uleb128 0xb
 3151 003d 3E        		.uleb128 0x3e
 3152 003e 0B        		.uleb128 0xb
 3153 003f 00        		.byte	0x0
 3154 0040 00        		.byte	0x0
 3155 0041 06        		.uleb128 0x6
 3156 0042 26        		.uleb128 0x26
 3157 0043 00        		.byte	0x0
 3158 0044 49        		.uleb128 0x49
 3159 0045 13        		.uleb128 0x13
 3160 0046 00        		.byte	0x0
 3161 0047 00        		.byte	0x0
 3162 0048 07        		.uleb128 0x7
 3163 0049 16        		.uleb128 0x16
 3164 004a 00        		.byte	0x0
 3165 004b 03        		.uleb128 0x3
 3166 004c 0E        		.uleb128 0xe
 3167 004d 3A        		.uleb128 0x3a
 3168 004e 0B        		.uleb128 0xb
 3169 004f 3B        		.uleb128 0x3b
 3170 0050 05        		.uleb128 0x5
GAS LISTING /var/folders/1s/lqjcb7x5323625d47g9gdgmr0000gp/T//ccU6wS1s.s 			page 57


 3171 0051 49        		.uleb128 0x49
 3172 0052 13        		.uleb128 0x13
 3173 0053 00        		.byte	0x0
 3174 0054 00        		.byte	0x0
 3175 0055 08        		.uleb128 0x8
 3176 0056 0F        		.uleb128 0xf
 3177 0057 00        		.byte	0x0
 3178 0058 0B        		.uleb128 0xb
 3179 0059 0B        		.uleb128 0xb
 3180 005a 49        		.uleb128 0x49
 3181 005b 13        		.uleb128 0x13
 3182 005c 00        		.byte	0x0
 3183 005d 00        		.byte	0x0
 3184 005e 09        		.uleb128 0x9
 3185 005f 15        		.uleb128 0x15
 3186 0060 01        		.byte	0x1
 3187 0061 01        		.uleb128 0x1
 3188 0062 13        		.uleb128 0x13
 3189 0063 00        		.byte	0x0
 3190 0064 00        		.byte	0x0
 3191 0065 0A        		.uleb128 0xa
 3192 0066 05        		.uleb128 0x5
 3193 0067 00        		.byte	0x0
 3194 0068 49        		.uleb128 0x49
 3195 0069 13        		.uleb128 0x13
 3196 006a 00        		.byte	0x0
 3197 006b 00        		.byte	0x0
 3198 006c 0B        		.uleb128 0xb
 3199 006d 13        		.uleb128 0x13
 3200 006e 01        		.byte	0x1
 3201 006f 03        		.uleb128 0x3
 3202 0070 0E        		.uleb128 0xe
 3203 0071 0B        		.uleb128 0xb
 3204 0072 0B        		.uleb128 0xb
 3205 0073 3A        		.uleb128 0x3a
 3206 0074 0B        		.uleb128 0xb
 3207 0075 3B        		.uleb128 0x3b
 3208 0076 05        		.uleb128 0x5
 3209 0077 01        		.uleb128 0x1
 3210 0078 13        		.uleb128 0x13
 3211 0079 00        		.byte	0x0
 3212 007a 00        		.byte	0x0
 3213 007b 0C        		.uleb128 0xc
 3214 007c 0D        		.uleb128 0xd
 3215 007d 00        		.byte	0x0
 3216 007e 03        		.uleb128 0x3
 3217 007f 0E        		.uleb128 0xe
 3218 0080 3A        		.uleb128 0x3a
 3219 0081 0B        		.uleb128 0xb
 3220 0082 3B        		.uleb128 0x3b
 3221 0083 05        		.uleb128 0x5
 3222 0084 49        		.uleb128 0x49
 3223 0085 13        		.uleb128 0x13
 3224 0086 38        		.uleb128 0x38
 3225 0087 0A        		.uleb128 0xa
 3226 0088 00        		.byte	0x0
 3227 0089 00        		.byte	0x0
GAS LISTING /var/folders/1s/lqjcb7x5323625d47g9gdgmr0000gp/T//ccU6wS1s.s 			page 58


 3228 008a 0D        		.uleb128 0xd
 3229 008b 2E        		.uleb128 0x2e
 3230 008c 01        		.byte	0x1
 3231 008d 03        		.uleb128 0x3
 3232 008e 0E        		.uleb128 0xe
 3233 008f 3A        		.uleb128 0x3a
 3234 0090 0B        		.uleb128 0xb
 3235 0091 3B        		.uleb128 0x3b
 3236 0092 05        		.uleb128 0x5
 3237 0093 49        		.uleb128 0x49
 3238 0094 13        		.uleb128 0x13
 3239 0095 20        		.uleb128 0x20
 3240 0096 0B        		.uleb128 0xb
 3241 0097 01        		.uleb128 0x1
 3242 0098 13        		.uleb128 0x13
 3243 0099 00        		.byte	0x0
 3244 009a 00        		.byte	0x0
 3245 009b 0E        		.uleb128 0xe
 3246 009c 05        		.uleb128 0x5
 3247 009d 00        		.byte	0x0
 3248 009e 03        		.uleb128 0x3
 3249 009f 0E        		.uleb128 0xe
 3250 00a0 3A        		.uleb128 0x3a
 3251 00a1 0B        		.uleb128 0xb
 3252 00a2 3B        		.uleb128 0x3b
 3253 00a3 05        		.uleb128 0x5
 3254 00a4 49        		.uleb128 0x49
 3255 00a5 13        		.uleb128 0x13
 3256 00a6 00        		.byte	0x0
 3257 00a7 00        		.byte	0x0
 3258 00a8 0F        		.uleb128 0xf
 3259 00a9 34        		.uleb128 0x34
 3260 00aa 00        		.byte	0x0
 3261 00ab 03        		.uleb128 0x3
 3262 00ac 08        		.uleb128 0x8
 3263 00ad 3A        		.uleb128 0x3a
 3264 00ae 0B        		.uleb128 0xb
 3265 00af 3B        		.uleb128 0x3b
 3266 00b0 05        		.uleb128 0x5
 3267 00b1 49        		.uleb128 0x49
 3268 00b2 13        		.uleb128 0x13
 3269 00b3 00        		.byte	0x0
 3270 00b4 00        		.byte	0x0
 3271 00b5 10        		.uleb128 0x10
 3272 00b6 34        		.uleb128 0x34
 3273 00b7 00        		.byte	0x0
 3274 00b8 03        		.uleb128 0x3
 3275 00b9 0E        		.uleb128 0xe
 3276 00ba 3A        		.uleb128 0x3a
 3277 00bb 0B        		.uleb128 0xb
 3278 00bc 3B        		.uleb128 0x3b
 3279 00bd 05        		.uleb128 0x5
 3280 00be 49        		.uleb128 0x49
 3281 00bf 13        		.uleb128 0x13
 3282 00c0 00        		.byte	0x0
 3283 00c1 00        		.byte	0x0
 3284 00c2 11        		.uleb128 0x11
GAS LISTING /var/folders/1s/lqjcb7x5323625d47g9gdgmr0000gp/T//ccU6wS1s.s 			page 59


 3285 00c3 0B        		.uleb128 0xb
 3286 00c4 01        		.byte	0x1
 3287 00c5 00        		.byte	0x0
 3288 00c6 00        		.byte	0x0
 3289 00c7 12        		.uleb128 0x12
 3290 00c8 2E        		.uleb128 0x2e
 3291 00c9 01        		.byte	0x1
 3292 00ca 03        		.uleb128 0x3
 3293 00cb 0E        		.uleb128 0xe
 3294 00cc 3A        		.uleb128 0x3a
 3295 00cd 0B        		.uleb128 0xb
 3296 00ce 3B        		.uleb128 0x3b
 3297 00cf 05        		.uleb128 0x5
 3298 00d0 20        		.uleb128 0x20
 3299 00d1 0B        		.uleb128 0xb
 3300 00d2 01        		.uleb128 0x1
 3301 00d3 13        		.uleb128 0x13
 3302 00d4 00        		.byte	0x0
 3303 00d5 00        		.byte	0x0
 3304 00d6 13        		.uleb128 0x13
 3305 00d7 05        		.uleb128 0x5
 3306 00d8 00        		.byte	0x0
 3307 00d9 03        		.uleb128 0x3
 3308 00da 08        		.uleb128 0x8
 3309 00db 3A        		.uleb128 0x3a
 3310 00dc 0B        		.uleb128 0xb
 3311 00dd 3B        		.uleb128 0x3b
 3312 00de 05        		.uleb128 0x5
 3313 00df 49        		.uleb128 0x49
 3314 00e0 13        		.uleb128 0x13
 3315 00e1 00        		.byte	0x0
 3316 00e2 00        		.byte	0x0
 3317 00e3 14        		.uleb128 0x14
 3318 00e4 2E        		.uleb128 0x2e
 3319 00e5 01        		.byte	0x1
 3320 00e6 03        		.uleb128 0x3
 3321 00e7 0E        		.uleb128 0xe
 3322 00e8 3A        		.uleb128 0x3a
 3323 00e9 0B        		.uleb128 0xb
 3324 00ea 3B        		.uleb128 0x3b
 3325 00eb 05        		.uleb128 0x5
 3326 00ec 49        		.uleb128 0x49
 3327 00ed 13        		.uleb128 0x13
 3328 00ee 11        		.uleb128 0x11
 3329 00ef 01        		.uleb128 0x1
 3330 00f0 12        		.uleb128 0x12
 3331 00f1 01        		.uleb128 0x1
 3332 00f2 40        		.uleb128 0x40
 3333 00f3 0A        		.uleb128 0xa
 3334 00f4 01        		.uleb128 0x1
 3335 00f5 13        		.uleb128 0x13
 3336 00f6 00        		.byte	0x0
 3337 00f7 00        		.byte	0x0
 3338 00f8 15        		.uleb128 0x15
 3339 00f9 34        		.uleb128 0x34
 3340 00fa 00        		.byte	0x0
 3341 00fb 03        		.uleb128 0x3
GAS LISTING /var/folders/1s/lqjcb7x5323625d47g9gdgmr0000gp/T//ccU6wS1s.s 			page 60


 3342 00fc 0E        		.uleb128 0xe
 3343 00fd 3A        		.uleb128 0x3a
 3344 00fe 0B        		.uleb128 0xb
 3345 00ff 3B        		.uleb128 0x3b
 3346 0100 05        		.uleb128 0x5
 3347 0101 49        		.uleb128 0x49
 3348 0102 13        		.uleb128 0x13
 3349 0103 02        		.uleb128 0x2
 3350 0104 06        		.uleb128 0x6
 3351 0105 00        		.byte	0x0
 3352 0106 00        		.byte	0x0
 3353 0107 16        		.uleb128 0x16
 3354 0108 0B        		.uleb128 0xb
 3355 0109 01        		.byte	0x1
 3356 010a 55        		.uleb128 0x55
 3357 010b 06        		.uleb128 0x6
 3358 010c 00        		.byte	0x0
 3359 010d 00        		.byte	0x0
 3360 010e 17        		.uleb128 0x17
 3361 010f 34        		.uleb128 0x34
 3362 0110 00        		.byte	0x0
 3363 0111 03        		.uleb128 0x3
 3364 0112 08        		.uleb128 0x8
 3365 0113 3A        		.uleb128 0x3a
 3366 0114 0B        		.uleb128 0xb
 3367 0115 3B        		.uleb128 0x3b
 3368 0116 05        		.uleb128 0x5
 3369 0117 49        		.uleb128 0x49
 3370 0118 13        		.uleb128 0x13
 3371 0119 02        		.uleb128 0x2
 3372 011a 06        		.uleb128 0x6
 3373 011b 00        		.byte	0x0
 3374 011c 00        		.byte	0x0
 3375 011d 18        		.uleb128 0x18
 3376 011e 1D        		.uleb128 0x1d
 3377 011f 01        		.byte	0x1
 3378 0120 31        		.uleb128 0x31
 3379 0121 13        		.uleb128 0x13
 3380 0122 11        		.uleb128 0x11
 3381 0123 01        		.uleb128 0x1
 3382 0124 12        		.uleb128 0x12
 3383 0125 01        		.uleb128 0x1
 3384 0126 58        		.uleb128 0x58
 3385 0127 0B        		.uleb128 0xb
 3386 0128 59        		.uleb128 0x59
 3387 0129 05        		.uleb128 0x5
 3388 012a 00        		.byte	0x0
 3389 012b 00        		.byte	0x0
 3390 012c 19        		.uleb128 0x19
 3391 012d 05        		.uleb128 0x5
 3392 012e 00        		.byte	0x0
 3393 012f 31        		.uleb128 0x31
 3394 0130 13        		.uleb128 0x13
 3395 0131 00        		.byte	0x0
 3396 0132 00        		.byte	0x0
 3397 0133 1A        		.uleb128 0x1a
 3398 0134 34        		.uleb128 0x34
GAS LISTING /var/folders/1s/lqjcb7x5323625d47g9gdgmr0000gp/T//ccU6wS1s.s 			page 61


 3399 0135 00        		.byte	0x0
 3400 0136 31        		.uleb128 0x31
 3401 0137 13        		.uleb128 0x13
 3402 0138 00        		.byte	0x0
 3403 0139 00        		.byte	0x0
 3404 013a 1B        		.uleb128 0x1b
 3405 013b 0B        		.uleb128 0xb
 3406 013c 01        		.byte	0x1
 3407 013d 11        		.uleb128 0x11
 3408 013e 01        		.uleb128 0x1
 3409 013f 12        		.uleb128 0x12
 3410 0140 01        		.uleb128 0x1
 3411 0141 00        		.byte	0x0
 3412 0142 00        		.byte	0x0
 3413 0143 1C        		.uleb128 0x1c
 3414 0144 05        		.uleb128 0x5
 3415 0145 00        		.byte	0x0
 3416 0146 03        		.uleb128 0x3
 3417 0147 0E        		.uleb128 0xe
 3418 0148 3A        		.uleb128 0x3a
 3419 0149 0B        		.uleb128 0xb
 3420 014a 3B        		.uleb128 0x3b
 3421 014b 05        		.uleb128 0x5
 3422 014c 49        		.uleb128 0x49
 3423 014d 13        		.uleb128 0x13
 3424 014e 02        		.uleb128 0x2
 3425 014f 06        		.uleb128 0x6
 3426 0150 00        		.byte	0x0
 3427 0151 00        		.byte	0x0
 3428 0152 1D        		.uleb128 0x1d
 3429 0153 1D        		.uleb128 0x1d
 3430 0154 01        		.byte	0x1
 3431 0155 31        		.uleb128 0x31
 3432 0156 13        		.uleb128 0x13
 3433 0157 55        		.uleb128 0x55
 3434 0158 06        		.uleb128 0x6
 3435 0159 58        		.uleb128 0x58
 3436 015a 0B        		.uleb128 0xb
 3437 015b 59        		.uleb128 0x59
 3438 015c 05        		.uleb128 0x5
 3439 015d 00        		.byte	0x0
 3440 015e 00        		.byte	0x0
 3441 015f 1E        		.uleb128 0x1e
 3442 0160 2E        		.uleb128 0x2e
 3443 0161 01        		.byte	0x1
 3444 0162 03        		.uleb128 0x3
 3445 0163 0E        		.uleb128 0xe
 3446 0164 3A        		.uleb128 0x3a
 3447 0165 0B        		.uleb128 0xb
 3448 0166 3B        		.uleb128 0x3b
 3449 0167 05        		.uleb128 0x5
 3450 0168 11        		.uleb128 0x11
 3451 0169 01        		.uleb128 0x1
 3452 016a 12        		.uleb128 0x12
 3453 016b 01        		.uleb128 0x1
 3454 016c 40        		.uleb128 0x40
 3455 016d 0A        		.uleb128 0xa
GAS LISTING /var/folders/1s/lqjcb7x5323625d47g9gdgmr0000gp/T//ccU6wS1s.s 			page 62


 3456 016e 01        		.uleb128 0x1
 3457 016f 13        		.uleb128 0x13
 3458 0170 00        		.byte	0x0
 3459 0171 00        		.byte	0x0
 3460 0172 1F        		.uleb128 0x1f
 3461 0173 05        		.uleb128 0x5
 3462 0174 00        		.byte	0x0
 3463 0175 03        		.uleb128 0x3
 3464 0176 08        		.uleb128 0x8
 3465 0177 3A        		.uleb128 0x3a
 3466 0178 0B        		.uleb128 0xb
 3467 0179 3B        		.uleb128 0x3b
 3468 017a 05        		.uleb128 0x5
 3469 017b 49        		.uleb128 0x49
 3470 017c 13        		.uleb128 0x13
 3471 017d 02        		.uleb128 0x2
 3472 017e 0A        		.uleb128 0xa
 3473 017f 00        		.byte	0x0
 3474 0180 00        		.byte	0x0
 3475 0181 20        		.uleb128 0x20
 3476 0182 2E        		.uleb128 0x2e
 3477 0183 00        		.byte	0x0
 3478 0184 3F        		.uleb128 0x3f
 3479 0185 0C        		.uleb128 0xc
 3480 0186 03        		.uleb128 0x3
 3481 0187 0E        		.uleb128 0xe
 3482 0188 3A        		.uleb128 0x3a
 3483 0189 0B        		.uleb128 0xb
 3484 018a 3B        		.uleb128 0x3b
 3485 018b 05        		.uleb128 0x5
 3486 018c 8740      		.uleb128 0x2007
 3487 018e 0E        		.uleb128 0xe
 3488 018f 11        		.uleb128 0x11
 3489 0190 01        		.uleb128 0x1
 3490 0191 12        		.uleb128 0x12
 3491 0192 01        		.uleb128 0x1
 3492 0193 40        		.uleb128 0x40
 3493 0194 0A        		.uleb128 0xa
 3494 0195 00        		.byte	0x0
 3495 0196 00        		.byte	0x0
 3496 0197 21        		.uleb128 0x21
 3497 0198 2E        		.uleb128 0x2e
 3498 0199 00        		.byte	0x0
 3499 019a 3F        		.uleb128 0x3f
 3500 019b 0C        		.uleb128 0xc
 3501 019c 03        		.uleb128 0x3
 3502 019d 0E        		.uleb128 0xe
 3503 019e 3A        		.uleb128 0x3a
 3504 019f 0B        		.uleb128 0xb
 3505 01a0 3B        		.uleb128 0x3b
 3506 01a1 05        		.uleb128 0x5
 3507 01a2 11        		.uleb128 0x11
 3508 01a3 01        		.uleb128 0x1
 3509 01a4 12        		.uleb128 0x12
 3510 01a5 01        		.uleb128 0x1
 3511 01a6 40        		.uleb128 0x40
 3512 01a7 0A        		.uleb128 0xa
GAS LISTING /var/folders/1s/lqjcb7x5323625d47g9gdgmr0000gp/T//ccU6wS1s.s 			page 63


 3513 01a8 00        		.byte	0x0
 3514 01a9 00        		.byte	0x0
 3515 01aa 22        		.uleb128 0x22
 3516 01ab 2E        		.uleb128 0x2e
 3517 01ac 01        		.byte	0x1
 3518 01ad 3F        		.uleb128 0x3f
 3519 01ae 0C        		.uleb128 0xc
 3520 01af 03        		.uleb128 0x3
 3521 01b0 0E        		.uleb128 0xe
 3522 01b1 3A        		.uleb128 0x3a
 3523 01b2 0B        		.uleb128 0xb
 3524 01b3 3B        		.uleb128 0x3b
 3525 01b4 05        		.uleb128 0x5
 3526 01b5 8740      		.uleb128 0x2007
 3527 01b7 0E        		.uleb128 0xe
 3528 01b8 11        		.uleb128 0x11
 3529 01b9 01        		.uleb128 0x1
 3530 01ba 12        		.uleb128 0x12
 3531 01bb 01        		.uleb128 0x1
 3532 01bc 40        		.uleb128 0x40
 3533 01bd 0A        		.uleb128 0xa
 3534 01be 01        		.uleb128 0x1
 3535 01bf 13        		.uleb128 0x13
 3536 01c0 00        		.byte	0x0
 3537 01c1 00        		.byte	0x0
 3538 01c2 23        		.uleb128 0x23
 3539 01c3 2E        		.uleb128 0x2e
 3540 01c4 01        		.byte	0x1
 3541 01c5 3F        		.uleb128 0x3f
 3542 01c6 0C        		.uleb128 0xc
 3543 01c7 03        		.uleb128 0x3
 3544 01c8 0E        		.uleb128 0xe
 3545 01c9 3A        		.uleb128 0x3a
 3546 01ca 0B        		.uleb128 0xb
 3547 01cb 3B        		.uleb128 0x3b
 3548 01cc 05        		.uleb128 0x5
 3549 01cd 8740      		.uleb128 0x2007
 3550 01cf 0E        		.uleb128 0xe
 3551 01d0 49        		.uleb128 0x49
 3552 01d1 13        		.uleb128 0x13
 3553 01d2 11        		.uleb128 0x11
 3554 01d3 01        		.uleb128 0x1
 3555 01d4 12        		.uleb128 0x12
 3556 01d5 01        		.uleb128 0x1
 3557 01d6 40        		.uleb128 0x40
 3558 01d7 0A        		.uleb128 0xa
 3559 01d8 01        		.uleb128 0x1
 3560 01d9 13        		.uleb128 0x13
 3561 01da 00        		.byte	0x0
 3562 01db 00        		.byte	0x0
 3563 01dc 24        		.uleb128 0x24
 3564 01dd 05        		.uleb128 0x5
 3565 01de 00        		.byte	0x0
 3566 01df 03        		.uleb128 0x3
 3567 01e0 08        		.uleb128 0x8
 3568 01e1 3A        		.uleb128 0x3a
 3569 01e2 0B        		.uleb128 0xb
GAS LISTING /var/folders/1s/lqjcb7x5323625d47g9gdgmr0000gp/T//ccU6wS1s.s 			page 64


 3570 01e3 3B        		.uleb128 0x3b
 3571 01e4 05        		.uleb128 0x5
 3572 01e5 49        		.uleb128 0x49
 3573 01e6 13        		.uleb128 0x13
 3574 01e7 02        		.uleb128 0x2
 3575 01e8 06        		.uleb128 0x6
 3576 01e9 00        		.byte	0x0
 3577 01ea 00        		.byte	0x0
 3578 01eb 25        		.uleb128 0x25
 3579 01ec 05        		.uleb128 0x5
 3580 01ed 00        		.byte	0x0
 3581 01ee 03        		.uleb128 0x3
 3582 01ef 0E        		.uleb128 0xe
 3583 01f0 3A        		.uleb128 0x3a
 3584 01f1 0B        		.uleb128 0xb
 3585 01f2 3B        		.uleb128 0x3b
 3586 01f3 05        		.uleb128 0x5
 3587 01f4 49        		.uleb128 0x49
 3588 01f5 13        		.uleb128 0x13
 3589 01f6 02        		.uleb128 0x2
 3590 01f7 0A        		.uleb128 0xa
 3591 01f8 00        		.byte	0x0
 3592 01f9 00        		.byte	0x0
 3593 01fa 26        		.uleb128 0x26
 3594 01fb 34        		.uleb128 0x34
 3595 01fc 00        		.byte	0x0
 3596 01fd 03        		.uleb128 0x3
 3597 01fe 08        		.uleb128 0x8
 3598 01ff 3A        		.uleb128 0x3a
 3599 0200 0B        		.uleb128 0xb
 3600 0201 3B        		.uleb128 0x3b
 3601 0202 0B        		.uleb128 0xb
 3602 0203 49        		.uleb128 0x49
 3603 0204 13        		.uleb128 0x13
 3604 0205 1C        		.uleb128 0x1c
 3605 0206 0B        		.uleb128 0xb
 3606 0207 00        		.byte	0x0
 3607 0208 00        		.byte	0x0
 3608 0209 27        		.uleb128 0x27
 3609 020a 34        		.uleb128 0x34
 3610 020b 00        		.byte	0x0
 3611 020c 03        		.uleb128 0x3
 3612 020d 0E        		.uleb128 0xe
 3613 020e 3A        		.uleb128 0x3a
 3614 020f 0B        		.uleb128 0xb
 3615 0210 3B        		.uleb128 0x3b
 3616 0211 0B        		.uleb128 0xb
 3617 0212 49        		.uleb128 0x49
 3618 0213 13        		.uleb128 0x13
 3619 0214 1C        		.uleb128 0x1c
 3620 0215 0B        		.uleb128 0xb
 3621 0216 00        		.byte	0x0
 3622 0217 00        		.byte	0x0
 3623 0218 28        		.uleb128 0x28
 3624 0219 01        		.uleb128 0x1
 3625 021a 01        		.byte	0x1
 3626 021b 49        		.uleb128 0x49
GAS LISTING /var/folders/1s/lqjcb7x5323625d47g9gdgmr0000gp/T//ccU6wS1s.s 			page 65


 3627 021c 13        		.uleb128 0x13
 3628 021d 01        		.uleb128 0x1
 3629 021e 13        		.uleb128 0x13
 3630 021f 00        		.byte	0x0
 3631 0220 00        		.byte	0x0
 3632 0221 29        		.uleb128 0x29
 3633 0222 21        		.uleb128 0x21
 3634 0223 00        		.byte	0x0
 3635 0224 49        		.uleb128 0x49
 3636 0225 13        		.uleb128 0x13
 3637 0226 2F        		.uleb128 0x2f
 3638 0227 0B        		.uleb128 0xb
 3639 0228 00        		.byte	0x0
 3640 0229 00        		.byte	0x0
 3641 022a 2A        		.uleb128 0x2a
 3642 022b 34        		.uleb128 0x34
 3643 022c 00        		.byte	0x0
 3644 022d 03        		.uleb128 0x3
 3645 022e 0E        		.uleb128 0xe
 3646 022f 3A        		.uleb128 0x3a
 3647 0230 0B        		.uleb128 0xb
 3648 0231 3B        		.uleb128 0x3b
 3649 0232 05        		.uleb128 0x5
 3650 0233 49        		.uleb128 0x49
 3651 0234 13        		.uleb128 0x13
 3652 0235 3F        		.uleb128 0x3f
 3653 0236 0C        		.uleb128 0xc
 3654 0237 02        		.uleb128 0x2
 3655 0238 0A        		.uleb128 0xa
 3656 0239 00        		.byte	0x0
 3657 023a 00        		.byte	0x0
 3658 023b 2B        		.uleb128 0x2b
 3659 023c 34        		.uleb128 0x34
 3660 023d 00        		.byte	0x0
 3661 023e 03        		.uleb128 0x3
 3662 023f 0E        		.uleb128 0xe
 3663 0240 3A        		.uleb128 0x3a
 3664 0241 0B        		.uleb128 0xb
 3665 0242 3B        		.uleb128 0x3b
 3666 0243 05        		.uleb128 0x5
 3667 0244 49        		.uleb128 0x49
 3668 0245 13        		.uleb128 0x13
 3669 0246 02        		.uleb128 0x2
 3670 0247 0A        		.uleb128 0xa
 3671 0248 00        		.byte	0x0
 3672 0249 00        		.byte	0x0
 3673 024a 2C        		.uleb128 0x2c
 3674 024b 34        		.uleb128 0x34
 3675 024c 00        		.byte	0x0
 3676 024d 03        		.uleb128 0x3
 3677 024e 0E        		.uleb128 0xe
 3678 024f 3A        		.uleb128 0x3a
 3679 0250 0B        		.uleb128 0xb
 3680 0251 3B        		.uleb128 0x3b
 3681 0252 05        		.uleb128 0x5
 3682 0253 49        		.uleb128 0x49
 3683 0254 13        		.uleb128 0x13
GAS LISTING /var/folders/1s/lqjcb7x5323625d47g9gdgmr0000gp/T//ccU6wS1s.s 			page 66


 3684 0255 1C        		.uleb128 0x1c
 3685 0256 01        		.uleb128 0x1
 3686 0257 00        		.byte	0x0
 3687 0258 00        		.byte	0x0
 3688 0259 2D        		.uleb128 0x2d
 3689 025a 21        		.uleb128 0x21
 3690 025b 00        		.byte	0x0
 3691 025c 49        		.uleb128 0x49
 3692 025d 13        		.uleb128 0x13
 3693 025e 2F        		.uleb128 0x2f
 3694 025f 06        		.uleb128 0x6
 3695 0260 00        		.byte	0x0
 3696 0261 00        		.byte	0x0
 3697 0262 2E        		.uleb128 0x2e
 3698 0263 35        		.uleb128 0x35
 3699 0264 00        		.byte	0x0
 3700 0265 49        		.uleb128 0x49
 3701 0266 13        		.uleb128 0x13
 3702 0267 00        		.byte	0x0
 3703 0268 00        		.byte	0x0
 3704 0269 00        		.byte	0x0
 3705               		.section	.debug_pubnames,"",@progbits
 3706 0000 0B01 0000 		.long	0x10b
 3707 0004 0200      		.word	0x2
 3708 0006 0000 0000 		.long	.Ldebug_info0
 3709 000a E108 0000 		.long	0x8e1
 3710 000e 3104 0000 		.long	0x431
 3711 0012 7274 6F73 		.string	"rtos_enableIRQTimerTic"
 3711      5F65 6E61 
 3711      626C 6549 
 3711      5251 5469 
 3711      6D65 7254 
 3712 0029 4904 0000 		.long	0x449
 3713 002d 5F5F 7665 		.string	"__vector_15"
 3713      6374 6F72 
 3713      5F31 3500 
 3714 0039 5D04 0000 		.long	0x45d
 3715 003d 7274 6F73 		.string	"rtos_sendEvent"
 3715      5F73 656E 
 3715      6445 7665 
 3715      6E74 00
 3716 004c 8A04 0000 		.long	0x48a
 3717 0050 7274 6F73 		.string	"rtos_waitForEvent"
 3717      5F77 6169 
 3717      7446 6F72 
 3717      4576 656E 
 3717      7400 
 3718 0062 DB04 0000 		.long	0x4db
 3719 0066 7274 6F73 		.string	"rtos_getTaskOverrunCounter"
 3719      5F67 6574 
 3719      5461 736B 
 3719      4F76 6572 
 3719      7275 6E43 
 3720 0081 4505 0000 		.long	0x545
 3721 0085 7274 6F73 		.string	"rtos_getStackReserve"
 3721      5F67 6574 
 3721      5374 6163 
GAS LISTING /var/folders/1s/lqjcb7x5323625d47g9gdgmr0000gp/T//ccU6wS1s.s 			page 67


 3721      6B52 6573 
 3721      6572 7665 
 3722 009a 8505 0000 		.long	0x585
 3723 009e 7274 6F73 		.string	"rtos_initializeTask"
 3723      5F69 6E69 
 3723      7469 616C 
 3723      697A 6554 
 3723      6173 6B00 
 3724 00b2 4F06 0000 		.long	0x64f
 3725 00b6 7274 6F73 		.string	"rtos_initRTOS"
 3725      5F69 6E69 
 3725      7452 544F 
 3725      5300 
 3726 00c4 AB07 0000 		.long	0x7ab
 3727 00c8 7274 6F73 		.string	"rtos_rtuinosStartupMsg"
 3727      5F72 7475 
 3727      696E 6F73 
 3727      5374 6172 
 3727      7475 704D 
 3728 00df B508 0000 		.long	0x8b5
 3729 00e3 5F74 6D70 		.string	"_tmpVarAsmToC_u16"
 3729      5661 7241 
 3729      736D 546F 
 3729      435F 7531 
 3729      3600 
 3730 00f5 CD08 0000 		.long	0x8cd
 3731 00f9 5F74 6D70 		.string	"_tmpVarCToAsm_u16"
 3731      5661 7243 
 3731      546F 4173 
 3731      6D5F 7531 
 3731      3600 
 3732 010b 0000 0000 		.long	0x0
 3733               		.section	.debug_aranges,"",@progbits
 3734 0000 6C00 0000 		.long	0x6c
 3735 0004 0200      		.word	0x2
 3736 0006 0000 0000 		.long	.Ldebug_info0
 3737 000a 04        		.byte	0x4
 3738 000b 00        		.byte	0x0
 3739 000c 0000      		.word	0x0
 3740 000e 0000      		.word	0x0
 3741 0010 0000 0000 		.long	.LFB79
 3742 0014 F600 0000 		.long	.LFE79-.LFB79
 3743 0018 0000 0000 		.long	.LFB81
 3744 001c C600 0000 		.long	.LFE81-.LFB81
 3745 0020 0000 0000 		.long	.LFB84
 3746 0024 CC00 0000 		.long	.LFE84-.LFB84
 3747 0028 0000 0000 		.long	.LFB76
 3748 002c 0C00 0000 		.long	.LFE76-.LFB76
 3749 0030 0000 0000 		.long	.LFB80
 3750 0034 0001 0000 		.long	.LFE80-.LFB80
 3751 0038 0000 0000 		.long	.LFB82
 3752 003c 0001 0000 		.long	.LFE82-.LFB82
 3753 0040 0000 0000 		.long	.LFB85
 3754 0044 FA00 0000 		.long	.LFE85-.LFB85
 3755 0048 0000 0000 		.long	.LFB86
 3756 004c 4200 0000 		.long	.LFE86-.LFB86
 3757 0050 0000 0000 		.long	.LFB87
GAS LISTING /var/folders/1s/lqjcb7x5323625d47g9gdgmr0000gp/T//ccU6wS1s.s 			page 68


 3758 0054 3C00 0000 		.long	.LFE87-.LFB87
 3759 0058 0000 0000 		.long	.LFB88
 3760 005c A800 0000 		.long	.LFE88-.LFB88
 3761 0060 0000 0000 		.long	.LFB89
 3762 0064 5000 0000 		.long	.LFE89-.LFB89
 3763 0068 0000 0000 		.long	0x0
 3764 006c 0000 0000 		.long	0x0
 3765               		.section	.debug_ranges,"",@progbits
 3766               	.Ldebug_ranges0:
 3767 0000 0000 0000 		.long	.LBB27
 3768 0004 0000 0000 		.long	.LBE27
 3769 0008 0000 0000 		.long	.LBB32
 3770 000c 0000 0000 		.long	.LBE32
 3771 0010 0000 0000 		.long	0x0
 3772 0014 0000 0000 		.long	0x0
 3773 0018 0000 0000 		.long	.LBB35
 3774 001c 0000 0000 		.long	.LBE35
 3775 0020 0000 0000 		.long	.LBB43
 3776 0024 0000 0000 		.long	.LBE43
 3777 0028 0000 0000 		.long	0x0
 3778 002c 0000 0000 		.long	0x0
 3779 0030 0000 0000 		.long	.LBB36
 3780 0034 0000 0000 		.long	.LBE36
 3781 0038 0000 0000 		.long	.LBB42
 3782 003c 0000 0000 		.long	.LBE42
 3783 0040 0000 0000 		.long	0x0
 3784 0044 0000 0000 		.long	0x0
 3785 0048 0000 0000 		.long	.LBB46
 3786 004c 0000 0000 		.long	.LBE46
 3787 0050 0000 0000 		.long	.LBB49
 3788 0054 0000 0000 		.long	.LBE49
 3789 0058 0000 0000 		.long	0x0
 3790 005c 0000 0000 		.long	0x0
 3791 0060 0000 0000 		.long	.LBB57
 3792 0064 0000 0000 		.long	.LBE57
 3793 0068 0000 0000 		.long	.LBB60
 3794 006c 0000 0000 		.long	.LBE60
 3795 0070 0000 0000 		.long	0x0
 3796 0074 0000 0000 		.long	0x0
 3797 0078 0000 0000 		.long	.Ltext0
 3798 007c 0000 0000 		.long	.Letext0
 3799 0080 0000 0000 		.long	.LFB79
 3800 0084 0000 0000 		.long	.LFE79
 3801 0088 0000 0000 		.long	.LFB81
 3802 008c 0000 0000 		.long	.LFE81
 3803 0090 0000 0000 		.long	.LFB84
 3804 0094 0000 0000 		.long	.LFE84
 3805 0098 0000 0000 		.long	.LFB76
 3806 009c 0000 0000 		.long	.LFE76
 3807 00a0 0000 0000 		.long	.LFB80
 3808 00a4 0000 0000 		.long	.LFE80
 3809 00a8 0000 0000 		.long	.LFB82
 3810 00ac 0000 0000 		.long	.LFE82
 3811 00b0 0000 0000 		.long	.LFB85
 3812 00b4 0000 0000 		.long	.LFE85
 3813 00b8 0000 0000 		.long	.LFB86
 3814 00bc 0000 0000 		.long	.LFE86
GAS LISTING /var/folders/1s/lqjcb7x5323625d47g9gdgmr0000gp/T//ccU6wS1s.s 			page 69


 3815 00c0 0000 0000 		.long	.LFB87
 3816 00c4 0000 0000 		.long	.LFE87
 3817 00c8 0000 0000 		.long	.LFB88
 3818 00cc 0000 0000 		.long	.LFE88
 3819 00d0 0000 0000 		.long	.LFB89
 3820 00d4 0000 0000 		.long	.LFE89
 3821 00d8 0000 0000 		.long	0x0
 3822 00dc 0000 0000 		.long	0x0
 3823               		.section	.debug_line
 3824 0000 A806 0000 		.long	.LELT0-.LSLT0
 3825               	.LSLT0:
 3826 0004 0200      		.word	0x2
 3827 0006 A101 0000 		.long	.LELTP0-.LASLTP0
 3828               	.LASLTP0:
 3829 000a 01        		.byte	0x1
 3830 000b 01        		.byte	0x1
 3831 000c F6        		.byte	0xf6
 3832 000d F5        		.byte	0xf5
 3833 000e 0A        		.byte	0xa
 3834 000f 00        		.byte	0x0
 3835 0010 01        		.byte	0x1
 3836 0011 01        		.byte	0x1
 3837 0012 01        		.byte	0x1
 3838 0013 01        		.byte	0x1
 3839 0014 00        		.byte	0x0
 3840 0015 00        		.byte	0x0
 3841 0016 00        		.byte	0x0
 3842 0017 01        		.byte	0x1
 3843 0018 2F41 7070 		.ascii	"/Applications/Arduino.app/Contents/Resources/Java/hardware/a"
 3843      6C69 6361 
 3843      7469 6F6E 
 3843      732F 4172 
 3843      6475 696E 
 3844 0054 7264 7569 		.ascii	"rduino/avr/cores/arduino"
 3844      6E6F 2F61 
 3844      7672 2F63 
 3844      6F72 6573 
 3844      2F61 7264 
 3845 006c 00        		.byte	0
 3846 006d 2F41 7070 		.ascii	"/Applications/Arduino.app/Contents/Resources/Java/hardware/a"
 3846      6C69 6361 
 3846      7469 6F6E 
 3846      732F 4172 
 3846      6475 696E 
 3847 00a9 7264 7569 		.ascii	"rduino/avr/variants/mega"
 3847      6E6F 2F61 
 3847      7672 2F76 
 3847      6172 6961 
 3847      6E74 732F 
 3848 00c1 00        		.byte	0
 3849 00c2 2F41 7070 		.ascii	"/Applications/Arduino.app/Contents/Resources/Java/hardware/t"
 3849      6C69 6361 
 3849      7469 6F6E 
 3849      732F 4172 
 3849      6475 696E 
 3850 00fe 6F6F 6C73 		.ascii	"ools/avr/bin/../lib/gcc/avr/4.3.2/../../../../avr/include"
 3850      2F61 7672 
GAS LISTING /var/folders/1s/lqjcb7x5323625d47g9gdgmr0000gp/T//ccU6wS1s.s 			page 70


 3850      2F62 696E 
 3850      2F2E 2E2F 
 3850      6C69 622F 
 3851 0137 00        		.byte	0
 3852 0138 636F 6465 		.ascii	"code/RTOS"
 3852      2F52 544F 
 3852      53
 3853 0141 00        		.byte	0
 3854 0142 636F 6465 		.ascii	"code/applications/tc01"
 3854      2F61 7070 
 3854      6C69 6361 
 3854      7469 6F6E 
 3854      732F 7463 
 3855 0158 00        		.byte	0
 3856 0159 00        		.byte	0x0
 3857 015a 7274 6F73 		.string	"rtos.c"
 3857      2E63 00
 3858 0161 04        		.uleb128 0x4
 3859 0162 00        		.uleb128 0x0
 3860 0163 00        		.uleb128 0x0
 3861 0164 7374 6469 		.string	"stdint.h"
 3861      6E74 2E68 
 3861      00
 3862 016d 03        		.uleb128 0x3
 3863 016e 00        		.uleb128 0x0
 3864 016f 00        		.uleb128 0x0
 3865 0170 4172 6475 		.string	"Arduino.h"
 3865      696E 6F2E 
 3865      6800 
 3866 017a 01        		.uleb128 0x1
 3867 017b 00        		.uleb128 0x0
 3868 017c 00        		.uleb128 0x0
 3869 017d 7274 6F73 		.string	"rtos.config.h"
 3869      2E63 6F6E 
 3869      6669 672E 
 3869      6800 
 3870 018b 05        		.uleb128 0x5
 3871 018c 00        		.uleb128 0x0
 3872 018d 00        		.uleb128 0x0
 3873 018e 7274 6F73 		.string	"rtos.h"
 3873      2E68 00
 3874 0195 04        		.uleb128 0x4
 3875 0196 00        		.uleb128 0x0
 3876 0197 00        		.uleb128 0x0
 3877 0198 7069 6E73 		.string	"pins_arduino.h"
 3877      5F61 7264 
 3877      7569 6E6F 
 3877      2E68 00
 3878 01a7 02        		.uleb128 0x2
 3879 01a8 00        		.uleb128 0x0
 3880 01a9 00        		.uleb128 0x0
 3881 01aa 00        		.byte	0x0
 3882               	.LELTP0:
 3883 01ab 00        		.byte	0x0
 3884 01ac 05        		.uleb128 0x5
 3885 01ad 02        		.byte	0x2
 3886 01ae 0000 0000 		.long	.Letext0
GAS LISTING /var/folders/1s/lqjcb7x5323625d47g9gdgmr0000gp/T//ccU6wS1s.s 			page 71


 3887 01b2 00        		.byte	0x0
 3888 01b3 01        		.uleb128 0x1
 3889 01b4 01        		.byte	0x1
 3890 01b5 00        		.byte	0x0
 3891 01b6 05        		.uleb128 0x5
 3892 01b7 02        		.byte	0x2
 3893 01b8 0000 0000 		.long	.LSM0
 3894 01bc 03        		.byte	0x3
 3895 01bd E405      		.sleb128 740
 3896 01bf 01        		.byte	0x1
 3897 01c0 00        		.byte	0x0
 3898 01c1 05        		.uleb128 0x5
 3899 01c2 02        		.byte	0x2
 3900 01c3 0000 0000 		.long	.LSM1
 3901 01c7 17        		.byte	0x17
 3902 01c8 00        		.byte	0x0
 3903 01c9 05        		.uleb128 0x5
 3904 01ca 02        		.byte	0x2
 3905 01cb 0000 0000 		.long	.LSM2
 3906 01cf 1A        		.byte	0x1a
 3907 01d0 00        		.byte	0x0
 3908 01d1 05        		.uleb128 0x5
 3909 01d2 02        		.byte	0x2
 3910 01d3 0000 0000 		.long	.LSM3
 3911 01d7 16        		.byte	0x16
 3912 01d8 00        		.byte	0x0
 3913 01d9 05        		.uleb128 0x5
 3914 01da 02        		.byte	0x2
 3915 01db 0000 0000 		.long	.LSM4
 3916 01df 19        		.byte	0x19
 3917 01e0 00        		.byte	0x0
 3918 01e1 05        		.uleb128 0x5
 3919 01e2 02        		.byte	0x2
 3920 01e3 0000 0000 		.long	.LSM5
 3921 01e7 17        		.byte	0x17
 3922 01e8 00        		.byte	0x0
 3923 01e9 05        		.uleb128 0x5
 3924 01ea 02        		.byte	0x2
 3925 01eb 0000 0000 		.long	.LSM6
 3926 01ef 20        		.byte	0x20
 3927 01f0 00        		.byte	0x0
 3928 01f1 05        		.uleb128 0x5
 3929 01f2 02        		.byte	0x2
 3930 01f3 0000 0000 		.long	.LSM7
 3931 01f7 16        		.byte	0x16
 3932 01f8 00        		.byte	0x0
 3933 01f9 05        		.uleb128 0x5
 3934 01fa 02        		.byte	0x2
 3935 01fb 0000 0000 		.long	.LSM8
 3936 01ff 15        		.byte	0x15
 3937 0200 00        		.byte	0x0
 3938 0201 05        		.uleb128 0x5
 3939 0202 02        		.byte	0x2
 3940 0203 0000 0000 		.long	.LSM9
 3941 0207 19        		.byte	0x19
 3942 0208 00        		.byte	0x0
 3943 0209 05        		.uleb128 0x5
GAS LISTING /var/folders/1s/lqjcb7x5323625d47g9gdgmr0000gp/T//ccU6wS1s.s 			page 72


 3944 020a 02        		.byte	0x2
 3945 020b 0000 0000 		.long	.LSM10
 3946 020f 03        		.byte	0x3
 3947 0210 F57E      		.sleb128 -139
 3948 0212 01        		.byte	0x1
 3949 0213 00        		.byte	0x0
 3950 0214 05        		.uleb128 0x5
 3951 0215 02        		.byte	0x2
 3952 0216 0000 0000 		.long	.LSM11
 3953 021a 28        		.byte	0x28
 3954 021b 00        		.byte	0x0
 3955 021c 05        		.uleb128 0x5
 3956 021d 02        		.byte	0x2
 3957 021e 0000 0000 		.long	.LSM12
 3958 0222 16        		.byte	0x16
 3959 0223 00        		.byte	0x0
 3960 0224 05        		.uleb128 0x5
 3961 0225 02        		.byte	0x2
 3962 0226 0000 0000 		.long	.LSM13
 3963 022a 15        		.byte	0x15
 3964 022b 00        		.byte	0x0
 3965 022c 05        		.uleb128 0x5
 3966 022d 02        		.byte	0x2
 3967 022e 0000 0000 		.long	.LSM14
 3968 0232 13        		.byte	0x13
 3969 0233 00        		.byte	0x0
 3970 0234 05        		.uleb128 0x5
 3971 0235 02        		.byte	0x2
 3972 0236 0000 0000 		.long	.LSM15
 3973 023a 6B        		.byte	0x6b
 3974 023b 00        		.byte	0x0
 3975 023c 05        		.uleb128 0x5
 3976 023d 02        		.byte	0x2
 3977 023e 0000 0000 		.long	.LSM16
 3978 0242 78        		.byte	0x78
 3979 0243 00        		.byte	0x0
 3980 0244 05        		.uleb128 0x5
 3981 0245 02        		.byte	0x2
 3982 0246 0000 0000 		.long	.LSM17
 3983 024a 03        		.byte	0x3
 3984 024b 49        		.sleb128 -55
 3985 024c 01        		.byte	0x1
 3986 024d 00        		.byte	0x0
 3987 024e 05        		.uleb128 0x5
 3988 024f 02        		.byte	0x2
 3989 0250 0000 0000 		.long	.LSM18
 3990 0254 03        		.byte	0x3
 3991 0255 64        		.sleb128 -28
 3992 0256 01        		.byte	0x1
 3993 0257 00        		.byte	0x0
 3994 0258 05        		.uleb128 0x5
 3995 0259 02        		.byte	0x2
 3996 025a 0000 0000 		.long	.LFE79
 3997 025e 00        		.byte	0x0
 3998 025f 01        		.uleb128 0x1
 3999 0260 01        		.byte	0x1
 4000 0261 00        		.byte	0x0
GAS LISTING /var/folders/1s/lqjcb7x5323625d47g9gdgmr0000gp/T//ccU6wS1s.s 			page 73


 4001 0262 05        		.uleb128 0x5
 4002 0263 02        		.byte	0x2
 4003 0264 0000 0000 		.long	.LSM19
 4004 0268 03        		.byte	0x3
 4005 0269 C507      		.sleb128 965
 4006 026b 01        		.byte	0x1
 4007 026c 00        		.byte	0x0
 4008 026d 05        		.uleb128 0x5
 4009 026e 02        		.byte	0x2
 4010 026f 0000 0000 		.long	.LSM20
 4011 0273 17        		.byte	0x17
 4012 0274 00        		.byte	0x0
 4013 0275 05        		.uleb128 0x5
 4014 0276 02        		.byte	0x2
 4015 0277 0000 0000 		.long	.LSM21
 4016 027b 33        		.byte	0x33
 4017 027c 00        		.byte	0x0
 4018 027d 05        		.uleb128 0x5
 4019 027e 02        		.byte	0x2
 4020 027f 0000 0000 		.long	.LSM22
 4021 0283 16        		.byte	0x16
 4022 0284 00        		.byte	0x0
 4023 0285 05        		.uleb128 0x5
 4024 0286 02        		.byte	0x2
 4025 0287 0000 0000 		.long	.LSM23
 4026 028b 19        		.byte	0x19
 4027 028c 00        		.byte	0x0
 4028 028d 05        		.uleb128 0x5
 4029 028e 02        		.byte	0x2
 4030 028f 0000 0000 		.long	.LSM24
 4031 0293 27        		.byte	0x27
 4032 0294 00        		.byte	0x0
 4033 0295 05        		.uleb128 0x5
 4034 0296 02        		.byte	0x2
 4035 0297 0000 0000 		.long	.LSM25
 4036 029b 33        		.byte	0x33
 4037 029c 00        		.byte	0x0
 4038 029d 05        		.uleb128 0x5
 4039 029e 02        		.byte	0x2
 4040 029f 0000 0000 		.long	.LSM26
 4041 02a3 03        		.byte	0x3
 4042 02a4 E07C      		.sleb128 -416
 4043 02a6 01        		.byte	0x1
 4044 02a7 00        		.byte	0x0
 4045 02a8 05        		.uleb128 0x5
 4046 02a9 02        		.byte	0x2
 4047 02aa 0000 0000 		.long	.LSM27
 4048 02ae 28        		.byte	0x28
 4049 02af 00        		.byte	0x0
 4050 02b0 05        		.uleb128 0x5
 4051 02b1 02        		.byte	0x2
 4052 02b2 0000 0000 		.long	.LSM28
 4053 02b6 16        		.byte	0x16
 4054 02b7 00        		.byte	0x0
 4055 02b8 05        		.uleb128 0x5
 4056 02b9 02        		.byte	0x2
 4057 02ba 0000 0000 		.long	.LSM29
GAS LISTING /var/folders/1s/lqjcb7x5323625d47g9gdgmr0000gp/T//ccU6wS1s.s 			page 74


 4058 02be 15        		.byte	0x15
 4059 02bf 00        		.byte	0x0
 4060 02c0 05        		.uleb128 0x5
 4061 02c1 02        		.byte	0x2
 4062 02c2 0000 0000 		.long	.LSM30
 4063 02c6 13        		.byte	0x13
 4064 02c7 00        		.byte	0x0
 4065 02c8 05        		.uleb128 0x5
 4066 02c9 02        		.byte	0x2
 4067 02ca 0000 0000 		.long	.LSM31
 4068 02ce 03        		.byte	0x3
 4069 02cf D102      		.sleb128 337
 4070 02d1 01        		.byte	0x1
 4071 02d2 00        		.byte	0x0
 4072 02d3 05        		.uleb128 0x5
 4073 02d4 02        		.byte	0x2
 4074 02d5 0000 0000 		.long	.LSM32
 4075 02d9 8E        		.byte	0x8e
 4076 02da 00        		.byte	0x0
 4077 02db 05        		.uleb128 0x5
 4078 02dc 02        		.byte	0x2
 4079 02dd 0000 0000 		.long	.LSM33
 4080 02e1 03        		.byte	0x3
 4081 02e2 9F7C      		.sleb128 -481
 4082 02e4 01        		.byte	0x1
 4083 02e5 00        		.byte	0x0
 4084 02e6 05        		.uleb128 0x5
 4085 02e7 02        		.byte	0x2
 4086 02e8 0000 0000 		.long	.LSM34
 4087 02ec 03        		.byte	0x3
 4088 02ed AF03      		.sleb128 431
 4089 02ef 01        		.byte	0x1
 4090 02f0 00        		.byte	0x0
 4091 02f1 05        		.uleb128 0x5
 4092 02f2 02        		.byte	0x2
 4093 02f3 0000 0000 		.long	.LFE81
 4094 02f7 00        		.byte	0x0
 4095 02f8 01        		.uleb128 0x1
 4096 02f9 01        		.byte	0x1
 4097 02fa 00        		.byte	0x0
 4098 02fb 05        		.uleb128 0x5
 4099 02fc 02        		.byte	0x2
 4100 02fd 0000 0000 		.long	.LSM35
 4101 0301 03        		.byte	0x3
 4102 0302 DA0B      		.sleb128 1498
 4103 0304 01        		.byte	0x1
 4104 0305 00        		.byte	0x0
 4105 0306 05        		.uleb128 0x5
 4106 0307 02        		.byte	0x2
 4107 0308 0000 0000 		.long	.LSM36
 4108 030c 19        		.byte	0x19
 4109 030d 00        		.byte	0x0
 4110 030e 05        		.uleb128 0x5
 4111 030f 02        		.byte	0x2
 4112 0310 0000 0000 		.long	.LSM37
 4113 0314 25        		.byte	0x25
 4114 0315 00        		.byte	0x0
GAS LISTING /var/folders/1s/lqjcb7x5323625d47g9gdgmr0000gp/T//ccU6wS1s.s 			page 75


 4115 0316 05        		.uleb128 0x5
 4116 0317 02        		.byte	0x2
 4117 0318 0000 0000 		.long	.LSM38
 4118 031c 16        		.byte	0x16
 4119 031d 00        		.byte	0x0
 4120 031e 05        		.uleb128 0x5
 4121 031f 02        		.byte	0x2
 4122 0320 0000 0000 		.long	.LSM39
 4123 0324 15        		.byte	0x15
 4124 0325 00        		.byte	0x0
 4125 0326 05        		.uleb128 0x5
 4126 0327 02        		.byte	0x2
 4127 0328 0000 0000 		.long	.LSM40
 4128 032c 15        		.byte	0x15
 4129 032d 00        		.byte	0x0
 4130 032e 05        		.uleb128 0x5
 4131 032f 02        		.byte	0x2
 4132 0330 0000 0000 		.long	.LSM41
 4133 0334 13        		.byte	0x13
 4134 0335 00        		.byte	0x0
 4135 0336 05        		.uleb128 0x5
 4136 0337 02        		.byte	0x2
 4137 0338 0000 0000 		.long	.LSM42
 4138 033c 03        		.byte	0x3
 4139 033d D17E      		.sleb128 -175
 4140 033f 01        		.byte	0x1
 4141 0340 00        		.byte	0x0
 4142 0341 05        		.uleb128 0x5
 4143 0342 02        		.byte	0x2
 4144 0343 0000 0000 		.long	.LSM43
 4145 0347 1B        		.byte	0x1b
 4146 0348 00        		.byte	0x0
 4147 0349 05        		.uleb128 0x5
 4148 034a 02        		.byte	0x2
 4149 034b 0000 0000 		.long	.LSM44
 4150 034f 33        		.byte	0x33
 4151 0350 00        		.byte	0x0
 4152 0351 05        		.uleb128 0x5
 4153 0352 02        		.byte	0x2
 4154 0353 0000 0000 		.long	.LSM45
 4155 0357 15        		.byte	0x15
 4156 0358 00        		.byte	0x0
 4157 0359 05        		.uleb128 0x5
 4158 035a 02        		.byte	0x2
 4159 035b 0000 0000 		.long	.LSM46
 4160 035f B7        		.byte	0xb7
 4161 0360 00        		.byte	0x0
 4162 0361 05        		.uleb128 0x5
 4163 0362 02        		.byte	0x2
 4164 0363 0000 0000 		.long	.LSM47
 4165 0367 19        		.byte	0x19
 4166 0368 00        		.byte	0x0
 4167 0369 05        		.uleb128 0x5
 4168 036a 02        		.byte	0x2
 4169 036b 0000 0000 		.long	.LSM48
 4170 036f 19        		.byte	0x19
 4171 0370 00        		.byte	0x0
GAS LISTING /var/folders/1s/lqjcb7x5323625d47g9gdgmr0000gp/T//ccU6wS1s.s 			page 76


 4172 0371 05        		.uleb128 0x5
 4173 0372 02        		.byte	0x2
 4174 0373 0000 0000 		.long	.LSM49
 4175 0377 21        		.byte	0x21
 4176 0378 00        		.byte	0x0
 4177 0379 05        		.uleb128 0x5
 4178 037a 02        		.byte	0x2
 4179 037b 0000 0000 		.long	.LSM50
 4180 037f 03        		.byte	0x3
 4181 0380 BF7E      		.sleb128 -193
 4182 0382 01        		.byte	0x1
 4183 0383 00        		.byte	0x0
 4184 0384 05        		.uleb128 0x5
 4185 0385 02        		.byte	0x2
 4186 0386 0000 0000 		.long	.LSM51
 4187 038a 15        		.byte	0x15
 4188 038b 00        		.byte	0x0
 4189 038c 05        		.uleb128 0x5
 4190 038d 02        		.byte	0x2
 4191 038e 0000 0000 		.long	.LSM52
 4192 0392 15        		.byte	0x15
 4193 0393 00        		.byte	0x0
 4194 0394 05        		.uleb128 0x5
 4195 0395 02        		.byte	0x2
 4196 0396 0000 0000 		.long	.LSM53
 4197 039a 03        		.byte	0x3
 4198 039b 67        		.sleb128 -25
 4199 039c 01        		.byte	0x1
 4200 039d 00        		.byte	0x0
 4201 039e 05        		.uleb128 0x5
 4202 039f 02        		.byte	0x2
 4203 03a0 0000 0000 		.long	.LSM54
 4204 03a4 15        		.byte	0x15
 4205 03a5 00        		.byte	0x0
 4206 03a6 05        		.uleb128 0x5
 4207 03a7 02        		.byte	0x2
 4208 03a8 0000 0000 		.long	.LSM55
 4209 03ac 1E        		.byte	0x1e
 4210 03ad 00        		.byte	0x0
 4211 03ae 05        		.uleb128 0x5
 4212 03af 02        		.byte	0x2
 4213 03b0 0000 0000 		.long	.LFE84
 4214 03b4 00        		.byte	0x0
 4215 03b5 01        		.uleb128 0x1
 4216 03b6 01        		.byte	0x1
 4217 03b7 00        		.byte	0x0
 4218 03b8 05        		.uleb128 0x5
 4219 03b9 02        		.byte	0x2
 4220 03ba 0000 0000 		.long	.LSM56
 4221 03be 03        		.byte	0x3
 4222 03bf CF04      		.sleb128 591
 4223 03c1 01        		.byte	0x1
 4224 03c2 00        		.byte	0x0
 4225 03c3 05        		.uleb128 0x5
 4226 03c4 02        		.byte	0x2
 4227 03c5 0000 0000 		.long	.LSM57
 4228 03c9 21        		.byte	0x21
GAS LISTING /var/folders/1s/lqjcb7x5323625d47g9gdgmr0000gp/T//ccU6wS1s.s 			page 77


 4229 03ca 00        		.byte	0x0
 4230 03cb 05        		.uleb128 0x5
 4231 03cc 02        		.byte	0x2
 4232 03cd 0000 0000 		.long	.LSM58
 4233 03d1 19        		.byte	0x19
 4234 03d2 00        		.byte	0x0
 4235 03d3 05        		.uleb128 0x5
 4236 03d4 02        		.byte	0x2
 4237 03d5 0000 0000 		.long	.LFE76
 4238 03d9 00        		.byte	0x0
 4239 03da 01        		.uleb128 0x1
 4240 03db 01        		.byte	0x1
 4241 03dc 00        		.byte	0x0
 4242 03dd 05        		.uleb128 0x5
 4243 03de 02        		.byte	0x2
 4244 03df 0000 0000 		.long	.LSM59
 4245 03e3 03        		.byte	0x3
 4246 03e4 F106      		.sleb128 881
 4247 03e6 01        		.byte	0x1
 4248 03e7 00        		.byte	0x0
 4249 03e8 05        		.uleb128 0x5
 4250 03e9 02        		.byte	0x2
 4251 03ea 0000 0000 		.long	.LSM60
 4252 03ee 20        		.byte	0x20
 4253 03ef 00        		.byte	0x0
 4254 03f0 05        		.uleb128 0x5
 4255 03f1 02        		.byte	0x2
 4256 03f2 0000 0000 		.long	.LSM61
 4257 03f6 1B        		.byte	0x1b
 4258 03f7 00        		.byte	0x0
 4259 03f8 05        		.uleb128 0x5
 4260 03f9 02        		.byte	0x2
 4261 03fa 0000 0000 		.long	.LSM62
 4262 03fe 17        		.byte	0x17
 4263 03ff 00        		.byte	0x0
 4264 0400 05        		.uleb128 0x5
 4265 0401 02        		.byte	0x2
 4266 0402 0000 0000 		.long	.LSM63
 4267 0406 18        		.byte	0x18
 4268 0407 00        		.byte	0x0
 4269 0408 05        		.uleb128 0x5
 4270 0409 02        		.byte	0x2
 4271 040a 0000 0000 		.long	.LSM64
 4272 040e 15        		.byte	0x15
 4273 040f 00        		.byte	0x0
 4274 0410 05        		.uleb128 0x5
 4275 0411 02        		.byte	0x2
 4276 0412 0000 0000 		.long	.LSM65
 4277 0416 23        		.byte	0x23
 4278 0417 00        		.byte	0x0
 4279 0418 05        		.uleb128 0x5
 4280 0419 02        		.byte	0x2
 4281 041a 0000 0000 		.long	.LSM66
 4282 041e 1E        		.byte	0x1e
 4283 041f 00        		.byte	0x0
 4284 0420 05        		.uleb128 0x5
 4285 0421 02        		.byte	0x2
GAS LISTING /var/folders/1s/lqjcb7x5323625d47g9gdgmr0000gp/T//ccU6wS1s.s 			page 78


 4286 0422 0000 0000 		.long	.LSM67
 4287 0426 16        		.byte	0x16
 4288 0427 00        		.byte	0x0
 4289 0428 05        		.uleb128 0x5
 4290 0429 02        		.byte	0x2
 4291 042a 0000 0000 		.long	.LFE80
 4292 042e 00        		.byte	0x0
 4293 042f 01        		.uleb128 0x1
 4294 0430 01        		.byte	0x1
 4295 0431 00        		.byte	0x0
 4296 0432 05        		.uleb128 0x5
 4297 0433 02        		.byte	0x2
 4298 0434 0000 0000 		.long	.LSM68
 4299 0438 03        		.byte	0x3
 4300 0439 E609      		.sleb128 1254
 4301 043b 01        		.byte	0x1
 4302 043c 00        		.byte	0x0
 4303 043d 05        		.uleb128 0x5
 4304 043e 02        		.byte	0x2
 4305 043f 0000 0000 		.long	.LSM69
 4306 0443 1A        		.byte	0x1a
 4307 0444 00        		.byte	0x0
 4308 0445 05        		.uleb128 0x5
 4309 0446 02        		.byte	0x2
 4310 0447 0000 0000 		.long	.LSM70
 4311 044b 1A        		.byte	0x1a
 4312 044c 00        		.byte	0x0
 4313 044d 05        		.uleb128 0x5
 4314 044e 02        		.byte	0x2
 4315 044f 0000 0000 		.long	.LSM71
 4316 0453 1D        		.byte	0x1d
 4317 0454 00        		.byte	0x0
 4318 0455 05        		.uleb128 0x5
 4319 0456 02        		.byte	0x2
 4320 0457 0000 0000 		.long	.LSM72
 4321 045b 1A        		.byte	0x1a
 4322 045c 00        		.byte	0x0
 4323 045d 05        		.uleb128 0x5
 4324 045e 02        		.byte	0x2
 4325 045f 0000 0000 		.long	.LSM73
 4326 0463 18        		.byte	0x18
 4327 0464 00        		.byte	0x0
 4328 0465 05        		.uleb128 0x5
 4329 0466 02        		.byte	0x2
 4330 0467 0000 0000 		.long	.LSM74
 4331 046b 15        		.byte	0x15
 4332 046c 00        		.byte	0x0
 4333 046d 05        		.uleb128 0x5
 4334 046e 02        		.byte	0x2
 4335 046f 0000 0000 		.long	.LSM75
 4336 0473 1B        		.byte	0x1b
 4337 0474 00        		.byte	0x0
 4338 0475 05        		.uleb128 0x5
 4339 0476 02        		.byte	0x2
 4340 0477 0000 0000 		.long	.LSM76
 4341 047b 1A        		.byte	0x1a
 4342 047c 00        		.byte	0x0
GAS LISTING /var/folders/1s/lqjcb7x5323625d47g9gdgmr0000gp/T//ccU6wS1s.s 			page 79


 4343 047d 05        		.uleb128 0x5
 4344 047e 02        		.byte	0x2
 4345 047f 0000 0000 		.long	.LSM77
 4346 0483 16        		.byte	0x16
 4347 0484 00        		.byte	0x0
 4348 0485 05        		.uleb128 0x5
 4349 0486 02        		.byte	0x2
 4350 0487 0000 0000 		.long	.LFE82
 4351 048b 00        		.byte	0x0
 4352 048c 01        		.uleb128 0x1
 4353 048d 01        		.byte	0x1
 4354 048e 00        		.byte	0x0
 4355 048f 05        		.uleb128 0x5
 4356 0490 02        		.byte	0x2
 4357 0491 0000 0000 		.long	.LSM78
 4358 0495 03        		.byte	0x3
 4359 0496 DE0C      		.sleb128 1630
 4360 0498 01        		.byte	0x1
 4361 0499 00        		.byte	0x0
 4362 049a 05        		.uleb128 0x5
 4363 049b 02        		.byte	0x2
 4364 049c 0000 0000 		.long	.LSM79
 4365 04a0 36        		.byte	0x36
 4366 04a1 00        		.byte	0x0
 4367 04a2 05        		.uleb128 0x5
 4368 04a3 02        		.byte	0x2
 4369 04a4 0000 0000 		.long	.LSM80
 4370 04a8 19        		.byte	0x19
 4371 04a9 00        		.byte	0x0
 4372 04aa 05        		.uleb128 0x5
 4373 04ab 02        		.byte	0x2
 4374 04ac 0000 0000 		.long	.LSM81
 4375 04b0 1E        		.byte	0x1e
 4376 04b1 00        		.byte	0x0
 4377 04b2 05        		.uleb128 0x5
 4378 04b3 02        		.byte	0x2
 4379 04b4 0000 0000 		.long	.LSM82
 4380 04b8 1A        		.byte	0x1a
 4381 04b9 00        		.byte	0x0
 4382 04ba 05        		.uleb128 0x5
 4383 04bb 02        		.byte	0x2
 4384 04bc 0000 0000 		.long	.LSM83
 4385 04c0 1B        		.byte	0x1b
 4386 04c1 00        		.byte	0x0
 4387 04c2 05        		.uleb128 0x5
 4388 04c3 02        		.byte	0x2
 4389 04c4 0000 0000 		.long	.LSM84
 4390 04c8 1A        		.byte	0x1a
 4391 04c9 00        		.byte	0x0
 4392 04ca 05        		.uleb128 0x5
 4393 04cb 02        		.byte	0x2
 4394 04cc 0000 0000 		.long	.LSM85
 4395 04d0 1A        		.byte	0x1a
 4396 04d1 00        		.byte	0x0
 4397 04d2 05        		.uleb128 0x5
 4398 04d3 02        		.byte	0x2
 4399 04d4 0000 0000 		.long	.LSM86
GAS LISTING /var/folders/1s/lqjcb7x5323625d47g9gdgmr0000gp/T//ccU6wS1s.s 			page 80


 4400 04d8 19        		.byte	0x19
 4401 04d9 00        		.byte	0x0
 4402 04da 05        		.uleb128 0x5
 4403 04db 02        		.byte	0x2
 4404 04dc 0000 0000 		.long	.LFE85
 4405 04e0 00        		.byte	0x0
 4406 04e1 01        		.uleb128 0x1
 4407 04e2 01        		.byte	0x1
 4408 04e3 00        		.byte	0x0
 4409 04e4 05        		.uleb128 0x5
 4410 04e5 02        		.byte	0x2
 4411 04e6 0000 0000 		.long	.LSM87
 4412 04ea 03        		.byte	0x3
 4413 04eb D40D      		.sleb128 1748
 4414 04ed 01        		.byte	0x1
 4415 04ee 00        		.byte	0x0
 4416 04ef 05        		.uleb128 0x5
 4417 04f0 02        		.byte	0x2
 4418 04f1 0000 0000 		.long	.LSM88
 4419 04f5 16        		.byte	0x16
 4420 04f6 00        		.byte	0x0
 4421 04f7 05        		.uleb128 0x5
 4422 04f8 02        		.byte	0x2
 4423 04f9 0000 0000 		.long	.LSM89
 4424 04fd 28        		.byte	0x28
 4425 04fe 00        		.byte	0x0
 4426 04ff 05        		.uleb128 0x5
 4427 0500 02        		.byte	0x2
 4428 0501 0000 0000 		.long	.LSM90
 4429 0505 16        		.byte	0x16
 4430 0506 00        		.byte	0x0
 4431 0507 05        		.uleb128 0x5
 4432 0508 02        		.byte	0x2
 4433 0509 0000 0000 		.long	.LSM91
 4434 050d 03        		.byte	0x3
 4435 050e 6D        		.sleb128 -19
 4436 050f 01        		.byte	0x1
 4437 0510 00        		.byte	0x0
 4438 0511 05        		.uleb128 0x5
 4439 0512 02        		.byte	0x2
 4440 0513 0000 0000 		.long	.LSM92
 4441 0517 18        		.byte	0x18
 4442 0518 00        		.byte	0x0
 4443 0519 05        		.uleb128 0x5
 4444 051a 02        		.byte	0x2
 4445 051b 0000 0000 		.long	.LSM93
 4446 051f 16        		.byte	0x16
 4447 0520 00        		.byte	0x0
 4448 0521 05        		.uleb128 0x5
 4449 0522 02        		.byte	0x2
 4450 0523 0000 0000 		.long	.LSM94
 4451 0527 15        		.byte	0x15
 4452 0528 00        		.byte	0x0
 4453 0529 05        		.uleb128 0x5
 4454 052a 02        		.byte	0x2
 4455 052b 0000 0000 		.long	.LSM95
 4456 052f 16        		.byte	0x16
GAS LISTING /var/folders/1s/lqjcb7x5323625d47g9gdgmr0000gp/T//ccU6wS1s.s 			page 81


 4457 0530 00        		.byte	0x0
 4458 0531 05        		.uleb128 0x5
 4459 0532 02        		.byte	0x2
 4460 0533 0000 0000 		.long	.LFE86
 4461 0537 00        		.byte	0x0
 4462 0538 01        		.uleb128 0x1
 4463 0539 01        		.byte	0x1
 4464 053a 00        		.byte	0x0
 4465 053b 05        		.uleb128 0x5
 4466 053c 02        		.byte	0x2
 4467 053d 0000 0000 		.long	.LSM96
 4468 0541 03        		.byte	0x3
 4469 0542 9A0E      		.sleb128 1818
 4470 0544 01        		.byte	0x1
 4471 0545 00        		.byte	0x0
 4472 0546 05        		.uleb128 0x5
 4473 0547 02        		.byte	0x2
 4474 0548 0000 0000 		.long	.LSM97
 4475 054c 16        		.byte	0x16
 4476 054d 00        		.byte	0x0
 4477 054e 05        		.uleb128 0x5
 4478 054f 02        		.byte	0x2
 4479 0550 0000 0000 		.long	.LSM98
 4480 0554 19        		.byte	0x19
 4481 0555 00        		.byte	0x0
 4482 0556 05        		.uleb128 0x5
 4483 0557 02        		.byte	0x2
 4484 0558 0000 0000 		.long	.LSM99
 4485 055c 15        		.byte	0x15
 4486 055d 00        		.byte	0x0
 4487 055e 05        		.uleb128 0x5
 4488 055f 02        		.byte	0x2
 4489 0560 0000 0000 		.long	.LSM100
 4490 0564 13        		.byte	0x13
 4491 0565 00        		.byte	0x0
 4492 0566 05        		.uleb128 0x5
 4493 0567 02        		.byte	0x2
 4494 0568 0000 0000 		.long	.LSM101
 4495 056c 19        		.byte	0x19
 4496 056d 00        		.byte	0x0
 4497 056e 05        		.uleb128 0x5
 4498 056f 02        		.byte	0x2
 4499 0570 0000 0000 		.long	.LSM102
 4500 0574 0F        		.byte	0xf
 4501 0575 00        		.byte	0x0
 4502 0576 05        		.uleb128 0x5
 4503 0577 02        		.byte	0x2
 4504 0578 0000 0000 		.long	.LFE87
 4505 057c 00        		.byte	0x0
 4506 057d 01        		.uleb128 0x1
 4507 057e 01        		.byte	0x1
 4508 057f 00        		.byte	0x0
 4509 0580 05        		.uleb128 0x5
 4510 0581 02        		.byte	0x2
 4511 0582 0000 0000 		.long	.LSM103
 4512 0586 03        		.byte	0x3
 4513 0587 FA0E      		.sleb128 1914
GAS LISTING /var/folders/1s/lqjcb7x5323625d47g9gdgmr0000gp/T//ccU6wS1s.s 			page 82


 4514 0589 01        		.byte	0x1
 4515 058a 00        		.byte	0x0
 4516 058b 05        		.uleb128 0x5
 4517 058c 02        		.byte	0x2
 4518 058d 0000 0000 		.long	.LSM104
 4519 0591 16        		.byte	0x16
 4520 0592 00        		.byte	0x0
 4521 0593 05        		.uleb128 0x5
 4522 0594 02        		.byte	0x2
 4523 0595 0000 0000 		.long	.LSM105
 4524 0599 17        		.byte	0x17
 4525 059a 00        		.byte	0x0
 4526 059b 05        		.uleb128 0x5
 4527 059c 02        		.byte	0x2
 4528 059d 0000 0000 		.long	.LSM106
 4529 05a1 15        		.byte	0x15
 4530 05a2 00        		.byte	0x0
 4531 05a3 05        		.uleb128 0x5
 4532 05a4 02        		.byte	0x2
 4533 05a5 0000 0000 		.long	.LSM107
 4534 05a9 15        		.byte	0x15
 4535 05aa 00        		.byte	0x0
 4536 05ab 05        		.uleb128 0x5
 4537 05ac 02        		.byte	0x2
 4538 05ad 0000 0000 		.long	.LSM108
 4539 05b1 17        		.byte	0x17
 4540 05b2 00        		.byte	0x0
 4541 05b3 05        		.uleb128 0x5
 4542 05b4 02        		.byte	0x2
 4543 05b5 0000 0000 		.long	.LSM109
 4544 05b9 1E        		.byte	0x1e
 4545 05ba 00        		.byte	0x0
 4546 05bb 05        		.uleb128 0x5
 4547 05bc 02        		.byte	0x2
 4548 05bd 0000 0000 		.long	.LSM110
 4549 05c1 15        		.byte	0x15
 4550 05c2 00        		.byte	0x0
 4551 05c3 05        		.uleb128 0x5
 4552 05c4 02        		.byte	0x2
 4553 05c5 0000 0000 		.long	.LSM111
 4554 05c9 03        		.byte	0x3
 4555 05ca B57B      		.sleb128 -587
 4556 05cc 01        		.byte	0x1
 4557 05cd 00        		.byte	0x0
 4558 05ce 05        		.uleb128 0x5
 4559 05cf 02        		.byte	0x2
 4560 05d0 0000 0000 		.long	.LSM112
 4561 05d4 1B        		.byte	0x1b
 4562 05d5 00        		.byte	0x0
 4563 05d6 05        		.uleb128 0x5
 4564 05d7 02        		.byte	0x2
 4565 05d8 0000 0000 		.long	.LSM113
 4566 05dc 33        		.byte	0x33
 4567 05dd 00        		.byte	0x0
 4568 05de 05        		.uleb128 0x5
 4569 05df 02        		.byte	0x2
 4570 05e0 0000 0000 		.long	.LSM114
GAS LISTING /var/folders/1s/lqjcb7x5323625d47g9gdgmr0000gp/T//ccU6wS1s.s 			page 83


 4571 05e4 15        		.byte	0x15
 4572 05e5 00        		.byte	0x0
 4573 05e6 05        		.uleb128 0x5
 4574 05e7 02        		.byte	0x2
 4575 05e8 0000 0000 		.long	.LSM115
 4576 05ec 03        		.byte	0x3
 4577 05ed AC04      		.sleb128 556
 4578 05ef 01        		.byte	0x1
 4579 05f0 00        		.byte	0x0
 4580 05f1 05        		.uleb128 0x5
 4581 05f2 02        		.byte	0x2
 4582 05f3 0000 0000 		.long	.LSM116
 4583 05f7 03        		.byte	0x3
 4584 05f8 CD7B      		.sleb128 -563
 4585 05fa 01        		.byte	0x1
 4586 05fb 00        		.byte	0x0
 4587 05fc 05        		.uleb128 0x5
 4588 05fd 02        		.byte	0x2
 4589 05fe 0000 0000 		.long	.LSM117
 4590 0602 15        		.byte	0x15
 4591 0603 00        		.byte	0x0
 4592 0604 05        		.uleb128 0x5
 4593 0605 02        		.byte	0x2
 4594 0606 0000 0000 		.long	.LSM118
 4595 060a 15        		.byte	0x15
 4596 060b 00        		.byte	0x0
 4597 060c 05        		.uleb128 0x5
 4598 060d 02        		.byte	0x2
 4599 060e 0000 0000 		.long	.LSM119
 4600 0612 03        		.byte	0x3
 4601 0613 67        		.sleb128 -25
 4602 0614 01        		.byte	0x1
 4603 0615 00        		.byte	0x0
 4604 0616 05        		.uleb128 0x5
 4605 0617 02        		.byte	0x2
 4606 0618 0000 0000 		.long	.LSM120
 4607 061c 15        		.byte	0x15
 4608 061d 00        		.byte	0x0
 4609 061e 05        		.uleb128 0x5
 4610 061f 02        		.byte	0x2
 4611 0620 0000 0000 		.long	.LSM121
 4612 0624 1E        		.byte	0x1e
 4613 0625 00        		.byte	0x0
 4614 0626 05        		.uleb128 0x5
 4615 0627 02        		.byte	0x2
 4616 0628 0000 0000 		.long	.LFE88
 4617 062c 00        		.byte	0x0
 4618 062d 01        		.uleb128 0x1
 4619 062e 01        		.byte	0x1
 4620 062f 00        		.byte	0x0
 4621 0630 05        		.uleb128 0x5
 4622 0631 02        		.byte	0x2
 4623 0632 0000 0000 		.long	.LSM122
 4624 0636 03        		.byte	0x3
 4625 0637 C10F      		.sleb128 1985
 4626 0639 01        		.byte	0x1
 4627 063a 00        		.byte	0x0
GAS LISTING /var/folders/1s/lqjcb7x5323625d47g9gdgmr0000gp/T//ccU6wS1s.s 			page 84


 4628 063b 05        		.uleb128 0x5
 4629 063c 02        		.byte	0x2
 4630 063d 0000 0000 		.long	.LSM123
 4631 0641 23        		.byte	0x23
 4632 0642 00        		.byte	0x0
 4633 0643 05        		.uleb128 0x5
 4634 0644 02        		.byte	0x2
 4635 0645 0000 0000 		.long	.LSM124
 4636 0649 5F        		.byte	0x5f
 4637 064a 00        		.byte	0x0
 4638 064b 05        		.uleb128 0x5
 4639 064c 02        		.byte	0x2
 4640 064d 0000 0000 		.long	.LSM125
 4641 0651 19        		.byte	0x19
 4642 0652 00        		.byte	0x0
 4643 0653 05        		.uleb128 0x5
 4644 0654 02        		.byte	0x2
 4645 0655 0000 0000 		.long	.LSM126
 4646 0659 15        		.byte	0x15
 4647 065a 00        		.byte	0x0
 4648 065b 05        		.uleb128 0x5
 4649 065c 02        		.byte	0x2
 4650 065d 0000 0000 		.long	.LSM127
 4651 0661 15        		.byte	0x15
 4652 0662 00        		.byte	0x0
 4653 0663 05        		.uleb128 0x5
 4654 0664 02        		.byte	0x2
 4655 0665 0000 0000 		.long	.LSM128
 4656 0669 1C        		.byte	0x1c
 4657 066a 00        		.byte	0x0
 4658 066b 05        		.uleb128 0x5
 4659 066c 02        		.byte	0x2
 4660 066d 0000 0000 		.long	.LSM129
 4661 0671 16        		.byte	0x16
 4662 0672 00        		.byte	0x0
 4663 0673 05        		.uleb128 0x5
 4664 0674 02        		.byte	0x2
 4665 0675 0000 0000 		.long	.LSM130
 4666 0679 15        		.byte	0x15
 4667 067a 00        		.byte	0x0
 4668 067b 05        		.uleb128 0x5
 4669 067c 02        		.byte	0x2
 4670 067d 0000 0000 		.long	.LSM131
 4671 0681 15        		.byte	0x15
 4672 0682 00        		.byte	0x0
 4673 0683 05        		.uleb128 0x5
 4674 0684 02        		.byte	0x2
 4675 0685 0000 0000 		.long	.LSM132
 4676 0689 19        		.byte	0x19
 4677 068a 00        		.byte	0x0
 4678 068b 05        		.uleb128 0x5
 4679 068c 02        		.byte	0x2
 4680 068d 0000 0000 		.long	.LSM133
 4681 0691 15        		.byte	0x15
 4682 0692 00        		.byte	0x0
 4683 0693 05        		.uleb128 0x5
 4684 0694 02        		.byte	0x2
GAS LISTING /var/folders/1s/lqjcb7x5323625d47g9gdgmr0000gp/T//ccU6wS1s.s 			page 85


 4685 0695 0000 0000 		.long	.LSM134
 4686 0699 17        		.byte	0x17
 4687 069a 00        		.byte	0x0
 4688 069b 05        		.uleb128 0x5
 4689 069c 02        		.byte	0x2
 4690 069d 0000 0000 		.long	.LSM135
 4691 06a1 20        		.byte	0x20
 4692 06a2 00        		.byte	0x0
 4693 06a3 05        		.uleb128 0x5
 4694 06a4 02        		.byte	0x2
 4695 06a5 0000 0000 		.long	.LFE89
 4696 06a9 00        		.byte	0x0
 4697 06aa 01        		.uleb128 0x1
 4698 06ab 01        		.byte	0x1
 4699               	.LELT0:
 4700 06ac 1900 0000 		.section	.debug_str,"MS",@progbits,1
 4700      0200 1300 
 4700      0000 0101 
 4700      FB0E 0D00 
 4700      0101 0101 
 4701               	.LASF42:
 4702 0000 7274 6F73 		.string	"rtos_getTaskOverrunCounter"
 4702      5F67 6574 
 4702      5461 736B 
 4702      4F76 6572 
 4702      7275 6E43 
 4703               	.LASF52:
 4704 001b 5F5A 3134 		.string	"_Z14rtos_sendEventj"
 4704      7274 6F73 
 4704      5F73 656E 
 4704      6445 7665 
 4704      6E74 6A00 
 4705               	.LASF14:
 4706 002f 7374 6163 		.string	"stackPointer"
 4706      6B50 6F69 
 4706      6E74 6572 
 4706      00
 4707               	.LASF9:
 4708 003c 6C6F 6E67 		.string	"long long unsigned int"
 4708      206C 6F6E 
 4708      6720 756E 
 4708      7369 676E 
 4708      6564 2069 
 4709               	.LASF41:
 4710 0053 7274 6F73 		.string	"rtos_waitForEvent"
 4710      5F77 6169 
 4710      7446 6F72 
 4710      4576 656E 
 4710      7400 
 4711               	.LASF53:
 4712 0065 5F5A 3139 		.string	"_Z19rtos_initializeTaskhPFvjEhPhjjhh"
 4712      7274 6F73 
 4712      5F69 6E69 
 4712      7469 616C 
 4712      697A 6554 
 4713               	.LASF69:
 4714 008a 5F6E 6F44 		.string	"_noDueTasksAry"
GAS LISTING /var/folders/1s/lqjcb7x5323625d47g9gdgmr0000gp/T//ccU6wS1s.s 			page 86


 4714      7565 5461 
 4714      736B 7341 
 4714      7279 00
 4715               	.LASF75:
 4716 0099 474E 5520 		.string	"GNU C++ 4.3.2"
 4716      432B 2B20 
 4716      342E 332E 
 4716      3200 
 4717               	.LASF8:
 4718 00a7 6C6F 6E67 		.string	"long long int"
 4718      206C 6F6E 
 4718      6720 696E 
 4718      7400 
 4719               	.LASF2:
 4720 00b5 7369 676E 		.string	"signed char"
 4720      6564 2063 
 4720      6861 7200 
 4721               	.LASF16:
 4722 00c1 7461 736B 		.string	"taskFunction"
 4722      4675 6E63 
 4722      7469 6F6E 
 4722      00
 4723               	.LASF57:
 4724 00ce 7274 6F73 		.string	"rtos_initRTOS"
 4724      5F69 6E69 
 4724      7452 544F 
 4724      5300 
 4725               	.LASF1:
 4726 00dc 6C6F 6E67 		.string	"long int"
 4726      2069 6E74 
 4726      00
 4727               	.LASF70:
 4728 00e5 5F70 5375 		.string	"_pSuspendedTaskAry"
 4728      7370 656E 
 4728      6465 6454 
 4728      6173 6B41 
 4728      7279 00
 4729               	.LASF6:
 4730 00f8 7569 6E74 		.string	"uint16_t"
 4730      3136 5F74 
 4730      00
 4731               	.LASF13:
 4732 0101 7274 6F73 		.string	"rtos_taskFunction_t"
 4732      5F74 6173 
 4732      6B46 756E 
 4732      6374 696F 
 4732      6E5F 7400 
 4733               	.LASF54:
 4734 0115 7374 6172 		.string	"startEventMask"
 4734      7445 7665 
 4734      6E74 4D61 
 4734      736B 00
 4735               	.LASF68:
 4736 0124 5F70 4475 		.string	"_pDueTaskAryAry"
 4736      6554 6173 
 4736      6B41 7279 
 4736      4172 7900 
GAS LISTING /var/folders/1s/lqjcb7x5323625d47g9gdgmr0000gp/T//ccU6wS1s.s 			page 87


 4737               	.LASF27:
 4738 0134 6576 656E 		.string	"eventVec"
 4738      7456 6563 
 4738      00
 4739               	.LASF20:
 4740 013d 636E 7444 		.string	"cntDelay"
 4740      656C 6179 
 4740      00
 4741               	.LASF67:
 4742 0146 5F70 5375 		.string	"_pSuspendedTask"
 4742      7370 656E 
 4742      6465 6454 
 4742      6173 6B00 
 4743               	.LASF0:
 4744 0156 756E 7369 		.string	"unsigned int"
 4744      676E 6564 
 4744      2069 6E74 
 4744      00
 4745               	.LASF76:
 4746 0163 636F 6465 		.string	"code/RTOS/rtos.c"
 4746      2F52 544F 
 4746      532F 7274 
 4746      6F73 2E63 
 4746      00
 4747               	.LASF72:
 4748 0174 7274 6F73 		.string	"rtos_rtuinosStartupMsg"
 4748      5F72 7475 
 4748      696E 6F73 
 4748      5374 6172 
 4748      7475 704D 
 4749               	.LASF83:
 4750 018b 5F5F 7665 		.string	"__vector_15"
 4750      6374 6F72 
 4750      5F31 3500 
 4751               	.LASF7:
 4752 0197 6C6F 6E67 		.string	"long unsigned int"
 4752      2075 6E73 
 4752      6967 6E65 
 4752      6420 696E 
 4752      7400 
 4753               	.LASF81:
 4754 01a9 7274 6F73 		.string	"rtos_enableIRQTimerTic"
 4754      5F65 6E61 
 4754      626C 6549 
 4754      5251 5469 
 4754      6D65 7254 
 4755               	.LASF34:
 4756 01c0 7469 6D65 		.string	"timeout"
 4756      6F75 7400 
 4757               	.LASF15:
 4758 01c8 7072 696F 		.string	"prioClass"
 4758      436C 6173 
 4758      7300 
 4759               	.LASF24:
 4760 01d2 636E 744F 		.string	"cntOverrun"
 4760      7665 7272 
 4760      756E 00
GAS LISTING /var/folders/1s/lqjcb7x5323625d47g9gdgmr0000gp/T//ccU6wS1s.s 			page 88


 4761               	.LASF37:
 4762 01dd 6F6E 5469 		.string	"onTimerTic"
 4762      6D65 7254 
 4762      6963 00
 4763               	.LASF23:
 4764 01e8 7761 6974 		.string	"waitForAnyEvent"
 4764      466F 7241 
 4764      6E79 4576 
 4764      656E 7400 
 4765               	.LASF46:
 4766 01f8 7265 7443 		.string	"retCode"
 4766      6F64 6500 
 4767               	.LASF56:
 4768 0200 7374 6172 		.string	"startTimeout"
 4768      7454 696D 
 4768      656F 7574 
 4768      00
 4769               	.LASF25:
 4770 020d 626F 6F6C 		.string	"bool"
 4770      00
 4771               	.LASF44:
 4772 0212 5F5A 3236 		.string	"_Z26rtos_getTaskOverrunCounterhh"
 4772      7274 6F73 
 4772      5F67 6574 
 4772      5461 736B 
 4772      4F76 6572 
 4773               	.LASF74:
 4774 0233 5F74 6D70 		.string	"_tmpVarCToAsm_u16"
 4774      5661 7243 
 4774      546F 4173 
 4774      6D5F 7531 
 4774      3600 
 4775               	.LASF66:
 4776 0245 5F70 4163 		.string	"_pActiveTask"
 4776      7469 7665 
 4776      5461 736B 
 4776      00
 4777               	.LASF36:
 4778 0252 706F 7374 		.string	"postedEventVecBefore"
 4778      6564 4576 
 4778      656E 7456 
 4778      6563 4265 
 4778      666F 7265 
 4779               	.LASF59:
 4780 0267 6964 7843 		.string	"idxClass"
 4780      6C61 7373 
 4780      00
 4781               	.LASF79:
 4782 0270 7374 6F72 		.string	"storeResumeCondition"
 4782      6552 6573 
 4782      756D 6543 
 4782      6F6E 6469 
 4782      7469 6F6E 
 4783               	.LASF39:
 4784 0285 6964 7854 		.string	"idxTask"
 4784      6173 6B00 
 4785               	.LASF77:
GAS LISTING /var/folders/1s/lqjcb7x5323625d47g9gdgmr0000gp/T//ccU6wS1s.s 			page 89


 4786 028d 2F55 7365 		.string	"/Users/andrek/git/RTuinOS3"
 4786      7273 2F61 
 4786      6E64 7265 
 4786      6B2F 6769 
 4786      742F 5254 
 4787               	.LASF62:
 4788 02a8 4C45 445F 		.string	"LED_BUILTIN"
 4788      4255 494C 
 4788      5449 4E00 
 4789               	.LASF38:
 4790 02b4 7365 6E64 		.string	"sendEvent"
 4790      4576 656E 
 4790      7400 
 4791               	.LASF65:
 4792 02be 5F70 4964 		.string	"_pIdleTask"
 4792      6C65 5461 
 4792      736B 00
 4793               	.LASF71:
 4794 02c9 5F6E 6F53 		.string	"_noSuspendedTasks"
 4794      7573 7065 
 4794      6E64 6564 
 4794      5461 736B 
 4794      7300 
 4795               	.LASF29:
 4796 02db 7072 696F 		.string	"prio"
 4796      00
 4797               	.LASF32:
 4798 02e0 6964 7850 		.string	"idxPrio"
 4798      7269 6F00 
 4799               	.LASF26:
 4800 02e8 666C 6F61 		.string	"float"
 4800      7400 
 4801               	.LASF61:
 4802 02ee 4D49 534F 		.string	"MISO"
 4802      00
 4803               	.LASF49:
 4804 02f3 5F5A 3230 		.string	"_Z20rtos_getStackReserveh"
 4804      7274 6F73 
 4804      5F67 6574 
 4804      5374 6163 
 4804      6B52 6573 
 4805               	.LASF58:
 4806 030d 5F5A 3133 		.string	"_Z13rtos_initRTOSv"
 4806      7274 6F73 
 4806      5F69 6E69 
 4806      7452 544F 
 4806      5376 00
 4807               	.LASF5:
 4808 0320 756E 7369 		.string	"unsigned char"
 4808      676E 6564 
 4808      2063 6861 
 4808      7200 
 4809               	.LASF82:
 4810 032e 5F5A 3232 		.string	"_Z22rtos_enableIRQTimerTicv"
 4810      7274 6F73 
 4810      5F65 6E61 
 4810      626C 6549 
GAS LISTING /var/folders/1s/lqjcb7x5323625d47g9gdgmr0000gp/T//ccU6wS1s.s 			page 90


 4810      5251 5469 
 4811               	.LASF17:
 4812 034a 7469 6D65 		.string	"timeDueAt"
 4812      4475 6541 
 4812      7400 
 4813               	.LASF64:
 4814 0354 5F74 6173 		.string	"_taskAry"
 4814      6B41 7279 
 4814      00
 4815               	.LASF30:
 4816 035d 6368 6563 		.string	"checkTaskForActivation"
 4816      6B54 6173 
 4816      6B46 6F72 
 4816      4163 7469 
 4816      7661 7469 
 4817               	.LASF45:
 4818 0374 646F 5265 		.string	"doReset"
 4818      7365 7400 
 4819               	.LASF50:
 4820 037c 7274 6F73 		.string	"rtos_sendEvent"
 4820      5F73 656E 
 4820      6445 7665 
 4820      6E74 00
 4821               	.LASF47:
 4822 038b 7043 6E74 		.string	"pCntOverrun"
 4822      4F76 6572 
 4822      7275 6E00 
 4823               	.LASF55:
 4824 0397 7374 6172 		.string	"startByAllEvents"
 4824      7442 7941 
 4824      6C6C 4576 
 4824      656E 7473 
 4824      00
 4825               	.LASF11:
 4826 03a8 6368 6172 		.string	"char"
 4826      00
 4827               	.LASF40:
 4828 03ad 6E6F 4475 		.string	"noDueNow"
 4828      654E 6F77 
 4828      00
 4829               	.LASF19:
 4830 03b6 7374 6163 		.string	"stackSize"
 4830      6B53 697A 
 4830      6500 
 4831               	.LASF60:
 4832 03c0 4D4F 5349 		.string	"MOSI"
 4832      00
 4833               	.LASF10:
 4834 03c5 626F 6F6C 		.string	"boolean"
 4834      6561 6E00 
 4835               	.LASF80:
 4836 03cd 7761 6974 		.string	"waitForEvent"
 4836      466F 7245 
 4836      7665 6E74 
 4836      00
 4837               	.LASF21:
 4838 03da 706F 7374 		.string	"postedEventVec"
GAS LISTING /var/folders/1s/lqjcb7x5323625d47g9gdgmr0000gp/T//ccU6wS1s.s 			page 91


 4838      6564 4576 
 4838      656E 7456 
 4838      6563 00
 4839               	.LASF28:
 4840 03e9 7461 736B 		.string	"taskBecomesDue"
 4840      4265 636F 
 4840      6D65 7344 
 4840      7565 00
 4841               	.LASF48:
 4842 03f8 7274 6F73 		.string	"rtos_getStackReserve"
 4842      5F67 6574 
 4842      5374 6163 
 4842      6B52 6573 
 4842      6572 7665 
 4843               	.LASF22:
 4844 040d 6576 656E 		.string	"eventMask"
 4844      744D 6173 
 4844      6B00 
 4845               	.LASF43:
 4846 0417 5F5A 3137 		.string	"_Z17rtos_waitForEventjhh"
 4846      7274 6F73 
 4846      5F77 6169 
 4846      7446 6F72 
 4846      4576 656E 
 4847               	.LASF3:
 4848 0430 696E 7438 		.string	"int8_t"
 4848      5F74 00
 4849               	.LASF51:
 4850 0437 7274 6F73 		.string	"rtos_initializeTask"
 4850      5F69 6E69 
 4850      7469 616C 
 4850      697A 6554 
 4850      6173 6B00 
 4851               	.LASF78:
 4852 044b 3C61 6E6F 		.string	"<anonymous struct>"
 4852      6E79 6D6F 
 4852      7573 2073 
 4852      7472 7563 
 4852      743E 00
 4853               	.LASF18:
 4854 045e 7053 7461 		.string	"pStackArea"
 4854      636B 4172 
 4854      6561 00
 4855               	.LASF31:
 4856 0469 6C6F 6F6B 		.string	"lookForActiveTask"
 4856      466F 7241 
 4856      6374 6976 
 4856      6554 6173 
 4856      6B00 
 4857               	.LASF4:
 4858 047b 7569 6E74 		.string	"uint8_t"
 4858      385F 7400 
 4859               	.LASF12:
 4860 0483 7569 6E74 		.string	"uintTime_t"
 4860      5469 6D65 
 4860      5F74 00
 4861               	.LASF73:
GAS LISTING /var/folders/1s/lqjcb7x5323625d47g9gdgmr0000gp/T//ccU6wS1s.s 			page 92


 4862 048e 5F74 6D70 		.string	"_tmpVarAsmToC_u16"
 4862      5661 7241 
 4862      736D 546F 
 4862      435F 7531 
 4862      3600 
 4863               	.LASF35:
 4864 04a0 6163 7469 		.string	"activeTaskMayChange"
 4864      7665 5461 
 4864      736B 4D61 
 4864      7943 6861 
 4864      6E67 6500 
 4865               	.LASF63:
 4866 04b4 5F74 696D 		.string	"_time"
 4866      6500 
 4867               	.LASF33:
 4868 04ba 6964 7853 		.string	"idxSuspTask"
 4868      7573 7054 
 4868      6173 6B00 
GAS LISTING /var/folders/1s/lqjcb7x5323625d47g9gdgmr0000gp/T//ccU6wS1s.s 			page 93


DEFINED SYMBOLS
                            *ABS*:00000000 rtos.c
/var/folders/1s/lqjcb7x5323625d47g9gdgmr0000gp/T//ccU6wS1s.s:2      *ABS*:0000003f __SREG__
/var/folders/1s/lqjcb7x5323625d47g9gdgmr0000gp/T//ccU6wS1s.s:3      *ABS*:0000003e __SP_H__
/var/folders/1s/lqjcb7x5323625d47g9gdgmr0000gp/T//ccU6wS1s.s:4      *ABS*:0000003d __SP_L__
/var/folders/1s/lqjcb7x5323625d47g9gdgmr0000gp/T//ccU6wS1s.s:5      *ABS*:00000034 __CCP__
/var/folders/1s/lqjcb7x5323625d47g9gdgmr0000gp/T//ccU6wS1s.s:6      *ABS*:00000000 __tmp_reg__
/var/folders/1s/lqjcb7x5323625d47g9gdgmr0000gp/T//ccU6wS1s.s:7      *ABS*:00000001 __zero_reg__
/var/folders/1s/lqjcb7x5323625d47g9gdgmr0000gp/T//ccU6wS1s.s:20     .text._ZL10onTimerTicv:00000000 _ZL10onTimerTicv
/var/folders/1s/lqjcb7x5323625d47g9gdgmr0000gp/T//ccU6wS1s.s:1385   .data._ZL5_time:00000000 _ZL5_time
/var/folders/1s/lqjcb7x5323625d47g9gdgmr0000gp/T//ccU6wS1s.s:1394   .bss._ZL17_noSuspendedTasks:00000000 _ZL17_noSuspendedTasks
/var/folders/1s/lqjcb7x5323625d47g9gdgmr0000gp/T//ccU6wS1s.s:1390   .bss._ZL18_pSuspendedTaskAry:00000000 _ZL18_pSuspendedTaskAry
/var/folders/1s/lqjcb7x5323625d47g9gdgmr0000gp/T//ccU6wS1s.s:1399   .bss._ZL14_noDueTasksAry:00000000 _ZL14_noDueTasksAry
/var/folders/1s/lqjcb7x5323625d47g9gdgmr0000gp/T//ccU6wS1s.s:1403   .bss._ZL15_pDueTaskAryAry:00000000 _ZL15_pDueTaskAryAry
/var/folders/1s/lqjcb7x5323625d47g9gdgmr0000gp/T//ccU6wS1s.s:208    .text._ZL9sendEventj:00000000 _ZL9sendEventj
/var/folders/1s/lqjcb7x5323625d47g9gdgmr0000gp/T//ccU6wS1s.s:376    .text._ZL12waitForEventjhh:00000000 _ZL12waitForEventjhh
/var/folders/1s/lqjcb7x5323625d47g9gdgmr0000gp/T//ccU6wS1s.s:1407   .data._ZL12_pActiveTask:00000000 _ZL12_pActiveTask
/var/folders/1s/lqjcb7x5323625d47g9gdgmr0000gp/T//ccU6wS1s.s:1412   .bss._ZL15_pSuspendedTask:00000000 _ZL15_pSuspendedTask
/var/folders/1s/lqjcb7x5323625d47g9gdgmr0000gp/T//ccU6wS1s.s:1417   .bss._ZL8_taskAry:00000000 _ZL8_taskAry
/var/folders/1s/lqjcb7x5323625d47g9gdgmr0000gp/T//ccU6wS1s.s:529    .text._Z22rtos_enableIRQTimerTicv:00000000 _Z22rtos_enableIRQTimerTicv
/var/folders/1s/lqjcb7x5323625d47g9gdgmr0000gp/T//ccU6wS1s.s:548    .text.__vector_15:00000000 __vector_15
/var/folders/1s/lqjcb7x5323625d47g9gdgmr0000gp/T//ccU6wS1s.s:1380   .bss._tmpVarCToAsm_u16:00000000 _tmpVarCToAsm_u16
/var/folders/1s/lqjcb7x5323625d47g9gdgmr0000gp/T//ccU6wS1s.s:1374   .bss._tmpVarAsmToC_u16:00000000 _tmpVarAsmToC_u16
/var/folders/1s/lqjcb7x5323625d47g9gdgmr0000gp/T//ccU6wS1s.s:708    .text._Z14rtos_sendEventj:00000000 _Z14rtos_sendEventj
/var/folders/1s/lqjcb7x5323625d47g9gdgmr0000gp/T//ccU6wS1s.s:763    .text._Z14rtos_sendEventj:00000046 LabelEntrySetEventForISR
/var/folders/1s/lqjcb7x5323625d47g9gdgmr0000gp/T//ccU6wS1s.s:875    .text._Z17rtos_waitForEventjhh:00000000 _Z17rtos_waitForEventjhh
/var/folders/1s/lqjcb7x5323625d47g9gdgmr0000gp/T//ccU6wS1s.s:1031   .text._Z26rtos_getTaskOverrunCounterhh:00000000 _Z26rtos_getTaskOverrunCounterhh
/var/folders/1s/lqjcb7x5323625d47g9gdgmr0000gp/T//ccU6wS1s.s:1104   .text._Z20rtos_getStackReserveh:00000000 _Z20rtos_getStackReserveh
/var/folders/1s/lqjcb7x5323625d47g9gdgmr0000gp/T//ccU6wS1s.s:1165   .text._Z19rtos_initializeTaskhPFvjEhPhjjhh:00000000 _Z19rtos_initializeTaskhPFvjEhPhjjhh
/var/folders/1s/lqjcb7x5323625d47g9gdgmr0000gp/T//ccU6wS1s.s:1315   .text._Z13rtos_initRTOSv:00000000 _Z13rtos_initRTOSv
/var/folders/1s/lqjcb7x5323625d47g9gdgmr0000gp/T//ccU6wS1s.s:1364   .progmem.rtuinos:00000000 rtos_rtuinosStartupMsg

UNDEFINED SYMBOLS
__do_copy_data
__do_clear_bss
setup
loop
