GAS LISTING /var/folders/1s/lqjcb7x5323625d47g9gdgmr0000gp/T//ccfPscto.s 			page 1


   1               		.file	"tc01_idleTaskOnly.c"
   2               	__SREG__ = 0x3f
   3               	__SP_H__ = 0x3e
   4               	__SP_L__ = 0x3d
   5               	__CCP__  = 0x34
   6               	__tmp_reg__ = 0
   7               	__zero_reg__ = 1
   8               		.global __do_copy_data
   9               		.global __do_clear_bss
  10               		.section	.debug_abbrev,"",@progbits
  11               	.Ldebug_abbrev0:
  12               		.section	.debug_info,"",@progbits
  13               	.Ldebug_info0:
  14               		.section	.debug_line,"",@progbits
  15               	.Ldebug_line0:
  16               		.text
  17               	.Ltext0:
  18               		.data
  19               	.LC0:
  20 0000 5254 7569 		.string	"RTuinOS is idle"
  20      6E4F 5320 
  20      6973 2069 
  20      646C 6500 
  21               		.section	.text.loop,"ax",@progbits
  22               	.global	loop
  23               		.type	loop, @function
  24               	loop:
  25               	.LFB77:
  26               	.LSM0:
  27               	/* prologue: function */
  28               	/* frame size = 0 */
  29               	.LBB6:
  30               	.LBB7:
  31               	.LSM1:
  32 0000 8DE0      		ldi r24,lo8(13)
  33 0002 61E0      		ldi r22,lo8(1)
  34 0004 0E94 0000 		call digitalWrite
  35               	.LSM2:
  36 0008 66E9      		ldi r22,lo8(150)
  37 000a 70E0      		ldi r23,hi8(150)
  38 000c 80E0      		ldi r24,hlo8(150)
  39 000e 90E0      		ldi r25,hhi8(150)
  40 0010 0E94 0000 		call delay
  41               	.LSM3:
  42 0014 8DE0      		ldi r24,lo8(13)
  43 0016 60E0      		ldi r22,lo8(0)
  44 0018 0E94 0000 		call digitalWrite
  45               	.LSM4:
  46 001c 66E9      		ldi r22,lo8(150)
  47 001e 70E0      		ldi r23,hi8(150)
  48 0020 80E0      		ldi r24,hlo8(150)
  49 0022 90E0      		ldi r25,hhi8(150)
  50 0024 0E94 0000 		call delay
  51               	.LSM5:
  52 0028 8DE0      		ldi r24,lo8(13)
  53 002a 61E0      		ldi r22,lo8(1)
  54 002c 0E94 0000 		call digitalWrite
GAS LISTING /var/folders/1s/lqjcb7x5323625d47g9gdgmr0000gp/T//ccfPscto.s 			page 2


  55               	.LSM6:
  56 0030 66E9      		ldi r22,lo8(150)
  57 0032 70E0      		ldi r23,hi8(150)
  58 0034 80E0      		ldi r24,hlo8(150)
  59 0036 90E0      		ldi r25,hhi8(150)
  60 0038 0E94 0000 		call delay
  61               	.LSM7:
  62 003c 8DE0      		ldi r24,lo8(13)
  63 003e 60E0      		ldi r22,lo8(0)
  64 0040 0E94 0000 		call digitalWrite
  65               	.LSM8:
  66 0044 66E9      		ldi r22,lo8(150)
  67 0046 70E0      		ldi r23,hi8(150)
  68 0048 80E0      		ldi r24,hlo8(150)
  69 004a 90E0      		ldi r25,hhi8(150)
  70 004c 0E94 0000 		call delay
  71               	.LSM9:
  72 0050 8DE0      		ldi r24,lo8(13)
  73 0052 61E0      		ldi r22,lo8(1)
  74 0054 0E94 0000 		call digitalWrite
  75               	.LSM10:
  76 0058 66E9      		ldi r22,lo8(150)
  77 005a 70E0      		ldi r23,hi8(150)
  78 005c 80E0      		ldi r24,hlo8(150)
  79 005e 90E0      		ldi r25,hhi8(150)
  80 0060 0E94 0000 		call delay
  81               	.LSM11:
  82 0064 8DE0      		ldi r24,lo8(13)
  83 0066 60E0      		ldi r22,lo8(0)
  84 0068 0E94 0000 		call digitalWrite
  85               	.LSM12:
  86 006c 66E9      		ldi r22,lo8(150)
  87 006e 70E0      		ldi r23,hi8(150)
  88 0070 80E0      		ldi r24,hlo8(150)
  89 0072 90E0      		ldi r25,hhi8(150)
  90 0074 0E94 0000 		call delay
  91               	.LSM13:
  92 0078 8DE0      		ldi r24,lo8(13)
  93 007a 61E0      		ldi r22,lo8(1)
  94 007c 0E94 0000 		call digitalWrite
  95               	.LSM14:
  96 0080 66E9      		ldi r22,lo8(150)
  97 0082 70E0      		ldi r23,hi8(150)
  98 0084 80E0      		ldi r24,hlo8(150)
  99 0086 90E0      		ldi r25,hhi8(150)
 100 0088 0E94 0000 		call delay
 101               	.LSM15:
 102 008c 8DE0      		ldi r24,lo8(13)
 103 008e 60E0      		ldi r22,lo8(0)
 104 0090 0E94 0000 		call digitalWrite
 105               	.LSM16:
 106 0094 66E9      		ldi r22,lo8(150)
 107 0096 70E0      		ldi r23,hi8(150)
 108 0098 80E0      		ldi r24,hlo8(150)
 109 009a 90E0      		ldi r25,hhi8(150)
 110 009c 0E94 0000 		call delay
 111               	.LSM17:
GAS LISTING /var/folders/1s/lqjcb7x5323625d47g9gdgmr0000gp/T//ccfPscto.s 			page 3


 112 00a0 62E5      		ldi r22,lo8(850)
 113 00a2 73E0      		ldi r23,hi8(850)
 114 00a4 80E0      		ldi r24,hlo8(850)
 115 00a6 90E0      		ldi r25,hhi8(850)
 116 00a8 0E94 0000 		call delay
 117               	.LBE7:
 118               	.LBE6:
 119               	.LSM18:
 120 00ac 80E0      		ldi r24,lo8(Serial)
 121 00ae 90E0      		ldi r25,hi8(Serial)
 122 00b0 60E0      		ldi r22,lo8(.LC0)
 123 00b2 70E0      		ldi r23,hi8(.LC0)
 124 00b4 0E94 0000 		call _ZN5Print7printlnEPKc
 125               	/* epilogue start */
 126               	.LSM19:
 127 00b8 0895      		ret
 128               	.LFE77:
 129               		.size	loop, .-loop
 130               		.data
 131               	.LC1:
 132 0010 0A52 5475 		.ascii	"\nRTuinOS 1.0 for Arduino 1.0.5\nCopyright (C) 2012-2013 Pet"
 132      696E 4F53 
 132      2031 2E30 
 132      2066 6F72 
 132      2041 7264 
 133 004a 6572 2056 		.ascii	"er Vranken (mailto:Peter_Vranken@Yahoo.de)\nThis is free sof"
 133      7261 6E6B 
 133      656E 2028 
 133      6D61 696C 
 133      746F 3A50 
 134 0085 7477 6172 		.ascii	"tware; see the source for copying conditions. There is NO\nw"
 134      653B 2073 
 134      6565 2074 
 134      6865 2073 
 134      6F75 7263 
 135 00c0 6172 7261 		.ascii	"arranty; n"
 135      6E74 793B 
 135      206E 
 136 00ca 6F74 2065 		.string	"ot even for MERCHANTABILITY or FITNESS FOR A PARTICULAR PURPOSE."
 136      7665 6E20 
 136      666F 7220 
 136      4D45 5243 
 136      4841 4E54 
 137               		.section	.text.setup,"ax",@progbits
 138               	.global	setup
 139               		.type	setup, @function
 140               	setup:
 141               	.LFB76:
 142               	.LSM20:
 143 0000 0F93      		push r16
 144 0002 1F93      		push r17
 145               	/* prologue: function */
 146               	/* frame size = 0 */
 147               	.LSM21:
 148 0004 00E0      		ldi r16,lo8(Serial)
 149 0006 10E0      		ldi r17,hi8(Serial)
 150 0008 C801      		movw r24,r16
GAS LISTING /var/folders/1s/lqjcb7x5323625d47g9gdgmr0000gp/T//ccfPscto.s 			page 4


 151 000a 40E8      		ldi r20,lo8(9600)
 152 000c 55E2      		ldi r21,hi8(9600)
 153 000e 60E0      		ldi r22,hlo8(9600)
 154 0010 70E0      		ldi r23,hhi8(9600)
 155 0012 0E94 0000 		call _ZN14HardwareSerial5beginEm
 156               	.LSM22:
 157 0016 C801      		movw r24,r16
 158 0018 60E0      		ldi r22,lo8(.LC1)
 159 001a 70E0      		ldi r23,hi8(.LC1)
 160 001c 0E94 0000 		call _ZN5Print7printlnEPKc
 161               	.LSM23:
 162 0020 8DE0      		ldi r24,lo8(13)
 163 0022 61E0      		ldi r22,lo8(1)
 164 0024 0E94 0000 		call pinMode
 165               	/* epilogue start */
 166               	.LSM24:
 167 0028 1F91      		pop r17
 168 002a 0F91      		pop r16
 169 002c 0895      		ret
 170               	.LFE76:
 171               		.size	setup, .-setup
 172               		.section	.debug_frame,"",@progbits
 173               	.Lframe0:
 174 0000 0C00 0000 		.long	.LECIE0-.LSCIE0
 175               	.LSCIE0:
 176 0004 FFFF FFFF 		.long	0xffffffff
 177 0008 01        		.byte	0x1
 178 0009 00        		.string	""
 179 000a 01        		.uleb128 0x1
 180 000b 7F        		.sleb128 -1
 181 000c 24        		.byte	0x24
 182 000d 0C        		.byte	0xc
 183 000e 20        		.uleb128 0x20
 184 000f 00        		.uleb128 0x0
 185               		.p2align	2
 186               	.LECIE0:
 187               	.LSFDE0:
 188 0010 0C00 0000 		.long	.LEFDE0-.LASFDE0
 189               	.LASFDE0:
 190 0014 0000 0000 		.long	.Lframe0
 191 0018 0000 0000 		.long	.LFB77
 192 001c BA00 0000 		.long	.LFE77-.LFB77
 193               		.p2align	2
 194               	.LEFDE0:
 195               	.LSFDE2:
 196 0020 0C00 0000 		.long	.LEFDE2-.LASFDE2
 197               	.LASFDE2:
 198 0024 0000 0000 		.long	.Lframe0
 199 0028 0000 0000 		.long	.LFB76
 200 002c 2E00 0000 		.long	.LFE76-.LFB76
 201               		.p2align	2
 202               	.LEFDE2:
 203               		.text
 204               	.Letext0:
 205               		.section	.debug_info
 206 0000 FD01 0000 		.long	0x1fd
 207 0004 0200      		.word	0x2
GAS LISTING /var/folders/1s/lqjcb7x5323625d47g9gdgmr0000gp/T//ccfPscto.s 			page 5


 208 0006 0000 0000 		.long	.Ldebug_abbrev0
 209 000a 04        		.byte	0x4
 210 000b 01        		.uleb128 0x1
 211 000c 0000 0000 		.long	.LASF13
 212 0010 04        		.byte	0x4
 213 0011 0000 0000 		.long	.LASF14
 214 0015 0000 0000 		.long	.LASF15
 215 0019 0000 0000 		.long	0x0
 216 001d 0000 0000 		.long	0x0
 217 0021 0000 0000 		.long	.Ldebug_ranges0+0x0
 218 0025 0000 0000 		.long	.Ldebug_line0
 219 0029 02        		.uleb128 0x2
 220 002a 02        		.byte	0x2
 221 002b 07        		.byte	0x7
 222 002c 0000 0000 		.long	.LASF0
 223 0030 03        		.uleb128 0x3
 224 0031 02        		.byte	0x2
 225 0032 05        		.byte	0x5
 226 0033 696E 7400 		.string	"int"
 227 0037 02        		.uleb128 0x2
 228 0038 04        		.byte	0x4
 229 0039 05        		.byte	0x5
 230 003a 0000 0000 		.long	.LASF1
 231 003e 02        		.uleb128 0x2
 232 003f 01        		.byte	0x1
 233 0040 06        		.byte	0x6
 234 0041 0000 0000 		.long	.LASF2
 235 0045 04        		.uleb128 0x4
 236 0046 0000 0000 		.long	.LASF16
 237 004a 03        		.byte	0x3
 238 004b 7A        		.byte	0x7a
 239 004c 5000 0000 		.long	0x50
 240 0050 02        		.uleb128 0x2
 241 0051 01        		.byte	0x1
 242 0052 08        		.byte	0x8
 243 0053 0000 0000 		.long	.LASF3
 244 0057 02        		.uleb128 0x2
 245 0058 04        		.byte	0x4
 246 0059 07        		.byte	0x7
 247 005a 0000 0000 		.long	.LASF4
 248 005e 02        		.uleb128 0x2
 249 005f 08        		.byte	0x8
 250 0060 05        		.byte	0x5
 251 0061 0000 0000 		.long	.LASF5
 252 0065 02        		.uleb128 0x2
 253 0066 08        		.byte	0x8
 254 0067 07        		.byte	0x7
 255 0068 0000 0000 		.long	.LASF6
 256 006c 05        		.uleb128 0x5
 257 006d 01        		.byte	0x1
 258 006e 06        		.byte	0x6
 259 006f 05        		.uleb128 0x5
 260 0070 01        		.byte	0x1
 261 0071 08        		.byte	0x8
 262 0072 02        		.uleb128 0x2
 263 0073 01        		.byte	0x1
 264 0074 06        		.byte	0x6
GAS LISTING /var/folders/1s/lqjcb7x5323625d47g9gdgmr0000gp/T//ccfPscto.s 			page 6


 265 0075 0000 0000 		.long	.LASF7
 266 0079 06        		.uleb128 0x6
 267 007a 4500 0000 		.long	0x45
 268 007e 02        		.uleb128 0x2
 269 007f 01        		.byte	0x1
 270 0080 02        		.byte	0x2
 271 0081 0000 0000 		.long	.LASF8
 272 0085 02        		.uleb128 0x2
 273 0086 04        		.byte	0x4
 274 0087 04        		.byte	0x4
 275 0088 0000 0000 		.long	.LASF9
 276 008c 07        		.uleb128 0x7
 277 008d 0000 0000 		.long	.LASF17
 278 0091 01        		.byte	0x1
 279 0092 47        		.byte	0x47
 280 0093 01        		.byte	0x1
 281 0094 A400 0000 		.long	0xa4
 282 0098 08        		.uleb128 0x8
 283 0099 0000 0000 		.long	.LASF18
 284 009d 01        		.byte	0x1
 285 009e 47        		.byte	0x47
 286 009f 4500 0000 		.long	0x45
 287 00a3 00        		.byte	0x0
 288 00a4 09        		.uleb128 0x9
 289 00a5 01        		.byte	0x1
 290 00a6 0000 0000 		.long	.LASF19
 291 00aa 01        		.byte	0x1
 292 00ab 76        		.byte	0x76
 293 00ac 0000 0000 		.long	.LFB77
 294 00b0 0000 0000 		.long	.LFE77
 295 00b4 02        		.byte	0x2
 296 00b5 90        		.byte	0x90
 297 00b6 20        		.uleb128 0x20
 298 00b7 D100 0000 		.long	0xd1
 299 00bb 0A        		.uleb128 0xa
 300 00bc 8C00 0000 		.long	0x8c
 301 00c0 0000 0000 		.long	.LBB6
 302 00c4 0000 0000 		.long	.LBE6
 303 00c8 01        		.byte	0x1
 304 00c9 79        		.byte	0x79
 305 00ca 0B        		.uleb128 0xb
 306 00cb 9800 0000 		.long	0x98
 307 00cf 00        		.byte	0x0
 308 00d0 00        		.byte	0x0
 309 00d1 0C        		.uleb128 0xc
 310 00d2 01        		.byte	0x1
 311 00d3 0000 0000 		.long	.LASF20
 312 00d7 01        		.byte	0x1
 313 00d8 5C        		.byte	0x5c
 314 00d9 0000 0000 		.long	.LFB76
 315 00dd 0000 0000 		.long	.LFE76
 316 00e1 02        		.byte	0x2
 317 00e2 90        		.byte	0x90
 318 00e3 20        		.uleb128 0x20
 319 00e4 0D        		.uleb128 0xd
 320 00e5 0000 0000 		.long	.LASF21
 321 00e9 01        		.byte	0x1
GAS LISTING /var/folders/1s/lqjcb7x5323625d47g9gdgmr0000gp/T//ccfPscto.s 			page 7


 322 00ea 0E        		.uleb128 0xe
 323 00eb 0000 0000 		.long	.LASF22
 324 00ef 04        		.byte	0x4
 325 00f0 62        		.byte	0x62
 326 00f1 E400 0000 		.long	0xe4
 327 00f5 01        		.byte	0x1
 328 00f6 01        		.byte	0x1
 329 00f7 0F        		.uleb128 0xf
 330 00f8 5353 00   		.string	"SS"
 331 00fb 02        		.byte	0x2
 332 00fc 23        		.byte	0x23
 333 00fd 7900 0000 		.long	0x79
 334 0101 35        		.byte	0x35
 335 0102 10        		.uleb128 0x10
 336 0103 0000 0000 		.long	.LASF10
 337 0107 02        		.byte	0x2
 338 0108 24        		.byte	0x24
 339 0109 7900 0000 		.long	0x79
 340 010d 33        		.byte	0x33
 341 010e 10        		.uleb128 0x10
 342 010f 0000 0000 		.long	.LASF11
 343 0113 02        		.byte	0x2
 344 0114 25        		.byte	0x25
 345 0115 7900 0000 		.long	0x79
 346 0119 32        		.byte	0x32
 347 011a 0F        		.uleb128 0xf
 348 011b 5343 4B00 		.string	"SCK"
 349 011f 02        		.byte	0x2
 350 0120 26        		.byte	0x26
 351 0121 7900 0000 		.long	0x79
 352 0125 34        		.byte	0x34
 353 0126 0F        		.uleb128 0xf
 354 0127 5344 4100 		.string	"SDA"
 355 012b 02        		.byte	0x2
 356 012c 28        		.byte	0x28
 357 012d 7900 0000 		.long	0x79
 358 0131 14        		.byte	0x14
 359 0132 0F        		.uleb128 0xf
 360 0133 5343 4C00 		.string	"SCL"
 361 0137 02        		.byte	0x2
 362 0138 29        		.byte	0x29
 363 0139 7900 0000 		.long	0x79
 364 013d 15        		.byte	0x15
 365 013e 10        		.uleb128 0x10
 366 013f 0000 0000 		.long	.LASF12
 367 0143 02        		.byte	0x2
 368 0144 2A        		.byte	0x2a
 369 0145 7900 0000 		.long	0x79
 370 0149 0D        		.byte	0xd
 371 014a 0F        		.uleb128 0xf
 372 014b 4130 00   		.string	"A0"
 373 014e 02        		.byte	0x2
 374 014f 2C        		.byte	0x2c
 375 0150 7900 0000 		.long	0x79
 376 0154 36        		.byte	0x36
 377 0155 0F        		.uleb128 0xf
 378 0156 4131 00   		.string	"A1"
GAS LISTING /var/folders/1s/lqjcb7x5323625d47g9gdgmr0000gp/T//ccfPscto.s 			page 8


 379 0159 02        		.byte	0x2
 380 015a 2D        		.byte	0x2d
 381 015b 7900 0000 		.long	0x79
 382 015f 37        		.byte	0x37
 383 0160 0F        		.uleb128 0xf
 384 0161 4132 00   		.string	"A2"
 385 0164 02        		.byte	0x2
 386 0165 2E        		.byte	0x2e
 387 0166 7900 0000 		.long	0x79
 388 016a 38        		.byte	0x38
 389 016b 0F        		.uleb128 0xf
 390 016c 4133 00   		.string	"A3"
 391 016f 02        		.byte	0x2
 392 0170 2F        		.byte	0x2f
 393 0171 7900 0000 		.long	0x79
 394 0175 39        		.byte	0x39
 395 0176 0F        		.uleb128 0xf
 396 0177 4134 00   		.string	"A4"
 397 017a 02        		.byte	0x2
 398 017b 30        		.byte	0x30
 399 017c 7900 0000 		.long	0x79
 400 0180 3A        		.byte	0x3a
 401 0181 0F        		.uleb128 0xf
 402 0182 4135 00   		.string	"A5"
 403 0185 02        		.byte	0x2
 404 0186 31        		.byte	0x31
 405 0187 7900 0000 		.long	0x79
 406 018b 3B        		.byte	0x3b
 407 018c 0F        		.uleb128 0xf
 408 018d 4136 00   		.string	"A6"
 409 0190 02        		.byte	0x2
 410 0191 32        		.byte	0x32
 411 0192 7900 0000 		.long	0x79
 412 0196 3C        		.byte	0x3c
 413 0197 0F        		.uleb128 0xf
 414 0198 4137 00   		.string	"A7"
 415 019b 02        		.byte	0x2
 416 019c 33        		.byte	0x33
 417 019d 7900 0000 		.long	0x79
 418 01a1 3D        		.byte	0x3d
 419 01a2 0F        		.uleb128 0xf
 420 01a3 4138 00   		.string	"A8"
 421 01a6 02        		.byte	0x2
 422 01a7 34        		.byte	0x34
 423 01a8 7900 0000 		.long	0x79
 424 01ac 3E        		.byte	0x3e
 425 01ad 0F        		.uleb128 0xf
 426 01ae 4139 00   		.string	"A9"
 427 01b1 02        		.byte	0x2
 428 01b2 35        		.byte	0x35
 429 01b3 7900 0000 		.long	0x79
 430 01b7 3F        		.byte	0x3f
 431 01b8 0F        		.uleb128 0xf
 432 01b9 4131 3000 		.string	"A10"
 433 01bd 02        		.byte	0x2
 434 01be 36        		.byte	0x36
 435 01bf 7900 0000 		.long	0x79
GAS LISTING /var/folders/1s/lqjcb7x5323625d47g9gdgmr0000gp/T//ccfPscto.s 			page 9


 436 01c3 40        		.byte	0x40
 437 01c4 0F        		.uleb128 0xf
 438 01c5 4131 3100 		.string	"A11"
 439 01c9 02        		.byte	0x2
 440 01ca 37        		.byte	0x37
 441 01cb 7900 0000 		.long	0x79
 442 01cf 41        		.byte	0x41
 443 01d0 0F        		.uleb128 0xf
 444 01d1 4131 3200 		.string	"A12"
 445 01d5 02        		.byte	0x2
 446 01d6 38        		.byte	0x38
 447 01d7 7900 0000 		.long	0x79
 448 01db 42        		.byte	0x42
 449 01dc 0F        		.uleb128 0xf
 450 01dd 4131 3300 		.string	"A13"
 451 01e1 02        		.byte	0x2
 452 01e2 39        		.byte	0x39
 453 01e3 7900 0000 		.long	0x79
 454 01e7 43        		.byte	0x43
 455 01e8 0F        		.uleb128 0xf
 456 01e9 4131 3400 		.string	"A14"
 457 01ed 02        		.byte	0x2
 458 01ee 3A        		.byte	0x3a
 459 01ef 7900 0000 		.long	0x79
 460 01f3 44        		.byte	0x44
 461 01f4 0F        		.uleb128 0xf
 462 01f5 4131 3500 		.string	"A15"
 463 01f9 02        		.byte	0x2
 464 01fa 3B        		.byte	0x3b
 465 01fb 7900 0000 		.long	0x79
 466 01ff 45        		.byte	0x45
 467 0200 00        		.byte	0x0
 468               		.section	.debug_abbrev
 469 0000 01        		.uleb128 0x1
 470 0001 11        		.uleb128 0x11
 471 0002 01        		.byte	0x1
 472 0003 25        		.uleb128 0x25
 473 0004 0E        		.uleb128 0xe
 474 0005 13        		.uleb128 0x13
 475 0006 0B        		.uleb128 0xb
 476 0007 03        		.uleb128 0x3
 477 0008 0E        		.uleb128 0xe
 478 0009 1B        		.uleb128 0x1b
 479 000a 0E        		.uleb128 0xe
 480 000b 11        		.uleb128 0x11
 481 000c 01        		.uleb128 0x1
 482 000d 52        		.uleb128 0x52
 483 000e 01        		.uleb128 0x1
 484 000f 55        		.uleb128 0x55
 485 0010 06        		.uleb128 0x6
 486 0011 10        		.uleb128 0x10
 487 0012 06        		.uleb128 0x6
 488 0013 00        		.byte	0x0
 489 0014 00        		.byte	0x0
 490 0015 02        		.uleb128 0x2
 491 0016 24        		.uleb128 0x24
 492 0017 00        		.byte	0x0
GAS LISTING /var/folders/1s/lqjcb7x5323625d47g9gdgmr0000gp/T//ccfPscto.s 			page 10


 493 0018 0B        		.uleb128 0xb
 494 0019 0B        		.uleb128 0xb
 495 001a 3E        		.uleb128 0x3e
 496 001b 0B        		.uleb128 0xb
 497 001c 03        		.uleb128 0x3
 498 001d 0E        		.uleb128 0xe
 499 001e 00        		.byte	0x0
 500 001f 00        		.byte	0x0
 501 0020 03        		.uleb128 0x3
 502 0021 24        		.uleb128 0x24
 503 0022 00        		.byte	0x0
 504 0023 0B        		.uleb128 0xb
 505 0024 0B        		.uleb128 0xb
 506 0025 3E        		.uleb128 0x3e
 507 0026 0B        		.uleb128 0xb
 508 0027 03        		.uleb128 0x3
 509 0028 08        		.uleb128 0x8
 510 0029 00        		.byte	0x0
 511 002a 00        		.byte	0x0
 512 002b 04        		.uleb128 0x4
 513 002c 16        		.uleb128 0x16
 514 002d 00        		.byte	0x0
 515 002e 03        		.uleb128 0x3
 516 002f 0E        		.uleb128 0xe
 517 0030 3A        		.uleb128 0x3a
 518 0031 0B        		.uleb128 0xb
 519 0032 3B        		.uleb128 0x3b
 520 0033 0B        		.uleb128 0xb
 521 0034 49        		.uleb128 0x49
 522 0035 13        		.uleb128 0x13
 523 0036 00        		.byte	0x0
 524 0037 00        		.byte	0x0
 525 0038 05        		.uleb128 0x5
 526 0039 24        		.uleb128 0x24
 527 003a 00        		.byte	0x0
 528 003b 0B        		.uleb128 0xb
 529 003c 0B        		.uleb128 0xb
 530 003d 3E        		.uleb128 0x3e
 531 003e 0B        		.uleb128 0xb
 532 003f 00        		.byte	0x0
 533 0040 00        		.byte	0x0
 534 0041 06        		.uleb128 0x6
 535 0042 26        		.uleb128 0x26
 536 0043 00        		.byte	0x0
 537 0044 49        		.uleb128 0x49
 538 0045 13        		.uleb128 0x13
 539 0046 00        		.byte	0x0
 540 0047 00        		.byte	0x0
 541 0048 07        		.uleb128 0x7
 542 0049 2E        		.uleb128 0x2e
 543 004a 01        		.byte	0x1
 544 004b 03        		.uleb128 0x3
 545 004c 0E        		.uleb128 0xe
 546 004d 3A        		.uleb128 0x3a
 547 004e 0B        		.uleb128 0xb
 548 004f 3B        		.uleb128 0x3b
 549 0050 0B        		.uleb128 0xb
GAS LISTING /var/folders/1s/lqjcb7x5323625d47g9gdgmr0000gp/T//ccfPscto.s 			page 11


 550 0051 20        		.uleb128 0x20
 551 0052 0B        		.uleb128 0xb
 552 0053 01        		.uleb128 0x1
 553 0054 13        		.uleb128 0x13
 554 0055 00        		.byte	0x0
 555 0056 00        		.byte	0x0
 556 0057 08        		.uleb128 0x8
 557 0058 05        		.uleb128 0x5
 558 0059 00        		.byte	0x0
 559 005a 03        		.uleb128 0x3
 560 005b 0E        		.uleb128 0xe
 561 005c 3A        		.uleb128 0x3a
 562 005d 0B        		.uleb128 0xb
 563 005e 3B        		.uleb128 0x3b
 564 005f 0B        		.uleb128 0xb
 565 0060 49        		.uleb128 0x49
 566 0061 13        		.uleb128 0x13
 567 0062 00        		.byte	0x0
 568 0063 00        		.byte	0x0
 569 0064 09        		.uleb128 0x9
 570 0065 2E        		.uleb128 0x2e
 571 0066 01        		.byte	0x1
 572 0067 3F        		.uleb128 0x3f
 573 0068 0C        		.uleb128 0xc
 574 0069 03        		.uleb128 0x3
 575 006a 0E        		.uleb128 0xe
 576 006b 3A        		.uleb128 0x3a
 577 006c 0B        		.uleb128 0xb
 578 006d 3B        		.uleb128 0x3b
 579 006e 0B        		.uleb128 0xb
 580 006f 11        		.uleb128 0x11
 581 0070 01        		.uleb128 0x1
 582 0071 12        		.uleb128 0x12
 583 0072 01        		.uleb128 0x1
 584 0073 40        		.uleb128 0x40
 585 0074 0A        		.uleb128 0xa
 586 0075 01        		.uleb128 0x1
 587 0076 13        		.uleb128 0x13
 588 0077 00        		.byte	0x0
 589 0078 00        		.byte	0x0
 590 0079 0A        		.uleb128 0xa
 591 007a 1D        		.uleb128 0x1d
 592 007b 01        		.byte	0x1
 593 007c 31        		.uleb128 0x31
 594 007d 13        		.uleb128 0x13
 595 007e 11        		.uleb128 0x11
 596 007f 01        		.uleb128 0x1
 597 0080 12        		.uleb128 0x12
 598 0081 01        		.uleb128 0x1
 599 0082 58        		.uleb128 0x58
 600 0083 0B        		.uleb128 0xb
 601 0084 59        		.uleb128 0x59
 602 0085 0B        		.uleb128 0xb
 603 0086 00        		.byte	0x0
 604 0087 00        		.byte	0x0
 605 0088 0B        		.uleb128 0xb
 606 0089 05        		.uleb128 0x5
GAS LISTING /var/folders/1s/lqjcb7x5323625d47g9gdgmr0000gp/T//ccfPscto.s 			page 12


 607 008a 00        		.byte	0x0
 608 008b 31        		.uleb128 0x31
 609 008c 13        		.uleb128 0x13
 610 008d 00        		.byte	0x0
 611 008e 00        		.byte	0x0
 612 008f 0C        		.uleb128 0xc
 613 0090 2E        		.uleb128 0x2e
 614 0091 00        		.byte	0x0
 615 0092 3F        		.uleb128 0x3f
 616 0093 0C        		.uleb128 0xc
 617 0094 03        		.uleb128 0x3
 618 0095 0E        		.uleb128 0xe
 619 0096 3A        		.uleb128 0x3a
 620 0097 0B        		.uleb128 0xb
 621 0098 3B        		.uleb128 0x3b
 622 0099 0B        		.uleb128 0xb
 623 009a 11        		.uleb128 0x11
 624 009b 01        		.uleb128 0x1
 625 009c 12        		.uleb128 0x12
 626 009d 01        		.uleb128 0x1
 627 009e 40        		.uleb128 0x40
 628 009f 0A        		.uleb128 0xa
 629 00a0 00        		.byte	0x0
 630 00a1 00        		.byte	0x0
 631 00a2 0D        		.uleb128 0xd
 632 00a3 02        		.uleb128 0x2
 633 00a4 00        		.byte	0x0
 634 00a5 03        		.uleb128 0x3
 635 00a6 0E        		.uleb128 0xe
 636 00a7 3C        		.uleb128 0x3c
 637 00a8 0C        		.uleb128 0xc
 638 00a9 00        		.byte	0x0
 639 00aa 00        		.byte	0x0
 640 00ab 0E        		.uleb128 0xe
 641 00ac 34        		.uleb128 0x34
 642 00ad 00        		.byte	0x0
 643 00ae 03        		.uleb128 0x3
 644 00af 0E        		.uleb128 0xe
 645 00b0 3A        		.uleb128 0x3a
 646 00b1 0B        		.uleb128 0xb
 647 00b2 3B        		.uleb128 0x3b
 648 00b3 0B        		.uleb128 0xb
 649 00b4 49        		.uleb128 0x49
 650 00b5 13        		.uleb128 0x13
 651 00b6 3F        		.uleb128 0x3f
 652 00b7 0C        		.uleb128 0xc
 653 00b8 3C        		.uleb128 0x3c
 654 00b9 0C        		.uleb128 0xc
 655 00ba 00        		.byte	0x0
 656 00bb 00        		.byte	0x0
 657 00bc 0F        		.uleb128 0xf
 658 00bd 34        		.uleb128 0x34
 659 00be 00        		.byte	0x0
 660 00bf 03        		.uleb128 0x3
 661 00c0 08        		.uleb128 0x8
 662 00c1 3A        		.uleb128 0x3a
 663 00c2 0B        		.uleb128 0xb
GAS LISTING /var/folders/1s/lqjcb7x5323625d47g9gdgmr0000gp/T//ccfPscto.s 			page 13


 664 00c3 3B        		.uleb128 0x3b
 665 00c4 0B        		.uleb128 0xb
 666 00c5 49        		.uleb128 0x49
 667 00c6 13        		.uleb128 0x13
 668 00c7 1C        		.uleb128 0x1c
 669 00c8 0B        		.uleb128 0xb
 670 00c9 00        		.byte	0x0
 671 00ca 00        		.byte	0x0
 672 00cb 10        		.uleb128 0x10
 673 00cc 34        		.uleb128 0x34
 674 00cd 00        		.byte	0x0
 675 00ce 03        		.uleb128 0x3
 676 00cf 0E        		.uleb128 0xe
 677 00d0 3A        		.uleb128 0x3a
 678 00d1 0B        		.uleb128 0xb
 679 00d2 3B        		.uleb128 0x3b
 680 00d3 0B        		.uleb128 0xb
 681 00d4 49        		.uleb128 0x49
 682 00d5 13        		.uleb128 0x13
 683 00d6 1C        		.uleb128 0x1c
 684 00d7 0B        		.uleb128 0xb
 685 00d8 00        		.byte	0x0
 686 00d9 00        		.byte	0x0
 687 00da 00        		.byte	0x0
 688               		.section	.debug_pubnames,"",@progbits
 689 0000 2100 0000 		.long	0x21
 690 0004 0200      		.word	0x2
 691 0006 0000 0000 		.long	.Ldebug_info0
 692 000a 0102 0000 		.long	0x201
 693 000e A400 0000 		.long	0xa4
 694 0012 6C6F 6F70 		.string	"loop"
 694      00
 695 0017 D100 0000 		.long	0xd1
 696 001b 7365 7475 		.string	"setup"
 696      7000 
 697 0021 0000 0000 		.long	0x0
 698               		.section	.debug_aranges,"",@progbits
 699 0000 2400 0000 		.long	0x24
 700 0004 0200      		.word	0x2
 701 0006 0000 0000 		.long	.Ldebug_info0
 702 000a 04        		.byte	0x4
 703 000b 00        		.byte	0x0
 704 000c 0000      		.word	0x0
 705 000e 0000      		.word	0x0
 706 0010 0000 0000 		.long	.LFB77
 707 0014 BA00 0000 		.long	.LFE77-.LFB77
 708 0018 0000 0000 		.long	.LFB76
 709 001c 2E00 0000 		.long	.LFE76-.LFB76
 710 0020 0000 0000 		.long	0x0
 711 0024 0000 0000 		.long	0x0
 712               		.section	.debug_ranges,"",@progbits
 713               	.Ldebug_ranges0:
 714 0000 0000 0000 		.long	.Ltext0
 715 0004 0000 0000 		.long	.Letext0
 716 0008 0000 0000 		.long	.LFB77
 717 000c 0000 0000 		.long	.LFE77
 718 0010 0000 0000 		.long	.LFB76
GAS LISTING /var/folders/1s/lqjcb7x5323625d47g9gdgmr0000gp/T//ccfPscto.s 			page 14


 719 0014 0000 0000 		.long	.LFE76
 720 0018 0000 0000 		.long	0x0
 721 001c 0000 0000 		.long	0x0
 722               		.section	.debug_line
 723 0000 7E02 0000 		.long	.LELT0-.LSLT0
 724               	.LSLT0:
 725 0004 0200      		.word	0x2
 726 0006 9001 0000 		.long	.LELTP0-.LASLTP0
 727               	.LASLTP0:
 728 000a 01        		.byte	0x1
 729 000b 01        		.byte	0x1
 730 000c F6        		.byte	0xf6
 731 000d F5        		.byte	0xf5
 732 000e 0A        		.byte	0xa
 733 000f 00        		.byte	0x0
 734 0010 01        		.byte	0x1
 735 0011 01        		.byte	0x1
 736 0012 01        		.byte	0x1
 737 0013 01        		.byte	0x1
 738 0014 00        		.byte	0x0
 739 0015 00        		.byte	0x0
 740 0016 00        		.byte	0x0
 741 0017 01        		.byte	0x1
 742 0018 2F41 7070 		.ascii	"/Applications/Arduino.app/Contents/Resources/Java/hardware/a"
 742      6C69 6361 
 742      7469 6F6E 
 742      732F 4172 
 742      6475 696E 
 743 0054 7264 7569 		.ascii	"rduino/avr/cores/arduino"
 743      6E6F 2F61 
 743      7672 2F63 
 743      6F72 6573 
 743      2F61 7264 
 744 006c 00        		.byte	0
 745 006d 2F41 7070 		.ascii	"/Applications/Arduino.app/Contents/Resources/Java/hardware/a"
 745      6C69 6361 
 745      7469 6F6E 
 745      732F 4172 
 745      6475 696E 
 746 00a9 7264 7569 		.ascii	"rduino/avr/variants/mega"
 746      6E6F 2F61 
 746      7672 2F76 
 746      6172 6961 
 746      6E74 732F 
 747 00c1 00        		.byte	0
 748 00c2 2F41 7070 		.ascii	"/Applications/Arduino.app/Contents/Resources/Java/hardware/t"
 748      6C69 6361 
 748      7469 6F6E 
 748      732F 4172 
 748      6475 696E 
 749 00fe 6F6F 6C73 		.ascii	"ools/avr/bin/../lib/gcc/avr/4.3.2/../../../../avr/include"
 749      2F61 7672 
 749      2F62 696E 
 749      2F2E 2E2F 
 749      6C69 622F 
 750 0137 00        		.byte	0
 751 0138 636F 6465 		.ascii	"code/applications/tc01"
GAS LISTING /var/folders/1s/lqjcb7x5323625d47g9gdgmr0000gp/T//ccfPscto.s 			page 15


 751      2F61 7070 
 751      6C69 6361 
 751      7469 6F6E 
 751      732F 7463 
 752 014e 00        		.byte	0
 753 014f 00        		.byte	0x0
 754 0150 7463 3031 		.string	"tc01_idleTaskOnly.c"
 754      5F69 646C 
 754      6554 6173 
 754      6B4F 6E6C 
 754      792E 6300 
 755 0164 04        		.uleb128 0x4
 756 0165 00        		.uleb128 0x0
 757 0166 00        		.uleb128 0x0
 758 0167 7069 6E73 		.string	"pins_arduino.h"
 758      5F61 7264 
 758      7569 6E6F 
 758      2E68 00
 759 0176 02        		.uleb128 0x2
 760 0177 00        		.uleb128 0x0
 761 0178 00        		.uleb128 0x0
 762 0179 7374 6469 		.string	"stdint.h"
 762      6E74 2E68 
 762      00
 763 0182 03        		.uleb128 0x3
 764 0183 00        		.uleb128 0x0
 765 0184 00        		.uleb128 0x0
 766 0185 4861 7264 		.string	"HardwareSerial.h"
 766      7761 7265 
 766      5365 7269 
 766      616C 2E68 
 766      00
 767 0196 01        		.uleb128 0x1
 768 0197 00        		.uleb128 0x0
 769 0198 00        		.uleb128 0x0
 770 0199 00        		.byte	0x0
 771               	.LELTP0:
 772 019a 00        		.byte	0x0
 773 019b 05        		.uleb128 0x5
 774 019c 02        		.byte	0x2
 775 019d 0000 0000 		.long	.Letext0
 776 01a1 00        		.byte	0x0
 777 01a2 01        		.uleb128 0x1
 778 01a3 01        		.byte	0x1
 779 01a4 00        		.byte	0x0
 780 01a5 05        		.uleb128 0x5
 781 01a6 02        		.byte	0x2
 782 01a7 0000 0000 		.long	.LSM0
 783 01ab 89        		.byte	0x89
 784 01ac 00        		.byte	0x0
 785 01ad 05        		.uleb128 0x5
 786 01ae 02        		.byte	0x2
 787 01af 0000 0000 		.long	.LSM1
 788 01b3 03        		.byte	0x3
 789 01b4 56        		.sleb128 -42
 790 01b5 01        		.byte	0x1
 791 01b6 00        		.byte	0x0
GAS LISTING /var/folders/1s/lqjcb7x5323625d47g9gdgmr0000gp/T//ccfPscto.s 			page 16


 792 01b7 05        		.uleb128 0x5
 793 01b8 02        		.byte	0x2
 794 01b9 0000 0000 		.long	.LSM2
 795 01bd 15        		.byte	0x15
 796 01be 00        		.byte	0x0
 797 01bf 05        		.uleb128 0x5
 798 01c0 02        		.byte	0x2
 799 01c1 0000 0000 		.long	.LSM3
 800 01c5 15        		.byte	0x15
 801 01c6 00        		.byte	0x0
 802 01c7 05        		.uleb128 0x5
 803 01c8 02        		.byte	0x2
 804 01c9 0000 0000 		.long	.LSM4
 805 01cd 15        		.byte	0x15
 806 01ce 00        		.byte	0x0
 807 01cf 05        		.uleb128 0x5
 808 01d0 02        		.byte	0x2
 809 01d1 0000 0000 		.long	.LSM5
 810 01d5 11        		.byte	0x11
 811 01d6 00        		.byte	0x0
 812 01d7 05        		.uleb128 0x5
 813 01d8 02        		.byte	0x2
 814 01d9 0000 0000 		.long	.LSM6
 815 01dd 15        		.byte	0x15
 816 01de 00        		.byte	0x0
 817 01df 05        		.uleb128 0x5
 818 01e0 02        		.byte	0x2
 819 01e1 0000 0000 		.long	.LSM7
 820 01e5 15        		.byte	0x15
 821 01e6 00        		.byte	0x0
 822 01e7 05        		.uleb128 0x5
 823 01e8 02        		.byte	0x2
 824 01e9 0000 0000 		.long	.LSM8
 825 01ed 15        		.byte	0x15
 826 01ee 00        		.byte	0x0
 827 01ef 05        		.uleb128 0x5
 828 01f0 02        		.byte	0x2
 829 01f1 0000 0000 		.long	.LSM9
 830 01f5 11        		.byte	0x11
 831 01f6 00        		.byte	0x0
 832 01f7 05        		.uleb128 0x5
 833 01f8 02        		.byte	0x2
 834 01f9 0000 0000 		.long	.LSM10
 835 01fd 15        		.byte	0x15
 836 01fe 00        		.byte	0x0
 837 01ff 05        		.uleb128 0x5
 838 0200 02        		.byte	0x2
 839 0201 0000 0000 		.long	.LSM11
 840 0205 15        		.byte	0x15
 841 0206 00        		.byte	0x0
 842 0207 05        		.uleb128 0x5
 843 0208 02        		.byte	0x2
 844 0209 0000 0000 		.long	.LSM12
 845 020d 15        		.byte	0x15
 846 020e 00        		.byte	0x0
 847 020f 05        		.uleb128 0x5
 848 0210 02        		.byte	0x2
GAS LISTING /var/folders/1s/lqjcb7x5323625d47g9gdgmr0000gp/T//ccfPscto.s 			page 17


 849 0211 0000 0000 		.long	.LSM13
 850 0215 11        		.byte	0x11
 851 0216 00        		.byte	0x0
 852 0217 05        		.uleb128 0x5
 853 0218 02        		.byte	0x2
 854 0219 0000 0000 		.long	.LSM14
 855 021d 15        		.byte	0x15
 856 021e 00        		.byte	0x0
 857 021f 05        		.uleb128 0x5
 858 0220 02        		.byte	0x2
 859 0221 0000 0000 		.long	.LSM15
 860 0225 15        		.byte	0x15
 861 0226 00        		.byte	0x0
 862 0227 05        		.uleb128 0x5
 863 0228 02        		.byte	0x2
 864 0229 0000 0000 		.long	.LSM16
 865 022d 15        		.byte	0x15
 866 022e 00        		.byte	0x0
 867 022f 05        		.uleb128 0x5
 868 0230 02        		.byte	0x2
 869 0231 0000 0000 		.long	.LSM17
 870 0235 16        		.byte	0x16
 871 0236 00        		.byte	0x0
 872 0237 05        		.uleb128 0x5
 873 0238 02        		.byte	0x2
 874 0239 0000 0000 		.long	.LSM18
 875 023d 3D        		.byte	0x3d
 876 023e 00        		.byte	0x0
 877 023f 05        		.uleb128 0x5
 878 0240 02        		.byte	0x2
 879 0241 0000 0000 		.long	.LSM19
 880 0245 16        		.byte	0x16
 881 0246 00        		.byte	0x0
 882 0247 05        		.uleb128 0x5
 883 0248 02        		.byte	0x2
 884 0249 0000 0000 		.long	.LFE77
 885 024d 00        		.byte	0x0
 886 024e 01        		.uleb128 0x1
 887 024f 01        		.byte	0x1
 888 0250 00        		.byte	0x0
 889 0251 05        		.uleb128 0x5
 890 0252 02        		.byte	0x2
 891 0253 0000 0000 		.long	.LSM20
 892 0257 6F        		.byte	0x6f
 893 0258 00        		.byte	0x0
 894 0259 05        		.uleb128 0x5
 895 025a 02        		.byte	0x2
 896 025b 0000 0000 		.long	.LSM21
 897 025f 18        		.byte	0x18
 898 0260 00        		.byte	0x0
 899 0261 05        		.uleb128 0x5
 900 0262 02        		.byte	0x2
 901 0263 0000 0000 		.long	.LSM22
 902 0267 15        		.byte	0x15
 903 0268 00        		.byte	0x0
 904 0269 05        		.uleb128 0x5
 905 026a 02        		.byte	0x2
GAS LISTING /var/folders/1s/lqjcb7x5323625d47g9gdgmr0000gp/T//ccfPscto.s 			page 18


 906 026b 0000 0000 		.long	.LSM23
 907 026f 18        		.byte	0x18
 908 0270 00        		.byte	0x0
 909 0271 05        		.uleb128 0x5
 910 0272 02        		.byte	0x2
 911 0273 0000 0000 		.long	.LSM24
 912 0277 16        		.byte	0x16
 913 0278 00        		.byte	0x0
 914 0279 05        		.uleb128 0x5
 915 027a 02        		.byte	0x2
 916 027b 0000 0000 		.long	.LFE76
 917 027f 00        		.byte	0x0
 918 0280 01        		.uleb128 0x1
 919 0281 01        		.byte	0x1
 920               	.LELT0:
 921 0282 1900 0000 		.section	.debug_str,"MS",@progbits,1
 921      0200 1300 
 921      0000 0101 
 921      FB0E 0D00 
 921      0101 0101 
 922               	.LASF17:
 923 0000 626C 696E 		.string	"blink"
 923      6B00 
 924               	.LASF12:
 925 0006 4C45 445F 		.string	"LED_BUILTIN"
 925      4255 494C 
 925      5449 4E00 
 926               	.LASF15:
 927 0012 2F55 7365 		.string	"/Users/andrek/git/RTuinOS3"
 927      7273 2F61 
 927      6E64 7265 
 927      6B2F 6769 
 927      742F 5254 
 928               	.LASF11:
 929 002d 4D49 534F 		.string	"MISO"
 929      00
 930               	.LASF8:
 931 0032 626F 6F6C 		.string	"bool"
 931      00
 932               	.LASF13:
 933 0037 474E 5520 		.string	"GNU C++ 4.3.2"
 933      432B 2B20 
 933      342E 332E 
 933      3200 
 934               	.LASF19:
 935 0045 6C6F 6F70 		.string	"loop"
 935      00
 936               	.LASF9:
 937 004a 666C 6F61 		.string	"float"
 937      7400 
 938               	.LASF3:
 939 0050 756E 7369 		.string	"unsigned char"
 939      676E 6564 
 939      2063 6861 
 939      7200 
 940               	.LASF4:
 941 005e 6C6F 6E67 		.string	"long unsigned int"
GAS LISTING /var/folders/1s/lqjcb7x5323625d47g9gdgmr0000gp/T//ccfPscto.s 			page 19


 941      2075 6E73 
 941      6967 6E65 
 941      6420 696E 
 941      7400 
 942               	.LASF18:
 943 0070 6E6F 466C 		.string	"noFlashes"
 943      6173 6865 
 943      7300 
 944               	.LASF10:
 945 007a 4D4F 5349 		.string	"MOSI"
 945      00
 946               	.LASF0:
 947 007f 756E 7369 		.string	"unsigned int"
 947      676E 6564 
 947      2069 6E74 
 947      00
 948               	.LASF14:
 949 008c 636F 6465 		.string	"code/applications/tc01/tc01_idleTaskOnly.c"
 949      2F61 7070 
 949      6C69 6361 
 949      7469 6F6E 
 949      732F 7463 
 950               	.LASF6:
 951 00b7 6C6F 6E67 		.string	"long long unsigned int"
 951      206C 6F6E 
 951      6720 756E 
 951      7369 676E 
 951      6564 2069 
 952               	.LASF16:
 953 00ce 7569 6E74 		.string	"uint8_t"
 953      385F 7400 
 954               	.LASF20:
 955 00d6 7365 7475 		.string	"setup"
 955      7000 
 956               	.LASF22:
 957 00dc 5365 7269 		.string	"Serial"
 957      616C 00
 958               	.LASF5:
 959 00e3 6C6F 6E67 		.string	"long long int"
 959      206C 6F6E 
 959      6720 696E 
 959      7400 
 960               	.LASF7:
 961 00f1 6368 6172 		.string	"char"
 961      00
 962               	.LASF1:
 963 00f6 6C6F 6E67 		.string	"long int"
 963      2069 6E74 
 963      00
 964               	.LASF2:
 965 00ff 7369 676E 		.string	"signed char"
 965      6564 2063 
 965      6861 7200 
 966               	.LASF21:
 967 010b 4861 7264 		.string	"HardwareSerial"
 967      7761 7265 
 967      5365 7269 
GAS LISTING /var/folders/1s/lqjcb7x5323625d47g9gdgmr0000gp/T//ccfPscto.s 			page 20


 967      616C 00
GAS LISTING /var/folders/1s/lqjcb7x5323625d47g9gdgmr0000gp/T//ccfPscto.s 			page 21


DEFINED SYMBOLS
                            *ABS*:00000000 tc01_idleTaskOnly.c
/var/folders/1s/lqjcb7x5323625d47g9gdgmr0000gp/T//ccfPscto.s:2      *ABS*:0000003f __SREG__
/var/folders/1s/lqjcb7x5323625d47g9gdgmr0000gp/T//ccfPscto.s:3      *ABS*:0000003e __SP_H__
/var/folders/1s/lqjcb7x5323625d47g9gdgmr0000gp/T//ccfPscto.s:4      *ABS*:0000003d __SP_L__
/var/folders/1s/lqjcb7x5323625d47g9gdgmr0000gp/T//ccfPscto.s:5      *ABS*:00000034 __CCP__
/var/folders/1s/lqjcb7x5323625d47g9gdgmr0000gp/T//ccfPscto.s:6      *ABS*:00000000 __tmp_reg__
/var/folders/1s/lqjcb7x5323625d47g9gdgmr0000gp/T//ccfPscto.s:7      *ABS*:00000001 __zero_reg__
/var/folders/1s/lqjcb7x5323625d47g9gdgmr0000gp/T//ccfPscto.s:24     .text.loop:00000000 loop
/var/folders/1s/lqjcb7x5323625d47g9gdgmr0000gp/T//ccfPscto.s:140    .text.setup:00000000 setup

UNDEFINED SYMBOLS
__do_copy_data
__do_clear_bss
digitalWrite
delay
Serial
_ZN5Print7printlnEPKc
_ZN14HardwareSerial5beginEm
pinMode
